Archive member included to satisfy reference by file (symbol)

/home/stoffer/esp8266/esp-open-sdk/sdk/lib/libmain.a(debug-vector.o)
                              (_DebugExceptionVector)
/home/stoffer/esp8266/esp-open-sdk/sdk/lib/libmain.a(double-vector.o)
                              (_DoubleExceptionVector)
/home/stoffer/esp8266/esp-open-sdk/sdk/lib/libmain.a(kernel-vector.o)
                              (_KernelExceptionVector)
/home/stoffer/esp8266/esp-open-sdk/sdk/lib/libmain.a(nmi-vector.o)
                              (_NMIExceptionVector)
/home/stoffer/esp8266/esp-open-sdk/sdk/lib/libmain.a(user-vector.o)
                              (_UserExceptionVector)
/home/stoffer/esp8266/esp-open-sdk/sdk/lib/libmain.a(vector.o)
                              (call_user_start)
/home/stoffer/esp8266/esp-open-sdk/sdk/lib/libmain.a(app_main.o)
                              /home/stoffer/esp8266/esp-open-sdk/sdk/lib/libmain.a(nmi-vector.o) (NMI_Handler)
/home/stoffer/esp8266/esp-open-sdk/sdk/lib/libmain.a(ets_timer.o)
                              /home/stoffer/esp8266/esp-open-sdk/sdk/lib/libmain.a(app_main.o) (ets_timer_setfn)
/home/stoffer/esp8266/esp-open-sdk/sdk/lib/libmain.a(mem_manager.o)
                              /home/stoffer/esp8266/esp-open-sdk/sdk/lib/libmain.a(app_main.o) (pvPortMalloc)
/home/stoffer/esp8266/esp-open-sdk/sdk/lib/libmain.a(spi_flash.o)
                              /home/stoffer/esp8266/esp-open-sdk/sdk/lib/libmain.a(app_main.o) (spi_flash_get_id)
/home/stoffer/esp8266/esp-open-sdk/sdk/lib/libmain.a(user_interface.o)
                              /home/stoffer/esp8266/esp-open-sdk/sdk/lib/libmain.a(app_main.o) (done_cb)
/home/stoffer/esp8266/esp-open-sdk/sdk/lib/libmain.a(eagle_lib.o)
                              /home/stoffer/esp8266/esp-open-sdk/sdk/lib/libmain.a(user_interface.o) (ets_sprintf)
/home/stoffer/esp8266/esp-open-sdk/sdk/lib/libmain.a(eagle_lwip_if.o)
                              /home/stoffer/esp8266/esp-open-sdk/sdk/lib/libmain.a(user_interface.o) (hostname)
build/app_app.a(user_main.o)  /home/stoffer/esp8266/esp-open-sdk/sdk/lib/libmain.a(app_main.o) (user_init)
build/app_app.a(captdns.o)    build/app_app.a(user_main.o) (captdnsInit)
build/app_app.a(led.o)        build/app_app.a(user_main.o) (led_init)
build/app_app.a(httpd_user_init.o)
                              build/app_app.a(user_main.o) (httpd_user_init)
build/app_app.a(httpd.o)      build/app_app.a(httpd_user_init.o) (cgiRedirect)
build/app_app.a(utils.o)      build/app_app.a(user_main.o) (decimal_number_length)
build/app_app.a(crypto.o)     build/app_app.a(user_main.o) (init_aes_hmac_combined)
build/app_app.a(sha256.o)     build/app_app.a(crypto.o) (sha256_raw)
build/app_app.a(aes.o)        build/app_app.a(crypto.o) (AES128_CBC_encrypt_buffer)
build/app_app.a(uart.o)       build/app_app.a(user_main.o) (uart_init)
build/app_app.a(ext_spi_flash.o)
                              build/app_app.a(user_main.o) (ext_spi_init)
build/app_app.a(gpio16.o)     build/app_app.a(user_main.o) (gpio16_output_conf)
build/app_app.a(spi.o)        build/app_app.a(ext_spi_flash.o) (spi_init_gpio)
build/app_app.a(mqtt.o)       build/app_app.a(user_main.o) (MQTT_Publish)
build/app_app.a(mqtt_msg.o)   build/app_app.a(mqtt.o) (mqtt_msg_init)
build/app_app.a(queue.o)      build/app_app.a(mqtt.o) (QUEUE_Init)
build/app_app.a(mqtt_utils.o)
                              build/app_app.a(mqtt.o) (UTILS_StrToIP)
build/app_app.a(proto.o)      build/app_app.a(queue.o) (PROTO_ParseRb)
build/app_app.a(config.o)     build/app_app.a(user_main.o) (sys_cfg)
build/app_app.a(wifi.o)       build/app_app.a(user_main.o) (wifi_connect)
build/app_app.a(cgiwifi.o)    build/app_app.a(httpd_user_init.o) (cgiWiFiScan)
build/app_app.a(tinyprintf.o)
                              build/app_app.a(user_main.o) (tfp_snprintf)
build/app_app.a(unix_time.o)  build/app_app.a(user_main.o) (init_unix_time)
build/app_app.a(cgi.o)        build/app_app.a(httpd_user_init.o) (cgiLed)
build/app_app.a(httpdespfs.o)
                              build/app_app.a(httpd_user_init.o) (cgiEspFsHook)
build/app_app.a(espfs.o)      build/app_app.a(httpdespfs.o) (espFsOpen)
build/app_app.a(heatshrink_decoder.o)
                              build/app_app.a(espfs.o) (heatshrink_decoder_free)
build/app_app.a(hmac-sha256.o)
                              build/app_app.a(crypto.o) (hmac_sha256_init)
build/app_app.a(ringbuf.o)    build/app_app.a(queue.o) (RINGBUF_Init)
/home/stoffer/esp8266/esp-open-sdk/xtensa-lx106-elf/lib/gcc/xtensa-lx106-elf/4.8.5/../../../../xtensa-lx106-elf/lib/libc.a(lib_a-atoi.o)
                              build/app_app.a(user_main.o) (atoi)
/home/stoffer/esp8266/esp-open-sdk/xtensa-lx106-elf/lib/gcc/xtensa-lx106-elf/4.8.5/../../../../xtensa-lx106-elf/lib/libc.a(lib_a-memcpy.o)
                              build/app_app.a(mqtt_msg.o) (memcpy)
/home/stoffer/esp8266/esp-open-sdk/xtensa-lx106-elf/lib/gcc/xtensa-lx106-elf/4.8.5/../../../../xtensa-lx106-elf/lib/libc.a(lib_a-memset.o)
                              build/app_app.a(mqtt_msg.o) (memset)
/home/stoffer/esp8266/esp-open-sdk/xtensa-lx106-elf/lib/gcc/xtensa-lx106-elf/4.8.5/../../../../xtensa-lx106-elf/lib/libc.a(lib_a-strlen.o)
                              build/app_app.a(user_main.o) (strlen)
/home/stoffer/esp8266/esp-open-sdk/xtensa-lx106-elf/lib/gcc/xtensa-lx106-elf/4.8.5/../../../../xtensa-lx106-elf/lib/libc.a(lib_a-strtok.o)
                              build/app_app.a(user_main.o) (strtok)
/home/stoffer/esp8266/esp-open-sdk/xtensa-lx106-elf/lib/gcc/xtensa-lx106-elf/4.8.5/../../../../xtensa-lx106-elf/lib/libc.a(lib_a-strtok_r.o)
                              /home/stoffer/esp8266/esp-open-sdk/xtensa-lx106-elf/lib/gcc/xtensa-lx106-elf/4.8.5/../../../../xtensa-lx106-elf/lib/libc.a(lib_a-strtok.o) (__strtok_r)
/home/stoffer/esp8266/esp-open-sdk/xtensa-lx106-elf/lib/gcc/xtensa-lx106-elf/4.8.5/../../../../xtensa-lx106-elf/lib/libc.a(lib_a-strtol.o)
                              /home/stoffer/esp8266/esp-open-sdk/xtensa-lx106-elf/lib/gcc/xtensa-lx106-elf/4.8.5/../../../../xtensa-lx106-elf/lib/libc.a(lib_a-atoi.o) (_strtol_r)
/home/stoffer/esp8266/esp-open-sdk/xtensa-lx106-elf/lib/gcc/xtensa-lx106-elf/4.8.5/../../../../xtensa-lx106-elf/lib/libc.a(lib_a-ctype_.o)
                              /home/stoffer/esp8266/esp-open-sdk/xtensa-lx106-elf/lib/gcc/xtensa-lx106-elf/4.8.5/../../../../xtensa-lx106-elf/lib/libc.a(lib_a-strtol.o) (__ctype_ptr__)
/home/stoffer/esp8266/esp-open-sdk/xtensa-lx106-elf/lib/gcc/xtensa-lx106-elf/4.8.5/../../../../xtensa-lx106-elf/lib/libc.a(lib_a-impure.o)
                              /home/stoffer/esp8266/esp-open-sdk/xtensa-lx106-elf/lib/gcc/xtensa-lx106-elf/4.8.5/../../../../xtensa-lx106-elf/lib/libc.a(lib_a-strtok.o) (_impure_ptr)
/home/stoffer/esp8266/esp-open-sdk/xtensa-lx106-elf/xtensa-lx106-elf/sysroot/usr/lib/libhal.a(int_asm--set_intclear.o)
                              /home/stoffer/esp8266/esp-open-sdk/sdk/lib/libmain.a(app_main.o) (xthal_set_intclear)
/home/stoffer/esp8266/esp-open-sdk/sdk/lib/libphy.a(phy.o)
                              /home/stoffer/esp8266/esp-open-sdk/sdk/lib/libmain.a(app_main.o) (phy_enable_agc)
/home/stoffer/esp8266/esp-open-sdk/sdk/lib/libphy.a(phy_chip_v6_ana.o)
                              /home/stoffer/esp8266/esp-open-sdk/sdk/lib/libmain.a(app_main.o) (chip_v6_set_chan_offset)
/home/stoffer/esp8266/esp-open-sdk/sdk/lib/libphy.a(phy_chip_v6.o)
                              /home/stoffer/esp8266/esp-open-sdk/sdk/lib/libphy.a(phy_chip_v6_ana.o) (g_phyFuns)
/home/stoffer/esp8266/esp-open-sdk/sdk/lib/libphy.a(phy_chip_v6_cal.o)
                              /home/stoffer/esp8266/esp-open-sdk/sdk/lib/libphy.a(phy_chip_v6.o) (phy_tx_pwr_error)
/home/stoffer/esp8266/esp-open-sdk/sdk/lib/libphy.a(phy_chip_v6_unused.o)
                              /home/stoffer/esp8266/esp-open-sdk/sdk/lib/libphy.a(phy_chip_v6.o) (chip_v6_set_sense)
/home/stoffer/esp8266/esp-open-sdk/sdk/lib/libphy.a(phy_sleep.o)
                              /home/stoffer/esp8266/esp-open-sdk/sdk/lib/libphy.a(phy_chip_v6.o) (pm_set_sleep_cycles)
/home/stoffer/esp8266/esp-open-sdk/sdk/lib/libpp.a(if_hwctrl.o)
                              /home/stoffer/esp8266/esp-open-sdk/sdk/lib/libmain.a(user_interface.o) (ic_set_vif)
/home/stoffer/esp8266/esp-open-sdk/sdk/lib/libpp.a(lmac.o)
                              /home/stoffer/esp8266/esp-open-sdk/sdk/lib/libmain.a(app_main.o) (lmacInit)
/home/stoffer/esp8266/esp-open-sdk/sdk/lib/libpp.a(pm.o)
                              /home/stoffer/esp8266/esp-open-sdk/sdk/lib/libmain.a(user_interface.o) (pm_rtc_clock_cali_proc)
/home/stoffer/esp8266/esp-open-sdk/sdk/lib/libpp.a(pm_for_bcn_only_mode.o)
                              /home/stoffer/esp8266/esp-open-sdk/sdk/lib/libpp.a(pm.o) (fpm_is_open)
/home/stoffer/esp8266/esp-open-sdk/sdk/lib/libpp.a(pp.o)
                              /home/stoffer/esp8266/esp-open-sdk/sdk/lib/libpp.a(pm.o) (pend_flag_noise_check)
/home/stoffer/esp8266/esp-open-sdk/sdk/lib/libpp.a(rate_control.o)
                              /home/stoffer/esp8266/esp-open-sdk/sdk/lib/libpp.a(lmac.o) (RC_SetBasicRate)
/home/stoffer/esp8266/esp-open-sdk/sdk/lib/libpp.a(trc.o)
                              /home/stoffer/esp8266/esp-open-sdk/sdk/lib/libmain.a(user_interface.o) (rc_set_rate_limit_id)
/home/stoffer/esp8266/esp-open-sdk/sdk/lib/libpp.a(wdev.o)
                              /home/stoffer/esp8266/esp-open-sdk/sdk/lib/libpp.a(pp.o) (wDevCtrl)
/home/stoffer/esp8266/esp-open-sdk/sdk/lib/libpp.a(esf_buf.o)
                              /home/stoffer/esp8266/esp-open-sdk/sdk/lib/libpp.a(wdev.o) (esf_rx_buf_alloc)
/home/stoffer/esp8266/esp-open-sdk/sdk/lib/libnet80211.a(ieee80211.o)
                              /home/stoffer/esp8266/esp-open-sdk/sdk/lib/libmain.a(app_main.o) (g_ic)
/home/stoffer/esp8266/esp-open-sdk/sdk/lib/libnet80211.a(ieee80211_crypto.o)
                              /home/stoffer/esp8266/esp-open-sdk/sdk/lib/libnet80211.a(ieee80211.o) (ieee80211_crypto_attach)
/home/stoffer/esp8266/esp-open-sdk/sdk/lib/libnet80211.a(ieee80211_ets.o)
                              /home/stoffer/esp8266/esp-open-sdk/sdk/lib/libpp.a(pm.o) (ieee80211_getmgtframe)
/home/stoffer/esp8266/esp-open-sdk/sdk/lib/libnet80211.a(ieee80211_hostap.o)
                              /home/stoffer/esp8266/esp-open-sdk/sdk/lib/libmain.a(user_interface.o) (BcnEb_update)
/home/stoffer/esp8266/esp-open-sdk/sdk/lib/libnet80211.a(ieee80211_ht.o)
                              /home/stoffer/esp8266/esp-open-sdk/sdk/lib/libmain.a(user_interface.o) (ieee80211_ht_attach)
/home/stoffer/esp8266/esp-open-sdk/sdk/lib/libnet80211.a(ieee80211_input.o)
                              /home/stoffer/esp8266/esp-open-sdk/sdk/lib/libnet80211.a(ieee80211_hostap.o) (ieee80211_decap)
/home/stoffer/esp8266/esp-open-sdk/sdk/lib/libnet80211.a(ieee80211_mesh_quick.o)
                              /home/stoffer/esp8266/esp-open-sdk/sdk/lib/libnet80211.a(ieee80211_hostap.o) (ieee80211_mesh_quick_get)
/home/stoffer/esp8266/esp-open-sdk/sdk/lib/libnet80211.a(ieee80211_output.o)
                              /home/stoffer/esp8266/esp-open-sdk/sdk/lib/libmain.a(eagle_lwip_if.o) (ieee80211_output_pbuf)
/home/stoffer/esp8266/esp-open-sdk/sdk/lib/libnet80211.a(ieee80211_phy.o)
                              /home/stoffer/esp8266/esp-open-sdk/sdk/lib/libmain.a(app_main.o) (ieee80211_phy_init)
/home/stoffer/esp8266/esp-open-sdk/sdk/lib/libnet80211.a(ieee80211_power.o)
                              /home/stoffer/esp8266/esp-open-sdk/sdk/lib/libnet80211.a(ieee80211_hostap.o) (ieee80211_psq_init)
/home/stoffer/esp8266/esp-open-sdk/sdk/lib/libnet80211.a(ieee80211_proto.o)
                              /home/stoffer/esp8266/esp-open-sdk/sdk/lib/libnet80211.a(ieee80211.o) (ieee80211_proto_attach)
/home/stoffer/esp8266/esp-open-sdk/sdk/lib/libnet80211.a(ieee80211_rfid.o)
                              /home/stoffer/esp8266/esp-open-sdk/sdk/lib/libmain.a(user_interface.o) (ieee80211_rfid_locp_recv_open)
/home/stoffer/esp8266/esp-open-sdk/sdk/lib/libnet80211.a(ieee80211_scan.o)
                              /home/stoffer/esp8266/esp-open-sdk/sdk/lib/libpp.a(pp.o) (gScanStruct)
/home/stoffer/esp8266/esp-open-sdk/sdk/lib/libnet80211.a(ieee80211_sta.o)
                              /home/stoffer/esp8266/esp-open-sdk/sdk/lib/libmain.a(user_interface.o) (ieee80211_sta_new_state)
/home/stoffer/esp8266/esp-open-sdk/sdk/lib/libnet80211.a(wl_chm.o)
                              /home/stoffer/esp8266/esp-open-sdk/sdk/lib/libnet80211.a(ieee80211.o) (chm_init)
/home/stoffer/esp8266/esp-open-sdk/sdk/lib/libnet80211.a(wl_cnx.o)
                              /home/stoffer/esp8266/esp-open-sdk/sdk/lib/libmain.a(user_interface.o) (sta_con_timer)
/home/stoffer/esp8266/esp-open-sdk/sdk/lib/libnet80211.a(ieee80211_action.o)
                              /home/stoffer/esp8266/esp-open-sdk/sdk/lib/libnet80211.a(ieee80211_ht.o) (ieee80211_send_action_register)
/home/stoffer/esp8266/esp-open-sdk/sdk/lib/libnet80211.a(ieee80211_action_vendor.o)
                              /home/stoffer/esp8266/esp-open-sdk/sdk/lib/libnet80211.a(ieee80211.o) (ieee80211_action_vendor_spec_attach)
/home/stoffer/esp8266/esp-open-sdk/sdk/lib/libnet80211.a(ieee80211_crypto_ccmp.o)
                              /home/stoffer/esp8266/esp-open-sdk/sdk/lib/libnet80211.a(ieee80211_input.o) (ccmp)
/home/stoffer/esp8266/esp-open-sdk/sdk/lib/libnet80211.a(ieee80211_ie_vendor.o)
                              /home/stoffer/esp8266/esp-open-sdk/sdk/lib/libnet80211.a(ieee80211_mesh_quick.o) (ieee80211_add_ie_vendor_esp_mesh_assoc)
/home/stoffer/esp8266/esp-open-sdk/sdk/lib/liblwip.a(dhcp.o)
                              /home/stoffer/esp8266/esp-open-sdk/sdk/lib/libnet80211.a(wl_cnx.o) (dhcp_release)
/home/stoffer/esp8266/esp-open-sdk/sdk/lib/liblwip.a(dhcpserver.o)
                              /home/stoffer/esp8266/esp-open-sdk/sdk/lib/libmain.a(user_interface.o) (dhcps_start)
/home/stoffer/esp8266/esp-open-sdk/sdk/lib/liblwip.a(dns.o)
                              /home/stoffer/esp8266/esp-open-sdk/sdk/lib/liblwip.a(dhcp.o) (dns_setserver)
/home/stoffer/esp8266/esp-open-sdk/sdk/lib/liblwip.a(espconn.o)
                              build/app_app.a(mqtt.o) (espconn_connect)
/home/stoffer/esp8266/esp-open-sdk/sdk/lib/liblwip.a(espconn_tcp.o)
                              /home/stoffer/esp8266/esp-open-sdk/sdk/lib/liblwip.a(espconn.o) (espconn_tcp_disconnect)
/home/stoffer/esp8266/esp-open-sdk/sdk/lib/liblwip.a(espconn_udp.o)
                              /home/stoffer/esp8266/esp-open-sdk/sdk/lib/liblwip.a(espconn.o) (espconn_udp_sent)
/home/stoffer/esp8266/esp-open-sdk/sdk/lib/liblwip.a(etharp.o)
                              /home/stoffer/esp8266/esp-open-sdk/sdk/lib/libmain.a(user_interface.o) (ethbroadcast)
/home/stoffer/esp8266/esp-open-sdk/sdk/lib/liblwip.a(igmp.o)
                              /home/stoffer/esp8266/esp-open-sdk/sdk/lib/liblwip.a(espconn_udp.o) (igmp_joingroup)
/home/stoffer/esp8266/esp-open-sdk/sdk/lib/liblwip.a(inet_chksum.o)
                              /home/stoffer/esp8266/esp-open-sdk/sdk/lib/liblwip.a(igmp.o) (inet_chksum)
/home/stoffer/esp8266/esp-open-sdk/sdk/lib/liblwip.a(init.o)
                              /home/stoffer/esp8266/esp-open-sdk/sdk/lib/libmain.a(app_main.o) (lwip_init)
/home/stoffer/esp8266/esp-open-sdk/sdk/lib/liblwip.a(ip_addr.o)
                              /home/stoffer/esp8266/esp-open-sdk/sdk/lib/liblwip.a(dhcp.o) (ip_addr_any)
/home/stoffer/esp8266/esp-open-sdk/sdk/lib/liblwip.a(ip.o)
                              /home/stoffer/esp8266/esp-open-sdk/sdk/lib/liblwip.a(etharp.o) (ip_input)
/home/stoffer/esp8266/esp-open-sdk/sdk/lib/liblwip.a(memp.o)
                              /home/stoffer/esp8266/esp-open-sdk/sdk/lib/liblwip.a(etharp.o) (memp_sizes)
/home/stoffer/esp8266/esp-open-sdk/sdk/lib/liblwip.a(netif.o)
                              /home/stoffer/esp8266/esp-open-sdk/sdk/lib/liblwip.a(dhcp.o) (netif_list)
/home/stoffer/esp8266/esp-open-sdk/sdk/lib/liblwip.a(pbuf.o)
                              /home/stoffer/esp8266/esp-open-sdk/sdk/lib/libnet80211.a(ieee80211_hostap.o) (pbuf_alloc)
/home/stoffer/esp8266/esp-open-sdk/sdk/lib/liblwip.a(raw.o)
                              /home/stoffer/esp8266/esp-open-sdk/sdk/lib/liblwip.a(ip.o) (raw_input)
/home/stoffer/esp8266/esp-open-sdk/sdk/lib/liblwip.a(sntp.o)
                              build/app_app.a(unix_time.o) (sntp_get_current_timestamp)
/home/stoffer/esp8266/esp-open-sdk/sdk/lib/liblwip.a(tcp_in.o)
                              /home/stoffer/esp8266/esp-open-sdk/sdk/lib/liblwip.a(ip.o) (tcp_input)
/home/stoffer/esp8266/esp-open-sdk/sdk/lib/liblwip.a(tcp.o)
                              /home/stoffer/esp8266/esp-open-sdk/sdk/lib/liblwip.a(espconn_tcp.o) (tcp_active_pcbs)
/home/stoffer/esp8266/esp-open-sdk/sdk/lib/liblwip.a(tcp_out.o)
                              /home/stoffer/esp8266/esp-open-sdk/sdk/lib/liblwip.a(tcp.o) (tcp_send_fin)
/home/stoffer/esp8266/esp-open-sdk/sdk/lib/liblwip.a(timers.o)
                              /home/stoffer/esp8266/esp-open-sdk/sdk/lib/liblwip.a(sntp.o) (sys_timeout)
/home/stoffer/esp8266/esp-open-sdk/sdk/lib/liblwip.a(udp.o)
                              /home/stoffer/esp8266/esp-open-sdk/sdk/lib/liblwip.a(ip.o) (udp_input)
/home/stoffer/esp8266/esp-open-sdk/sdk/lib/liblwip.a(icmp.o)
                              /home/stoffer/esp8266/esp-open-sdk/sdk/lib/liblwip.a(ip.o) (icmp_input)
/home/stoffer/esp8266/esp-open-sdk/sdk/lib/libwpa.a(ap_config.o)
                              /home/stoffer/esp8266/esp-open-sdk/sdk/lib/libnet80211.a(ieee80211_hostap.o) (hostapd_setup_wpa_psk)
/home/stoffer/esp8266/esp-open-sdk/sdk/lib/libwpa.a(common.o)
                              /home/stoffer/esp8266/esp-open-sdk/sdk/lib/libmain.a(user_interface.o) (hexstr2bin)
/home/stoffer/esp8266/esp-open-sdk/sdk/lib/libwpa.a(os_xtensa.o)
                              /home/stoffer/esp8266/esp-open-sdk/sdk/lib/libwpa.a(common.o) (os_get_time)
/home/stoffer/esp8266/esp-open-sdk/sdk/lib/libwpa.a(wpa_auth.o)
                              /home/stoffer/esp8266/esp-open-sdk/sdk/lib/libnet80211.a(ieee80211_hostap.o) (wpa_init)
/home/stoffer/esp8266/esp-open-sdk/sdk/lib/libwpa.a(wpa_auth_ie.o)
                              /home/stoffer/esp8266/esp-open-sdk/sdk/lib/libwpa.a(wpa_auth.o) (wpa_auth_gen_wpa_ie)
/home/stoffer/esp8266/esp-open-sdk/sdk/lib/libwpa.a(wpa.o)
                              /home/stoffer/esp8266/esp-open-sdk/sdk/lib/libnet80211.a(ieee80211_sta.o) (wpa_sm_rx_eapol)
/home/stoffer/esp8266/esp-open-sdk/sdk/lib/libwpa.a(wpa_common.o)
                              /home/stoffer/esp8266/esp-open-sdk/sdk/lib/libwpa.a(wpa_auth_ie.o) (wpa_parse_wpa_ie_rsn)
/home/stoffer/esp8266/esp-open-sdk/sdk/lib/libwpa.a(wpa_debug.o)
                              /home/stoffer/esp8266/esp-open-sdk/sdk/lib/libwpa.a(wpa_auth.o) (eloop_cancel_timeout)
/home/stoffer/esp8266/esp-open-sdk/sdk/lib/libwpa.a(wpa_ie.o)
                              /home/stoffer/esp8266/esp-open-sdk/sdk/lib/libnet80211.a(ieee80211_scan.o) (wpa_parse_wpa_ie)
/home/stoffer/esp8266/esp-open-sdk/sdk/lib/libwpa.a(wpa_main.o)
                              /home/stoffer/esp8266/esp-open-sdk/sdk/lib/libnet80211.a(wl_cnx.o) (ppInstallKey)
/home/stoffer/esp8266/esp-open-sdk/sdk/lib/libwpa.a(wpas_glue.o)
                              /home/stoffer/esp8266/esp-open-sdk/sdk/lib/libwpa.a(wpa.o) (wpa_sm_alloc_eapol)
/home/stoffer/esp8266/esp-open-sdk/sdk/lib/libwpa.a(aes-wrap.o)
                              /home/stoffer/esp8266/esp-open-sdk/sdk/lib/libwpa.a(wpa_auth.o) (aes_wrap)
/home/stoffer/esp8266/esp-open-sdk/sdk/lib/libwpa.a(aes-internal-enc.o)
                              /home/stoffer/esp8266/esp-open-sdk/sdk/lib/libwpa.a(aes-wrap.o) (aes_encrypt_init)
/home/stoffer/esp8266/esp-open-sdk/sdk/lib/libwpa.a(aes-internal.o)
                              /home/stoffer/esp8266/esp-open-sdk/sdk/lib/libwpa.a(aes-internal-enc.o) (rijndaelKeySetupEnc)
/home/stoffer/esp8266/esp-open-sdk/sdk/lib/libgcc.a(_modsi3.o)
                              /home/stoffer/esp8266/esp-open-sdk/sdk/lib/libphy.a(phy_chip_v6.o) (__modsi3)
/home/stoffer/esp8266/esp-open-sdk/sdk/lib/libgcc.a(_ashrdi3.o)
                              /home/stoffer/esp8266/esp-open-sdk/sdk/lib/libphy.a(phy_chip_v6.o) (__ashrdi3)
/home/stoffer/esp8266/esp-open-sdk/sdk/lib/libgcc.a(_mulsf3.o)
                              /home/stoffer/esp8266/esp-open-sdk/sdk/lib/libphy.a(phy_chip_v6_ana.o) (__mulsf3)
/home/stoffer/esp8266/esp-open-sdk/sdk/lib/libgcc.a(_divsf3.o)
                              /home/stoffer/esp8266/esp-open-sdk/sdk/lib/libphy.a(phy_chip_v6_ana.o) (__divsf3)
/home/stoffer/esp8266/esp-open-sdk/sdk/lib/libgcc.a(_fixsfsi.o)
                              /home/stoffer/esp8266/esp-open-sdk/sdk/lib/libphy.a(phy_chip_v6.o) (__fixsfsi)
/home/stoffer/esp8266/esp-open-sdk/sdk/lib/libnet80211.a(ieee80211_crypto_tkip.o)
                              /home/stoffer/esp8266/esp-open-sdk/sdk/lib/libwpa.a(wpa_auth.o) (tkip)
/home/stoffer/esp8266/esp-open-sdk/sdk/lib/libnet80211.a(ieee80211_crypto_wep.o)
                              /home/stoffer/esp8266/esp-open-sdk/sdk/lib/libwpa.a(wpa_auth.o) (wep)

Allocating common symbols
Common symbol       size              file

default_private_key
                    0x4               build/app_app.a(mqtt.o)
impulses_per_kwh    0x4               build/app_app.a(user_main.o)
sys_cfg             0x188             build/app_app.a(config.o)
mqtt_client         0xd0              build/app_app.a(user_main.o)
last_impulse_meter_count
                    0x4               build/app_app.a(user_main.o)
impulse_rising_edge_time
                    0x4               build/app_app.a(user_main.o)
current_unix_time   0x4               build/app_app.a(unix_time.o)
default_certificate
                    0x4               build/app_app.a(mqtt.o)
config_ssid         0x4               build/app_app.a(wifi.o)
cgiWifiAps          0xc               build/app_app.a(cgiwifi.o)
current_energy      0x4               build/app_app.a(user_main.o)
hmac_sha256_key     0x10              build/app_app.a(crypto.o)
last_impulse_time   0x4               build/app_app.a(user_main.o)
impulse_time        0x4               build/app_app.a(user_main.o)
rtc_info            0x4               build/app_app.a(user_main.o)
config_pass         0x4               build/app_app.a(wifi.o)
aes_key             0x10              build/app_app.a(crypto.o)
impulse_falling_edge_time
                    0x4               build/app_app.a(user_main.o)
config_save_timer_running
                    0x1               build/app_app.a(config.o)
boot_time           0x8               build/app_app.a(unix_time.o)
kmp_received_task_queue
                    0x200             build/app_app.a(uart.o)
impulse_meter_energy
                    0x4               build/app_app.a(user_main.o)
sha256_hash         0x20              build/app_app.a(crypto.o)
mqtt_procTaskQueue  0x8               build/app_app.a(mqtt.o)
saveFlag            0x4               build/app_app.a(config.o)

Memory Configuration

Name             Origin             Length             Attributes
dport0_0_seg     0x000000003ff00000 0x0000000000000010
dram0_0_seg      0x000000003ffe8000 0x0000000000014000
iram1_0_seg      0x0000000040100000 0x0000000000008000
irom0_0_seg      0x0000000040240000 0x000000000003c000
*default*        0x0000000000000000 0xffffffffffffffff

Linker script and memory map

START GROUP
LOAD /home/stoffer/esp8266/esp-open-sdk/xtensa-lx106-elf/lib/gcc/xtensa-lx106-elf/4.8.5/../../../../xtensa-lx106-elf/lib/libc.a
LOAD /home/stoffer/esp8266/esp-open-sdk/sdk/lib/libgcc.a
LOAD /home/stoffer/esp8266/esp-open-sdk/xtensa-lx106-elf/xtensa-lx106-elf/sysroot/usr/lib/libhal.a
LOAD /home/stoffer/esp8266/esp-open-sdk/sdk/lib/libphy.a
LOAD /home/stoffer/esp8266/esp-open-sdk/sdk/lib/libpp.a
LOAD /home/stoffer/esp8266/esp-open-sdk/sdk/lib/libnet80211.a
LOAD /home/stoffer/esp8266/esp-open-sdk/sdk/lib/liblwip.a
LOAD /home/stoffer/esp8266/esp-open-sdk/sdk/lib/libwpa.a
LOAD /home/stoffer/esp8266/esp-open-sdk/sdk/lib/libmain.a
LOAD /home/stoffer/esp8266/esp-open-sdk/sdk/lib/libssl.a
LOAD /home/stoffer/esp8266/esp-open-sdk/xtensa-lx106-elf/lib/gcc/xtensa-lx106-elf/4.8.5/../../../../xtensa-lx106-elf/lib/libc.a
LOAD /home/stoffer/esp8266/esp-open-sdk/sdk/lib/libgcc.a
LOAD build/app_app.a
END GROUP
                [!provide]                        PROVIDE (_memmap_vecbase_reset, 0x40000000)
                0x0000000000000110                _memmap_cacheattr_wb_base = 0x110
                0x0000000000000110                _memmap_cacheattr_wt_base = 0x110
                0x0000000000000220                _memmap_cacheattr_bp_base = 0x220
                0x00000000fffff00f                _memmap_cacheattr_unused_mask = 0xfffff00f
                0x000000002222211f                _memmap_cacheattr_wb_trapnull = 0x2222211f
                0x000000002222211f                _memmap_cacheattr_wba_trapnull = 0x2222211f
                0x000000002222211f                _memmap_cacheattr_wbna_trapnull = 0x2222211f
                0x000000002222211f                _memmap_cacheattr_wt_trapnull = 0x2222211f
                0x000000002222222f                _memmap_cacheattr_bp_trapnull = 0x2222222f
                0x00000000fffff11f                _memmap_cacheattr_wb_strict = 0xfffff11f
                0x00000000fffff11f                _memmap_cacheattr_wt_strict = 0xfffff11f
                0x00000000fffff22f                _memmap_cacheattr_bp_strict = 0xfffff22f
                0x0000000022222112                _memmap_cacheattr_wb_allvalid = 0x22222112
                0x0000000022222112                _memmap_cacheattr_wt_allvalid = 0x22222112
                0x0000000022222222                _memmap_cacheattr_bp_allvalid = 0x22222222
                [!provide]                        PROVIDE (_memmap_cacheattr_reset, _memmap_cacheattr_wb_trapnull)

.dport0.rodata  0x000000003ff00000        0x0
                0x000000003ff00000                _dport0_rodata_start = ABSOLUTE (.)
 *(.dport0.rodata)
 *(.dport.rodata)
                0x000000003ff00000                _dport0_rodata_end = ABSOLUTE (.)

.dport0.literal
                0x000000003ff00000        0x0
                0x000000003ff00000                _dport0_literal_start = ABSOLUTE (.)
 *(.dport0.literal)
 *(.dport.literal)
                0x000000003ff00000                _dport0_literal_end = ABSOLUTE (.)

.dport0.data    0x000000003ff00000        0x0
                0x000000003ff00000                _dport0_data_start = ABSOLUTE (.)
 *(.dport0.data)
 *(.dport.data)
                0x000000003ff00000                _dport0_data_end = ABSOLUTE (.)

.data           0x000000003ffe8000      0x848
                0x000000003ffe8000                _data_start = ABSOLUTE (.)
 *(.data)
 .data          0x000000003ffe8000        0x0 /home/stoffer/esp8266/esp-open-sdk/sdk/lib/libmain.a(debug-vector.o)
 .data          0x000000003ffe8000        0x0 /home/stoffer/esp8266/esp-open-sdk/sdk/lib/libmain.a(double-vector.o)
 .data          0x000000003ffe8000        0x0 /home/stoffer/esp8266/esp-open-sdk/sdk/lib/libmain.a(kernel-vector.o)
 .data          0x000000003ffe8000        0x4 /home/stoffer/esp8266/esp-open-sdk/sdk/lib/libmain.a(nmi-vector.o)
                0x000000003ffe8000                _Pri_3_HandlerAddress
 .data          0x000000003ffe8004        0x0 /home/stoffer/esp8266/esp-open-sdk/sdk/lib/libmain.a(user-vector.o)
 .data          0x000000003ffe8004        0x0 /home/stoffer/esp8266/esp-open-sdk/sdk/lib/libmain.a(vector.o)
 .data          0x000000003ffe8004        0x1 /home/stoffer/esp8266/esp-open-sdk/sdk/lib/libmain.a(app_main.o)
 .data          0x000000003ffe8005        0x0 /home/stoffer/esp8266/esp-open-sdk/sdk/lib/libmain.a(ets_timer.o)
 .data          0x000000003ffe8005        0x0 /home/stoffer/esp8266/esp-open-sdk/sdk/lib/libmain.a(mem_manager.o)
 .data          0x000000003ffe8005        0x0 /home/stoffer/esp8266/esp-open-sdk/sdk/lib/libmain.a(spi_flash.o)
 *fill*         0x000000003ffe8005        0x3 
 .data          0x000000003ffe8008        0x6 /home/stoffer/esp8266/esp-open-sdk/sdk/lib/libmain.a(user_interface.o)
                0x000000003ffe8009                timer2_ms_flag
                0x000000003ffe800a                dhcps_flag
                0x000000003ffe800b                dhcpc_flag
                0x000000003ffe800d                reconnect_internal
 .data          0x000000003ffe800e        0x0 /home/stoffer/esp8266/esp-open-sdk/sdk/lib/libmain.a(eagle_lib.o)
 *fill*         0x000000003ffe800e        0x2 
 .data          0x000000003ffe8010        0x1 /home/stoffer/esp8266/esp-open-sdk/sdk/lib/libmain.a(eagle_lwip_if.o)
                0x000000003ffe8010                default_hostname
 .data          0x000000003ffe8011        0x0 build/app_app.a(user_main.o)
 .data          0x000000003ffe8011        0x0 build/app_app.a(captdns.o)
 .data          0x000000003ffe8011        0x0 build/app_app.a(led.o)
 *fill*         0x000000003ffe8011        0x3 
 .data          0x000000003ffe8014       0x9c build/app_app.a(httpd_user_init.o)
                0x000000003ffe8014                builtInUrls
 .data          0x000000003ffe80b0        0x0 build/app_app.a(httpd.o)
 .data          0x000000003ffe80b0        0x0 build/app_app.a(utils.o)
 .data          0x000000003ffe80b0        0x0 build/app_app.a(crypto.o)
 .data          0x000000003ffe80b0        0x0 build/app_app.a(sha256.o)
 .data          0x000000003ffe80b0        0x0 build/app_app.a(aes.o)
 .data          0x000000003ffe80b0        0x0 build/app_app.a(uart.o)
 .data          0x000000003ffe80b0        0x0 build/app_app.a(ext_spi_flash.o)
 .data          0x000000003ffe80b0        0x0 build/app_app.a(gpio16.o)
 .data          0x000000003ffe80b0        0x0 build/app_app.a(spi.o)
 .data          0x000000003ffe80b0        0x0 build/app_app.a(mqtt.o)
 .data          0x000000003ffe80b0        0x0 build/app_app.a(mqtt_msg.o)
 .data          0x000000003ffe80b0        0x0 build/app_app.a(queue.o)
 .data          0x000000003ffe80b0        0x0 build/app_app.a(mqtt_utils.o)
 .data          0x000000003ffe80b0        0x0 build/app_app.a(proto.o)
 .data          0x000000003ffe80b0        0x0 build/app_app.a(config.o)
 .data          0x000000003ffe80b0        0x0 build/app_app.a(wifi.o)
 .data          0x000000003ffe80b0        0x0 build/app_app.a(cgiwifi.o)
 .data          0x000000003ffe80b0        0x0 build/app_app.a(tinyprintf.o)
 .data          0x000000003ffe80b0        0x0 build/app_app.a(unix_time.o)
 .data          0x000000003ffe80b0        0x0 build/app_app.a(cgi.o)
 .data          0x000000003ffe80b0        0x0 build/app_app.a(httpdespfs.o)
 .data          0x000000003ffe80b0        0x0 build/app_app.a(espfs.o)
 .data          0x000000003ffe80b0        0x0 build/app_app.a(heatshrink_decoder.o)
 .data          0x000000003ffe80b0        0x0 build/app_app.a(hmac-sha256.o)
 .data          0x000000003ffe80b0        0x0 build/app_app.a(ringbuf.o)
 .data          0x000000003ffe80b0        0x0 /home/stoffer/esp8266/esp-open-sdk/xtensa-lx106-elf/lib/gcc/xtensa-lx106-elf/4.8.5/../../../../xtensa-lx106-elf/lib/libc.a(lib_a-atoi.o)
 .data          0x000000003ffe80b0        0x0 /home/stoffer/esp8266/esp-open-sdk/xtensa-lx106-elf/lib/gcc/xtensa-lx106-elf/4.8.5/../../../../xtensa-lx106-elf/lib/libc.a(lib_a-memcpy.o)
 .data          0x000000003ffe80b0        0x0 /home/stoffer/esp8266/esp-open-sdk/xtensa-lx106-elf/lib/gcc/xtensa-lx106-elf/4.8.5/../../../../xtensa-lx106-elf/lib/libc.a(lib_a-memset.o)
 .data          0x000000003ffe80b0        0x0 /home/stoffer/esp8266/esp-open-sdk/xtensa-lx106-elf/lib/gcc/xtensa-lx106-elf/4.8.5/../../../../xtensa-lx106-elf/lib/libc.a(lib_a-strlen.o)
 .data          0x000000003ffe80b0        0x0 /home/stoffer/esp8266/esp-open-sdk/xtensa-lx106-elf/lib/gcc/xtensa-lx106-elf/4.8.5/../../../../xtensa-lx106-elf/lib/libc.a(lib_a-strtok.o)
 .data          0x000000003ffe80b0        0x0 /home/stoffer/esp8266/esp-open-sdk/xtensa-lx106-elf/lib/gcc/xtensa-lx106-elf/4.8.5/../../../../xtensa-lx106-elf/lib/libc.a(lib_a-strtok_r.o)
 .data          0x000000003ffe80b0        0x0 /home/stoffer/esp8266/esp-open-sdk/xtensa-lx106-elf/lib/gcc/xtensa-lx106-elf/4.8.5/../../../../xtensa-lx106-elf/lib/libc.a(lib_a-strtol.o)
 .data          0x000000003ffe80b0        0x4 /home/stoffer/esp8266/esp-open-sdk/xtensa-lx106-elf/lib/gcc/xtensa-lx106-elf/4.8.5/../../../../xtensa-lx106-elf/lib/libc.a(lib_a-ctype_.o)
                0x000000003ffe80b0                __ctype_ptr__
 *fill*         0x000000003ffe80b4        0x4 
 .data          0x000000003ffe80b8      0x430 /home/stoffer/esp8266/esp-open-sdk/xtensa-lx106-elf/lib/gcc/xtensa-lx106-elf/4.8.5/../../../../xtensa-lx106-elf/lib/libc.a(lib_a-impure.o)
                0x000000003ffe80b8                _impure_ptr
 .data          0x000000003ffe84e8        0x0 /home/stoffer/esp8266/esp-open-sdk/xtensa-lx106-elf/xtensa-lx106-elf/sysroot/usr/lib/libhal.a(int_asm--set_intclear.o)
 .data          0x000000003ffe84e8        0x0 /home/stoffer/esp8266/esp-open-sdk/sdk/lib/libphy.a(phy.o)
 .data          0x000000003ffe84e8        0x0 /home/stoffer/esp8266/esp-open-sdk/sdk/lib/libphy.a(phy_chip_v6_ana.o)
 *fill*         0x000000003ffe84e8        0x8 
 .data          0x000000003ffe84f0       0x53 /home/stoffer/esp8266/esp-open-sdk/sdk/lib/libphy.a(phy_chip_v6.o)
                0x000000003ffe84f2                tx_rf_ana_gain
                0x000000003ffe8520                rx_gain_swp
                0x000000003ffe8540                test_rffreq_txcap
 *fill*         0x000000003ffe8543        0x1 
 .data          0x000000003ffe8544        0x1 /home/stoffer/esp8266/esp-open-sdk/sdk/lib/libphy.a(phy_chip_v6_cal.o)
                0x000000003ffe8544                rfcal_bb_atten_init
 .data          0x000000003ffe8545        0x0 /home/stoffer/esp8266/esp-open-sdk/sdk/lib/libphy.a(phy_chip_v6_unused.o)
 *fill*         0x000000003ffe8545        0x3 
 .data          0x000000003ffe8548        0x4 /home/stoffer/esp8266/esp-open-sdk/sdk/lib/libphy.a(phy_sleep.o)
                0x000000003ffe8548                chip_version
 .data          0x000000003ffe854c        0x0 /home/stoffer/esp8266/esp-open-sdk/sdk/lib/libpp.a(if_hwctrl.o)
 .data          0x000000003ffe854c        0x0 /home/stoffer/esp8266/esp-open-sdk/sdk/lib/libpp.a(lmac.o)
 .data          0x000000003ffe854c        0x1 /home/stoffer/esp8266/esp-open-sdk/sdk/lib/libpp.a(pm.o)
 *fill*         0x000000003ffe854d        0x3 
 .data          0x000000003ffe8550        0x1 /home/stoffer/esp8266/esp-open-sdk/sdk/lib/libpp.a(pm_for_bcn_only_mode.o)
 *fill*         0x000000003ffe8551        0x3 
 .data          0x000000003ffe8554       0x1c /home/stoffer/esp8266/esp-open-sdk/sdk/lib/libpp.a(pp.o)
                0x000000003ffe8554                soft_wdt_interval
                0x000000003ffe8558                NoiseTimerInterval
                0x000000003ffe8560                sleep_start_wait_time
                0x000000003ffe8568                CanDoFreqCal
                0x000000003ffe856c                tcb
 .data          0x000000003ffe8570       0x40 /home/stoffer/esp8266/esp-open-sdk/sdk/lib/libpp.a(rate_control.o)
 .data          0x000000003ffe85b0      0x24c /home/stoffer/esp8266/esp-open-sdk/sdk/lib/libpp.a(trc.o)
 .data          0x000000003ffe87fc        0x8 /home/stoffer/esp8266/esp-open-sdk/sdk/lib/libpp.a(wdev.o)
 .data          0x000000003ffe8804        0x0 /home/stoffer/esp8266/esp-open-sdk/sdk/lib/libpp.a(esf_buf.o)
 .data          0x000000003ffe8804        0x0 /home/stoffer/esp8266/esp-open-sdk/sdk/lib/libnet80211.a(ieee80211.o)
 .data          0x000000003ffe8804        0x0 /home/stoffer/esp8266/esp-open-sdk/sdk/lib/libnet80211.a(ieee80211_crypto.o)
 .data          0x000000003ffe8804        0x0 /home/stoffer/esp8266/esp-open-sdk/sdk/lib/libnet80211.a(ieee80211_ets.o)
 .data          0x000000003ffe8804        0x1 /home/stoffer/esp8266/esp-open-sdk/sdk/lib/libnet80211.a(ieee80211_hostap.o)
                0x000000003ffe8804                TmpSTAAPCloseAP
 .data          0x000000003ffe8805        0x0 /home/stoffer/esp8266/esp-open-sdk/sdk/lib/libnet80211.a(ieee80211_ht.o)
 .data          0x000000003ffe8805        0x0 /home/stoffer/esp8266/esp-open-sdk/sdk/lib/libnet80211.a(ieee80211_input.o)
 .data          0x000000003ffe8805        0x0 /home/stoffer/esp8266/esp-open-sdk/sdk/lib/libnet80211.a(ieee80211_mesh_quick.o)
 .data          0x000000003ffe8805        0x0 /home/stoffer/esp8266/esp-open-sdk/sdk/lib/libnet80211.a(ieee80211_output.o)
 .data          0x000000003ffe8805        0x0 /home/stoffer/esp8266/esp-open-sdk/sdk/lib/libnet80211.a(ieee80211_phy.o)
 .data          0x000000003ffe8805        0x0 /home/stoffer/esp8266/esp-open-sdk/sdk/lib/libnet80211.a(ieee80211_power.o)
 .data          0x000000003ffe8805        0x0 /home/stoffer/esp8266/esp-open-sdk/sdk/lib/libnet80211.a(ieee80211_proto.o)
 .data          0x000000003ffe8805        0x0 /home/stoffer/esp8266/esp-open-sdk/sdk/lib/libnet80211.a(ieee80211_rfid.o)
 .data          0x000000003ffe8805        0x0 /home/stoffer/esp8266/esp-open-sdk/sdk/lib/libnet80211.a(ieee80211_scan.o)
 .data          0x000000003ffe8805        0x0 /home/stoffer/esp8266/esp-open-sdk/sdk/lib/libnet80211.a(ieee80211_sta.o)
 .data          0x000000003ffe8805        0x0 /home/stoffer/esp8266/esp-open-sdk/sdk/lib/libnet80211.a(wl_chm.o)
 *fill*         0x000000003ffe8805        0x3 
 .data          0x000000003ffe8808        0x1 /home/stoffer/esp8266/esp-open-sdk/sdk/lib/libnet80211.a(wl_cnx.o)
 *fill*         0x000000003ffe8809        0x7 
 .data          0x000000003ffe8810       0x1c /home/stoffer/esp8266/esp-open-sdk/sdk/lib/libnet80211.a(ieee80211_action.o)
 .data          0x000000003ffe882c        0x0 /home/stoffer/esp8266/esp-open-sdk/sdk/lib/libnet80211.a(ieee80211_action_vendor.o)
 .data          0x000000003ffe882c        0x0 /home/stoffer/esp8266/esp-open-sdk/sdk/lib/libnet80211.a(ieee80211_crypto_ccmp.o)
 .data          0x000000003ffe882c        0x0 /home/stoffer/esp8266/esp-open-sdk/sdk/lib/libnet80211.a(ieee80211_ie_vendor.o)
 .data          0x000000003ffe882c        0x4 /home/stoffer/esp8266/esp-open-sdk/sdk/lib/liblwip.a(dhcp.o)
 .data          0x000000003ffe8830        0x5 /home/stoffer/esp8266/esp-open-sdk/sdk/lib/liblwip.a(dhcpserver.o)
                0x000000003ffe8830                dhcps_lease_time
 .data          0x000000003ffe8835        0x0 /home/stoffer/esp8266/esp-open-sdk/sdk/lib/liblwip.a(dns.o)
 .data          0x000000003ffe8835        0x0 /home/stoffer/esp8266/esp-open-sdk/sdk/lib/liblwip.a(espconn.o)
 .data          0x000000003ffe8835        0x0 /home/stoffer/esp8266/esp-open-sdk/sdk/lib/liblwip.a(espconn_tcp.o)
 .data          0x000000003ffe8835        0x0 /home/stoffer/esp8266/esp-open-sdk/sdk/lib/liblwip.a(espconn_udp.o)
 .data          0x000000003ffe8835        0x0 /home/stoffer/esp8266/esp-open-sdk/sdk/lib/liblwip.a(etharp.o)
 .data          0x000000003ffe8835        0x0 /home/stoffer/esp8266/esp-open-sdk/sdk/lib/liblwip.a(igmp.o)
 .data          0x000000003ffe8835        0x0 /home/stoffer/esp8266/esp-open-sdk/sdk/lib/liblwip.a(inet_chksum.o)
 .data          0x000000003ffe8835        0x0 /home/stoffer/esp8266/esp-open-sdk/sdk/lib/liblwip.a(init.o)
 .data          0x000000003ffe8835        0x0 /home/stoffer/esp8266/esp-open-sdk/sdk/lib/liblwip.a(ip_addr.o)
 .data          0x000000003ffe8835        0x0 /home/stoffer/esp8266/esp-open-sdk/sdk/lib/liblwip.a(ip.o)
 *fill*         0x000000003ffe8835        0x3 
 .data          0x000000003ffe8838        0x2 /home/stoffer/esp8266/esp-open-sdk/sdk/lib/liblwip.a(memp.o)
                0x000000003ffe8838                memp_sizes_test
 .data          0x000000003ffe883a        0x0 /home/stoffer/esp8266/esp-open-sdk/sdk/lib/liblwip.a(netif.o)
 .data          0x000000003ffe883a        0x0 /home/stoffer/esp8266/esp-open-sdk/sdk/lib/liblwip.a(pbuf.o)
 .data          0x000000003ffe883a        0x0 /home/stoffer/esp8266/esp-open-sdk/sdk/lib/liblwip.a(raw.o)
 *fill*         0x000000003ffe883a        0x2 
 .data          0x000000003ffe883c        0x1 /home/stoffer/esp8266/esp-open-sdk/sdk/lib/liblwip.a(sntp.o)
                0x000000003ffe883c                time_zone
 .data          0x000000003ffe883d        0x0 /home/stoffer/esp8266/esp-open-sdk/sdk/lib/liblwip.a(tcp_in.o)
 *fill*         0x000000003ffe883d        0x3 
 .data          0x000000003ffe8840        0x8 /home/stoffer/esp8266/esp-open-sdk/sdk/lib/liblwip.a(tcp.o)
 .data          0x000000003ffe8848        0x0 /home/stoffer/esp8266/esp-open-sdk/sdk/lib/liblwip.a(tcp_out.o)
 .data          0x000000003ffe8848        0x0 /home/stoffer/esp8266/esp-open-sdk/sdk/lib/liblwip.a(timers.o)
 .data          0x000000003ffe8848        0x0 /home/stoffer/esp8266/esp-open-sdk/sdk/lib/liblwip.a(udp.o)
 .data          0x000000003ffe8848        0x0 /home/stoffer/esp8266/esp-open-sdk/sdk/lib/liblwip.a(icmp.o)
 .data          0x000000003ffe8848        0x0 /home/stoffer/esp8266/esp-open-sdk/sdk/lib/libwpa.a(ap_config.o)
 .data          0x000000003ffe8848        0x0 /home/stoffer/esp8266/esp-open-sdk/sdk/lib/libwpa.a(common.o)
 .data          0x000000003ffe8848        0x0 /home/stoffer/esp8266/esp-open-sdk/sdk/lib/libwpa.a(os_xtensa.o)
 .data          0x000000003ffe8848        0x0 /home/stoffer/esp8266/esp-open-sdk/sdk/lib/libwpa.a(wpa_auth.o)
 .data          0x000000003ffe8848        0x0 /home/stoffer/esp8266/esp-open-sdk/sdk/lib/libwpa.a(wpa_auth_ie.o)
 .data          0x000000003ffe8848        0x0 /home/stoffer/esp8266/esp-open-sdk/sdk/lib/libwpa.a(wpa.o)
 .data          0x000000003ffe8848        0x0 /home/stoffer/esp8266/esp-open-sdk/sdk/lib/libwpa.a(wpa_common.o)
 .data          0x000000003ffe8848        0x0 /home/stoffer/esp8266/esp-open-sdk/sdk/lib/libwpa.a(wpa_debug.o)
 .data          0x000000003ffe8848        0x0 /home/stoffer/esp8266/esp-open-sdk/sdk/lib/libwpa.a(wpa_ie.o)
 .data          0x000000003ffe8848        0x0 /home/stoffer/esp8266/esp-open-sdk/sdk/lib/libwpa.a(wpa_main.o)
 .data          0x000000003ffe8848        0x0 /home/stoffer/esp8266/esp-open-sdk/sdk/lib/libwpa.a(wpas_glue.o)
 .data          0x000000003ffe8848        0x0 /home/stoffer/esp8266/esp-open-sdk/sdk/lib/libwpa.a(aes-wrap.o)
 .data          0x000000003ffe8848        0x0 /home/stoffer/esp8266/esp-open-sdk/sdk/lib/libwpa.a(aes-internal-enc.o)
 .data          0x000000003ffe8848        0x0 /home/stoffer/esp8266/esp-open-sdk/sdk/lib/libwpa.a(aes-internal.o)
 .data          0x000000003ffe8848        0x0 /home/stoffer/esp8266/esp-open-sdk/sdk/lib/libgcc.a(_modsi3.o)
 .data          0x000000003ffe8848        0x0 /home/stoffer/esp8266/esp-open-sdk/sdk/lib/libgcc.a(_ashrdi3.o)
 .data          0x000000003ffe8848        0x0 /home/stoffer/esp8266/esp-open-sdk/sdk/lib/libgcc.a(_mulsf3.o)
 .data          0x000000003ffe8848        0x0 /home/stoffer/esp8266/esp-open-sdk/sdk/lib/libgcc.a(_divsf3.o)
 .data          0x000000003ffe8848        0x0 /home/stoffer/esp8266/esp-open-sdk/sdk/lib/libgcc.a(_fixsfsi.o)
 .data          0x000000003ffe8848        0x0 /home/stoffer/esp8266/esp-open-sdk/sdk/lib/libnet80211.a(ieee80211_crypto_tkip.o)
 .data          0x000000003ffe8848        0x0 /home/stoffer/esp8266/esp-open-sdk/sdk/lib/libnet80211.a(ieee80211_crypto_wep.o)
 *(.data.*)
 *(.gnu.linkonce.d.*)
 *(.data1)
 *(.sdata)
 *(.sdata.*)
 *(.gnu.linkonce.s.*)
 *(.sdata2)
 *(.sdata2.*)
 *(.gnu.linkonce.s2.*)
 *(.jcr)
                0x000000003ffe8848                _data_end = ABSOLUTE (.)

.rodata         0x000000003ffe8850     0x1104
                0x000000003ffe8850                _rodata_start = ABSOLUTE (.)
 *(.sdk.version)
 .sdk.version   0x000000003ffe8850       0x10 /home/stoffer/esp8266/esp-open-sdk/sdk/lib/libmain.a(app_main.o)
                0x000000003ffe8850                SDK_VERSION
 *(.rodata)
 .rodata        0x000000003ffe8860       0x48 build/app_app.a(httpd.o)
 .rodata        0x000000003ffe88a8      0x200 build/app_app.a(utils.o)
                0x000000003ffe88a8                ccit_crc16_table
 .rodata        0x000000003ffe8aa8      0x120 build/app_app.a(sha256.o)
 .rodata        0x000000003ffe8bc8      0x300 build/app_app.a(aes.o)
 .rodata        0x000000003ffe8ec8       0x48 build/app_app.a(mqtt.o)
 .rodata        0x000000003ffe8f10       0x10 build/app_app.a(config.o)
 .rodata        0x000000003ffe8f20       0x24 build/app_app.a(heatshrink_decoder.o)
 .rodata        0x000000003ffe8f44      0x101 /home/stoffer/esp8266/esp-open-sdk/xtensa-lx106-elf/lib/gcc/xtensa-lx106-elf/4.8.5/../../../../xtensa-lx106-elf/lib/libc.a(lib_a-ctype_.o)
                0x000000003ffe8f44                _ctype_
 *fill*         0x000000003ffe9045        0x3 
 .rodata        0x000000003ffe9048        0x4 /home/stoffer/esp8266/esp-open-sdk/xtensa-lx106-elf/lib/gcc/xtensa-lx106-elf/4.8.5/../../../../xtensa-lx106-elf/lib/libc.a(lib_a-impure.o)
                0x000000003ffe9048                _global_impure_ptr
 .rodata        0x000000003ffe904c        0x8 /home/stoffer/esp8266/esp-open-sdk/sdk/lib/libphy.a(phy_chip_v6_ana.o)
 .rodata        0x000000003ffe9054        0x8 /home/stoffer/esp8266/esp-open-sdk/sdk/lib/libphy.a(phy_chip_v6.o)
 .rodata        0x000000003ffe905c        0x4 /home/stoffer/esp8266/esp-open-sdk/sdk/lib/libpp.a(pp.o)
 .rodata        0x000000003ffe9060        0x8 /home/stoffer/esp8266/esp-open-sdk/sdk/lib/libnet80211.a(ieee80211_hostap.o)
 .rodata        0x000000003ffe9068        0x9 /home/stoffer/esp8266/esp-open-sdk/sdk/lib/libnet80211.a(ieee80211_output.o)
 *fill*         0x000000003ffe9071        0x3 
 .rodata        0x000000003ffe9074        0x6 /home/stoffer/esp8266/esp-open-sdk/sdk/lib/liblwip.a(etharp.o)
                0x000000003ffe9074                ethbroadcast
 *fill*         0x000000003ffe907a        0x6 
 .rodata        0x000000003ffe9080       0xc0 /home/stoffer/esp8266/esp-open-sdk/sdk/lib/liblwip.a(sntp.o)
 *(.rodata.*)
 .rodata.str1.4
                0x000000003ffe9140        0xc /home/stoffer/esp8266/esp-open-sdk/sdk/lib/libmain.a(app_main.o)
 .rodata.str1.4
                0x000000003ffe914c        0x4 /home/stoffer/esp8266/esp-open-sdk/sdk/lib/libmain.a(ets_timer.o)
                                          0xc (size before relaxing)
 .rodata.str1.4
                0x000000003ffe9150       0x1a /home/stoffer/esp8266/esp-open-sdk/sdk/lib/libmain.a(mem_manager.o)
 *fill*         0x000000003ffe916a        0x2 
 .rodata.str1.4
                0x000000003ffe916c      0x1bf build/app_app.a(user_main.o)
                                        0x1cf (size before relaxing)
 *fill*         0x000000003ffe932b        0x1 
 .rodata.str1.4
                0x000000003ffe932c       0x11 build/app_app.a(captdns.o)
 *fill*         0x000000003ffe933d        0x3 
 .rodata.str1.4
                0x000000003ffe9340       0xaa build/app_app.a(httpd_user_init.o)
                                         0xae (size before relaxing)
 *fill*         0x000000003ffe93ea        0x2 
 .rodata.str1.4
                0x000000003ffe93ec      0x17a build/app_app.a(httpd.o)
                                        0x186 (size before relaxing)
 *fill*         0x000000003ffe9566        0x2 
 .rodata.str1.4
                0x000000003ffe9568        0x8 build/app_app.a(utils.o)
                                          0xb (size before relaxing)
 .rodata.str1.4
                0x000000003ffe9570       0x11 build/app_app.a(sha256.o)
 .rodata.str1.4
                0x000000003ffe9581        0x1 build/app_app.a(mqtt.o)
 *fill*         0x000000003ffe9581        0x3 
 .rodata.str1.4
                0x000000003ffe9584        0x7 build/app_app.a(mqtt_msg.o)
 .rodata.str1.4
                0x000000003ffe958b        0x1 build/app_app.a(queue.o)
 *fill*         0x000000003ffe958b        0x1 
 .rodata.str1.4
                0x000000003ffe958c       0x54 build/app_app.a(config.o)
                                         0x60 (size before relaxing)
 .rodata.str1.4
                0x000000003ffe95e0       0x35 build/app_app.a(wifi.o)
                                         0x39 (size before relaxing)
 *fill*         0x000000003ffe9615        0x3 
 .rodata.str1.4
                0x000000003ffe9618      0x253 build/app_app.a(cgiwifi.o)
                                        0x263 (size before relaxing)
 *fill*         0x000000003ffe986b        0x1 
 .rodata.str1.4
                0x000000003ffe986c       0x20 build/app_app.a(unix_time.o)
 .rodata.str1.4
                0x000000003ffe988c       0x38 build/app_app.a(cgi.o)
                                         0x54 (size before relaxing)
 .rodata.str1.4
                0x000000003ffe98c4       0x32 build/app_app.a(httpdespfs.o)
                                         0x46 (size before relaxing)
 .rodata.str1.4
                0x000000003ffe98f6        0x1 build/app_app.a(espfs.o)
 .rodata.str1.4
                0x000000003ffe98f6        0x1 build/app_app.a(heatshrink_decoder.o)
 .rodata.str1.1
                0x000000003ffe98f6        0x2 /home/stoffer/esp8266/esp-open-sdk/xtensa-lx106-elf/lib/gcc/xtensa-lx106-elf/4.8.5/../../../../xtensa-lx106-elf/lib/libc.a(lib_a-impure.o)
 .rodata.str1.4
                0x000000003ffe98f8        0x4 /home/stoffer/esp8266/esp-open-sdk/sdk/lib/libpp.a(lmac.o)
                                          0xc (size before relaxing)
 .rodata.str1.4
                0x000000003ffe98fc        0x3 /home/stoffer/esp8266/esp-open-sdk/sdk/lib/libpp.a(pm.o)
                                          0xb (size before relaxing)
 *fill*         0x000000003ffe98ff        0x1 
 .rodata.str1.4
                0x000000003ffe9900        0x4 /home/stoffer/esp8266/esp-open-sdk/sdk/lib/libpp.a(pm_for_bcn_only_mode.o)
                                          0xc (size before relaxing)
 .rodata.str1.4
                0x000000003ffe9904        0x8 /home/stoffer/esp8266/esp-open-sdk/sdk/lib/libpp.a(pp.o)
                                         0x10 (size before relaxing)
 .rodata.str1.4
                0x000000003ffe990c        0x4 /home/stoffer/esp8266/esp-open-sdk/sdk/lib/libpp.a(wdev.o)
                                          0xc (size before relaxing)
 .rodata.str1.4
                0x000000003ffe9910        0x3 /home/stoffer/esp8266/esp-open-sdk/sdk/lib/libnet80211.a(ieee80211_hostap.o)
                                          0x8 (size before relaxing)
 *fill*         0x000000003ffe9913        0x1 
 .rodata.str1.4
                0x000000003ffe9914        0x7 /home/stoffer/esp8266/esp-open-sdk/sdk/lib/libnet80211.a(ieee80211_mesh_quick.o)
 .rodata.str1.4
                0x000000003ffe991b        0x4 /home/stoffer/esp8266/esp-open-sdk/sdk/lib/libnet80211.a(ieee80211_sta.o)
 .rodata.str1.4
                0x000000003ffe991b        0x4 /home/stoffer/esp8266/esp-open-sdk/sdk/lib/libnet80211.a(ieee80211_action_vendor.o)
 .rodata.str1.4
                0x000000003ffe991b        0x4 /home/stoffer/esp8266/esp-open-sdk/sdk/lib/libnet80211.a(ieee80211_ie_vendor.o)
 .rodata.str1.4
                0x000000003ffe991b        0x1 /home/stoffer/esp8266/esp-open-sdk/sdk/lib/liblwip.a(espconn_tcp.o)
 *fill*         0x000000003ffe991b        0x1 
 .rodata.str1.4
                0x000000003ffe991c       0x20 /home/stoffer/esp8266/esp-open-sdk/sdk/lib/liblwip.a(sntp.o)
 .rodata.str1.4
                0x000000003ffe993c       0x10 /home/stoffer/esp8266/esp-open-sdk/sdk/lib/libwpa.a(wpa_debug.o)
                                          0xd (size before relaxing)
 *(.gnu.linkonce.r.*)
 *(.rodata1)
                0x000000003ffe994c                __XT_EXCEPTION_TABLE__ = ABSOLUTE (.)
 *(.xt_except_table)
 *(.gcc_except_table)
 *(.gnu.linkonce.e.*)
 *(.gnu.version_r)
 *(.eh_frame)
 *crtbegin.o(.ctors)
 *(EXCLUDE_FILE(*crtend.o) .ctors)
 *(SORT(.ctors.*))
 *(.ctors)
 *crtbegin.o(.dtors)
 *(EXCLUDE_FILE(*crtend.o) .dtors)
 *(SORT(.dtors.*))
 *(.dtors)
                0x000000003ffe994c                __XT_EXCEPTION_DESCS__ = ABSOLUTE (.)
 *(.xt_except_desc)
 *(.gnu.linkonce.h.*)
                0x000000003ffe994c                __XT_EXCEPTION_DESCS_END__ = ABSOLUTE (.)
 *(.xt_except_desc_end)
 *(.dynamic)
 *(.gnu.version_d)
                0x000000003ffe994c                . = ALIGN (0x4)
                0x000000003ffe994c                _bss_table_start = ABSOLUTE (.)
                0x000000003ffe994c        0x4 LONG 0x3ffe9958 _bss_start
                0x000000003ffe9950        0x4 LONG 0x3fff2570 _bss_end
                0x000000003ffe9954                _bss_table_end = ABSOLUTE (.)
                0x000000003ffe9954                _rodata_end = ABSOLUTE (.)

.bss            0x000000003ffe9958     0x8c18
                0x000000003ffe9958                . = ALIGN (0x8)
                0x000000003ffe9958                _bss_start = ABSOLUTE (.)
 *(.dynsbss)
 *(.sbss)
 *(.sbss.*)
 *(.gnu.linkonce.sb.*)
 *(.scommon)
 *(.sbss2)
 *(.sbss2.*)
 *(.gnu.linkonce.sb2.*)
 *(.dynbss)
 *(.bss)
 .bss           0x000000003ffe9958        0x0 /home/stoffer/esp8266/esp-open-sdk/sdk/lib/libmain.a(debug-vector.o)
 .bss           0x000000003ffe9958        0x0 /home/stoffer/esp8266/esp-open-sdk/sdk/lib/libmain.a(double-vector.o)
 .bss           0x000000003ffe9958        0x0 /home/stoffer/esp8266/esp-open-sdk/sdk/lib/libmain.a(kernel-vector.o)
 *fill*         0x000000003ffe9958        0x8 
 .bss           0x000000003ffe9960      0x1c0 /home/stoffer/esp8266/esp-open-sdk/sdk/lib/libmain.a(nmi-vector.o)
 .bss           0x000000003ffe9b20        0x0 /home/stoffer/esp8266/esp-open-sdk/sdk/lib/libmain.a(user-vector.o)
 .bss           0x000000003ffe9b20        0x0 /home/stoffer/esp8266/esp-open-sdk/sdk/lib/libmain.a(vector.o)
 .bss           0x000000003ffe9b20       0x41 /home/stoffer/esp8266/esp-open-sdk/sdk/lib/libmain.a(app_main.o)
                0x000000003ffe9b24                info
                0x000000003ffe9b48                lwip_timer_interval
                0x000000003ffe9b4c                check_timeouts_timer
                0x000000003ffe9b60                user_init_flag
 *fill*         0x000000003ffe9b61        0xf 
 .bss           0x000000003ffe9b70       0x30 /home/stoffer/esp8266/esp-open-sdk/sdk/lib/libmain.a(ets_timer.o)
                0x000000003ffe9b70                dbg_timer_flag
                0x000000003ffe9b74                timer_list
                0x000000003ffe9b78                debug_timer
                0x000000003ffe9b7c                debug_timerfn
 .bss           0x000000003ffe9ba0       0x3c /home/stoffer/esp8266/esp-open-sdk/sdk/lib/libmain.a(mem_manager.o)
 .bss           0x000000003ffe9bdc        0x4 /home/stoffer/esp8266/esp-open-sdk/sdk/lib/libmain.a(spi_flash.o)
                0x000000003ffe9bdc                flash_read
 .bss           0x000000003ffe9be0      0x242 /home/stoffer/esp8266/esp-open-sdk/sdk/lib/libmain.a(user_interface.o)
                0x000000003ffe9cd7                deep_sleep_flag
                0x000000003ffe9cd8                cpu_overclock
                0x000000003ffe9cdc                event_cb
                0x000000003ffe9ce0                status_led_output_level
                0x000000003ffe9ce4                done_cb
                0x000000003ffe9ce8                rst_if
                0x000000003ffe9d04                default_interface
                0x000000003ffe9d05                OpmodChgIsOnGoing
                0x000000003ffe9d08                promiscuous_cb
                0x000000003ffe9d20                event_TaskQueue
 .bss           0x000000003ffe9e22        0x0 /home/stoffer/esp8266/esp-open-sdk/sdk/lib/libmain.a(eagle_lib.o)
 *fill*         0x000000003ffe9e22        0x2 
 .bss           0x000000003ffe9e24        0xc /home/stoffer/esp8266/esp-open-sdk/sdk/lib/libmain.a(eagle_lwip_if.o)
                0x000000003ffe9e24                hostname
 .bss           0x000000003ffe9e30       0x68 build/app_app.a(user_main.o)
                0x000000003ffe9e30                counter
 .bss           0x000000003ffe9e98       0x2c build/app_app.a(captdns.o)
 .bss           0x000000003ffe9ec4       0x14 build/app_app.a(led.o)
 .bss           0x000000003ffe9ed8        0x0 build/app_app.a(httpd_user_init.o)
 .bss           0x000000003ffe9ed8     0x21f4 build/app_app.a(httpd.o)
 .bss           0x000000003ffec0cc        0x0 build/app_app.a(utils.o)
 .bss           0x000000003ffec0cc        0x0 build/app_app.a(crypto.o)
 .bss           0x000000003ffec0cc        0x0 build/app_app.a(sha256.o)
 .bss           0x000000003ffec0cc       0xbc build/app_app.a(aes.o)
 .bss           0x000000003ffec188        0x0 build/app_app.a(uart.o)
 .bss           0x000000003ffec188        0x0 build/app_app.a(ext_spi_flash.o)
 .bss           0x000000003ffec188        0x0 build/app_app.a(gpio16.o)
 .bss           0x000000003ffec188        0x0 build/app_app.a(spi.o)
 .bss           0x000000003ffec188        0x8 build/app_app.a(mqtt.o)
                0x000000003ffec188                default_private_key_len
                0x000000003ffec18c                default_certificate_len
 .bss           0x000000003ffec190        0x0 build/app_app.a(mqtt_msg.o)
 .bss           0x000000003ffec190        0x0 build/app_app.a(queue.o)
 .bss           0x000000003ffec190        0x0 build/app_app.a(mqtt_utils.o)
 .bss           0x000000003ffec190        0x0 build/app_app.a(proto.o)
 .bss           0x000000003ffec190       0x14 build/app_app.a(config.o)
 .bss           0x000000003ffec1a4       0x20 build/app_app.a(wifi.o)
                0x000000003ffec1a4                wifi_reconnect
                0x000000003ffec1a5                wifi_scan_runnning
                0x000000003ffec1a6                wifi_fallback_last_present
                0x000000003ffec1a7                wifi_fallback_present
                0x000000003ffec1a8                wifi_cb
 .bss           0x000000003ffec1c4       0x14 build/app_app.a(cgiwifi.o)
 .bss           0x000000003ffec1d8        0x8 build/app_app.a(tinyprintf.o)
 .bss           0x000000003ffec1e0       0x30 build/app_app.a(unix_time.o)
                0x000000003ffec1e0                ntp_offline_second_counter
                0x000000003ffec1e4                init_time
 .bss           0x000000003ffec210        0x5 build/app_app.a(cgi.o)
 .bss           0x000000003ffec215        0x0 build/app_app.a(httpdespfs.o)
 .bss           0x000000003ffec215        0x0 build/app_app.a(espfs.o)
 .bss           0x000000003ffec215        0x0 build/app_app.a(heatshrink_decoder.o)
 .bss           0x000000003ffec215        0x0 build/app_app.a(hmac-sha256.o)
 .bss           0x000000003ffec215        0x0 build/app_app.a(ringbuf.o)
 .bss           0x000000003ffec215        0x0 /home/stoffer/esp8266/esp-open-sdk/xtensa-lx106-elf/lib/gcc/xtensa-lx106-elf/4.8.5/../../../../xtensa-lx106-elf/lib/libc.a(lib_a-atoi.o)
 .bss           0x000000003ffec215        0x0 /home/stoffer/esp8266/esp-open-sdk/xtensa-lx106-elf/lib/gcc/xtensa-lx106-elf/4.8.5/../../../../xtensa-lx106-elf/lib/libc.a(lib_a-memcpy.o)
 .bss           0x000000003ffec215        0x0 /home/stoffer/esp8266/esp-open-sdk/xtensa-lx106-elf/lib/gcc/xtensa-lx106-elf/4.8.5/../../../../xtensa-lx106-elf/lib/libc.a(lib_a-memset.o)
 .bss           0x000000003ffec215        0x0 /home/stoffer/esp8266/esp-open-sdk/xtensa-lx106-elf/lib/gcc/xtensa-lx106-elf/4.8.5/../../../../xtensa-lx106-elf/lib/libc.a(lib_a-strlen.o)
 .bss           0x000000003ffec215        0x0 /home/stoffer/esp8266/esp-open-sdk/xtensa-lx106-elf/lib/gcc/xtensa-lx106-elf/4.8.5/../../../../xtensa-lx106-elf/lib/libc.a(lib_a-strtok.o)
 .bss           0x000000003ffec215        0x0 /home/stoffer/esp8266/esp-open-sdk/xtensa-lx106-elf/lib/gcc/xtensa-lx106-elf/4.8.5/../../../../xtensa-lx106-elf/lib/libc.a(lib_a-strtok_r.o)
 .bss           0x000000003ffec215        0x0 /home/stoffer/esp8266/esp-open-sdk/xtensa-lx106-elf/lib/gcc/xtensa-lx106-elf/4.8.5/../../../../xtensa-lx106-elf/lib/libc.a(lib_a-strtol.o)
 .bss           0x000000003ffec215        0x0 /home/stoffer/esp8266/esp-open-sdk/xtensa-lx106-elf/lib/gcc/xtensa-lx106-elf/4.8.5/../../../../xtensa-lx106-elf/lib/libc.a(lib_a-ctype_.o)
 .bss           0x000000003ffec215        0x0 /home/stoffer/esp8266/esp-open-sdk/xtensa-lx106-elf/lib/gcc/xtensa-lx106-elf/4.8.5/../../../../xtensa-lx106-elf/lib/libc.a(lib_a-impure.o)
 .bss           0x000000003ffec215        0x0 /home/stoffer/esp8266/esp-open-sdk/xtensa-lx106-elf/xtensa-lx106-elf/sysroot/usr/lib/libhal.a(int_asm--set_intclear.o)
 *fill*         0x000000003ffec215        0x3 
 .bss           0x000000003ffec218        0x4 /home/stoffer/esp8266/esp-open-sdk/sdk/lib/libphy.a(phy.o)
 .bss           0x000000003ffec21c        0x2 /home/stoffer/esp8266/esp-open-sdk/sdk/lib/libphy.a(phy_chip_v6_ana.o)
                0x000000003ffec21c                tout_dis_txpwr_track
                0x000000003ffec21d                sleep_mode_flag
 *fill*         0x000000003ffec21e        0x2 
 .bss           0x000000003ffec220      0x15b /home/stoffer/esp8266/esp-open-sdk/sdk/lib/libphy.a(phy_chip_v6.o)
                0x000000003ffec220                g_phyFuns
                0x000000003ffec224                rxiq_compute_num
                0x000000003ffec228                rx_table_renew_en
                0x000000003ffec22c                check_result
                0x000000003ffec230                chip6_sleep_params
                0x000000003ffec2c4                chip6_phy_init_ctrl
                0x000000003ffec338                phy_freq_offset
                0x000000003ffec33a                do_pwctrl_flag
                0x000000003ffec33b                txbk_dpdby_flag
                0x000000003ffec33d                sw_scan_mode
                0x000000003ffec33e                rxmax_ext_level
                0x000000003ffec340                phy_rx_gain_dc_table
                0x000000003ffec354                periodic_cal_dc_num
                0x000000003ffec358                periodic_cal_flag
                0x000000003ffec359                bbpll_cal_flag
                0x000000003ffec35a                phy_in_most_power
                0x000000003ffec35b                init_rf_no_cal
                0x000000003ffec35c                test_print_time
                0x000000003ffec360                phy_rx_gain_dc_flag
                0x000000003ffec361                phy_in_vdd33_offset
                0x000000003ffec362                phy_set_most_tpw_disbg
                0x000000003ffec363                phy_set_most_tpw_index
                0x000000003ffec364                adc_rand_noise
                0x000000003ffec368                dpd_bypass_original
                0x000000003ffec36a                phy_txpwr_diff_flash
                0x000000003ffec370                noise_array
 *fill*         0x000000003ffec37b        0x1 
 .bss           0x000000003ffec37c        0x9 /home/stoffer/esp8266/esp-open-sdk/sdk/lib/libphy.a(phy_chip_v6_cal.o)
                0x000000003ffec37c                phy_tx_power_out
                0x000000003ffec37e                phy_tx_pwr_error
                0x000000003ffec380                tx_pwctrl_track_num
                0x000000003ffec381                rxiq_cover_fail_num
                0x000000003ffec382                phy_meas_freq_offset
                0x000000003ffec384                tx_pwctrl_pk_num
 .bss           0x000000003ffec385        0x0 /home/stoffer/esp8266/esp-open-sdk/sdk/lib/libphy.a(phy_chip_v6_unused.o)
 *fill*         0x000000003ffec385        0x3 
 .bss           0x000000003ffec388        0x7 /home/stoffer/esp8266/esp-open-sdk/sdk/lib/libphy.a(phy_sleep.o)
                0x000000003ffec388                periodic_cal_sat
                0x000000003ffec38a                lslp_mem_opt_8266
                0x000000003ffec38c                software_slp_reject
                0x000000003ffec38d                SDIO_slp_reject
                0x000000003ffec38e                hardware_reject
 *fill*         0x000000003ffec38f        0x1 
 .bss           0x000000003ffec390       0x40 /home/stoffer/esp8266/esp-open-sdk/sdk/lib/libpp.a(if_hwctrl.o)
                0x000000003ffec390                interface_mask
                0x000000003ffec3b0                if_ctrl
 .bss           0x000000003ffec3d0      0x150 /home/stoffer/esp8266/esp-open-sdk/sdk/lib/libpp.a(lmac.o)
                0x000000003ffec3d4                lmacConfMib
                0x000000003ffec3f8                our_tx_eb
 .bss           0x000000003ffec520      0x11a /home/stoffer/esp8266/esp-open-sdk/sdk/lib/libpp.a(pm.o)
                0x000000003ffec520                pmc
                0x000000003ffec600                flash_tmp
 *fill*         0x000000003ffec63a        0x2 
 .bss           0x000000003ffec63c       0x34 /home/stoffer/esp8266/esp-open-sdk/sdk/lib/libpp.a(pm_for_bcn_only_mode.o)
 .bss           0x000000003ffec670      0x322 /home/stoffer/esp8266/esp-open-sdk/sdk/lib/libpp.a(pp.o)
                0x000000003ffec688                pend_flag_noise_check
                0x000000003ffec690                pend_flag_periodic_cal
                0x000000003ffec6a8                idle_timer_reopen_flag
                0x000000003ffec6aa                dbg_stop_sw_wdt
                0x000000003ffec6ab                dbg_stop_hw_wdt
                0x000000003ffec6ad                total_buffed_eb_num
                0x000000003ffec6b0                HighestFreqOffsetInOneChk
                0x000000003ffec6b2                LowestFreqOffsetInOneChk
                0x000000003ffec6b4                DefFreqCalTimer
                0x000000003ffec6c8                PktNumInOneChk
                0x000000003ffec850                buffed_eb_arr
 *fill*         0x000000003ffec992        0xe 
 .bss           0x000000003ffec9a0      0x100 /home/stoffer/esp8266/esp-open-sdk/sdk/lib/libpp.a(rate_control.o)
 .bss           0x000000003ffecaa0      0x46c /home/stoffer/esp8266/esp-open-sdk/sdk/lib/libpp.a(trc.o)
 *fill*         0x000000003ffecf0c        0x4 
 .bss           0x000000003ffecf10     0x2f88 /home/stoffer/esp8266/esp-open-sdk/sdk/lib/libpp.a(wdev.o)
                0x000000003ffecf10                wDevCtrl
                0x000000003ffed0b8                WdevTimOffSet
 *fill*         0x000000003ffefe98        0x8 
 .bss           0x000000003ffefea0      0xaa4 /home/stoffer/esp8266/esp-open-sdk/sdk/lib/libpp.a(esf_buf.o)
 .bss           0x000000003fff0944      0x67c /home/stoffer/esp8266/esp-open-sdk/sdk/lib/libnet80211.a(ieee80211.o)
                0x000000003fff0944                g_ic
 .bss           0x000000003fff0fc0        0x0 /home/stoffer/esp8266/esp-open-sdk/sdk/lib/libnet80211.a(ieee80211_crypto.o)
 .bss           0x000000003fff0fc0        0x0 /home/stoffer/esp8266/esp-open-sdk/sdk/lib/libnet80211.a(ieee80211_ets.o)
 .bss           0x000000003fff0fc0       0x56 /home/stoffer/esp8266/esp-open-sdk/sdk/lib/libnet80211.a(ieee80211_hostap.o)
                0x000000003fff0fc0                BcnEb_update
                0x000000003fff0fcd                BcnWithMcastSendStart
                0x000000003fff0fce                BcnWithMcastSendCnt
                0x000000003fff0fe8                PendFreeBcnEb
                0x000000003fff0fec                ApFreqCalTimer
                0x000000003fff1000                APRecvBcnStartTick
 .bss           0x000000003fff1016        0x0 /home/stoffer/esp8266/esp-open-sdk/sdk/lib/libnet80211.a(ieee80211_ht.o)
 .bss           0x000000003fff1016        0x0 /home/stoffer/esp8266/esp-open-sdk/sdk/lib/libnet80211.a(ieee80211_input.o)
 .bss           0x000000003fff1016        0x0 /home/stoffer/esp8266/esp-open-sdk/sdk/lib/libnet80211.a(ieee80211_mesh_quick.o)
 .bss           0x000000003fff1016        0x0 /home/stoffer/esp8266/esp-open-sdk/sdk/lib/libnet80211.a(ieee80211_output.o)
 .bss           0x000000003fff1016        0x0 /home/stoffer/esp8266/esp-open-sdk/sdk/lib/libnet80211.a(ieee80211_phy.o)
 .bss           0x000000003fff1016        0x0 /home/stoffer/esp8266/esp-open-sdk/sdk/lib/libnet80211.a(ieee80211_power.o)
 .bss           0x000000003fff1016        0x0 /home/stoffer/esp8266/esp-open-sdk/sdk/lib/libnet80211.a(ieee80211_proto.o)
 .bss           0x000000003fff1016        0x0 /home/stoffer/esp8266/esp-open-sdk/sdk/lib/libnet80211.a(ieee80211_rfid.o)
 *fill*         0x000000003fff1016        0x2 
 .bss           0x000000003fff1018       0xc8 /home/stoffer/esp8266/esp-open-sdk/sdk/lib/libnet80211.a(ieee80211_scan.o)
                0x000000003fff1018                gScanStruct
                0x000000003fff10c4                connect_scan_flag
                0x000000003fff10c5                FreqCalCntForScan
                0x000000003fff10c6                TestStaFreqCalValInput
                0x000000003fff10c8                auth_type
                0x000000003fff10ca                scannum
 .bss           0x000000003fff10e0       0x10 /home/stoffer/esp8266/esp-open-sdk/sdk/lib/libnet80211.a(ieee80211_sta.o)
 .bss           0x000000003fff10f0       0x3c /home/stoffer/esp8266/esp-open-sdk/sdk/lib/libnet80211.a(wl_chm.o)
 *fill*         0x000000003fff112c        0x4 
 .bss           0x000000003fff1130      0x37e /home/stoffer/esp8266/esp-open-sdk/sdk/lib/libnet80211.a(wl_cnx.o)
                0x000000003fff1490                sta_con_timer
                0x000000003fff14a4                backup_ni_connect_status
                0x000000003fff14a8                g_cnx_probe_rc_list_cb
                0x000000003fff14ac                reconnect_flag
                0x000000003fff14ad                no_ap_found_index
 .bss           0x000000003fff14ae        0x0 /home/stoffer/esp8266/esp-open-sdk/sdk/lib/libnet80211.a(ieee80211_action.o)
 *fill*         0x000000003fff14ae        0x2 
 .bss           0x000000003fff14b0       0x10 /home/stoffer/esp8266/esp-open-sdk/sdk/lib/libnet80211.a(ieee80211_action_vendor.o)
 .bss           0x000000003fff14c0        0x0 /home/stoffer/esp8266/esp-open-sdk/sdk/lib/libnet80211.a(ieee80211_crypto_ccmp.o)
 .bss           0x000000003fff14c0        0x0 /home/stoffer/esp8266/esp-open-sdk/sdk/lib/libnet80211.a(ieee80211_ie_vendor.o)
 .bss           0x000000003fff14c0       0x38 /home/stoffer/esp8266/esp-open-sdk/sdk/lib/liblwip.a(dhcp.o)
                0x000000003fff14c0                dhcp_rx_options_given
                0x000000003fff14d0                dhcp_rx_options_val
 .bss           0x000000003fff14f8       0x24 /home/stoffer/esp8266/esp-open-sdk/sdk/lib/liblwip.a(dhcpserver.o)
 *fill*         0x000000003fff151c        0x4 
 .bss           0x000000003fff1520      0x480 /home/stoffer/esp8266/esp-open-sdk/sdk/lib/liblwip.a(dns.o)
 .bss           0x000000003fff19a0      0x104 /home/stoffer/esp8266/esp-open-sdk/sdk/lib/liblwip.a(espconn.o)
                0x000000003fff19a0                plink_active
                0x000000003fff19a4                pserver_list
                0x000000003fff19b0                premot
                0x000000003fff1a70                pktinfo
 *fill*         0x000000003fff1aa4        0xc 
 .bss           0x000000003fff1ab0       0x78 /home/stoffer/esp8266/esp-open-sdk/sdk/lib/liblwip.a(espconn_tcp.o)
                0x000000003fff1ab0                espconn_TaskQueue
 .bss           0x000000003fff1b28        0x0 /home/stoffer/esp8266/esp-open-sdk/sdk/lib/liblwip.a(espconn_udp.o)
 *fill*         0x000000003fff1b28        0x8 
 .bss           0x000000003fff1b30      0x100 /home/stoffer/esp8266/esp-open-sdk/sdk/lib/liblwip.a(etharp.o)
                0x000000003fff1b34                ethzero
 .bss           0x000000003fff1c30        0xc /home/stoffer/esp8266/esp-open-sdk/sdk/lib/liblwip.a(igmp.o)
 .bss           0x000000003fff1c3c        0x0 /home/stoffer/esp8266/esp-open-sdk/sdk/lib/liblwip.a(inet_chksum.o)
 .bss           0x000000003fff1c3c        0x0 /home/stoffer/esp8266/esp-open-sdk/sdk/lib/liblwip.a(init.o)
 *fill*         0x000000003fff1c3c        0x4 
 .bss           0x000000003fff1c40       0x10 /home/stoffer/esp8266/esp-open-sdk/sdk/lib/liblwip.a(ip_addr.o)
 .bss           0x000000003fff1c50       0x12 /home/stoffer/esp8266/esp-open-sdk/sdk/lib/liblwip.a(ip.o)
                0x000000003fff1c50                current_iphdr_dest
                0x000000003fff1c54                current_iphdr_src
                0x000000003fff1c58                current_netif
                0x000000003fff1c5c                current_header
 .bss           0x000000003fff1c62        0x0 /home/stoffer/esp8266/esp-open-sdk/sdk/lib/liblwip.a(memp.o)
 *fill*         0x000000003fff1c62        0x2 
 .bss           0x000000003fff1c64        0x9 /home/stoffer/esp8266/esp-open-sdk/sdk/lib/liblwip.a(netif.o)
                0x000000003fff1c64                netif_list
                0x000000003fff1c68                netif_default
 .bss           0x000000003fff1c6d        0x0 /home/stoffer/esp8266/esp-open-sdk/sdk/lib/liblwip.a(pbuf.o)
 *fill*         0x000000003fff1c6d        0x3 
 .bss           0x000000003fff1c70        0x4 /home/stoffer/esp8266/esp-open-sdk/sdk/lib/liblwip.a(raw.o)
 *fill*         0x000000003fff1c74        0xc 
 .bss           0x000000003fff1c80      0x118 /home/stoffer/esp8266/esp-open-sdk/sdk/lib/liblwip.a(sntp.o)
                0x000000003fff1c80                res_buf
                0x000000003fff1ca4                __tzyear
                0x000000003fff1ca8                __tznorth
                0x000000003fff1cac                realtime_stamp
                0x000000003fff1cd0                sntp__tzrule
                0x000000003fff1d10                reult
 .bss           0x000000003fff1d98       0x34 /home/stoffer/esp8266/esp-open-sdk/sdk/lib/liblwip.a(tcp_in.o)
                0x000000003fff1dc8                tcp_input_pcb
 .bss           0x000000003fff1dcc       0x1c /home/stoffer/esp8266/esp-open-sdk/sdk/lib/liblwip.a(tcp.o)
                0x000000003fff1dd0                tcp_active_pcbs
                0x000000003fff1dd4                tcp_tmp_pcb
                0x000000003fff1dd8                tcp_tw_pcbs
                0x000000003fff1ddc                tcp_bound_pcbs
                0x000000003fff1de0                tcp_listen_pcbs
                0x000000003fff1de4                tcp_ticks
 .bss           0x000000003fff1de8        0x0 /home/stoffer/esp8266/esp-open-sdk/sdk/lib/liblwip.a(tcp_out.o)
 .bss           0x000000003fff1de8        0xc /home/stoffer/esp8266/esp-open-sdk/sdk/lib/liblwip.a(timers.o)
 .bss           0x000000003fff1df4        0x4 /home/stoffer/esp8266/esp-open-sdk/sdk/lib/liblwip.a(udp.o)
                0x000000003fff1df4                udp_pcbs
 .bss           0x000000003fff1df8        0x0 /home/stoffer/esp8266/esp-open-sdk/sdk/lib/liblwip.a(icmp.o)
 .bss           0x000000003fff1df8        0x0 /home/stoffer/esp8266/esp-open-sdk/sdk/lib/libwpa.a(ap_config.o)
 .bss           0x000000003fff1df8        0x0 /home/stoffer/esp8266/esp-open-sdk/sdk/lib/libwpa.a(common.o)
 .bss           0x000000003fff1df8        0x0 /home/stoffer/esp8266/esp-open-sdk/sdk/lib/libwpa.a(os_xtensa.o)
 .bss           0x000000003fff1df8        0x0 /home/stoffer/esp8266/esp-open-sdk/sdk/lib/libwpa.a(wpa_auth.o)
 .bss           0x000000003fff1df8        0x0 /home/stoffer/esp8266/esp-open-sdk/sdk/lib/libwpa.a(wpa_auth_ie.o)
 *fill*         0x000000003fff1df8        0x8 
 .bss           0x000000003fff1e00      0x26a /home/stoffer/esp8266/esp-open-sdk/sdk/lib/libwpa.a(wpa.o)
 .bss           0x000000003fff206a        0x0 /home/stoffer/esp8266/esp-open-sdk/sdk/lib/libwpa.a(wpa_common.o)
 .bss           0x000000003fff206a        0x0 /home/stoffer/esp8266/esp-open-sdk/sdk/lib/libwpa.a(wpa_debug.o)
 .bss           0x000000003fff206a        0x0 /home/stoffer/esp8266/esp-open-sdk/sdk/lib/libwpa.a(wpa_ie.o)
 .bss           0x000000003fff206a        0x0 /home/stoffer/esp8266/esp-open-sdk/sdk/lib/libwpa.a(wpa_main.o)
 .bss           0x000000003fff206a        0x0 /home/stoffer/esp8266/esp-open-sdk/sdk/lib/libwpa.a(wpas_glue.o)
 .bss           0x000000003fff206a        0x0 /home/stoffer/esp8266/esp-open-sdk/sdk/lib/libwpa.a(aes-wrap.o)
 .bss           0x000000003fff206a        0x0 /home/stoffer/esp8266/esp-open-sdk/sdk/lib/libwpa.a(aes-internal-enc.o)
 .bss           0x000000003fff206a        0x0 /home/stoffer/esp8266/esp-open-sdk/sdk/lib/libwpa.a(aes-internal.o)
 .bss           0x000000003fff206a        0x0 /home/stoffer/esp8266/esp-open-sdk/sdk/lib/libgcc.a(_modsi3.o)
 .bss           0x000000003fff206a        0x0 /home/stoffer/esp8266/esp-open-sdk/sdk/lib/libgcc.a(_ashrdi3.o)
 .bss           0x000000003fff206a        0x0 /home/stoffer/esp8266/esp-open-sdk/sdk/lib/libgcc.a(_mulsf3.o)
 .bss           0x000000003fff206a        0x0 /home/stoffer/esp8266/esp-open-sdk/sdk/lib/libgcc.a(_divsf3.o)
 .bss           0x000000003fff206a        0x0 /home/stoffer/esp8266/esp-open-sdk/sdk/lib/libgcc.a(_fixsfsi.o)
 *fill*         0x000000003fff206a        0x6 
 .bss           0x000000003fff2070        0x8 /home/stoffer/esp8266/esp-open-sdk/sdk/lib/libnet80211.a(ieee80211_crypto_tkip.o)
 .bss           0x000000003fff2078        0x0 /home/stoffer/esp8266/esp-open-sdk/sdk/lib/libnet80211.a(ieee80211_crypto_wep.o)
 *(.bss.*)
 *(.gnu.linkonce.b.*)
 *(COMMON)
 COMMON         0x000000003fff2078       0xf4 build/app_app.a(user_main.o)
                0x000000003fff2078                impulses_per_kwh
                0x000000003fff207c                mqtt_client
                0x000000003fff214c                last_impulse_meter_count
                0x000000003fff2150                impulse_rising_edge_time
                0x000000003fff2154                current_energy
                0x000000003fff2158                last_impulse_time
                0x000000003fff215c                impulse_time
                0x000000003fff2160                rtc_info
                0x000000003fff2164                impulse_falling_edge_time
                0x000000003fff2168                impulse_meter_energy
 COMMON         0x000000003fff216c       0x40 build/app_app.a(crypto.o)
                0x000000003fff216c                hmac_sha256_key
                0x000000003fff217c                aes_key
                0x000000003fff218c                sha256_hash
 COMMON         0x000000003fff21ac      0x200 build/app_app.a(uart.o)
                0x000000003fff21ac                kmp_received_task_queue
 COMMON         0x000000003fff23ac       0x10 build/app_app.a(mqtt.o)
                0x000000003fff23ac                default_private_key
                0x000000003fff23b0                default_certificate
                0x000000003fff23b4                mqtt_procTaskQueue
 COMMON         0x000000003fff23bc      0x190 build/app_app.a(config.o)
                0x000000003fff23bc                sys_cfg
                0x000000003fff2544                config_save_timer_running
                0x000000003fff2548                saveFlag
 COMMON         0x000000003fff254c        0x8 build/app_app.a(wifi.o)
                0x000000003fff254c                config_ssid
                0x000000003fff2550                config_pass
 COMMON         0x000000003fff2554        0xc build/app_app.a(cgiwifi.o)
                0x000000003fff2554                cgiWifiAps
 COMMON         0x000000003fff2560       0x10 build/app_app.a(unix_time.o)
                0x000000003fff2560                current_unix_time
                0x000000003fff2568                boot_time
                0x000000003fff2570                . = ALIGN (0x8)
                0x000000003fff2570                _bss_end = ABSOLUTE (.)
                0x000000003fff2570                _heap_start = ABSOLUTE (.)

.text           0x0000000040100000     0x6aac
                0x0000000040100000                _stext = .
                0x0000000040100000                _text_start = ABSOLUTE (.)
 *(.UserEnter.text)
 .UserEnter.text
                0x0000000040100000        0xd /home/stoffer/esp8266/esp-open-sdk/sdk/lib/libmain.a(vector.o)
                                         0x14 (size before relaxing)
                0x0000000040100004                call_user_start
                0x0000000040100010                . = ALIGN (0x10)
 *fill*         0x000000004010000d        0x3 
 *(.DebugExceptionVector.text)
 .DebugExceptionVector.text
                0x0000000040100010        0x6 /home/stoffer/esp8266/esp-open-sdk/sdk/lib/libmain.a(debug-vector.o)
                0x0000000040100010                _DebugExceptionVector
                0x0000000040100020                . = ALIGN (0x10)
 *fill*         0x0000000040100016        0xa 
 *(.NMIExceptionVector.text)
 .NMIExceptionVector.text
                0x0000000040100020        0x6 /home/stoffer/esp8266/esp-open-sdk/sdk/lib/libmain.a(nmi-vector.o)
                                          0xd (size before relaxing)
                0x0000000040100020                _NMIExceptionVector
                0x0000000040100030                . = ALIGN (0x10)
 *fill*         0x0000000040100026        0xa 
 *(.KernelExceptionVector.text)
 .KernelExceptionVector.text
                0x0000000040100030        0x6 /home/stoffer/esp8266/esp-open-sdk/sdk/lib/libmain.a(kernel-vector.o)
                0x0000000040100030                _KernelExceptionVector
                0x0000000040100036        0x4 LONG 0x0
                0x000000004010003a        0x4 LONG 0x0
                0x000000004010003e        0x4 LONG 0x0
                0x0000000040100042        0x4 LONG 0x0
                0x0000000040100050                . = ALIGN (0x10)
 *fill*         0x0000000040100046        0xa 
 *(.UserExceptionVector.text)
 .UserExceptionVector.text
                0x0000000040100050        0x6 /home/stoffer/esp8266/esp-open-sdk/sdk/lib/libmain.a(user-vector.o)
                                          0xd (size before relaxing)
                0x0000000040100050                _UserExceptionVector
                0x0000000040100056        0x4 LONG 0x0
                0x000000004010005a        0x4 LONG 0x0
                0x000000004010005e        0x4 LONG 0x0
                0x0000000040100062        0x4 LONG 0x0
                0x0000000040100070                . = ALIGN (0x10)
 *fill*         0x0000000040100066        0xa 
 *(.DoubleExceptionVector.text)
 .DoubleExceptionVector.text
                0x0000000040100070        0x6 /home/stoffer/esp8266/esp-open-sdk/sdk/lib/libmain.a(double-vector.o)
                0x0000000040100070                _DoubleExceptionVector
                0x0000000040100076        0x4 LONG 0x0
                0x000000004010007a        0x4 LONG 0x0
                0x000000004010007e        0x4 LONG 0x0
                0x0000000040100082        0x4 LONG 0x0
                0x0000000040100090                . = ALIGN (0x10)
 *fill*         0x0000000040100086        0xa 
 *(.entry.text)
 *(.init.literal)
 *(.init)
 *(.literal .text .literal.* .text.* .stub .gnu.warning .gnu.linkonce.literal.* .gnu.linkonce.t.*.literal .gnu.linkonce.t.*)
 .text          0x0000000040100090       0xc7 /home/stoffer/esp8266/esp-open-sdk/sdk/lib/libmain.a(nmi-vector.o)
                                         0xcb (size before relaxing)
                0x000000004010009c                _NMILevelVector
 *fill*         0x0000000040100157        0x1 
 .text          0x0000000040100158       0x1e /home/stoffer/esp8266/esp-open-sdk/sdk/lib/libmain.a(user-vector.o)
                0x000000004010015c                _UserExceptionVector_1
 *fill*         0x0000000040100176        0x2 
 .text          0x0000000040100178      0x5fe /home/stoffer/esp8266/esp-open-sdk/sdk/lib/libmain.a(app_main.o)
                                        0x66a (size before relaxing)
                0x00000000401001b0                Cache_Read_Enable_New
                0x00000000401001ec                NmiTimSetFunc
                0x0000000040100210                NMI_Handler
                0x0000000040100268                call_user_start_local
                0x00000000401003c8                wdt_feed
 *fill*         0x0000000040100776        0x2 
 .text          0x0000000040100778      0x3cc /home/stoffer/esp8266/esp-open-sdk/sdk/lib/libmain.a(ets_timer.o)
                                        0x450 (size before relaxing)
                0x000000004010084c                ets_timer_setfn
                0x0000000040100928                ets_timer_disarm
                0x00000000401009d8                ets_timer_arm_new
 .text          0x0000000040100b44      0x30f /home/stoffer/esp8266/esp-open-sdk/sdk/lib/libmain.a(mem_manager.o)
                                        0x367 (size before relaxing)
                0x0000000040100b48                prvInsertBlockIntoUsedList
                0x0000000040100b78                system_show_malloc
                0x0000000040100b78                pvShowMalloc
                0x0000000040100c04                prvRemoveBlockFromUsedList
                0x0000000040100c30                xPortWantedSizeAlign
                0x0000000040100c58                pvPortMalloc
                0x0000000040100d20                vPortFree
                0x0000000040100d78                pvPortCalloc
                0x0000000040100da8                pvPortZalloc
                0x0000000040100dc4                pvPortRealloc
 *fill*         0x0000000040100e53        0x1 
 .text          0x0000000040100e54      0x59d /home/stoffer/esp8266/esp-open-sdk/sdk/lib/libmain.a(spi_flash.o)
                                        0x650 (size before relaxing)
                0x0000000040100e58                Cache_Read_Disable_2
                0x0000000040100e98                Cache_Read_Enable_2
                0x0000000040100ee8                spi_flash_get_unique_id
                0x0000000040101050                spi_flash_get_id
                0x00000000401010ac                spi_flash_read_status
                0x00000000401010e0                spi_flash_write_status
                0x0000000040101160                spi_flash_erase_sector
                0x0000000040101194                spi_flash_write
                0x00000000401011e8                spi_flash_read
                0x0000000040101264                spi_flash_issi_enable_QIO_mode
 *fill*         0x00000000401013f1        0x3 
 .text          0x00000000401013f4      0x2ee /home/stoffer/esp8266/esp-open-sdk/sdk/lib/libmain.a(user_interface.o)
                                        0x34a (size before relaxing)
                0x0000000040101410                os_printf_plus
                0x000000004010153c                system_restart_core
                0x0000000040101574                system_deep_sleep_local_2
                0x00000000401015e8                system_get_time
                0x0000000040101600                system_os_post
                0x0000000040101634                system_rtc_mem_write
                0x000000004010168c                system_rtc_mem_read
 *fill*         0x00000000401016e2        0x2 
 .text          0x00000000401016e4       0xf8 build/app_app.a(user_main.o)
                                        0x123 (size before relaxing)
                0x000000004010171c                gpio_int_handler
 *fill*         0x00000000401017dc        0x0 
 .text          0x00000000401017dc       0x5b build/app_app.a(httpd_user_init.o)
                                         0x5f (size before relaxing)
                0x00000000401017e8                myPassFn
                0x0000000040101820                httpd_user_init
 *fill*         0x0000000040101837        0x1 
 .text          0x0000000040101838       0xd5 build/app_app.a(uart.o)
                                         0xdd (size before relaxing)
                0x00000000401018dc                uart_tx_one_char
 *fill*         0x000000004010190d        0x3 
 .text          0x0000000040101910       0x75 build/app_app.a(wifi.o)
                0x0000000040101928                wifi_handle_event_cb
 *fill*         0x0000000040101985        0x3 
 .text          0x0000000040101988      0x434 build/app_app.a(heatshrink_decoder.o)
                                        0x44c (size before relaxing)
                0x0000000040101a24                heatshrink_decoder_free
                0x0000000040101a3c                heatshrink_decoder_reset
                0x0000000040101a88                heatshrink_decoder_alloc
                0x0000000040101afc                heatshrink_decoder_sink
                0x0000000040101b74                heatshrink_decoder_poll
                0x0000000040101d90                heatshrink_decoder_finish
 .literal       0x0000000040101dbc        0x0 /home/stoffer/esp8266/esp-open-sdk/xtensa-lx106-elf/lib/gcc/xtensa-lx106-elf/4.8.5/../../../../xtensa-lx106-elf/lib/libc.a(lib_a-atoi.o)
                                          0x8 (size before relaxing)
 .literal       0x0000000040101dbc        0x8 /home/stoffer/esp8266/esp-open-sdk/xtensa-lx106-elf/lib/gcc/xtensa-lx106-elf/4.8.5/../../../../xtensa-lx106-elf/lib/libc.a(lib_a-strlen.o)
                                          0xc (size before relaxing)
 .literal       0x0000000040101dc4        0x4 /home/stoffer/esp8266/esp-open-sdk/xtensa-lx106-elf/lib/gcc/xtensa-lx106-elf/4.8.5/../../../../xtensa-lx106-elf/lib/libc.a(lib_a-strtok.o)
                                          0x8 (size before relaxing)
 .literal       0x0000000040101dc8       0x10 /home/stoffer/esp8266/esp-open-sdk/xtensa-lx106-elf/lib/gcc/xtensa-lx106-elf/4.8.5/../../../../xtensa-lx106-elf/lib/libc.a(lib_a-strtol.o)
                                         0x18 (size before relaxing)
 .literal       0x0000000040101dd8        0x4 /home/stoffer/esp8266/esp-open-sdk/sdk/lib/libgcc.a(_mulsf3.o)
                                         0x10 (size before relaxing)
 .literal       0x0000000040101ddc        0x0 /home/stoffer/esp8266/esp-open-sdk/sdk/lib/libgcc.a(_divsf3.o)
                                         0x10 (size before relaxing)
 .literal       0x0000000040101ddc        0x0 /home/stoffer/esp8266/esp-open-sdk/sdk/lib/libgcc.a(_fixsfsi.o)
                                          0x4 (size before relaxing)
 .text          0x0000000040101ddc       0x27 /home/stoffer/esp8266/esp-open-sdk/xtensa-lx106-elf/lib/gcc/xtensa-lx106-elf/4.8.5/../../../../xtensa-lx106-elf/lib/libc.a(lib_a-atoi.o)
                                         0x2f (size before relaxing)
                0x0000000040101ddc                atoi
                0x0000000040101df0                _atoi_r
 *fill*         0x0000000040101e03        0x1 
 .text          0x0000000040101e04       0x5b /home/stoffer/esp8266/esp-open-sdk/xtensa-lx106-elf/lib/gcc/xtensa-lx106-elf/4.8.5/../../../../xtensa-lx106-elf/lib/libc.a(lib_a-strlen.o)
                0x0000000040101e04                strlen
 *fill*         0x0000000040101e5f        0x1 
 .text          0x0000000040101e60       0x1c /home/stoffer/esp8266/esp-open-sdk/xtensa-lx106-elf/lib/gcc/xtensa-lx106-elf/4.8.5/../../../../xtensa-lx106-elf/lib/libc.a(lib_a-strtok.o)
                0x0000000040101e60                strtok
 .text          0x0000000040101e7c      0x15f /home/stoffer/esp8266/esp-open-sdk/xtensa-lx106-elf/lib/gcc/xtensa-lx106-elf/4.8.5/../../../../xtensa-lx106-elf/lib/libc.a(lib_a-strtol.o)
                0x0000000040101e7c                _strtol_r
                0x0000000040101fbc                strtol
 *fill*         0x0000000040101fdb        0x1 
 .text          0x0000000040101fdc       0x53 /home/stoffer/esp8266/esp-open-sdk/sdk/lib/libphy.a(phy.o)
                                         0x5f (size before relaxing)
                0x0000000040101fe4                register_phy_ops
                0x0000000040102004                register_get_phy_addr
                0x000000004010200c                phy_change_channel
                0x0000000040102024                phy_get_mactime
 *fill*         0x000000004010202f        0x1 
 .text          0x0000000040102030      0x262 /home/stoffer/esp8266/esp-open-sdk/sdk/lib/libphy.a(phy_chip_v6_ana.o)
                                        0x276 (size before relaxing)
                0x0000000040102050                phy_adc_read_fast
 *fill*         0x0000000040102292        0x2 
 .text          0x0000000040102294       0x4d /home/stoffer/esp8266/esp-open-sdk/sdk/lib/libphy.a(phy_chip_v6.o)
                                         0x55 (size before relaxing)
                0x00000000401022a4                phy_debug_print
 *fill*         0x00000000401022e1        0x3 
 .text          0x00000000401022e4       0xb2 /home/stoffer/esp8266/esp-open-sdk/sdk/lib/libphy.a(phy_chip_v6_cal.o)
                                         0xba (size before relaxing)
                0x00000000401022e4                unsign_to_sign
                0x0000000040102320                phy_get_bb_freqoffset
                0x0000000040102388                phy_get_bb_evm
 *fill*         0x0000000040102396        0x2 
 .text          0x0000000040102398       0xe7 /home/stoffer/esp8266/esp-open-sdk/sdk/lib/libphy.a(phy_sleep.o)
                                        0x103 (size before relaxing)
                0x000000004010239c                pm_rtc_clock_cali
                0x0000000040102454                clockgate_watchdog
 *fill*         0x000000004010247f        0x1 
 .text          0x0000000040102480     0x1602 /home/stoffer/esp8266/esp-open-sdk/sdk/lib/libpp.a(lmac.o)
                                       0x1962 (size before relaxing)
                0x0000000040102484                lmacIsActive
                0x0000000040102498                lmacIsIdle
                0x0000000040102918                lmacSetAcParam
                0x000000004010296c                lmacProcessTXStartData
                0x0000000040102aec                lmacProcessTxSuccess
                0x0000000040102c30                GetAccess
                0x0000000040102c3c                lmacDiscardAgedMSDU
                0x0000000040102c50                lmacRecycleMPDU
                0x0000000040103214                lmacProcessTxTimeout
                0x000000004010327c                lmacProcessAllTxTimeout
                0x0000000040103290                lmacProcessCollisions
                0x00000000401032f0                lmacProcessCollision
                0x0000000040103374                lmacMSDUAged
                0x0000000040103704                lmacProcessCtsTimeout
                0x000000004010373c                lmacProcessAckTimeout
                0x0000000040103794                lmacProcessRtsStart
                0x00000000401037a0                lmacProcessTxRtsError
                0x0000000040103840                lmacProcessTxError
                0x00000000401038d0                lmacTxFrame
                0x0000000040103a6c                lmacRxDone
 *fill*         0x0000000040103a82        0x2 
 .text          0x0000000040103a84      0x8e1 /home/stoffer/esp8266/esp-open-sdk/sdk/lib/libpp.a(pp.o)
                                        0x9fd (size before relaxing)
                0x0000000040103ab8                pp_soft_wdt_feed_local
                0x0000000040103b4c                ppProcessTxQ
                0x0000000040103bc0                ppFetchTxQFirstAvail
                0x0000000040103c00                ppDequeueTxQ
                0x0000000040103c28                ppRollBackTxQ
                0x0000000040103c4c                ppRecordBarRRC
                0x0000000040103c5c                ppTxqUpdateBitmap
                0x0000000040103c84                ppEnqueueTxDone
                0x0000000040103cb8                ppEnqueueRxq
                0x00000000401041a0                ppDiscardMPDU
                0x00000000401041c4                pp_post
                0x0000000040104250                pp_post2
                0x0000000040104278                ppCalTxop
                0x00000000401042f8                ppCalFrameTimes
 *fill*         0x0000000040104365        0x3 
 .text          0x0000000040104368       0xf5 /home/stoffer/esp8266/esp-open-sdk/sdk/lib/libpp.a(rate_control.o)
                                        0x109 (size before relaxing)
                0x0000000040104388                RC_GetAckRate
                0x0000000040104394                RC_GetRtsRate
                0x00000000401043a4                RC_GetAckTime
                0x00000000401043b8                RC_GetCtsTime
                0x00000000401043f0                RC_GetBlockAckTime
 *fill*         0x000000004010445d        0x3 
 .text          0x0000000040104460      0x9a1 /home/stoffer/esp8266/esp-open-sdk/sdk/lib/libpp.a(trc.o)
                                        0xa05 (size before relaxing)
                0x0000000040104634                rcUpdateTxDone
                0x00000000401046c8                rcUpdateRxDone
                0x0000000040104724                rcUpdateDataRxDone
                0x0000000040104740                rcGetSched
                0x0000000040104824                rcGetRate
                0x0000000040104d34                rcReachRetryLimit
                0x0000000040104d4c                trc_NeedRTS
 *fill*         0x0000000040104e01        0x3 
 .text          0x0000000040104e04     0x105b /home/stoffer/esp8266/esp-open-sdk/sdk/lib/libpp.a(wdev.o)
                                       0x1347 (size before relaxing)
                0x00000000401051a8                wDev_MacTim1SetFunc
                0x00000000401051c8                wDev_MacTim1Arm
                0x000000004010525c                wDev_ProcessFiq
                0x00000000401055a0                wDev_EnableTransmit
                0x00000000401055d8                wDev_DisableTransmit
                0x00000000401055f8                Tx_Copy2Queue
                0x0000000040105640                wDev_ProcessCollision
                0x0000000040105664                wDev_GetTxqCollisions
                0x0000000040105674                wDev_ClearTxqCollisions
                0x0000000040105690                wDev_SetWaitingQueue
                0x00000000401056d8                wDev_ClearWaitingQueue
                0x00000000401056fc                wDev_SetFrameAckType
                0x000000004010575c                wDev_AppendRxBlocks
                0x00000000401058a0                wDev_AppendRxAmpduLensBlocks
                0x0000000040105974                wDev_GetBAInfo
                0x00000000401059a8                wDevDisableRx
 *fill*         0x0000000040105e5f        0x1 
 .text          0x0000000040105e60       0x4c /home/stoffer/esp8266/esp-open-sdk/sdk/lib/libpp.a(esf_buf.o)
                                         0x5c (size before relaxing)
                0x0000000040105e64                esf_rx_buf_alloc
 .text          0x0000000040105eac       0x23 /home/stoffer/esp8266/esp-open-sdk/sdk/lib/libnet80211.a(ieee80211_output.o)
                                         0x27 (size before relaxing)
 *fill*         0x0000000040105ecf        0x1 
 .text          0x0000000040105ed0        0xb /home/stoffer/esp8266/esp-open-sdk/sdk/lib/libnet80211.a(wl_chm.o)
                0x0000000040105ed4                chm_get_current_channel
 *fill*         0x0000000040105edb        0x1 
 .text          0x0000000040105edc       0x43 /home/stoffer/esp8266/esp-open-sdk/sdk/lib/liblwip.a(etharp.o)
                                         0x47 (size before relaxing)
 *fill*         0x0000000040105f1f        0x1 
 .text          0x0000000040105f20       0xd6 /home/stoffer/esp8266/esp-open-sdk/sdk/lib/liblwip.a(sntp.o)
                                         0xde (size before relaxing)
                0x0000000040105f28                sntp_get_current_timestamp
                0x0000000040105f50                sntp_get_real_time
 *fill*         0x0000000040105ff6        0x2 
 .text          0x0000000040105ff8      0x1fd /home/stoffer/esp8266/esp-open-sdk/sdk/lib/liblwip.a(tcp.o)
                                        0x229 (size before relaxing)
 *fill*         0x00000000401061f5        0x3 
 .text          0x00000000401061f8      0x159 /home/stoffer/esp8266/esp-open-sdk/sdk/lib/liblwip.a(tcp_out.o)
                                        0x161 (size before relaxing)
 *fill*         0x0000000040106351        0x3 
 .text          0x0000000040106354       0xb4 /home/stoffer/esp8266/esp-open-sdk/sdk/lib/liblwip.a(timers.o)
                                         0xc0 (size before relaxing)
 .text          0x0000000040106408      0x15d /home/stoffer/esp8266/esp-open-sdk/sdk/lib/libgcc.a(_mulsf3.o)
                0x0000000040106480                __mulsf3
 *fill*         0x0000000040106565        0x3 
 .text          0x0000000040106568      0x135 /home/stoffer/esp8266/esp-open-sdk/sdk/lib/libgcc.a(_divsf3.o)
                0x00000000401065e4                __divsf3
 *fill*         0x000000004010669d        0x3 
 .text          0x00000000401066a0       0x40 /home/stoffer/esp8266/esp-open-sdk/sdk/lib/libgcc.a(_fixsfsi.o)
                0x00000000401066a0                __fixsfsi
 .text          0x00000000401066e0        0x0 /home/stoffer/esp8266/esp-open-sdk/sdk/lib/libmain.a(debug-vector.o)
 .text          0x00000000401066e0        0x0 /home/stoffer/esp8266/esp-open-sdk/sdk/lib/libmain.a(double-vector.o)
 .text          0x00000000401066e0        0x0 /home/stoffer/esp8266/esp-open-sdk/sdk/lib/libmain.a(kernel-vector.o)
 .literal       0x00000000401066e0        0x0 /home/stoffer/esp8266/esp-open-sdk/sdk/lib/libmain.a(nmi-vector.o)
 *fill*         0x00000000401066e0        0x0 
 .literal       0x00000000401066e0        0x0 /home/stoffer/esp8266/esp-open-sdk/sdk/lib/libmain.a(user-vector.o)
 .text          0x00000000401066e0        0x0 /home/stoffer/esp8266/esp-open-sdk/sdk/lib/libmain.a(vector.o)
 *fill*         0x00000000401066e0        0x0 
 .literal       0x00000000401066e0        0x0 /home/stoffer/esp8266/esp-open-sdk/sdk/lib/libmain.a(app_main.o)
 *fill*         0x00000000401066e0        0x0 
 .literal       0x00000000401066e0        0x0 /home/stoffer/esp8266/esp-open-sdk/sdk/lib/libmain.a(ets_timer.o)
 .literal       0x00000000401066e0        0x0 /home/stoffer/esp8266/esp-open-sdk/sdk/lib/libmain.a(mem_manager.o)
 *fill*         0x00000000401066e0        0x0 
 .literal       0x00000000401066e0        0x0 /home/stoffer/esp8266/esp-open-sdk/sdk/lib/libmain.a(spi_flash.o)
 .literal       0x00000000401066e0        0x0 /home/stoffer/esp8266/esp-open-sdk/sdk/lib/libmain.a(user_interface.o)
 .text          0x00000000401066e0        0x0 /home/stoffer/esp8266/esp-open-sdk/sdk/lib/libmain.a(eagle_lib.o)
 .text          0x00000000401066e0        0x0 /home/stoffer/esp8266/esp-open-sdk/sdk/lib/libmain.a(eagle_lwip_if.o)
 *fill*         0x00000000401066e0        0x0 
 .literal       0x00000000401066e0        0x0 build/app_app.a(user_main.o)
 .text          0x00000000401066e0        0x0 build/app_app.a(captdns.o)
 .text          0x00000000401066e0        0x0 build/app_app.a(led.o)
 *fill*         0x00000000401066e0        0x0 
 .literal       0x00000000401066e0        0x0 build/app_app.a(httpd_user_init.o)
 *fill*         0x00000000401066e0        0x0 
 .literal       0x00000000401066e0        0x0 build/app_app.a(httpd.o)
 .text          0x00000000401066e0       0xe9 build/app_app.a(httpd.o)
                0x000000004010670c                httpdUrlDecode
 .text          0x00000000401067c9        0x0 build/app_app.a(utils.o)
 .text          0x00000000401067c9        0x0 build/app_app.a(crypto.o)
 .text          0x00000000401067c9        0x0 build/app_app.a(sha256.o)
 .text          0x00000000401067c9        0x0 build/app_app.a(aes.o)
 *fill*         0x00000000401067c9        0x3 
 .literal       0x00000000401067cc        0x0 build/app_app.a(uart.o)
 .text          0x00000000401067cc        0x0 build/app_app.a(ext_spi_flash.o)
 .text          0x00000000401067cc        0x0 build/app_app.a(gpio16.o)
 .text          0x00000000401067cc        0x0 build/app_app.a(spi.o)
 .text          0x00000000401067cc        0x0 build/app_app.a(mqtt.o)
 .text          0x00000000401067cc        0x0 build/app_app.a(mqtt_msg.o)
 .text          0x00000000401067cc        0x0 build/app_app.a(queue.o)
 .text          0x00000000401067cc        0x0 build/app_app.a(mqtt_utils.o)
 .text          0x00000000401067cc        0x0 build/app_app.a(proto.o)
 .text          0x00000000401067cc        0x0 build/app_app.a(config.o)
 *fill*         0x00000000401067cc        0x0 
 .literal       0x00000000401067cc        0x0 build/app_app.a(wifi.o)
 .text          0x00000000401067cc        0x0 build/app_app.a(cgiwifi.o)
 .text          0x00000000401067cc        0x0 build/app_app.a(tinyprintf.o)
 .text          0x00000000401067cc        0x0 build/app_app.a(unix_time.o)
 .text          0x00000000401067cc        0x0 build/app_app.a(cgi.o)
 .text          0x00000000401067cc        0x0 build/app_app.a(httpdespfs.o)
 .text          0x00000000401067cc        0x0 build/app_app.a(espfs.o)
 *fill*         0x00000000401067cc        0x0 
 .literal       0x00000000401067cc        0x0 build/app_app.a(heatshrink_decoder.o)
 .text          0x00000000401067cc        0x0 build/app_app.a(hmac-sha256.o)
 .text          0x00000000401067cc        0x0 build/app_app.a(ringbuf.o)
 *fill*         0x00000000401067cc        0x0 
 .text          0x00000000401067cc      0x145 /home/stoffer/esp8266/esp-open-sdk/xtensa-lx106-elf/lib/gcc/xtensa-lx106-elf/4.8.5/../../../../xtensa-lx106-elf/lib/libc.a(lib_a-memcpy.o)
                0x0000000040106810                memcpy
 *fill*         0x0000000040106911        0x3 
 .text          0x0000000040106914       0x7c /home/stoffer/esp8266/esp-open-sdk/xtensa-lx106-elf/lib/gcc/xtensa-lx106-elf/4.8.5/../../../../xtensa-lx106-elf/lib/libc.a(lib_a-memset.o)
                0x0000000040106940                memset
 *fill*         0x0000000040106990        0x0 
 .literal       0x0000000040106990        0x0 /home/stoffer/esp8266/esp-open-sdk/xtensa-lx106-elf/lib/gcc/xtensa-lx106-elf/4.8.5/../../../../xtensa-lx106-elf/lib/libc.a(lib_a-strtok_r.o)
 .text          0x0000000040106990       0x71 /home/stoffer/esp8266/esp-open-sdk/xtensa-lx106-elf/lib/gcc/xtensa-lx106-elf/4.8.5/../../../../xtensa-lx106-elf/lib/libc.a(lib_a-strtok_r.o)
                0x0000000040106990                __strtok_r
                0x00000000401069f0                strtok_r
 *fill*         0x0000000040106a01        0x0 
 .text          0x0000000040106a01        0x0 /home/stoffer/esp8266/esp-open-sdk/xtensa-lx106-elf/lib/gcc/xtensa-lx106-elf/4.8.5/../../../../xtensa-lx106-elf/lib/libc.a(lib_a-ctype_.o)
 .text          0x0000000040106a01        0x0 /home/stoffer/esp8266/esp-open-sdk/xtensa-lx106-elf/lib/gcc/xtensa-lx106-elf/4.8.5/../../../../xtensa-lx106-elf/lib/libc.a(lib_a-impure.o)
 *fill*         0x0000000040106a01        0x3 
 .text          0x0000000040106a04        0x5 /home/stoffer/esp8266/esp-open-sdk/xtensa-lx106-elf/xtensa-lx106-elf/sysroot/usr/lib/libhal.a(int_asm--set_intclear.o)
                0x0000000040106a04                xthal_set_intclear
 *fill*         0x0000000040106a09        0x3 
 .literal       0x0000000040106a0c        0x0 /home/stoffer/esp8266/esp-open-sdk/sdk/lib/libphy.a(phy.o)
 *fill*         0x0000000040106a0c        0x0 
 .literal       0x0000000040106a0c        0x0 /home/stoffer/esp8266/esp-open-sdk/sdk/lib/libphy.a(phy_chip_v6_ana.o)
 *fill*         0x0000000040106a0c        0x0 
 .literal       0x0000000040106a0c        0x0 /home/stoffer/esp8266/esp-open-sdk/sdk/lib/libphy.a(phy_chip_v6.o)
 *fill*         0x0000000040106a0c        0x0 
 .literal       0x0000000040106a0c        0x0 /home/stoffer/esp8266/esp-open-sdk/sdk/lib/libphy.a(phy_chip_v6_cal.o)
 .text          0x0000000040106a0c        0x0 /home/stoffer/esp8266/esp-open-sdk/sdk/lib/libphy.a(phy_chip_v6_unused.o)
 *fill*         0x0000000040106a0c        0x0 
 .literal       0x0000000040106a0c        0x0 /home/stoffer/esp8266/esp-open-sdk/sdk/lib/libphy.a(phy_sleep.o)
 .text          0x0000000040106a0c        0x0 /home/stoffer/esp8266/esp-open-sdk/sdk/lib/libpp.a(if_hwctrl.o)
 *fill*         0x0000000040106a0c        0x0 
 .literal       0x0000000040106a0c        0x0 /home/stoffer/esp8266/esp-open-sdk/sdk/lib/libpp.a(lmac.o)
 .text          0x0000000040106a0c        0x0 /home/stoffer/esp8266/esp-open-sdk/sdk/lib/libpp.a(pm.o)
 .text          0x0000000040106a0c        0x0 /home/stoffer/esp8266/esp-open-sdk/sdk/lib/libpp.a(pm_for_bcn_only_mode.o)
 *fill*         0x0000000040106a0c        0x0 
 .literal       0x0000000040106a0c        0x0 /home/stoffer/esp8266/esp-open-sdk/sdk/lib/libpp.a(pp.o)
 *fill*         0x0000000040106a0c        0x0 
 .literal       0x0000000040106a0c        0x0 /home/stoffer/esp8266/esp-open-sdk/sdk/lib/libpp.a(rate_control.o)
 *fill*         0x0000000040106a0c        0x0 
 .literal       0x0000000040106a0c        0x0 /home/stoffer/esp8266/esp-open-sdk/sdk/lib/libpp.a(trc.o)
 *fill*         0x0000000040106a0c        0x0 
 .literal       0x0000000040106a0c        0x0 /home/stoffer/esp8266/esp-open-sdk/sdk/lib/libpp.a(wdev.o)
 *fill*         0x0000000040106a0c        0x0 
 .literal       0x0000000040106a0c        0x0 /home/stoffer/esp8266/esp-open-sdk/sdk/lib/libpp.a(esf_buf.o)
 .text          0x0000000040106a0c        0x0 /home/stoffer/esp8266/esp-open-sdk/sdk/lib/libnet80211.a(ieee80211.o)
 .text          0x0000000040106a0c        0x0 /home/stoffer/esp8266/esp-open-sdk/sdk/lib/libnet80211.a(ieee80211_crypto.o)
 .text          0x0000000040106a0c        0x0 /home/stoffer/esp8266/esp-open-sdk/sdk/lib/libnet80211.a(ieee80211_ets.o)
 .literal       0x0000000040106a0c        0x0 /home/stoffer/esp8266/esp-open-sdk/sdk/lib/libnet80211.a(ieee80211_hostap.o)
 .text          0x0000000040106a0c       0x25 /home/stoffer/esp8266/esp-open-sdk/sdk/lib/libnet80211.a(ieee80211_hostap.o)
 .text          0x0000000040106a31        0x0 /home/stoffer/esp8266/esp-open-sdk/sdk/lib/libnet80211.a(ieee80211_ht.o)
 .text          0x0000000040106a31        0x0 /home/stoffer/esp8266/esp-open-sdk/sdk/lib/libnet80211.a(ieee80211_input.o)
 .text          0x0000000040106a31        0x0 /home/stoffer/esp8266/esp-open-sdk/sdk/lib/libnet80211.a(ieee80211_mesh_quick.o)
 *fill*         0x0000000040106a31        0x3 
 .literal       0x0000000040106a34        0x0 /home/stoffer/esp8266/esp-open-sdk/sdk/lib/libnet80211.a(ieee80211_output.o)
 .text          0x0000000040106a34        0x0 /home/stoffer/esp8266/esp-open-sdk/sdk/lib/libnet80211.a(ieee80211_phy.o)
 .text          0x0000000040106a34        0x0 /home/stoffer/esp8266/esp-open-sdk/sdk/lib/libnet80211.a(ieee80211_power.o)
 .text          0x0000000040106a34        0x0 /home/stoffer/esp8266/esp-open-sdk/sdk/lib/libnet80211.a(ieee80211_proto.o)
 .text          0x0000000040106a34        0x0 /home/stoffer/esp8266/esp-open-sdk/sdk/lib/libnet80211.a(ieee80211_rfid.o)
 .text          0x0000000040106a34        0x0 /home/stoffer/esp8266/esp-open-sdk/sdk/lib/libnet80211.a(ieee80211_scan.o)
 .text          0x0000000040106a34        0x0 /home/stoffer/esp8266/esp-open-sdk/sdk/lib/libnet80211.a(ieee80211_sta.o)
 *fill*         0x0000000040106a34        0x0 
 .literal       0x0000000040106a34        0x0 /home/stoffer/esp8266/esp-open-sdk/sdk/lib/libnet80211.a(wl_chm.o)
 .text          0x0000000040106a34        0x0 /home/stoffer/esp8266/esp-open-sdk/sdk/lib/libnet80211.a(wl_cnx.o)
 .text          0x0000000040106a34        0x0 /home/stoffer/esp8266/esp-open-sdk/sdk/lib/libnet80211.a(ieee80211_action.o)
 .text          0x0000000040106a34        0x0 /home/stoffer/esp8266/esp-open-sdk/sdk/lib/libnet80211.a(ieee80211_action_vendor.o)
 .text          0x0000000040106a34        0x0 /home/stoffer/esp8266/esp-open-sdk/sdk/lib/libnet80211.a(ieee80211_crypto_ccmp.o)
 .text          0x0000000040106a34        0x0 /home/stoffer/esp8266/esp-open-sdk/sdk/lib/libnet80211.a(ieee80211_ie_vendor.o)
 .text          0x0000000040106a34        0x0 /home/stoffer/esp8266/esp-open-sdk/sdk/lib/liblwip.a(dhcp.o)
 .text          0x0000000040106a34        0x0 /home/stoffer/esp8266/esp-open-sdk/sdk/lib/liblwip.a(dhcpserver.o)
 .text          0x0000000040106a34        0x0 /home/stoffer/esp8266/esp-open-sdk/sdk/lib/liblwip.a(dns.o)
 .text          0x0000000040106a34        0x0 /home/stoffer/esp8266/esp-open-sdk/sdk/lib/liblwip.a(espconn.o)
 .text          0x0000000040106a34        0x0 /home/stoffer/esp8266/esp-open-sdk/sdk/lib/liblwip.a(espconn_tcp.o)
 .text          0x0000000040106a34        0x0 /home/stoffer/esp8266/esp-open-sdk/sdk/lib/liblwip.a(espconn_udp.o)
 *fill*         0x0000000040106a34        0x0 
 .literal       0x0000000040106a34        0x0 /home/stoffer/esp8266/esp-open-sdk/sdk/lib/liblwip.a(etharp.o)
 .text          0x0000000040106a34        0x0 /home/stoffer/esp8266/esp-open-sdk/sdk/lib/liblwip.a(igmp.o)
 .text          0x0000000040106a34        0x0 /home/stoffer/esp8266/esp-open-sdk/sdk/lib/liblwip.a(inet_chksum.o)
 .text          0x0000000040106a34        0x0 /home/stoffer/esp8266/esp-open-sdk/sdk/lib/liblwip.a(init.o)
 .text          0x0000000040106a34        0x0 /home/stoffer/esp8266/esp-open-sdk/sdk/lib/liblwip.a(ip_addr.o)
 .text          0x0000000040106a34        0x0 /home/stoffer/esp8266/esp-open-sdk/sdk/lib/liblwip.a(ip.o)
 .text          0x0000000040106a34        0x0 /home/stoffer/esp8266/esp-open-sdk/sdk/lib/liblwip.a(memp.o)
 .text          0x0000000040106a34        0x0 /home/stoffer/esp8266/esp-open-sdk/sdk/lib/liblwip.a(netif.o)
 .text          0x0000000040106a34        0x0 /home/stoffer/esp8266/esp-open-sdk/sdk/lib/liblwip.a(pbuf.o)
 .text          0x0000000040106a34        0x0 /home/stoffer/esp8266/esp-open-sdk/sdk/lib/liblwip.a(raw.o)
 *fill*         0x0000000040106a34        0x0 
 .literal       0x0000000040106a34        0x0 /home/stoffer/esp8266/esp-open-sdk/sdk/lib/liblwip.a(sntp.o)
 .text          0x0000000040106a34        0x0 /home/stoffer/esp8266/esp-open-sdk/sdk/lib/liblwip.a(tcp_in.o)
 *fill*         0x0000000040106a34        0x0 
 .literal       0x0000000040106a34        0x0 /home/stoffer/esp8266/esp-open-sdk/sdk/lib/liblwip.a(tcp.o)
 *fill*         0x0000000040106a34        0x0 
 .literal       0x0000000040106a34        0x0 /home/stoffer/esp8266/esp-open-sdk/sdk/lib/liblwip.a(tcp_out.o)
 *fill*         0x0000000040106a34        0x0 
 .literal       0x0000000040106a34        0x0 /home/stoffer/esp8266/esp-open-sdk/sdk/lib/liblwip.a(timers.o)
 .text          0x0000000040106a34        0x0 /home/stoffer/esp8266/esp-open-sdk/sdk/lib/liblwip.a(udp.o)
 .text          0x0000000040106a34        0x0 /home/stoffer/esp8266/esp-open-sdk/sdk/lib/liblwip.a(icmp.o)
 .text          0x0000000040106a34        0x0 /home/stoffer/esp8266/esp-open-sdk/sdk/lib/libwpa.a(ap_config.o)
 .text          0x0000000040106a34        0x0 /home/stoffer/esp8266/esp-open-sdk/sdk/lib/libwpa.a(common.o)
 .text          0x0000000040106a34        0x0 /home/stoffer/esp8266/esp-open-sdk/sdk/lib/libwpa.a(os_xtensa.o)
 .literal       0x0000000040106a34        0x0 /home/stoffer/esp8266/esp-open-sdk/sdk/lib/libwpa.a(wpa_auth.o)
 .text          0x0000000040106a34       0x11 /home/stoffer/esp8266/esp-open-sdk/sdk/lib/libwpa.a(wpa_auth.o)
 .text          0x0000000040106a45        0x0 /home/stoffer/esp8266/esp-open-sdk/sdk/lib/libwpa.a(wpa_auth_ie.o)
 .text          0x0000000040106a45        0x0 /home/stoffer/esp8266/esp-open-sdk/sdk/lib/libwpa.a(wpa.o)
 .text          0x0000000040106a45        0x0 /home/stoffer/esp8266/esp-open-sdk/sdk/lib/libwpa.a(wpa_common.o)
 .text          0x0000000040106a45        0x0 /home/stoffer/esp8266/esp-open-sdk/sdk/lib/libwpa.a(wpa_debug.o)
 .text          0x0000000040106a45        0x0 /home/stoffer/esp8266/esp-open-sdk/sdk/lib/libwpa.a(wpa_ie.o)
 .text          0x0000000040106a45        0x0 /home/stoffer/esp8266/esp-open-sdk/sdk/lib/libwpa.a(wpa_main.o)
 .text          0x0000000040106a45        0x0 /home/stoffer/esp8266/esp-open-sdk/sdk/lib/libwpa.a(wpas_glue.o)
 .text          0x0000000040106a45        0x0 /home/stoffer/esp8266/esp-open-sdk/sdk/lib/libwpa.a(aes-wrap.o)
 .text          0x0000000040106a45        0x0 /home/stoffer/esp8266/esp-open-sdk/sdk/lib/libwpa.a(aes-internal-enc.o)
 .text          0x0000000040106a45        0x0 /home/stoffer/esp8266/esp-open-sdk/sdk/lib/libwpa.a(aes-internal.o)
 *fill*         0x0000000040106a45        0x3 
 .text          0x0000000040106a48       0x49 /home/stoffer/esp8266/esp-open-sdk/sdk/lib/libgcc.a(_modsi3.o)
                0x0000000040106a48                __modsi3
 *fill*         0x0000000040106a91        0x3 
 .text          0x0000000040106a94       0x18 /home/stoffer/esp8266/esp-open-sdk/sdk/lib/libgcc.a(_ashrdi3.o)
                0x0000000040106a94                __ashrdi3
 *fill*         0x0000000040106aac        0x0 
 *fill*         0x0000000040106aac        0x0 
 .text          0x0000000040106aac        0x0 /home/stoffer/esp8266/esp-open-sdk/sdk/lib/libnet80211.a(ieee80211_crypto_tkip.o)
 .text          0x0000000040106aac        0x0 /home/stoffer/esp8266/esp-open-sdk/sdk/lib/libnet80211.a(ieee80211_crypto_wep.o)
 *(.fini.literal)
 *(.fini)
 *(.gnu.version)
                0x0000000040106aac                _text_end = ABSOLUTE (.)
                0x0000000040106aac                _etext = .

.NMIExceptionVector.literal
                0x0000000040106aac        0x0
 .NMIExceptionVector.literal
                0x0000000040106aac        0x0 /home/stoffer/esp8266/esp-open-sdk/sdk/lib/libmain.a(nmi-vector.o)

.UserExceptionVector.literal
                0x0000000040106aac        0x0
 .UserExceptionVector.literal
                0x0000000040106aac        0x0 /home/stoffer/esp8266/esp-open-sdk/sdk/lib/libmain.a(user-vector.o)

.UserEnter.literal
                0x0000000040106aac        0x0
 .UserEnter.literal
                0x0000000040106aac        0x0 /home/stoffer/esp8266/esp-open-sdk/sdk/lib/libmain.a(vector.o)

.lit4           0x0000000040106aac        0x0
                0x0000000040106aac                _lit4_start = ABSOLUTE (.)
 *(*.lit4)
 *(.lit4.*)
 *(.gnu.linkonce.lit4.*)
                0x0000000040106aac                _lit4_end = ABSOLUTE (.)

.irom0.text     0x0000000040240000    0x355b4
                0x0000000040240000                _irom0_text_start = ABSOLUTE (.)
 *(.irom0.literal .irom.literal .irom.text.literal .irom0.text .irom.text)
 .irom0.text    0x0000000040240000      0xa79 /home/stoffer/esp8266/esp-open-sdk/sdk/lib/libmain.a(app_main.o)
                                        0xc9d (size before relaxing)
                0x00000000402401e8                wdt_init
                0x0000000040240290                user_uart_wait_tx_fifo_empty
                0x0000000040240544                user_rf_pre_init
 *fill*         0x0000000040240a79        0x3 
 .irom0.text    0x0000000040240a7c      0x186 /home/stoffer/esp8266/esp-open-sdk/sdk/lib/libmain.a(ets_timer.o)
                                        0x1b2 (size before relaxing)
                0x0000000040240a84                ets_timer_done
                0x0000000040240ad0                ets_timer_handler_isr
                0x0000000040240ba0                ets_timer_init
 *fill*         0x0000000040240c02        0x2 
 .irom0.text    0x0000000040240c04       0xec /home/stoffer/esp8266/esp-open-sdk/sdk/lib/libmain.a(mem_manager.o)
                                         0xf8 (size before relaxing)
                0x0000000040240c04                check_memleak_debug_enable
                0x0000000040240c70                xPortGetFreeHeapSize
                0x0000000040240c78                vPortInitialiseBlocks
 .irom0.text    0x0000000040240cf0        0xb /home/stoffer/esp8266/esp-open-sdk/sdk/lib/libmain.a(spi_flash.o)
                0x0000000040240cf4                spi_flash_set_read_func
 *fill*         0x0000000040240cfb        0x1 
 .irom0.text    0x0000000040240cfc     0x3549 /home/stoffer/esp8266/esp-open-sdk/sdk/lib/libmain.a(user_interface.o)
                                       0x3f9d (size before relaxing)
                0x0000000040240d00                system_set_os_print
                0x0000000040240d10                system_get_os_print
                0x0000000040240ed8                system_pp_recycle_rx_pkt
                0x0000000040240ef4                system_adc_read
                0x0000000040240f34                system_adc_read_fast
                0x0000000040240f94                system_get_vdd33
                0x0000000040240fc0                system_restart_hook
                0x0000000040240fd8                system_restart_local
                0x00000000402410b8                system_restart
                0x0000000040241114                system_restore
                0x000000004024117c                system_get_flash_size_map
                0x000000004024119c                system_get_boot_version
                0x00000000402411d4                system_get_test_result
                0x00000000402411fc                system_get_userbin_addr
                0x0000000040241294                system_get_boot_mode
                0x00000000402412c4                system_restart_enhance
                0x00000000402413f4                system_upgrade_userbin_set
                0x0000000040241440                system_upgrade_userbin_check
                0x0000000040241480                system_upgrade_flag_set
                0x0000000040241494                system_upgrade_flag_check
                0x00000000402414bc                system_upgrade_reboot
                0x00000000402415f0                system_deep_sleep_instant
                0x0000000040241788                system_deep_sleep
                0x00000000402417e8                system_deep_sleep_set_option
                0x0000000040241804                system_phy_temperature_alert
                0x0000000040241818                system_phy_set_max_tpw
                0x000000004024182c                system_phy_set_tpw_via_vdd33
                0x0000000040241840                system_phy_set_rfoption
                0x0000000040241854                system_phy_set_powerup_option
                0x000000004024186c                system_update_cpu_freq
                0x00000000402418c8                system_get_cpu_freq
                0x00000000402418e0                system_overclock
                0x000000004024190c                system_restoreclock
                0x000000004024193c                system_timer_reinit
                0x0000000040241954                system_relative_time
                0x0000000040241978                system_station_got_ip_set
                0x0000000040241aa4                system_print_meminfo
                0x0000000040241b04                system_get_free_heap_size
                0x0000000040241b1c                system_get_chip_id
                0x0000000040241b40                system_rtc_clock_cali_proc
                0x0000000040241b54                system_get_rtc_time
                0x0000000040241b68                system_mktime
                0x0000000040241c38                system_init_done_cb
                0x0000000040241c40                system_get_rst_info
                0x0000000040241c48                system_get_data_of_array_8
                0x0000000040241c6c                system_get_data_of_array_16
                0x0000000040241c94                system_get_string_from_flash
                0x0000000040241d00                wifi_softap_dhcps_start
                0x0000000040241d48                wifi_softap_dhcps_stop
                0x0000000040241d88                wifi_softap_dhcps_status
                0x0000000040241d90                wifi_station_dhcpc_start
                0x0000000040241de8                wifi_station_dhcpc_stop
                0x0000000040241e28                wifi_station_dhcpc_event
                0x0000000040241e9c                wifi_station_dhcpc_set_maxtry
                0x0000000040241eac                wifi_station_dhcpc_status
                0x0000000040241f24                wifi_get_opmode
                0x0000000040241f38                wifi_get_opmode_default
                0x0000000040241fb4                wifi_get_broadcast_if
                0x0000000040241ff0                wifi_set_broadcast_if
                0x000000004024216c                wifi_set_opmode
                0x0000000040242180                wifi_set_opmode_current
                0x0000000040242194                system_get_checksum
                0x00000000402421dc                wifi_param_save_protect_with_check
                0x0000000040242298                system_param_save_with_protect
                0x0000000040242340                system_save_sys_param
                0x000000004024236c                system_param_load
                0x00000000402424a4                wifi_station_get_config
                0x00000000402424b8                wifi_station_get_config_default
                0x00000000402424d8                wifi_station_get_ap_info
                0x0000000040242590                wifi_station_ap_number_set
                0x0000000040242924                wifi_station_set_config
                0x000000004024293c                wifi_station_set_config_current
                0x0000000040242954                wifi_station_restore_config
                0x000000004024296c                wifi_station_get_current_ap_id
                0x0000000040242980                wifi_station_ap_check
                0x00000000402429c8                wifi_station_ap_change
                0x0000000040242af4                wifi_station_scan
                0x0000000040242b40                wifi_station_get_auto_connect
                0x0000000040242b54                wifi_station_set_auto_connect
                0x0000000040242ba4                wifi_station_save_pmk2cache
                0x0000000040242c58                wifi_station_connect
                0x0000000040242cec                wifi_station_disconnect
                0x0000000040242dac                wifi_station_get_connect_status
                0x0000000040242ddc                wifi_station_set_reconnect_policy
                0x0000000040242df4                wifi_station_get_reconnect_policy
                0x0000000040242dfc                wifi_station_get_rssi
                0x0000000040242e4c                wifi_station_set_default_hostname
                0x0000000040242eb4                wifi_station_get_hostname
                0x0000000040242ee4                wifi_station_set_hostname
                0x0000000040242f84                wifi_softap_cacl_mac
                0x0000000040242ff4                wifi_softap_set_default_ssid
                0x00000000402431d4                wifi_softap_get_config
                0x00000000402431e8                wifi_softap_get_config_default
                0x000000004024353c                wifi_softap_set_config
                0x0000000040243550                wifi_softap_set_config_current
                0x0000000040243564                wifi_softap_set_station_info
                0x00000000402435d0                wifi_softap_get_station_info
                0x0000000040243680                wifi_softap_free_station_info
                0x00000000402436c8                wifi_softap_get_station_num
                0x000000004024371c                wifi_softap_deauth
                0x00000000402437cc                wifi_softap_get_beacon_only_mode
                0x00000000402437e0                wifi_softap_set_beacon_only_mode
                0x0000000040243844                wifi_register_user_ie_manufacturer_recv_cb
                0x0000000040243858                wifi_unregister_user_ie_manufacturer_recv_cb
                0x000000004024388c                wifi_set_user_ie
                0x000000004024399c                wifi_get_user_ie
                0x00000000402439d0                wifi_get_phy_mode
                0x00000000402439d8                wifi_set_phy_mode
                0x0000000040243aa0                wifi_set_sleep_type
                0x0000000040243abc                wifi_get_sleep_type
                0x0000000040243ad4                wifi_get_channel
                0x0000000040243aec                wifi_set_channel
                0x0000000040243b30                wifi_promiscuous_set_mac
                0x0000000040243b90                wifi_promiscuous_enable
                0x0000000040243c74                wifi_set_promiscuous_rx_cb
                0x0000000040243c84                wifi_get_ip_info
                0x0000000040243d04                wifi_set_ip_info
                0x0000000040243d78                wifi_get_macaddr
                0x0000000040243dd8                wifi_set_macaddr
                0x0000000040243ef4                wifi_enable_6m_rate
                0x0000000040243efc                wifi_get_user_fixed_rate
                0x0000000040243f1c                wifi_set_user_fixed_rate
                0x0000000040243f3c                wifi_set_user_sup_rate
                0x0000000040243f78                wifi_set_user_rate_limit
                0x0000000040243f9c                wifi_get_user_limit_rate_mask
                0x0000000040243fa4                wifi_set_user_limit_rate_mask
                0x0000000040243fbc                wifi_register_send_pkt_freedom_cb
                0x0000000040243fd0                wifi_unregister_send_pkt_freedom_cb
                0x0000000040243fdc                wifi_send_pkt_freedom
                0x0000000040244028                wifi_rfid_locp_recv_open
                0x000000004024403c                wifi_rfid_locp_recv_close
                0x0000000040244050                wifi_register_rfid_locp_recv_cb
                0x0000000040244064                wifi_unregister_rfid_locp_recv_cb
                0x000000004024407c                wifi_status_led_install
                0x00000000402440b0                wifi_status_led_uninstall
                0x00000000402440d4                wifi_set_status_led_output_level
                0x0000000040244128                wifi_set_event_handler_cb
                0x0000000040244170                system_os_task
                0x00000000402441ac                system_uart_swap
                0x000000004024420c                system_uart_de_swap
                0x0000000040244240                system_get_sdk_version
 *fill*         0x0000000040244245        0x3 
 .irom0.text    0x0000000040244248      0x610 /home/stoffer/esp8266/esp-open-sdk/sdk/lib/libmain.a(eagle_lib.o)
                                        0x620 (size before relaxing)
                0x000000004024424c                divide
                0x0000000040244288                skip_atoi
                0x0000000040244408                ets_vsnprintf
                0x0000000040244768                ets_vsprintf
                0x000000004024478c                ets_sprintf
                0x00000000402447b4                ets_strcat
                0x00000000402447d4                ets_strrchr
                0x0000000040244800                ets_strchr
                0x0000000040244818                bit_popcount
                0x0000000040244834                ets_snprintf
 .irom0.text    0x0000000040244858      0x31e /home/stoffer/esp8266/esp-open-sdk/sdk/lib/libmain.a(eagle_lwip_if.o)
                                        0x3e6 (size before relaxing)
                0x0000000040244910                eagle_lwip_if_alloc
                0x0000000040244ad0                eagle_lwip_if_free
                0x0000000040244b54                eagle_lwip_getif
 *fill*         0x0000000040244b76        0x2 
 .irom0.text    0x0000000040244b78      0xc01 build/app_app.a(user_main.o)
                                       0x104d (size before relaxing)
                0x0000000040244b78                mqttDisconnectedCb
                0x0000000040244b7c                mqttPublishedCb
                0x0000000040244b84                wifi_changed_cb
                0x0000000040244dec                mqttConnectedCb
                0x0000000040244f5c                mqttTimeoutCb
                0x0000000040244fc8                mqttDataCb
                0x0000000040245500                system_init_done
                0x00000000402455b4                gpio_int_init
                0x000000004024563c                impulse_meter_init
                0x00000000402456f4                user_init
 *fill*         0x0000000040245779        0x3 
 .irom0.text    0x000000004024577c      0x4a3 build/app_app.a(captdns.o)
                                        0x4d3 (size before relaxing)
                0x0000000040245bf0                captdnsInit
 *fill*         0x0000000040245c1f        0x1 
 .irom0.text    0x0000000040245c20      0x14b build/app_app.a(led.o)
                                        0x18b (size before relaxing)
                0x0000000040245c60                led_init
                0x0000000040245c90                led_on
                0x0000000040245cac                led_off
                0x0000000040245cd0                led_pattern_a
                0x0000000040245d0c                led_pattern_b
                0x0000000040245d48                led_stop_pattern
 *fill*         0x0000000040245d6b        0x1 
 .irom0.text    0x0000000040245d6c      0x97f build/app_app.a(httpd.o)
                                        0xa93 (size before relaxing)
                0x0000000040245f30                httpdGetMimetype
                0x0000000040245fb4                httpdFindArg
                0x000000004024606c                httpdGetHeader
                0x0000000040246170                httpdSend
                0x00000000402461c8                httpdStartResponse
                0x0000000040246208                httpdHeader
                0x000000004024624c                httpdEndHeaders
                0x0000000040246264                httpdRedirect
                0x00000000402462a4                cgiRedirect
                0x0000000040246624                httpdInit
                0x000000004024667c                httpdStop
 *fill*         0x00000000402466eb        0x1 
 .irom0.text    0x00000000402466ec      0x178 build/app_app.a(utils.o)
                                        0x19c (size before relaxing)
                0x00000000402466f0                ccit_crc16
                0x0000000040246724                w_to_kw_str
                0x0000000040246770                kw_to_w_str
                0x0000000040246820                decimal_number_length
                0x0000000040246844                int_pow
 .irom0.text    0x0000000040246864      0x19c build/app_app.a(crypto.o)
                                        0x220 (size before relaxing)
                0x0000000040246874                init_aes_hmac_combined
                0x00000000402468c8                encrypt_aes_hmac_combined
                0x000000004024696c                decrypt_aes_hmac_combined
 .irom0.text    0x0000000040246a00      0x5a7 build/app_app.a(sha256.o)
                                        0x5db (size before relaxing)
                0x0000000040246a08                sha256_init
                0x0000000040246a48                sha256_transform
                0x0000000040246d44                sha256_update
                0x0000000040246d60                sha256_final
                0x0000000040246eb8                sha256_end
                0x0000000040246f28                sha256_raw
                0x0000000040246f68                sha256_data
 *fill*         0x0000000040246fa7        0x1 
 .irom0.text    0x0000000040246fa8      0x7bf build/app_app.a(aes.o)
                                        0x7f3 (size before relaxing)
                0x000000004024759c                AES128_CBC_encrypt_buffer
                0x0000000040247684                AES128_CBC_decrypt_buffer
 *fill*         0x0000000040247767        0x1 
 .irom0.text    0x0000000040247768      0x31c build/app_app.a(uart.o)
                                        0x348 (size before relaxing)
                0x00000000402478f4                uart0_write_char
                0x0000000040247950                uart1_write_char
                0x00000000402479ac                uart0_tx_buffer
                0x00000000402479e0                uart0_sendStr
                0x0000000040247a10                uart_init
                0x0000000040247a70                uart_reattach
 .irom0.text    0x0000000040247a84      0x29a build/app_app.a(ext_spi_flash.o)
                                        0x302 (size before relaxing)
                0x0000000040247a88                ext_spi_init
                0x0000000040247ad4                ext_spi_flash_id
                0x0000000040247b00                ext_spi_flash_erase_sector
                0x0000000040247b68                ext_spi_flash_read
                0x0000000040247c20                ext_spi_flash_write
                0x0000000040247d1c                ext_spi_flash_hexdump
 *fill*         0x0000000040247d1e        0x2 
 .irom0.text    0x0000000040247d20       0xb5 build/app_app.a(gpio16.o)
                                         0xc1 (size before relaxing)
                0x0000000040247d2c                gpio16_output_conf
                0x0000000040247d6c                gpio16_output_set
                0x0000000040247d88                gpio16_input_conf
                0x0000000040247dc8                gpio16_input_get
 *fill*         0x0000000040247dd5        0x3 
 .irom0.text    0x0000000040247dd8      0x453 build/app_app.a(spi.o)
                                        0x477 (size before relaxing)
                0x0000000040247de4                spi_mode
                0x0000000040247e6c                spi_init_gpio
                0x0000000040247f30                spi_clock
                0x0000000040247f90                spi_tx_byte_order
                0x0000000040247fd4                spi_rx_byte_order
                0x0000000040248018                spi_init
                0x000000004024808c                spi_transaction
 *fill*         0x000000004024822b        0x1 
 .irom0.text    0x000000004024822c      0xbe9 build/app_app.a(mqtt.o)
                                        0xe4d (size before relaxing)
                0x0000000040248230                mqtt_tcpclient_sent_cb
                0x0000000040248270                mqtt_timer
                0x00000000402482e8                mqtt_tcpclient_discon_cb
                0x0000000040248334                mqtt_tcpclient_recon_cb
                0x0000000040248354                mqtt_tcpclient_recv
                0x0000000040248518                mqtt_tcpclient_connect_cb
                0x00000000402485f0                mqtt_send_keepalive
                0x0000000040248680                mqtt_tcpclient_delete
                0x00000000402486c8                mqtt_client_delete
                0x000000004024879c                MQTT_Publish
                0x0000000040248818                MQTT_Subscribe
                0x0000000040248888                MQTT_UnSubscribe
                0x00000000402488f4                MQTT_Ping
                0x0000000040248960                MQTT_InitConnection
                0x00000000402489d4                MQTT_InitClient
                0x0000000040248b08                MQTT_InitLWT
                0x0000000040248bac                MQTT_Connect
                0x0000000040248cb4                MQTT_Task
                0x0000000040248d88                MQTT_Disconnect
                0x0000000040248dbc                MQTT_DeleteClient
                0x0000000040248df0                MQTT_OnConnected
                0x0000000040248df8                MQTT_OnDisconnected
                0x0000000040248e00                MQTT_OnData
                0x0000000040248e08                MQTT_OnPublished
                0x0000000040248e10                MQTT_OnTimeout
 *fill*         0x0000000040248e15        0x3 
 .irom0.text    0x0000000040248e18      0x78b build/app_app.a(mqtt_msg.o)
                                        0x7b3 (size before relaxing)
                0x0000000040248f28                mqtt_msg_init
                0x0000000040248f58                mqtt_get_total_length
                0x0000000040248fa4                mqtt_get_publish_topic
                0x0000000040248ffc                mqtt_get_publish_data
                0x0000000040249094                mqtt_get_id
                0x0000000040249150                mqtt_msg_connect
                0x00000000402492b0                mqtt_msg_publish
                0x0000000040249364                mqtt_msg_puback
                0x00000000402493a0                mqtt_msg_pubrec
                0x00000000402493dc                mqtt_msg_pubrel
                0x0000000040249418                mqtt_msg_pubcomp
                0x0000000040249454                mqtt_msg_subscribe
                0x00000000402494e0                mqtt_msg_unsubscribe
                0x0000000040249550                mqtt_msg_pingreq
                0x000000004024956c                mqtt_msg_pingresp
                0x0000000040249588                mqtt_msg_disconnect
 *fill*         0x00000000402495a3        0x1 
 .irom0.text    0x00000000402495a4       0x77 build/app_app.a(queue.o)
                                         0x8b (size before relaxing)
                0x00000000402495a8                QUEUE_Init
                0x00000000402495dc                QUEUE_Puts
                0x00000000402495f4                QUEUE_Gets
                0x000000004024960c                QUEUE_IsEmpty
 *fill*         0x000000004024961b        0x1 
 .irom0.text    0x000000004024961c      0x26d build/app_app.a(proto.o)
                                        0x289 (size before relaxing)
                0x000000004024961c                PROTO_Init
                0x0000000040249630                PROTO_ParseByte
                0x00000000402496b4                PROTO_Parse
                0x00000000402496f0                PROTO_ParseRb
                0x0000000040249740                PROTO_Add
                0x00000000402497e0                PROTO_AddRb
 *fill*         0x0000000040249889        0x3 
 .irom0.text    0x000000004024988c      0x259 build/app_app.a(config.o)
                                        0x345 (size before relaxing)
                0x0000000040249890                cfg_save
                0x0000000040249924                config_save_timer_func
                0x00000000402499a8                cfg_load
                0x0000000040249aac                cfg_save_defered
 *fill*         0x0000000040249ae5        0x3 
 .irom0.text    0x0000000040249ae8      0x2cb build/app_app.a(wifi.o)
                                        0x3db (size before relaxing)
                0x0000000040249b2c                wifi_default
                0x0000000040249ba8                wifi_fallback
                0x0000000040249c28                wifi_scan_done_cb
                0x0000000040249d00                wifi_connect
 *fill*         0x0000000040249db3        0x1 
 .irom0.text    0x0000000040249db4      0x5aa build/app_app.a(cgiwifi.o)
                                        0x772 (size before relaxing)
                0x0000000040249dcc                wifiScanDoneCb
                0x0000000040249ed8                cgiWiFiScan
                0x000000004024a018                cgiSetup
                0x000000004024a154                cgiWifiSetMode
                0x000000004024a1dc                tplSetup
 *fill*         0x000000004024a35e        0x2 
 .irom0.text    0x000000004024a360      0xa67 build/app_app.a(tinyprintf.o)
                                        0xa9b (size before relaxing)
                0x000000004024a780                tfp_format
                0x000000004024ac9c                init_printf
                0x000000004024aca8                tfp_printf
                0x000000004024ace8                tfp_vsnprintf
                0x000000004024ad34                tfp_snprintf
                0x000000004024ad64                tfp_vsprintf
                0x000000004024ad9c                tfp_sprintf
 *fill*         0x000000004024adc7        0x1 
 .irom0.text    0x000000004024adc8      0x165 build/app_app.a(unix_time.o)
                                        0x1cd (size before relaxing)
                0x000000004024ae5c                init_unix_time
                0x000000004024aee0                get_unix_time
                0x000000004024aefc                uptime
 *fill*         0x000000004024af2d        0x3 
 .irom0.text    0x000000004024af30      0x1a5 build/app_app.a(cgi.o)
                                        0x1f9 (size before relaxing)
                0x000000004024af3c                cgiLed
                0x000000004024af98                tplLed
                0x000000004024b010                tplCounter
                0x000000004024b070                cgiReadFlash
 *fill*         0x000000004024b0d5        0x3 
 .irom0.text    0x000000004024b0d8      0x314 build/app_app.a(httpdespfs.o)
                                        0x3a0 (size before relaxing)
                0x000000004024b0e4                cgiEspFsHook
                0x000000004024b188                cgiEspFsTemplate
 .irom0.text    0x000000004024b3ec      0x28b build/app_app.a(espfs.o)
                                        0x2a3 (size before relaxing)
                0x000000004024b3ec                memcpyAligned
                0x000000004024b438                espFsOpen
                0x000000004024b548                espFsRead
                0x000000004024b648                espFsClose
 *fill*         0x000000004024b677        0x1 
 .irom0.text    0x000000004024b678      0x158 build/app_app.a(hmac-sha256.o)
                                        0x1ac (size before relaxing)
                0x000000004024b678                hmac_sha256_init
                0x000000004024b70c                hmac_sha256_update
                0x000000004024b724                hmac_sha256_final
                0x000000004024b784                hmac_sha256
 .irom0.text    0x000000004024b7d0       0xfa /home/stoffer/esp8266/esp-open-sdk/sdk/lib/libphy.a(phy.o)
                                        0x11e (size before relaxing)
                0x000000004024b7d4                rf_init
                0x000000004024b7f0                bb_init
                0x000000004024b808                phy_init
                0x000000004024b838                RFChannelSel
                0x000000004024b854                phy_delete_channel
                0x000000004024b86c                phy_enable_agc
                0x000000004024b884                phy_disable_agc
                0x000000004024b89c                phy_initialize_bb
                0x000000004024b8b4                phy_set_sense
 *fill*         0x000000004024b8ca        0x2 
 .irom0.text    0x000000004024b8cc     0x1767 /home/stoffer/esp8266/esp-open-sdk/sdk/lib/libphy.a(phy_chip_v6_ana.o)
                                       0x1973 (size before relaxing)
                0x000000004024b8d0                ram_pbus_set_rxgain
                0x000000004024b9a0                ram_pbus_debugmode
                0x000000004024ba54                ram_pbus_xpd_tx_on
                0x000000004024bac0                set_rf_freq_offset
                0x000000004024bb30                chip_v6_rxmax_ext_ana
                0x000000004024bc84                ram_chip_v6_rx_init
                0x000000004024bcb8                tsen_meas
                0x000000004024bd68                readvdd33
                0x000000004024bf34                txpwr_offset
                0x000000004024bff0                set_txcap_reg
                0x000000004024c070                ram_ana_inf_gating_en
                0x000000004024c1d0                ram_restart_cal
                0x000000004024c23c                wait_rfpll_cal_end
                0x000000004024c2d4                ram_rfpll_set_freq
                0x000000004024c3dc                ram_set_channel_freq
                0x000000004024c6d8                chip_60_set_channel
                0x000000004024c878                chip_v6_set_chan_offset
                0x000000004024c8d8                chip_v6_set_chan
                0x000000004024c980                chip_v6_set_chan_wakeup
                0x000000004024ca00                chip_v6_rf_init
                0x000000004024cc64                low_power_set
                0x000000004024ccb4                test_tout
                0x000000004024ce2c                check_data_flag
                0x000000004024ce4c                phy_get_check_flag
                0x000000004024cf80                phy_get_vdd33
 *fill*         0x000000004024d033        0x1 
 .irom0.text    0x000000004024d034     0x3e8c /home/stoffer/esp8266/esp-open-sdk/sdk/lib/libphy.a(phy_chip_v6.o)
                                       0x453c (size before relaxing)
                0x000000004024d034                ram_tx_mac_enable
                0x000000004024d038                ram_tx_mac_disable
                0x000000004024d03c                rtc_mem_backup
                0x000000004024d06c                rtc_mem_recovery
                0x000000004024d09c                set_cal_rxdc
                0x000000004024d150                set_rx_gain_cal_iq
                0x000000004024d4ac                gen_rx_gain_table
                0x000000004024d604                pbus_set_rxbbgain
                0x000000004024d684                set_rx_gain_testchip_50
                0x000000004024d9b8                ram_get_corr_power
                0x000000004024daa8                check_data_func
                0x000000004024dac8                do_noisefloor_lsleep_v50
                0x000000004024dafc                do_noisefloor
                0x000000004024db6c                start_dig_rx
                0x000000004024dbb0                stop_dig_rx
                0x000000004024dbdc                chip_v6_set_chanfreq
                0x000000004024dc08                tx_cap_init
                0x000000004024ddf4                target_power_add_backoff
                0x000000004024de20                tx_pwctrl_init_cal
                0x000000004024df98                tx_atten_set_interp
                0x000000004024e1f8                check_tx_pwr_cal
                0x000000004024e33c                tx_pwctrl_init
                0x000000004024e460                ram_get_noisefloor
                0x000000004024e47c                get_noisefloor_sat
                0x000000004024e4ac                ram_set_noise_floor
                0x000000004024e508                ram_start_noisefloor
                0x000000004024e554                read_hw_noisefloor
                0x000000004024e580                noise_check_loop
                0x000000004024e6dc                noise_init
                0x000000004024e8dc                target_power_backoff
                0x000000004024e930                sdt_on_noise_start
                0x000000004024e9b0                chip_v6_set_chan_rx_cmp
                0x000000004024eb3c                chip_v6_set_chan_misc
                0x000000004024ebd0                phy_dig_spur_set
                0x000000004024ef28                phy_dig_spur_prot
                0x000000004024f160                chip_v6_rxmax_ext_dig
                0x000000004024f1ac                chip_v6_rxmax_ext
                0x000000004024f254                phy_bb_rx_cfg
                0x000000004024f66c                uart_wait_idle
                0x000000004024f6a4                phy_pbus_soc_cfg
                0x000000004024f75c                phy_gpio_cfg
                0x000000004024f974                tx_cont_en
                0x000000004024fa1c                tx_cont_dis
                0x000000004024fa70                tx_cont_cfg
                0x000000004024fa94                chip_v6_initialize_bb
                0x000000004024fc00                periodic_cal
                0x000000004024fce0                bbpll_cal
                0x000000004024fd78                periodic_cal_top
                0x000000004024fdd8                register_chipv6_phy_init_param
                0x0000000040250080                change_bbpll160_sleep
                0x0000000040250230                change_bbpll160
                0x0000000040250268                set_crystal_uart
                0x00000000402502f8                ant_switch_init
                0x00000000402503a8                reduce_current_init
                0x0000000040250494                rtc_mem_check
                0x00000000402504d0                phy_afterwake_set_rfoption
                0x00000000402504f0                deep_sleep_set_option
                0x000000004025051c                write_data_to_rtc
                0x0000000040250554                get_data_from_rtc
                0x00000000402505d4                register_chipv6_phy
                0x0000000040250a70                set_dpd_bypass
                0x0000000040250a98                set_rf_gain_stage10
                0x0000000040250ac8                get_vdd33_offset
                0x0000000040250b3c                get_phy_target_power
                0x0000000040250bf0                set_most_pwr_reg
                0x0000000040250cc4                phy_set_most_tpw
                0x0000000040250ce4                phy_vdd33_set_tpw
                0x0000000040250cfc                get_adc_rand
                0x0000000040250d30                phy_get_rand
                0x0000000040250d48                phy_tx_pwctrl_cali
                0x0000000040250d70                phy_check_data_table
                0x0000000040250dac                phy_after_init_enrx
                0x0000000040250e10                phy_set_rx11b_reg
                0x0000000040250e44                phy_set_powerup_option
                0x0000000040250e54                phy_get_txpwr_param
                0x0000000040250ea0                phy_get_rxnf_param
                0x0000000040250eac                phy_get_freq_param
 .irom0.text    0x0000000040250ec0     0x2178 /home/stoffer/esp8266/esp-open-sdk/sdk/lib/libphy.a(phy_chip_v6_cal.o)
                                       0x23a4 (size before relaxing)
                0x0000000040250ec0                txbbgain2dcoindex
                0x0000000040250ee0                dcoindex2txbbgain
                0x0000000040250f04                init_cal_dcoffset
                0x0000000040250fc8                set_rfanagain_dc_reg
                0x0000000040251064                set_txdc_pbus
                0x00000000402510d0                get_rf_gain_qdb
                0x00000000402510f8                correct_rf_ana_gain
                0x0000000040251200                get_sar_dout
                0x000000004025128c                cal_rf_ana_gain
                0x00000000402513b8                meas_tone_pwr_db
                0x0000000040251428                tx_pwr_backoff
                0x00000000402515b0                get_fcc_1m2m_pwr_offset
                0x00000000402515ec                ram_set_txbb_atten
                0x0000000040251680                txiq_get_mis_pwr
                0x0000000040251728                txiq_cover
                0x0000000040251944                ram_rfcal_txiq
                0x0000000040251bb4                rc_cal
                0x0000000040251d74                get_target_power_offset
                0x0000000040251e7c                get_pwctrl_correct
                0x0000000040251ed4                tx_pwctrl_cal
                0x00000000402521d0                tx_pwctrl_bg_init
                0x0000000040252248                tx_pwctrl_background
                0x0000000040252300                read_sar_dout
                0x0000000040252364                ram_get_fm_sar_dout
                0x0000000040252408                ram_cal_tos_v60
                0x00000000402525d8                ram_get_bb_atten
                0x0000000040252608                ram_rfcal_txcap
                0x00000000402527cc                ram_rfcal_pwrctrl
                0x00000000402529f4                ram_rxiq_get_mis
                0x0000000040252bc4                ram_rxiq_cover_mg_mp
                0x0000000040252d68                ram_rfcal_rxiq
                0x0000000040252f74                dpd_scale_set
                0x0000000040252fbc                dpd_mem_write
 .irom0.text    0x0000000040253038      0xd92 /home/stoffer/esp8266/esp-open-sdk/sdk/lib/libphy.a(phy_sleep.o)
                                        0xfc6 (size before relaxing)
                0x0000000040253038                pm_usec2rtc
                0x000000004025306c                pm_rtc2usec
                0x0000000040253078                pm_set_sleep_cycles
                0x000000004025309c                pm_sleep_opt
                0x00000000402531e0                pm_wakeup_opt
                0x0000000040253218                get_chip_version
                0x0000000040253258                pm_sleep_opt_bb_off
                0x0000000040253298                pm_sleep_opt_bb_on
                0x00000000402532e0                pm_set_pll_xtal_wait_time
                0x000000004025330c                pm_prepare_to_sleep
                0x0000000040253314                pm_sdio_nidle
                0x0000000040253388                chg_lslp_mem_opt_8266
                0x00000000402533b8                pm_goto_sleep
                0x0000000040253504                pm_wait4wakeup
                0x0000000040253540                pm_open_rf
                0x0000000040253580                pm_sleep_set_mac
                0x0000000040253604                pm_set_wakeup_mac
                0x000000004025369c                pm_check_mac_idle
                0x00000000402536f4                pm_set_sleep_btco
                0x0000000040253794                pm_set_wakeup_btco
                0x00000000402538ac                pm_set_sleep_mode
                0x00000000402539c8                pm_unmask_bt
                0x0000000040253a30                pm_wakeup_init
                0x0000000040253c70                sleep_opt_8266
                0x0000000040253c90                sleep_opt_bb_on_8266
                0x0000000040253cc8                sleep_reset_analog_rtcreg_8266
 *fill*         0x0000000040253dca        0x2 
 .irom0.text    0x0000000040253dcc      0x469 /home/stoffer/esp8266/esp-open-sdk/sdk/lib/libpp.a(if_hwctrl.o)
                                        0x581 (size before relaxing)
                0x0000000040253dec                ic_get_addr
                0x0000000040253df8                ic_set_opmode
                0x0000000040253e0c                ic_enable_interface
                0x0000000040253e5c                ic_interface_enabled
                0x0000000040253e70                ic_disable_interface
                0x0000000040253eb8                ic_is_pure_sta
                0x0000000040253ed4                ic_get_ptk_alg
                0x0000000040253ee4                ic_get_gtk_alg
                0x0000000040253ef4                ic_set_ptk_alg
                0x0000000040253f04                ic_set_gtk_alg
                0x0000000040253f14                ic_interface_is_p2p
                0x0000000040253fac                ic_set_vif
                0x000000004025406c                ic_set_sta
                0x0000000040254144                ic_bss_info_update
                0x00000000402541a0                ic_set_key
                0x00000000402541fc                ic_remove_key
                0x0000000040254210                ic_get_rssi
 *fill*         0x0000000040254235        0x3 
 .irom0.text    0x0000000040254238      0x100 /home/stoffer/esp8266/esp-open-sdk/sdk/lib/libpp.a(lmac.o)
                                        0x118 (size before relaxing)
                0x000000004025423c                lmacInitAc
                0x0000000040254270                lmacInit
                0x000000004025431c                lmacSetRetryLimit
 .irom0.text    0x0000000040254338     0x19f1 /home/stoffer/esp8266/esp-open-sdk/sdk/lib/libpp.a(pm.o)
                                       0x1f91 (size before relaxing)
                0x0000000040254340                pm_rtc_clock_cali_proc
                0x0000000040254378                pm_get_ck170_period
                0x000000004025439c                pm_set_sleep_time
                0x0000000040254720                pm_rf_is_closed
                0x0000000040254750                pm_set_sleep_type_from_upper
                0x0000000040254840                pm_get_sleep_type
                0x00000000402549fc                uart_tx_flush
                0x0000000040254a00                pm_suspend
                0x0000000040254c20                pm_shutdown
                0x0000000040254ce8                pm_reset_idle_sleep
                0x0000000040254d28                pm_idle_sleep
                0x0000000040254d34                pm_open
                0x0000000040254e10                pm_onBcnRx
                0x00000000402551a8                StopLightSleepSetFunc
                0x00000000402551b0                LightSleepWakedCbSetFunc
                0x000000004025576c                pm_enable_gpio_wakeup
                0x00000000402557a4                pm_attach
                0x0000000040255894                pm_send_nullfunc
                0x0000000040255a38                pm_is_waked
                0x0000000040255a50                pm_is_open
                0x0000000040255a68                pm_scan_lock
                0x0000000040255a90                pm_try_scan_unlock
                0x0000000040255aa8                pm_force_scan_unlock
                0x0000000040255b4c                pm_scan_unlocked
                0x0000000040255b60                pm_allow_tx
                0x0000000040255b7c                pm_assoc_parse
                0x0000000040255b94                pm_set_addr
                0x0000000040255bb4                pm_sleep_for
                0x0000000040255be4                pm_post
                0x0000000040255ce8                pm_get_idle_wait_time
 *fill*         0x0000000040255d29        0x3 
 .irom0.text    0x0000000040255d2c      0xb48 /home/stoffer/esp8266/esp-open-sdk/sdk/lib/libpp.a(pm_for_bcn_only_mode.o)
                                        0xf0c (size before relaxing)
                0x0000000040255d40                wifi_fpm_set_sleep_type
                0x0000000040255d40                fpm_set_type_from_upper
                0x0000000040255dfc                wifi_fpm_get_sleep_type
                0x0000000040255dfc                fpm_get_slp_type
                0x0000000040255e04                fpm_rf_is_closed
                0x0000000040255e18                fpm_is_open
                0x0000000040255e24                fpm_allow_tx
                0x0000000040255e48                wifi_fpm_close
                0x0000000040255e48                fpm_close
                0x0000000040255ec4                wifi_fpm_open
                0x0000000040255ec4                fpm_open
                0x0000000040255f2c                fpm_attach
                0x0000000040256110                wifi_fpm_set_wakeup_cb
                0x0000000040256110                fpm_set_wakeup_cb
                0x0000000040256254                wifi_fpm_do_wakeup
                0x0000000040256254                fpm_do_wakeup
                0x000000004025678c                fpm_do_sleep
                0x000000004025678c                wifi_fpm_do_sleep
                0x000000004025682c                fpm_auto_sleep_set_in_null_mode
                0x000000004025682c                wifi_fpm_auto_sleep_set_in_null_mode
                0x000000004025686c                get_fpm_auto_sleep_flag
 .irom0.text    0x0000000040256874     0x15ba /home/stoffer/esp8266/esp-open-sdk/sdk/lib/libpp.a(pp.o)
                                       0x19a2 (size before relaxing)
                0x0000000040256880                PPWdtReset
                0x00000000402568b4                pp_soft_wdt_init
                0x00000000402568d4                system_soft_wdt_feed
                0x00000000402568d4                pp_soft_wdt_feed
                0x00000000402568f0                pp_soft_wdt_stop
                0x00000000402568f0                system_soft_wdt_stop
                0x000000004025691c                pp_soft_wdt_restart
                0x000000004025691c                system_soft_wdt_restart
                0x0000000040256954                RxNodeNum
                0x000000004025696c                TxNodeNum
                0x0000000040256990                pp_disable_noise_timer
                0x00000000402569b0                pp_enable_noise_timer
                0x0000000040256ac0                pp_noise_test
                0x0000000040256ad0                reset_noise_timer
                0x0000000040256b08                pp_disable_idle_timer
                0x0000000040256b2c                pp_enable_idle_timer
                0x0000000040256b54                pp_try_enable_idle_timer
                0x0000000040256b90                ppPeocessRxPktHdr
                0x0000000040256ec4                HdlAllBuffedEb
                0x0000000040256f4c                ppTxPkt
                0x00000000402570c4                ppProcessWaitQ
                0x00000000402570d4                ppRegisterTxCallback
                0x00000000402570fc                ppUnregisterTxCallback
                0x0000000040257130                ppRecycleRxPkt
                0x0000000040257190                ppCheckTxIdle
                0x000000004025740c                pp_tx_idle_timeout
                0x00000000402575d0                DefFreqCalTimerCB
                0x000000004025794c                ppGetTxQFirstAvail_Locked
                0x0000000040257a2c                pp_attach
 *fill*         0x0000000040257e2e        0x2 
 .irom0.text    0x0000000040257e30      0x296 /home/stoffer/esp8266/esp-open-sdk/sdk/lib/libpp.a(rate_control.o)
                                        0x2a2 (size before relaxing)
                0x000000004025807c                RC_SetBasicRate
 *fill*         0x00000000402580c6        0x2 
 .irom0.text    0x00000000402580c8      0x5e9 /home/stoffer/esp8266/esp-open-sdk/sdk/lib/libpp.a(trc.o)
                                        0x64d (size before relaxing)
                0x00000000402580c8                phytype2mode
                0x00000000402580e4                rc_set_rate_limit_id
                0x0000000040258200                rcUpdatePhyMode
                0x00000000402583cc                rcAttach
                0x0000000040258418                rcGetTrc
                0x0000000040258420                trc_onDisconnect
                0x0000000040258424                trc_onScanStart
                0x0000000040258438                trc_onScanDone
                0x0000000040258454                rc_enable_trc
                0x000000004025852c                rc_get_mask
                0x0000000040258540                rc_disable_trc
                0x0000000040258594                rc_disable_trc_by_interface
                0x00000000402585b0                rc_get_sta_trc
                0x00000000402585f4                rc_get_trc
                0x0000000040258664                rc_get_trc_by_index
                0x0000000040258684                rc_only_sta_trc
 *fill*         0x00000000402586b1        0x3 
 .irom0.text    0x00000000402586b4      0xaf7 /home/stoffer/esp8266/esp-open-sdk/sdk/lib/libpp.a(wdev.o)
                                        0xc53 (size before relaxing)
                0x00000000402586c0                wDev_Option_Init
                0x00000000402587b4                wDev_Enable_Beacon_Tsf
                0x00000000402587d0                wDev_Disable_Beacon_Tsf
                0x00000000402587ec                wDev_Set_Beacon_Int
                0x00000000402587f4                wDev_Reset_TBTT
                0x0000000040258824                wDev_Get_Next_TBTT
                0x0000000040258aa0                wDev_Initialize
                0x0000000040258b10                wDevForceAck6M
                0x0000000040258b2c                wDev_SetMacAddress
                0x0000000040258bc8                wDev_SetRxPolicy
                0x0000000040258c1c                wDev_SetBssid
                0x0000000040258cf4                wDev_ClearBssid
                0x0000000040258d2c                wDev_Insert_KeyEntry
                0x0000000040258e20                wDev_remove_KeyEntry
                0x0000000040258e5c                wDev_remove_KeyEntry_all_cnx
                0x0000000040258eac                wDev_Crypto_Conf
                0x0000000040258f48                wDev_Crypto_Disable
                0x0000000040258f80                wDevEnableRx
                0x0000000040258fa8                wdev_go_sniffer
                0x0000000040259084                wdev_set_sniffer_addr
                0x00000000402590dc                wdev_exit_sniffer
 *fill*         0x00000000402591ab        0x1 
 .irom0.text    0x00000000402591ac      0x3ed /home/stoffer/esp8266/esp-open-sdk/sdk/lib/libpp.a(esf_buf.o)
                                        0x4c1 (size before relaxing)
                0x00000000402591b4                esf_buf_alloc
                0x000000004025939c                esf_buf_recycle
                0x00000000402594dc                esf_buf_setup
 *fill*         0x0000000040259599        0x3 
 .irom0.text    0x000000004025959c      0x475 /home/stoffer/esp8266/esp-open-sdk/sdk/lib/libnet80211.a(ieee80211.o)
                                        0x545 (size before relaxing)
                0x0000000040259620                ieee80211_rate_ref_init
                0x0000000040259634                ieee80211_freedom_inside_cb
                0x0000000040259664                ieee80211_freedom_init
                0x0000000040259688                ieee80211_user_ie_init
                0x00000000402596a4                ieee80211_ifattach
                0x0000000040259708                ieee80211_mhz2ieee
                0x0000000040259764                ieee80211_chan2ieee
                0x0000000040259780                ieee80211_ieee2mhz
                0x00000000402597c0                ieee80211_find_channel
                0x00000000402597ec                ieee80211_find_channel_byieee
                0x000000004025983c                wifi_mode_set
 *fill*         0x0000000040259a11        0x3 
 .irom0.text    0x0000000040259a14       0xcf /home/stoffer/esp8266/esp-open-sdk/sdk/lib/libnet80211.a(ieee80211_crypto.o)
                                         0xd7 (size before relaxing)
                0x0000000040259a14                ieee80211_crypto_attach
                0x0000000040259a18                ieee80211_crypto_available
                0x0000000040259a1c                ieee80211_crypto_setkey
                0x0000000040259a20                ieee80211_crypto_encap
                0x0000000040259a78                ieee80211_crypto_decap
 *fill*         0x0000000040259ae3        0x1 
 .irom0.text    0x0000000040259ae4       0x4c /home/stoffer/esp8266/esp-open-sdk/sdk/lib/libnet80211.a(ieee80211_ets.o)
                                         0x50 (size before relaxing)
                0x0000000040259ae8                ieee80211_getmgtframe
 .irom0.text    0x0000000040259b30     0x1a08 /home/stoffer/esp8266/esp-open-sdk/sdk/lib/libnet80211.a(ieee80211_hostap.o)
                                       0x1f77 (size before relaxing)
                0x000000004025a154                ieee80211_hostap_attach
                0x000000004025a250                hostap_handle_timer
                0x000000004025a2e8                hostap_input
                0x000000004025b234                wifi_softap_start
                0x000000004025b3a0                wifi_softap_stop
 *fill*         0x000000004025b538        0x0 
 .irom0.text    0x000000004025b538      0xa7e /home/stoffer/esp8266/esp-open-sdk/sdk/lib/libnet80211.a(ieee80211_ht.o)
                                        0xb4e (size before relaxing)
                0x000000004025b548                ieee80211_ht_attach
                0x000000004025b59c                ieee80211_ht_node_init
                0x000000004025b5dc                ieee80211_ht_node_cleanup
                0x000000004025b614                ieee80211_parse_htcap
                0x000000004025b6f4                ieee80211_ht_updateparams
                0x000000004025b808                ieee80211_setup_htrates
                0x000000004025b8d4                ieee80211_setup_basic_htrates
                0x000000004025bc20                ieee80211_add_htcap
                0x000000004025bc3c                ieee80211_add_htcap_vendor
                0x000000004025bd60                ieee80211_add_htinfo
                0x000000004025bd7c                ieee80211_add_htinfo_vendor
 *fill*         0x000000004025bfb6        0x2 
 .irom0.text    0x000000004025bfb8      0xa8c /home/stoffer/esp8266/esp-open-sdk/sdk/lib/libnet80211.a(ieee80211_input.o)
                                        0xb1c (size before relaxing)
                0x000000004025bfb8                ieee80211_deliver_data
                0x000000004025c00c                ieee80211_decap
                0x000000004025c110                ieee80211_setup_rates
                0x000000004025c180                ieee80211_alloc_challenge
                0x000000004025c1bc                ieee80211_parse_beacon
                0x000000004025c790                ieee80211_parse_wpa
                0x000000004025c8a4                ieee80211_parse_rsn
                0x000000004025c9a4                ieee80211_parse_action
                0x000000004025ca40                ieee80211_setup_rateset
 .irom0.text    0x000000004025ca44      0x2a6 /home/stoffer/esp8266/esp-open-sdk/sdk/lib/libnet80211.a(ieee80211_mesh_quick.o)
                                        0x302 (size before relaxing)
                0x000000004025ca50                ieee80211_mesh_quick_init
                0x000000004025cac0                ieee80211_mesh_quick_deinit
                0x000000004025caf0                ieee80211_mesh_quick_set
                0x000000004025cbec                ieee80211_mesh_quick_get
                0x000000004025ccb8                ieee80211_mesh_quick_ie_add
 *fill*         0x000000004025ccea        0x2 
 .irom0.text    0x000000004025ccec     0x1c56 /home/stoffer/esp8266/esp-open-sdk/sdk/lib/libnet80211.a(ieee80211_output.o)
                                       0x1ff2 (size before relaxing)
                0x000000004025ccf0                ieee80211_output_pbuf
                0x000000004025cf60                ieee80211_send_setup
                0x000000004025d094                ieee80211_mgmt_output
                0x000000004025d178                ieee80211_tx_mgt_cb
                0x000000004025d17c                ieee80211_send_nulldata
                0x000000004025d5ec                ieee80211_add_rates
                0x000000004025d63c                ieee80211_add_xrates
                0x000000004025d70c                ieee80211_send_probereq
                0x000000004025d920                ieee80211_getcapinfo
                0x000000004025d97c                ieee80211_send_mgmt
                0x000000004025df24                ieee80211_alloc_proberesp
                0x000000004025e0fc                ieee80211_send_proberesp
                0x000000004025e244                ieee80211_alloc_deauth
                0x000000004025e284                ieee80211_send_deauth
                0x000000004025e3c0                ieee80211_freedom_output
                0x000000004025e7ac                ieee80211_beacon_alloc
 *fill*         0x000000004025e942        0x2 
 .irom0.text    0x000000004025e944       0xe0 /home/stoffer/esp8266/esp-open-sdk/sdk/lib/libnet80211.a(ieee80211_phy.o)
                                        0x108 (size before relaxing)
                0x000000004025e944                ieee80211_phy_init
                0x000000004025e978                ieee80211_phy_type_get
                0x000000004025e994                ieee80211_setup_ratetable
 .irom0.text    0x000000004025ea24      0x1b6 /home/stoffer/esp8266/esp-open-sdk/sdk/lib/libnet80211.a(ieee80211_power.o)
                                        0x1f2 (size before relaxing)
                0x000000004025ea24                ieee80211_psq_init
                0x000000004025ea44                ieee80211_psq_cleanup
                0x000000004025ea4c                ieee80211_set_tim
                0x000000004025ea8c                ieee80211_pwrsave
                0x000000004025eaf4                pwrsave_flushq
                0x000000004025eba4                ieee80211_node_pwrsave
 *fill*         0x000000004025ebda        0x2 
 .irom0.text    0x000000004025ebdc      0x101 /home/stoffer/esp8266/esp-open-sdk/sdk/lib/libnet80211.a(ieee80211_proto.o)
                                        0x129 (size before relaxing)
                0x000000004025ebe0                ieee80211_proto_attach
                0x000000004025ec08                ieee80211_set_shortslottime
                0x000000004025ec24                ieee80211_iserp_rateset
                0x000000004025ec58                ieee80211_wme_initparams
                0x000000004025ec5c                ieee80211_wme_updateparams
                0x000000004025ec64                ieee80211_mlme_connect_bss
 *fill*         0x000000004025ecdd        0x3 
 .irom0.text    0x000000004025ece0       0xaa /home/stoffer/esp8266/esp-open-sdk/sdk/lib/libnet80211.a(ieee80211_rfid.o)
                                         0xd6 (size before relaxing)
                0x000000004025ece0                ieee80211_rfid_locp_recv_open
                0x000000004025ed18                ieee80211_rfid_locp_recv_close
                0x000000004025ed30                ieee80211_rfid_locp_recv_reset
                0x000000004025ed50                ieee80211_rfid_locp_recv
                0x000000004025ed6c                register_ieee80211_rfid_locp_recv_cb
                0x000000004025ed80                unregister_ieee80211_rfid_locp_recv_cb
 *fill*         0x000000004025ed8a        0x2 
 .irom0.text    0x000000004025ed8c      0xf4d /home/stoffer/esp8266/esp-open-sdk/sdk/lib/libnet80211.a(ieee80211_scan.o)
                                       0x12a1 (size before relaxing)
                0x000000004025ed98                ieee80211_scan_attach
                0x000000004025ee2c                scan_start
                0x000000004025efec                scan_pm_channel_op_cb
                0x000000004025f18c                scan_cancel
                0x000000004025f2e8                scan_add_bssid
                0x000000004025f30c                scan_remove_bssid
                0x000000004025f318                scan_hidden_ssid
                0x000000004025f320                scan_add_probe_ssid
                0x000000004025f374                scan_remove_probe_ssid
                0x000000004025f4b0                scan_clear_channles
                0x000000004025f524                scan_set_desChan
                0x000000004025f530                scan_get_type
                0x000000004025f538                cannel_scan_connect_state
                0x000000004025f550                scan_connect_state
                0x000000004025f598                scan_check_hidden
                0x000000004025f5c4                scan_profile_check
                0x000000004025f968                scan_parse_beacon
 *fill*         0x000000004025fcd9        0x3 
 .irom0.text    0x000000004025fcdc     0x103e /home/stoffer/esp8266/esp-open-sdk/sdk/lib/libnet80211.a(ieee80211_sta.o)
                                       0x12c1 (size before relaxing)
                0x000000004025fd38                sta_status_set
                0x000000004025fda4                ieee80211_sta_new_state
                0x0000000040260134                sta_input
                0x0000000040260680                ieee80211_parse_wmeparams
                0x0000000040260c70                wifi_station_start
                0x0000000040260ce0                wifi_station_stop
 *fill*         0x0000000040260d1a        0x2 
 .irom0.text    0x0000000040260d1c      0x29e /home/stoffer/esp8266/esp-open-sdk/sdk/lib/libnet80211.a(wl_chm.o)
                                        0x31e (size before relaxing)
                0x0000000040260d28                chm_init
                0x0000000040260d8c                chm_acquire_lock
                0x0000000040260dd0                chm_release_lock
                0x0000000040260de4                chm_start_op
                0x0000000040260e88                chm_end_op
                0x0000000040260ed0                chm_cancel_op
                0x0000000040260f04                chm_return_home_channel
                0x0000000040260f34                chm_set_current_channel
                0x0000000040260f64                chm_freq2index
                0x0000000040260f8c                chm_check_same_channel
 *fill*         0x0000000040260fba        0x2 
 .irom0.text    0x0000000040260fbc     0x17d9 /home/stoffer/esp8266/esp-open-sdk/sdk/lib/libnet80211.a(wl_cnx.o)
                                       0x1d4d (size before relaxing)
                0x0000000040260fc8                cnx_attach
                0x0000000040261008                cnx_sta_connect_led_timer_cb
                0x000000004026105c                cnx_sta_connect_cmd
                0x0000000040261118                cnx_sta_scan_cmd
                0x0000000040261380                cnx_connect_timeout
                0x00000000402613fc                cnx_auth_timeout
                0x0000000040261420                cnx_assoc_timeout
                0x0000000040261444                cnx_handshake_timeout
                0x0000000040261484                cnx_start_handoff_cb
                0x00000000402618f4                cnx_bss_alloc
                0x0000000040261994                cnx_rc_search
                0x0000000040261a14                cnx_add_rc
                0x0000000040261a80                cnx_remove_all_rc
                0x0000000040261acc                cnx_remove_rc
                0x0000000040261b9c                cnx_rc_update_rssi
                0x0000000040261c24                cnx_rc_update_state_metric
                0x0000000040261c90                cnx_rc_update_age
                0x0000000040261cb4                cnx_update_bss
                0x0000000040261ce8                cnx_update_bss_more
                0x0000000040261ec4                cnx_sta_leave
                0x0000000040262158                cnx_sta_associated
                0x0000000040262260                cnx_node_alloc
                0x00000000402622d4                cnx_node_remove
                0x0000000040262360                cnx_node_search
                0x00000000402623dc                cnx_node_leave
                0x00000000402624dc                wifi_softap_staconnected_event_policy
                0x0000000040262504                wifi_softap_toomany_deny
                0x0000000040262540                cnx_node_join
 *fill*         0x0000000040262795        0x3 
 .irom0.text    0x0000000040262798      0x16f /home/stoffer/esp8266/esp-open-sdk/sdk/lib/libnet80211.a(ieee80211_action.o)
                                        0x193 (size before relaxing)
                0x00000000402627a8                ieee80211_send_action_register
                0x00000000402627dc                ieee80211_send_action_unregister
                0x00000000402627f0                ieee80211_send_action
                0x000000004026285c                ieee80211_recv_action_register
                0x0000000040262890                ieee80211_recv_action_unregister
                0x00000000402628a4                ieee80211_recv_action
 *fill*         0x0000000040262907        0x1 
 .irom0.text    0x0000000040262908      0x479 /home/stoffer/esp8266/esp-open-sdk/sdk/lib/libnet80211.a(ieee80211_action_vendor.o)
                                        0x505 (size before relaxing)
                0x000000004026290c                get_iav_key
                0x000000004026292c                register_ieee80211_action_vendor_get_key_cb
                0x0000000040262940                unregister_ieee80211_action_vendor_get_key_cb
                0x0000000040262954                ieee80211_add_action_vendor_spec_esp
                0x000000004026299c                ieee80211_alloc_action_vendor_spec
                0x0000000040262a88                ieee80211_send_action_vendor_spec
                0x0000000040262c1c                ieee80211_recv_action_vendor_spec
                0x0000000040262d24                ieee80211_action_vendor_spec_attach
                0x0000000040262d64                register_ieee80211_action_vendor_spec_cb
                0x0000000040262d78                unregister_ieee80211_action_vendor_spec_cb
 *fill*         0x0000000040262d81        0x3 
 .irom0.text    0x0000000040262d84      0x15d /home/stoffer/esp8266/esp-open-sdk/sdk/lib/libnet80211.a(ieee80211_crypto_ccmp.o)
                                        0x165 (size before relaxing)
 *fill*         0x0000000040262ee1        0x3 
 .irom0.text    0x0000000040262ee4      0x23d /home/stoffer/esp8266/esp-open-sdk/sdk/lib/libnet80211.a(ieee80211_ie_vendor.o)
                                        0x25d (size before relaxing)
                0x0000000040262ee8                ieee80211_add_ie_vendor_esp_head
                0x0000000040262f20                ieee80211_add_ie_vendor_esp_mesh_assoc
                0x0000000040262fa4                ieee80211_add_ie_vendor_esp_mesh_group
                0x0000000040262fd4                ieee80211_add_ie_vendor_esp_simple_pair
                0x0000000040263024                ieee80211_add_ie_vendor_esp_freq_annon
                0x000000004026305c                ieee80211_add_ie_vendor_esp_now
                0x0000000040263094                ieee80211_add_ie_vendor_esp_ssid
                0x00000000402630d4                ieee80211_add_ie_vendor_esp_manufacturer
 *fill*         0x0000000040263121        0x3 
 .irom0.text    0x0000000040263124     0x146a /home/stoffer/esp8266/esp-open-sdk/sdk/lib/liblwip.a(dhcp.o)
                                       0x1666 (size before relaxing)
                0x00000000402633a0                dhcp_coarse_tmr
                0x00000000402633ec                dhcp_fine_tmr
                0x0000000040263644                dhcp_set_struct
                0x000000004026366c                dhcp_cleanup
                0x0000000040263698                dhcp_start
                0x0000000040263750                dhcp_inform
                0x00000000402637fc                dhcp_network_changed
                0x0000000040263844                dhcp_arp_reply
                0x0000000040263b40                dhcp_renew
                0x0000000040263e6c                dhcp_release
                0x0000000040263f2c                dhcp_stop
 *fill*         0x000000004026458e        0x2 
 .irom0.text    0x0000000040264590      0xdd6 /home/stoffer/esp8266/esp-open-sdk/sdk/lib/liblwip.a(dhcpserver.o)
                                       0x1006 (size before relaxing)
                0x0000000040264590                node_insert_to_list
                0x00000000402645c8                node_remove_from_list
                0x0000000040264cd0                dhcps_start
                0x0000000040264d38                dhcps_stop
                0x0000000040264da4                wifi_softap_set_dhcps_lease
                0x0000000040264e90                wifi_softap_get_dhcps_lease
                0x0000000040264f30                dhcps_coarse_tmr
                0x0000000040264fa4                wifi_softap_set_dhcps_offer_option
                0x0000000040264fe8                wifi_softap_set_dhcps_lease_time
                0x0000000040265018                wifi_softap_reset_dhcps_lease_time
                0x0000000040265044                wifi_softap_get_dhcps_lease_time
                0x000000004026504c                wifi_softap_dhcps_client_leave
                0x00000000402650f4                wifi_softap_dhcps_client_update
 *fill*         0x0000000040265366        0x2 
 .irom0.text    0x0000000040265368      0x5cf /home/stoffer/esp8266/esp-open-sdk/sdk/lib/liblwip.a(dns.o)
                                        0x68b (size before relaxing)
                0x0000000040265374                dns_init
                0x00000000402653b4                dns_setserver
                0x00000000402653d4                dns_getserver
                0x00000000402653e8                dns_tmr
                0x00000000402658e0                dns_gethostbyname
 *fill*         0x0000000040265937        0x1 
 .irom0.text    0x0000000040265938      0xa7a /home/stoffer/esp8266/esp-open-sdk/sdk/lib/liblwip.a(espconn.o)
                                        0xb72 (size before relaxing)
                0x0000000040265938                espconn_copy_partial
                0x00000000402659c8                espconn_list_creat
                0x00000000402659e8                espconn_list_delete
                0x0000000040265a10                espconn_pbuf_create
                0x0000000040265a2c                espconn_pbuf_delete
                0x0000000040265a54                espconn_find_connection
                0x0000000040265b10                espconn_connect
                0x0000000040265bf4                espconn_create
                0x0000000040265c3c                espconn_sent
                0x0000000040265c3c                espconn_send
                0x0000000040265d00                espconn_sendto
                0x0000000040265d48                espconn_tcp_get_wnd
                0x0000000040265d6c                espconn_tcp_set_wnd
                0x0000000040265d88                espconn_tcp_get_mss
                0x0000000040265d90                espconn_tcp_get_max_con
                0x0000000040265da0                espconn_tcp_set_max_con
                0x0000000040265db8                espconn_tcp_get_max_retran
                0x0000000040265dc8                espconn_tcp_set_max_retran
                0x0000000040265de0                espconn_tcp_get_max_syn
                0x0000000040265df0                espconn_tcp_set_max_syn
                0x0000000040265e08                espconn_tcp_get_max_con_allow
                0x0000000040265e30                espconn_tcp_set_max_con_allow
                0x0000000040265e60                espconn_tcp_set_buf_count
                0x0000000040265ea4                espconn_regist_sentcb
                0x0000000040265eb0                espconn_regist_write_finish
                0x0000000040265ec8                espconn_regist_connectcb
                0x0000000040265ed8                espconn_regist_recvcb
                0x0000000040265ee4                espconn_regist_reconcb
                0x0000000040265ef4                espconn_regist_disconcb
                0x0000000040265f08                espconn_get_connection_info
                0x0000000040265fd0                espconn_accept
                0x0000000040266014                espconn_regist_time
                0x0000000040266054                espconn_disconnect
                0x0000000040266098                espconn_abort
                0x00000000402660e0                espconn_get_packet_info
                0x0000000040266170                espconn_set_opt
                0x00000000402661c8                espconn_clear_opt
                0x0000000040266228                espconn_set_keepalive
                0x0000000040266294                espconn_get_keepalive
                0x0000000040266304                espconn_delete
                0x000000004026634c                espconn_port
                0x0000000040266384                espconn_gethostbyname
                0x00000000402663a0                espconn_dns_setserver
 *fill*         0x00000000402663b2        0x2 
 .irom0.text    0x00000000402663b4      0xfd8 /home/stoffer/esp8266/esp-open-sdk/sdk/lib/liblwip.a(espconn_tcp.o)
                                       0x1308 (size before relaxing)
                0x000000004026649c                espconn_kill_oldest_pcb
                0x0000000040266520                espconn_kill_pcb
                0x000000004026659c                espconn_find_current_pcb
                0x0000000040266638                espconn_tcp_memp_free
                0x0000000040266898                espconn_tcp_sent
                0x0000000040266950                espconn_tcp_disconnect
                0x00000000402669f8                espconn_recv_hold
                0x0000000040266a3c                espconn_recv_unhold
                0x0000000040266b48                espconn_tcp_write
                0x0000000040266d78                espconn_tcp_client
                0x0000000040267228                espconn_tcp_server
                0x00000000402672e4                espconn_tcp_delete
                0x0000000040267370                espconn_init
 .irom0.text    0x000000004026738c      0x4e7 /home/stoffer/esp8266/esp-open-sdk/sdk/lib/liblwip.a(espconn_udp.o)
                                        0x63f (size before relaxing)
                0x00000000402673dc                espconn_udp_sent
                0x0000000040267544                espconn_udp_sendto
                0x0000000040267798                espconn_udp_disconnect
                0x00000000402677d4                espconn_udp_server
                0x000000004026783c                espconn_igmp_leave
                0x0000000040267858                espconn_igmp_join
 *fill*         0x0000000040267873        0x1 
 .irom0.text    0x0000000040267874      0x8cf /home/stoffer/esp8266/esp-open-sdk/sdk/lib/liblwip.a(etharp.o)
                                        0x9b7 (size before relaxing)
                0x00000000402678a8                etharp_tmr
                0x0000000040267ad4                etharp_cleanup_netif
                0x0000000040267b10                etharp_find_addr
                0x0000000040267d64                etharp_output
                0x0000000040267e78                etharp_query
                0x00000000402680a8                etharp_request
                0x00000000402680cc                ethernet_input
 *fill*         0x0000000040268143        0x1 
 .irom0.text    0x0000000040268144      0x5f6 /home/stoffer/esp8266/esp-open-sdk/sdk/lib/liblwip.a(igmp.o)
                                        0x68a (size before relaxing)
                0x0000000040268150                igmp_init
                0x0000000040268160                igmp_start
                0x00000000402681a4                igmp_stop
                0x0000000040268208                igmp_report_groups
                0x0000000040268238                igmp_lookfor_group
                0x0000000040268300                igmp_input
                0x0000000040268448                igmp_joingroup
                0x00000000402684f0                igmp_leavegroup
                0x0000000040268594                igmp_tmr
 *fill*         0x000000004026873a        0x2 
 .irom0.text    0x000000004026873c       0x40 /home/stoffer/esp8266/esp-open-sdk/sdk/lib/liblwip.a(init.o)
                                         0x60 (size before relaxing)
                0x0000000040268740                lwip_init
 .irom0.text    0x000000004026877c      0x37a /home/stoffer/esp8266/esp-open-sdk/sdk/lib/liblwip.a(ip_addr.o)
                                        0x3a2 (size before relaxing)
                0x000000004026877c                ip4_addr_isbroadcast
                0x00000000402687a8                ip4_addr_netmask_valid
                0x00000000402687e8                ipaddr_addr
                0x0000000040268804                ipaddr_aton
                0x0000000040268a20                ipaddr_ntoa
                0x0000000040268a34                ipaddr_ntoa_r
 *fill*         0x0000000040268af6        0x2 
 .irom0.text    0x0000000040268af8      0x581 /home/stoffer/esp8266/esp-open-sdk/sdk/lib/liblwip.a(ip.o)
                                        0x62d (size before relaxing)
                0x0000000040268af8                ip_route
                0x0000000040268b74                ip_router
                0x0000000040268bf0                ip_input
                0x0000000040268e48                ip_output_if
                0x0000000040268e64                ip_output_if_opt
                0x0000000040269040                ip_output
 *fill*         0x0000000040269079        0x3 
 .irom0.text    0x000000004026907c      0x27d /home/stoffer/esp8266/esp-open-sdk/sdk/lib/liblwip.a(netif.o)
                                        0x2bd (size before relaxing)
                0x000000004026907c                netif_init
                0x0000000040269084                netif_add
                0x00000000402690ec                netif_set_addr
                0x0000000040269114                netif_remove
                0x0000000040269170                netif_find
                0x00000000402691ac                netif_set_ipaddr
                0x0000000040269214                netif_set_gw
                0x0000000040269224                netif_set_netmask
                0x0000000040269234                netif_set_default
                0x000000004026923c                netif_set_up
                0x0000000040269278                netif_set_down
                0x000000004026929c                netif_set_link_up
                0x00000000402692e8                netif_set_link_down
 *fill*         0x00000000402692f9        0x3 
 .irom0.text    0x00000000402692fc      0x68e /home/stoffer/esp8266/esp-open-sdk/sdk/lib/liblwip.a(pbuf.o)
                                        0x6f6 (size before relaxing)
                0x00000000402692fc                pbuf_free_ooseq_new
                0x0000000040269354                pbuf_alloc
                0x00000000402694b4                pbuf_realloc
                0x00000000402694fc                pbuf_header
                0x0000000040269568                pbuf_free
                0x00000000402695f4                pbuf_clen
                0x000000004026960c                pbuf_ref
                0x0000000040269618                pbuf_cat
                0x0000000040269644                pbuf_chain
                0x0000000040269660                pbuf_dechain
                0x000000004026969c                pbuf_copy
                0x0000000040269740                pbuf_copy_partial
                0x00000000402697c0                pbuf_take
                0x0000000040269820                pbuf_coalesce
                0x0000000040269854                pbuf_get_at
                0x000000004026987c                pbuf_memcmp
                0x00000000402698e8                pbuf_memfind
                0x0000000040269940                pbuf_strstr
 *fill*         0x000000004026998a        0x2 
 .irom0.text    0x000000004026998c      0x1f1 /home/stoffer/esp8266/esp-open-sdk/sdk/lib/liblwip.a(raw.o)
                                        0x249 (size before relaxing)
                0x0000000040269994                raw_input
                0x0000000040269a1c                raw_bind
                0x0000000040269a2c                raw_connect
                0x0000000040269a3c                raw_recv
                0x0000000040269a44                raw_sendto
                0x0000000040269ae0                raw_send
                0x0000000040269af8                raw_remove
                0x0000000040269b34                raw_new
 *fill*         0x0000000040269b7d        0x3 
 .irom0.text    0x0000000040269b80      0x879 /home/stoffer/esp8266/esp-open-sdk/sdk/lib/liblwip.a(sntp.o)
                                        0xa35 (size before relaxing)
                0x0000000040269b9c                sntp_mktm_r
                0x0000000040269e48                sntp_localtime_r
                0x0000000040269e5c                sntp_localtime
                0x0000000040269e78                sntp__tzcalc_limits
                0x000000004026a024                sntp_asctime_r
                0x000000004026a070                sntp_asctime
                0x000000004026a088                sntp_get_timezone
                0x000000004026a098                sntp_set_timezone
                0x000000004026a0a4                sntp_time_inc
                0x000000004026a330                sntp_init
                0x000000004026a368                sntp_stop
                0x000000004026a3a8                sntp_setserver
                0x000000004026a3c4                sntp_getserver
                0x000000004026a3d8                sntp_setservername
                0x000000004026a3e8                sntp_getservername
 *fill*         0x000000004026a3f9        0x3 
 .irom0.text    0x000000004026a3fc     0x157c /home/stoffer/esp8266/esp-open-sdk/sdk/lib/liblwip.a(tcp_in.o)
                                       0x17c0 (size before relaxing)
                0x000000004026a404                tcp_input
 .irom0.text    0x000000004026b978      0xae7 /home/stoffer/esp8266/esp-open-sdk/sdk/lib/liblwip.a(tcp.o)
                                        0xc23 (size before relaxing)
                0x000000004026b97c                tcp_tmr
                0x000000004026b9a0                tcp_close
                0x000000004026b9c4                tcp_shutdown
                0x000000004026ba24                tcp_abandon
                0x000000004026bacc                tcp_abort
                0x000000004026bae4                tcp_bind
                0x000000004026bb60                tcp_listen_with_backlog
                0x000000004026bc20                tcp_update_rcv_ann_wnd
                0x000000004026bc64                tcp_recved
                0x000000004026bcc0                tcp_connect
                0x000000004026bdcc                tcp_slowtmr
                0x000000004026c074                tcp_fasttmr
                0x000000004026c0f0                tcp_segs_free
                0x000000004026c10c                tcp_seg_free
                0x000000004026c138                tcp_setprio
                0x000000004026c140                tcp_seg_copy
                0x000000004026c184                tcp_recv_null
                0x000000004026c238                tcp_alloc
                0x000000004026c320                tcp_new
                0x000000004026c334                tcp_arg
                0x000000004026c338                tcp_recv
                0x000000004026c340                tcp_sent
                0x000000004026c348                tcp_err
                0x000000004026c350                tcp_accept
                0x000000004026c354                tcp_poll
                0x000000004026c35c                tcp_pcb_purge
                0x000000004026c3b0                tcp_pcb_remove
                0x000000004026c418                tcp_next_iss
                0x000000004026c42c                tcp_eff_send_mss
 *fill*         0x000000004026c45f        0x1 
 .irom0.text    0x000000004026c460      0xee8 /home/stoffer/esp8266/esp-open-sdk/sdk/lib/liblwip.a(tcp_out.o)
                                        0xfec (size before relaxing)
                0x000000004026c558                tcp_send_fin
                0x000000004026c740                tcp_write
                0x000000004026ca7c                tcp_enqueue_flags
                0x000000004026cb60                tcp_send_empty_ack
                0x000000004026cbf4                tcp_output
                0x000000004026cf04                tcp_rst
                0x000000004026d044                tcp_rexmit_rto
                0x000000004026d080                tcp_rexmit
                0x000000004026d12c                tcp_rexmit_fast
                0x000000004026d184                tcp_keepalive
                0x000000004026d204                tcp_zero_window_probe
 .irom0.text    0x000000004026d348      0x2c7 /home/stoffer/esp8266/esp-open-sdk/sdk/lib/liblwip.a(timers.o)
                                        0x357 (size before relaxing)
                0x000000004026d388                tcp_timer_needed
                0x000000004026d410                sys_timeouts_init
                0x000000004026d478                sys_timeout
                0x000000004026d4f4                sys_untimeout
                0x000000004026d544                sys_check_timeouts
                0x000000004026d600                sys_restart_timeouts
 *fill*         0x000000004026d60f        0x1 
 .irom0.text    0x000000004026d610      0x573 /home/stoffer/esp8266/esp-open-sdk/sdk/lib/liblwip.a(udp.o)
                                        0x62b (size before relaxing)
                0x000000004026d614                udp_input
                0x000000004026d86c                udp_send
                0x000000004026d880                udp_sendto
                0x000000004026d8cc                udp_sendto_if
                0x000000004026da14                udp_bind
                0x000000004026da90                udp_connect
                0x000000004026daec                udp_disconnect
                0x000000004026db04                udp_recv
                0x000000004026db10                udp_remove
                0x000000004026db4c                udp_new
 *fill*         0x000000004026db83        0x1 
 .irom0.text    0x000000004026db84      0x26e /home/stoffer/esp8266/esp-open-sdk/sdk/lib/liblwip.a(icmp.o)
                                        0x312 (size before relaxing)
                0x000000004026db88                icmp_input
                0x000000004026dd34                icmp_dest_unreach
 *fill*         0x000000004026ddf2        0x2 
 .irom0.text    0x000000004026ddf4      0x2a6 /home/stoffer/esp8266/esp-open-sdk/sdk/lib/libwpa.a(ap_config.o)
                                        0x2ee (size before relaxing)
                0x000000004026ddf4                hostapd_config_defaults_bss
                0x000000004026de40                hostapd_config_defaults
                0x000000004026dec4                hostapd_mac_comp
                0x000000004026ded8                hostapd_mac_comp_empty
                0x000000004026df44                hostapd_setup_wpa_psk
                0x000000004026df74                hostapd_wep_key_cmp
                0x000000004026dfc4                hostapd_maclist_found
                0x000000004026e02c                hostapd_rate_found
                0x000000004026e048                hostapd_get_psk
 *fill*         0x000000004026e09a        0x2 
 .irom0.text    0x000000004026e09c      0x2b6 /home/stoffer/esp8266/esp-open-sdk/sdk/lib/libwpa.a(common.o)
                                        0x302 (size before relaxing)
                0x000000004026e09c                inc_byte_array
                0x000000004026e0f0                hex2byte
                0x000000004026e124                hexstr2bin
                0x000000004026e170                wpa_get_ntp_timestamp
                0x000000004026e208                wpa_config_parse_string
                0x000000004026e30c                dup_binstr
 *fill*         0x000000004026e352        0x2 
 .irom0.text    0x000000004026e354       0xcc /home/stoffer/esp8266/esp-open-sdk/sdk/lib/libwpa.a(os_xtensa.o)
                                         0xdc (size before relaxing)
                0x000000004026e358                ets_strdup
                0x000000004026e39c                os_get_time
                0x000000004026e3a0                r_rand
                0x000000004026e3b4                os_random
                0x000000004026e3c4                os_get_random
 .irom0.text    0x000000004026e420     0x1c86 /home/stoffer/esp8266/esp-open-sdk/sdk/lib/libwpa.a(wpa_auth.o)
                                       0x1f66 (size before relaxing)
                0x000000004026e56c                wpa_auth_for_each_sta
                0x000000004026e6ec                wpa_init
                0x000000004026e77c                wpa_auth_sta_init
                0x000000004026e7c4                wpa_auth_sta_associated
                0x000000004026e830                wpa_auth_sta_no_wpa
                0x000000004026e88c                wpa_auth_sta_deinit
                0x000000004026e95c                wpa_receive
                0x000000004026edc0                __wpa_send_eapol
                0x000000004026f2e4                wpa_remove_ptk
                0x000000004026f330                wpa_auth_sm_event
 *fill*         0x00000000402700a6        0x2 
 .irom0.text    0x00000000402700a8      0x582 /home/stoffer/esp8266/esp-open-sdk/sdk/lib/libwpa.a(wpa_auth_ie.o)
                                        0x5f6 (size before relaxing)
                0x000000004027016c                wpa_write_rsn_ie
                0x0000000040270278                wpa_auth_gen_wpa_ie
                0x0000000040270308                wpa_add_kde
                0x0000000040270374                wpa_validate_wpa_ie
                0x0000000040270580                wpa_parse_kde_ies
                0x000000004027061c                wpa_auth_uses_mfp
 *fill*         0x000000004027062a        0x2 
 .irom0.text    0x000000004027062c     0x14d0 /home/stoffer/esp8266/esp-open-sdk/sdk/lib/libwpa.a(wpa.o)
                                       0x1708 (size before relaxing)
                0x00000000402715b8                wpa_sm_rx_eapol
                0x0000000040271730                wpa_register
                0x000000004027175c                wpa_set_profile
                0x0000000040271774                wpa_set_pmk
                0x00000000402717a0                wpa_set_bss
                0x00000000402719a4                pp_michael_mic_failure
                0x0000000040271a48                eapol_txcb
                0x0000000040271ad4                wpa_sm_set_state
 .irom0.text    0x0000000040271afc      0x76a /home/stoffer/esp8266/esp-open-sdk/sdk/lib/libwpa.a(wpa_common.o)
                                        0x7fa (size before relaxing)
                0x0000000040271c44                wpa_parse_wpa_ie_rsn
                0x0000000040271dd8                wpa_parse_wpa_ie_wpa
                0x0000000040271f68                wpa_eapol_key_mic
                0x0000000040271fa8                wpa_compare_rsn_ie
                0x0000000040271fd0                wpa_pmk_to_ptk
                0x00000000402720c0                rsn_pmkid
                0x000000004027211c                wpa_cipher_key_len
                0x0000000040272140                wpa_cipher_to_alg
                0x0000000040272168                wpa_cipher_to_suite
                0x00000000402721bc                rsn_cipher_put_suites
                0x000000004027221c                wpa_cipher_put_suites
 *fill*         0x0000000040272266        0x2 
 .irom0.text    0x0000000040272268       0xa8 /home/stoffer/esp8266/esp-open-sdk/sdk/lib/libwpa.a(wpa_debug.o)
                                         0xac (size before relaxing)
                0x00000000402722e0                wpa_snprintf_hex_uppercase
                0x00000000402722f4                wpa_snprintf_hex
                0x0000000040272308                eloop_cancel_timeout
                0x000000004027230c                eloop_register_timeout
 .irom0.text    0x0000000040272310      0x325 /home/stoffer/esp8266/esp-open-sdk/sdk/lib/libwpa.a(wpa_ie.o)
                                        0x341 (size before relaxing)
                0x0000000040272310                wpa_parse_wpa_ie
                0x0000000040272404                wpa_supplicant_parse_ies
                0x0000000040272604                wpa_gen_wpa_ie
 *fill*         0x0000000040272635        0x3 
 .irom0.text    0x0000000040272638      0x418 /home/stoffer/esp8266/esp-open-sdk/sdk/lib/libwpa.a(wpa_main.o)
                                        0x52c (size before relaxing)
                0x000000004027263c                ppInstallKey
                0x00000000402727cc                wpa_config_profile
                0x0000000040272800                wpa_config_bss
                0x000000004027282c                wpa_config_assoc_ie
                0x0000000040272840                dhcp_bind_check
                0x0000000040272874                eagle_auth_done
                0x00000000402729f0                wpa_neg_complete
                0x0000000040272a18                wpa_attach
 .irom0.text    0x0000000040272a50       0xd6 /home/stoffer/esp8266/esp-open-sdk/sdk/lib/libwpa.a(wpas_glue.o)
                                         0xe2 (size before relaxing)
                0x0000000040272ac0                wpa_sm_alloc_eapol
                0x0000000040272b00                wpa_sm_deauthenticate
                0x0000000040272b1c                wpa_sm_mlme_setprotection
                0x0000000040272b20                wpa_sm_get_beacon_ie
                0x0000000040272b24                wpa_sm_disassociate
 *fill*         0x0000000040272b26        0x2 
 .irom0.text    0x0000000040272b28       0xdf /home/stoffer/esp8266/esp-open-sdk/sdk/lib/libwpa.a(aes-wrap.o)
                                        0x103 (size before relaxing)
                0x0000000040272b28                aes_wrap
 *fill*         0x0000000040272c07        0x1 
 .irom0.text    0x0000000040272c08      0x4b7 /home/stoffer/esp8266/esp-open-sdk/sdk/lib/libwpa.a(aes-internal-enc.o)
                                        0x4df (size before relaxing)
                0x0000000040272c0c                rijndaelEncrypt
                0x0000000040273028                aes_encrypt_init
                0x000000004027307c                aes_encrypt
                0x0000000040273094                aes_encrypt_deinit
 *fill*         0x00000000402730bf        0x1 
 .irom0.text    0x00000000402730c0      0x304 /home/stoffer/esp8266/esp-open-sdk/sdk/lib/libwpa.a(aes-internal.o)
                                        0x31c (size before relaxing)
                0x00000000402730c4                rijndaelKeySetupEnc
 .irom0.text    0x00000000402733c4      0x187 /home/stoffer/esp8266/esp-open-sdk/sdk/lib/libnet80211.a(ieee80211_crypto_tkip.o)
                                        0x197 (size before relaxing)
 *fill*         0x000000004027354b        0x1 
 .irom0.text    0x000000004027354c       0x78 /home/stoffer/esp8266/esp-open-sdk/sdk/lib/libnet80211.a(ieee80211_crypto_wep.o)
                                         0x7c (size before relaxing)
 .irom0.literal
                0x00000000402735c4        0x0 /home/stoffer/esp8266/esp-open-sdk/sdk/lib/libmain.a(app_main.o)
 *fill*         0x00000000402735c4        0xc 
 .irom.text     0x00000000402735d0      0x4c0 /home/stoffer/esp8266/esp-open-sdk/sdk/lib/libmain.a(app_main.o)
 .irom0.literal
                0x0000000040273a90        0x0 /home/stoffer/esp8266/esp-open-sdk/sdk/lib/libmain.a(ets_timer.o)
 *fill*         0x0000000040273a90        0x0 
 .irom.text     0x0000000040273a90      0x14c /home/stoffer/esp8266/esp-open-sdk/sdk/lib/libmain.a(ets_timer.o)
 .irom0.literal
                0x0000000040273bdc        0x0 /home/stoffer/esp8266/esp-open-sdk/sdk/lib/libmain.a(mem_manager.o)
 *fill*         0x0000000040273bdc        0x4 
 .irom.text     0x0000000040273be0       0x11 /home/stoffer/esp8266/esp-open-sdk/sdk/lib/libmain.a(mem_manager.o)
 *fill*         0x0000000040273bf1        0x3 
 .irom0.literal
                0x0000000040273bf4        0x0 /home/stoffer/esp8266/esp-open-sdk/sdk/lib/libmain.a(spi_flash.o)
 *fill*         0x0000000040273bf4        0xc 
 .irom.text     0x0000000040273c00       0x5b /home/stoffer/esp8266/esp-open-sdk/sdk/lib/libmain.a(spi_flash.o)
 *fill*         0x0000000040273c5b        0x1 
 .irom0.literal
                0x0000000040273c5c        0x0 /home/stoffer/esp8266/esp-open-sdk/sdk/lib/libmain.a(user_interface.o)
 *fill*         0x0000000040273c5c        0x4 
 .irom.text     0x0000000040273c60      0x2d5 /home/stoffer/esp8266/esp-open-sdk/sdk/lib/libmain.a(user_interface.o)
                0x0000000040273c80                default_ssid
 *fill*         0x0000000040273f35        0x3 
 .irom0.literal
                0x0000000040273f38        0x0 /home/stoffer/esp8266/esp-open-sdk/sdk/lib/libmain.a(eagle_lib.o)
 .irom0.literal
                0x0000000040273f38        0x0 /home/stoffer/esp8266/esp-open-sdk/sdk/lib/libmain.a(eagle_lwip_if.o)
 *fill*         0x0000000040273f38        0x8 
 .irom.text     0x0000000040273f40       0x63 /home/stoffer/esp8266/esp-open-sdk/sdk/lib/libmain.a(eagle_lwip_if.o)
 *fill*         0x0000000040273fa3        0x1 
 .irom0.literal
                0x0000000040273fa4        0x0 build/app_app.a(user_main.o)
 *fill*         0x0000000040273fa4        0x0 
 .irom0.literal
                0x0000000040273fa4        0x0 build/app_app.a(captdns.o)
 *fill*         0x0000000040273fa4        0x0 
 .irom0.literal
                0x0000000040273fa4        0x0 build/app_app.a(led.o)
 *fill*         0x0000000040273fa4        0x0 
 .irom0.literal
                0x0000000040273fa4        0x0 build/app_app.a(httpd.o)
 *fill*         0x0000000040273fa4        0x0 
 .irom0.literal
                0x0000000040273fa4        0x0 build/app_app.a(utils.o)
 .irom0.literal
                0x0000000040273fa4        0x0 build/app_app.a(crypto.o)
 .irom0.literal
                0x0000000040273fa4        0x0 build/app_app.a(sha256.o)
 *fill*         0x0000000040273fa4        0x0 
 .irom0.literal
                0x0000000040273fa4        0x0 build/app_app.a(aes.o)
 *fill*         0x0000000040273fa4        0x0 
 .irom0.literal
                0x0000000040273fa4        0x0 build/app_app.a(uart.o)
 .irom0.literal
                0x0000000040273fa4        0x0 build/app_app.a(ext_spi_flash.o)
 *fill*         0x0000000040273fa4        0x0 
 .irom0.literal
                0x0000000040273fa4        0x0 build/app_app.a(gpio16.o)
 *fill*         0x0000000040273fa4        0x0 
 .irom0.literal
                0x0000000040273fa4        0x0 build/app_app.a(spi.o)
 *fill*         0x0000000040273fa4        0x0 
 .irom0.literal
                0x0000000040273fa4        0x0 build/app_app.a(mqtt.o)
 *fill*         0x0000000040273fa4        0x0 
 .irom0.literal
                0x0000000040273fa4        0x0 build/app_app.a(mqtt_msg.o)
 *fill*         0x0000000040273fa4        0x0 
 .irom0.literal
                0x0000000040273fa4        0x0 build/app_app.a(queue.o)
 *fill*         0x0000000040273fa4        0x0 
 .irom0.literal
                0x0000000040273fa4        0x0 build/app_app.a(mqtt_utils.o)
 .irom0.text    0x0000000040273fa4      0x107 build/app_app.a(mqtt_utils.o)
                0x0000000040273fa4                UTILS_IsIPV4
                0x0000000040273ff8                UTILS_StrToIP
                0x0000000040274054                UTILS_Atoh
 *fill*         0x00000000402740ab        0x1 
 .irom0.literal
                0x00000000402740ac        0x0 build/app_app.a(proto.o)
 *fill*         0x00000000402740ac        0x0 
 .irom0.literal
                0x00000000402740ac        0x0 build/app_app.a(config.o)
 *fill*         0x00000000402740ac        0x0 
 .irom0.literal
                0x00000000402740ac        0x0 build/app_app.a(wifi.o)
 *fill*         0x00000000402740ac        0x0 
 .irom0.literal
                0x00000000402740ac        0x0 build/app_app.a(cgiwifi.o)
 *fill*         0x00000000402740ac        0x0 
 .irom0.literal
                0x00000000402740ac        0x0 build/app_app.a(tinyprintf.o)
 *fill*         0x00000000402740ac        0x0 
 .irom0.literal
                0x00000000402740ac        0x0 build/app_app.a(unix_time.o)
 *fill*         0x00000000402740ac        0x0 
 .irom0.literal
                0x00000000402740ac        0x0 build/app_app.a(cgi.o)
 *fill*         0x00000000402740ac        0x0 
 .irom0.literal
                0x00000000402740ac        0x0 build/app_app.a(httpdespfs.o)
 .irom0.literal
                0x00000000402740ac        0x0 build/app_app.a(espfs.o)
 *fill*         0x00000000402740ac        0x0 
 .irom0.literal
                0x00000000402740ac        0x0 build/app_app.a(hmac-sha256.o)
 .irom0.literal
                0x00000000402740ac        0x0 build/app_app.a(ringbuf.o)
 .irom0.text    0x00000000402740ac       0xbc build/app_app.a(ringbuf.o)
                0x00000000402740ac                RINGBUF_Init
                0x00000000402740dc                RINGBUF_Put
                0x0000000040274124                RINGBUF_Get
 .irom0.literal
                0x0000000040274168        0x0 /home/stoffer/esp8266/esp-open-sdk/sdk/lib/libphy.a(phy.o)
 *fill*         0x0000000040274168        0x0 
 .irom0.literal
                0x0000000040274168        0x0 /home/stoffer/esp8266/esp-open-sdk/sdk/lib/libphy.a(phy_chip_v6_ana.o)
 *fill*         0x0000000040274168        0x8 
 .irom.text     0x0000000040274170       0x65 /home/stoffer/esp8266/esp-open-sdk/sdk/lib/libphy.a(phy_chip_v6_ana.o)
 *fill*         0x00000000402741d5        0x3 
 .irom0.literal
                0x00000000402741d8        0x0 /home/stoffer/esp8266/esp-open-sdk/sdk/lib/libphy.a(phy_chip_v6.o)
 *fill*         0x00000000402741d8        0x8 
 .irom.text     0x00000000402741e0      0x14c /home/stoffer/esp8266/esp-open-sdk/sdk/lib/libphy.a(phy_chip_v6.o)
 .irom0.literal
                0x000000004027432c        0x0 /home/stoffer/esp8266/esp-open-sdk/sdk/lib/libphy.a(phy_chip_v6_cal.o)
 *fill*         0x000000004027432c        0x4 
 .irom.text     0x0000000040274330      0x1f4 /home/stoffer/esp8266/esp-open-sdk/sdk/lib/libphy.a(phy_chip_v6_cal.o)
 .irom0.literal
                0x0000000040274524        0x0 /home/stoffer/esp8266/esp-open-sdk/sdk/lib/libphy.a(phy_chip_v6_unused.o)
 .irom0.text    0x0000000040274524        0xc /home/stoffer/esp8266/esp-open-sdk/sdk/lib/libphy.a(phy_chip_v6_unused.o)
                0x0000000040274524                chip_v6_set_sense
                0x0000000040274528                chip_v6_get_sense
                0x000000004027452c                chip_v6_unset_chanfreq
 .irom0.literal
                0x0000000040274530        0x0 /home/stoffer/esp8266/esp-open-sdk/sdk/lib/libphy.a(phy_sleep.o)
 *fill*         0x0000000040274530        0x0 
 .irom0.literal
                0x0000000040274530        0x0 /home/stoffer/esp8266/esp-open-sdk/sdk/lib/libpp.a(if_hwctrl.o)
 *fill*         0x0000000040274530        0x0 
 .irom.text     0x0000000040274530       0x50 /home/stoffer/esp8266/esp-open-sdk/sdk/lib/libpp.a(if_hwctrl.o)
 .irom0.literal
                0x0000000040274580        0x0 /home/stoffer/esp8266/esp-open-sdk/sdk/lib/libpp.a(lmac.o)
 *fill*         0x0000000040274580        0x0 
 .irom.text     0x0000000040274580       0x2f /home/stoffer/esp8266/esp-open-sdk/sdk/lib/libpp.a(lmac.o)
 *fill*         0x00000000402745af        0x1 
 .irom0.literal
                0x00000000402745b0        0x0 /home/stoffer/esp8266/esp-open-sdk/sdk/lib/libpp.a(pm.o)
 *fill*         0x00000000402745b0        0x0 
 .irom.text     0x00000000402745b0      0x10d /home/stoffer/esp8266/esp-open-sdk/sdk/lib/libpp.a(pm.o)
 *fill*         0x00000000402746bd        0x3 
 .irom0.literal
                0x00000000402746c0        0x0 /home/stoffer/esp8266/esp-open-sdk/sdk/lib/libpp.a(pm_for_bcn_only_mode.o)
 *fill*         0x00000000402746c0        0x0 
 .irom.text     0x00000000402746c0       0xf8 /home/stoffer/esp8266/esp-open-sdk/sdk/lib/libpp.a(pm_for_bcn_only_mode.o)
 .irom0.literal
                0x00000000402747b8        0x0 /home/stoffer/esp8266/esp-open-sdk/sdk/lib/libpp.a(pp.o)
 *fill*         0x00000000402747b8        0x8 
 .irom.text     0x00000000402747c0       0x5b /home/stoffer/esp8266/esp-open-sdk/sdk/lib/libpp.a(pp.o)
 *fill*         0x000000004027481b        0x1 
 .irom0.literal
                0x000000004027481c        0x0 /home/stoffer/esp8266/esp-open-sdk/sdk/lib/libpp.a(rate_control.o)
 *fill*         0x000000004027481c        0x0 
 .irom0.literal
                0x000000004027481c        0x0 /home/stoffer/esp8266/esp-open-sdk/sdk/lib/libpp.a(trc.o)
 *fill*         0x000000004027481c        0x4 
 .irom.text     0x0000000040274820       0x38 /home/stoffer/esp8266/esp-open-sdk/sdk/lib/libpp.a(trc.o)
 .irom0.literal
                0x0000000040274858        0x0 /home/stoffer/esp8266/esp-open-sdk/sdk/lib/libpp.a(wdev.o)
 *fill*         0x0000000040274858        0x0 
 .irom.text     0x0000000040274858        0x7 /home/stoffer/esp8266/esp-open-sdk/sdk/lib/libpp.a(wdev.o)
 *fill*         0x000000004027485f        0x1 
 .irom0.literal
                0x0000000040274860        0x0 /home/stoffer/esp8266/esp-open-sdk/sdk/lib/libpp.a(esf_buf.o)
 *fill*         0x0000000040274860        0x0 
 .irom.text     0x0000000040274860        0xa /home/stoffer/esp8266/esp-open-sdk/sdk/lib/libpp.a(esf_buf.o)
 *fill*         0x000000004027486a        0x2 
 .irom0.literal
                0x000000004027486c        0x0 /home/stoffer/esp8266/esp-open-sdk/sdk/lib/libnet80211.a(ieee80211.o)
 *fill*         0x000000004027486c        0x4 
 .irom.text     0x0000000040274870       0x82 /home/stoffer/esp8266/esp-open-sdk/sdk/lib/libnet80211.a(ieee80211.o)
                0x0000000040274880                ieee80211_opcap
 *fill*         0x00000000402748f2        0x2 
 .irom0.literal
                0x00000000402748f4        0x0 /home/stoffer/esp8266/esp-open-sdk/sdk/lib/libnet80211.a(ieee80211_crypto.o)
 *fill*         0x00000000402748f4        0x0 
 .irom0.literal
                0x00000000402748f4        0x0 /home/stoffer/esp8266/esp-open-sdk/sdk/lib/libnet80211.a(ieee80211_ets.o)
 .irom0.literal
                0x00000000402748f4        0x0 /home/stoffer/esp8266/esp-open-sdk/sdk/lib/libnet80211.a(ieee80211_hostap.o)
 *fill*         0x00000000402748f4        0xc 
 .irom.text     0x0000000040274900       0x5b /home/stoffer/esp8266/esp-open-sdk/sdk/lib/libnet80211.a(ieee80211_hostap.o)
 *fill*         0x000000004027495b        0x1 
 .irom0.literal
                0x000000004027495c        0x0 /home/stoffer/esp8266/esp-open-sdk/sdk/lib/libnet80211.a(ieee80211_ht.o)
 *fill*         0x000000004027495c        0x4 
 .irom.text     0x0000000040274960       0x19 /home/stoffer/esp8266/esp-open-sdk/sdk/lib/libnet80211.a(ieee80211_ht.o)
 *fill*         0x0000000040274979        0x3 
 .irom0.literal
                0x000000004027497c        0x0 /home/stoffer/esp8266/esp-open-sdk/sdk/lib/libnet80211.a(ieee80211_input.o)
 *fill*         0x000000004027497c        0x4 
 .irom.text     0x0000000040274980       0x12 /home/stoffer/esp8266/esp-open-sdk/sdk/lib/libnet80211.a(ieee80211_input.o)
 *fill*         0x0000000040274992        0x2 
 .irom0.literal
                0x0000000040274994        0x0 /home/stoffer/esp8266/esp-open-sdk/sdk/lib/libnet80211.a(ieee80211_mesh_quick.o)
 *fill*         0x0000000040274994        0xc 
 .irom.text     0x00000000402749a0       0x43 /home/stoffer/esp8266/esp-open-sdk/sdk/lib/libnet80211.a(ieee80211_mesh_quick.o)
 *fill*         0x00000000402749e3        0x1 
 .irom0.literal
                0x00000000402749e4        0x0 /home/stoffer/esp8266/esp-open-sdk/sdk/lib/libnet80211.a(ieee80211_output.o)
 *fill*         0x00000000402749e4        0xc 
 .irom.text     0x00000000402749f0       0x1d /home/stoffer/esp8266/esp-open-sdk/sdk/lib/libnet80211.a(ieee80211_output.o)
 *fill*         0x0000000040274a0d        0x3 
 .irom0.literal
                0x0000000040274a10        0x0 /home/stoffer/esp8266/esp-open-sdk/sdk/lib/libnet80211.a(ieee80211_phy.o)
 *fill*         0x0000000040274a10        0x0 
 .irom.text     0x0000000040274a10      0x1b8 /home/stoffer/esp8266/esp-open-sdk/sdk/lib/libnet80211.a(ieee80211_phy.o)
 .irom0.literal
                0x0000000040274bc8        0x0 /home/stoffer/esp8266/esp-open-sdk/sdk/lib/libnet80211.a(ieee80211_power.o)
 *fill*         0x0000000040274bc8        0x0 
 .irom0.literal
                0x0000000040274bc8        0x0 /home/stoffer/esp8266/esp-open-sdk/sdk/lib/libnet80211.a(ieee80211_proto.o)
 *fill*         0x0000000040274bc8        0x8 
 .irom.text     0x0000000040274bd0       0x1c /home/stoffer/esp8266/esp-open-sdk/sdk/lib/libnet80211.a(ieee80211_proto.o)
 .irom0.literal
                0x0000000040274bec        0x0 /home/stoffer/esp8266/esp-open-sdk/sdk/lib/libnet80211.a(ieee80211_rfid.o)
 *fill*         0x0000000040274bec        0x0 
 .irom0.literal
                0x0000000040274bec        0x0 /home/stoffer/esp8266/esp-open-sdk/sdk/lib/libnet80211.a(ieee80211_scan.o)
 *fill*         0x0000000040274bec        0x4 
 .irom.text     0x0000000040274bf0       0x99 /home/stoffer/esp8266/esp-open-sdk/sdk/lib/libnet80211.a(ieee80211_scan.o)
 *fill*         0x0000000040274c89        0x3 
 .irom0.literal
                0x0000000040274c8c        0x0 /home/stoffer/esp8266/esp-open-sdk/sdk/lib/libnet80211.a(ieee80211_sta.o)
 *fill*         0x0000000040274c8c        0x4 
 .irom.text     0x0000000040274c90       0x26 /home/stoffer/esp8266/esp-open-sdk/sdk/lib/libnet80211.a(ieee80211_sta.o)
 *fill*         0x0000000040274cb6        0x2 
 .irom0.literal
                0x0000000040274cb8        0x0 /home/stoffer/esp8266/esp-open-sdk/sdk/lib/libnet80211.a(wl_chm.o)
 *fill*         0x0000000040274cb8        0x0 
 .irom0.literal
                0x0000000040274cb8        0x0 /home/stoffer/esp8266/esp-open-sdk/sdk/lib/libnet80211.a(wl_cnx.o)
 *fill*         0x0000000040274cb8        0x8 
 .irom.text     0x0000000040274cc0      0x187 /home/stoffer/esp8266/esp-open-sdk/sdk/lib/libnet80211.a(wl_cnx.o)
 *fill*         0x0000000040274e47        0x1 
 .irom0.literal
                0x0000000040274e48        0x0 /home/stoffer/esp8266/esp-open-sdk/sdk/lib/libnet80211.a(ieee80211_action.o)
 *fill*         0x0000000040274e48        0x0 
 .irom0.literal
                0x0000000040274e48        0x0 /home/stoffer/esp8266/esp-open-sdk/sdk/lib/libnet80211.a(ieee80211_action_vendor.o)
 *fill*         0x0000000040274e48        0x8 
 .irom.text     0x0000000040274e50       0x83 /home/stoffer/esp8266/esp-open-sdk/sdk/lib/libnet80211.a(ieee80211_action_vendor.o)
 *fill*         0x0000000040274ed3        0x1 
 .irom0.literal
                0x0000000040274ed4        0x0 /home/stoffer/esp8266/esp-open-sdk/sdk/lib/libnet80211.a(ieee80211_crypto_ccmp.o)
 *fill*         0x0000000040274ed4        0x0 
 .irom.text     0x0000000040274ed4       0x18 /home/stoffer/esp8266/esp-open-sdk/sdk/lib/libnet80211.a(ieee80211_crypto_ccmp.o)
                0x0000000040274ed4                ccmp
 .irom0.literal
                0x0000000040274eec        0x0 /home/stoffer/esp8266/esp-open-sdk/sdk/lib/libnet80211.a(ieee80211_ie_vendor.o)
 *fill*         0x0000000040274eec        0x0 
 .irom0.literal
                0x0000000040274eec        0x0 /home/stoffer/esp8266/esp-open-sdk/sdk/lib/liblwip.a(dhcp.o)
 *fill*         0x0000000040274eec        0x4 
 .irom.text     0x0000000040274ef0       0x1e /home/stoffer/esp8266/esp-open-sdk/sdk/lib/liblwip.a(dhcp.o)
 *fill*         0x0000000040274f0e        0x2 
 .irom0.literal
                0x0000000040274f10        0x0 /home/stoffer/esp8266/esp-open-sdk/sdk/lib/liblwip.a(dhcpserver.o)
 *fill*         0x0000000040274f10        0x0 
 .irom.text     0x0000000040274f10       0x45 /home/stoffer/esp8266/esp-open-sdk/sdk/lib/liblwip.a(dhcpserver.o)
 *fill*         0x0000000040274f55        0x3 
 .irom0.literal
                0x0000000040274f58        0x0 /home/stoffer/esp8266/esp-open-sdk/sdk/lib/liblwip.a(dns.o)
 *fill*         0x0000000040274f58        0x0 
 .irom.text     0x0000000040274f58        0x6 /home/stoffer/esp8266/esp-open-sdk/sdk/lib/liblwip.a(dns.o)
 *fill*         0x0000000040274f5e        0x2 
 .irom0.literal
                0x0000000040274f60        0x0 /home/stoffer/esp8266/esp-open-sdk/sdk/lib/liblwip.a(espconn.o)
 *fill*         0x0000000040274f60        0x0 
 .irom.text     0x0000000040274f60        0xa /home/stoffer/esp8266/esp-open-sdk/sdk/lib/liblwip.a(espconn.o)
 *fill*         0x0000000040274f6a        0x2 
 .irom0.literal
                0x0000000040274f6c        0x0 /home/stoffer/esp8266/esp-open-sdk/sdk/lib/liblwip.a(espconn_tcp.o)
 *fill*         0x0000000040274f6c        0x4 
 .irom.text     0x0000000040274f70       0xab /home/stoffer/esp8266/esp-open-sdk/sdk/lib/liblwip.a(espconn_tcp.o)
 *fill*         0x000000004027501b        0x1 
 .irom0.literal
                0x000000004027501c        0x0 /home/stoffer/esp8266/esp-open-sdk/sdk/lib/liblwip.a(espconn_udp.o)
 *fill*         0x000000004027501c        0x4 
 .irom.text     0x0000000040275020        0xe /home/stoffer/esp8266/esp-open-sdk/sdk/lib/liblwip.a(espconn_udp.o)
 *fill*         0x000000004027502e        0x2 
 .irom0.literal
                0x0000000040275030        0x0 /home/stoffer/esp8266/esp-open-sdk/sdk/lib/liblwip.a(etharp.o)
 *fill*         0x0000000040275030        0x0 
 .irom.text     0x0000000040275030        0x9 /home/stoffer/esp8266/esp-open-sdk/sdk/lib/liblwip.a(etharp.o)
 *fill*         0x0000000040275039        0x3 
 .irom0.literal
                0x000000004027503c        0x0 /home/stoffer/esp8266/esp-open-sdk/sdk/lib/liblwip.a(igmp.o)
 *fill*         0x000000004027503c        0x4 
 .irom.text     0x0000000040275040        0x7 /home/stoffer/esp8266/esp-open-sdk/sdk/lib/liblwip.a(igmp.o)
 *fill*         0x0000000040275047        0x1 
 .irom0.literal
                0x0000000040275048        0x0 /home/stoffer/esp8266/esp-open-sdk/sdk/lib/liblwip.a(inet_chksum.o)
 .irom0.text    0x0000000040275048      0x298 /home/stoffer/esp8266/esp-open-sdk/sdk/lib/liblwip.a(inet_chksum.o)
                0x00000000402750c0                inet_chksum_pseudo
                0x0000000040275180                inet_chksum_pseudo_partial
                0x000000004027525c                inet_chksum
                0x0000000040275274                inet_chksum_pbuf
 .irom0.literal
                0x00000000402752e0        0x0 /home/stoffer/esp8266/esp-open-sdk/sdk/lib/liblwip.a(init.o)
 .irom0.literal
                0x00000000402752e0        0x0 /home/stoffer/esp8266/esp-open-sdk/sdk/lib/liblwip.a(ip_addr.o)
 *fill*         0x00000000402752e0        0x0 
 .irom.text     0x00000000402752e0        0x8 /home/stoffer/esp8266/esp-open-sdk/sdk/lib/liblwip.a(ip_addr.o)
                0x00000000402752e0                ip_addr_any
                0x00000000402752e4                ip_addr_broadcast
 .irom0.literal
                0x00000000402752e8        0x0 /home/stoffer/esp8266/esp-open-sdk/sdk/lib/liblwip.a(ip.o)
 *fill*         0x00000000402752e8        0x8 
 .irom.text     0x00000000402752f0       0x11 /home/stoffer/esp8266/esp-open-sdk/sdk/lib/liblwip.a(ip.o)
 *fill*         0x0000000040275301        0xf 
 .irom.text     0x0000000040275310       0x28 /home/stoffer/esp8266/esp-open-sdk/sdk/lib/liblwip.a(memp.o)
                0x0000000040275310                memp_sizes
 .irom0.literal
                0x0000000040275338        0x0 /home/stoffer/esp8266/esp-open-sdk/sdk/lib/liblwip.a(netif.o)
 *fill*         0x0000000040275338        0x0 
 .irom0.literal
                0x0000000040275338        0x0 /home/stoffer/esp8266/esp-open-sdk/sdk/lib/liblwip.a(pbuf.o)
 *fill*         0x0000000040275338        0x0 
 .irom.text     0x0000000040275338        0x7 /home/stoffer/esp8266/esp-open-sdk/sdk/lib/liblwip.a(pbuf.o)
 *fill*         0x000000004027533f        0x1 
 .irom0.literal
                0x0000000040275340        0x0 /home/stoffer/esp8266/esp-open-sdk/sdk/lib/liblwip.a(raw.o)
 *fill*         0x0000000040275340        0x0 
 .irom.text     0x0000000040275340        0x6 /home/stoffer/esp8266/esp-open-sdk/sdk/lib/liblwip.a(raw.o)
 *fill*         0x0000000040275346        0x2 
 .irom0.literal
                0x0000000040275348        0x0 /home/stoffer/esp8266/esp-open-sdk/sdk/lib/liblwip.a(sntp.o)
 *fill*         0x0000000040275348        0x8 
 .irom.text     0x0000000040275350       0x24 /home/stoffer/esp8266/esp-open-sdk/sdk/lib/liblwip.a(sntp.o)
 .irom0.literal
                0x0000000040275374        0x0 /home/stoffer/esp8266/esp-open-sdk/sdk/lib/liblwip.a(tcp_in.o)
 *fill*         0x0000000040275374        0xc 
 .irom.text     0x0000000040275380        0x9 /home/stoffer/esp8266/esp-open-sdk/sdk/lib/liblwip.a(tcp_in.o)
 *fill*         0x0000000040275389        0x3 
 .irom0.literal
                0x000000004027538c        0x0 /home/stoffer/esp8266/esp-open-sdk/sdk/lib/liblwip.a(tcp.o)
 *fill*         0x000000004027538c        0x4 
 .irom.text     0x0000000040275390       0x3d /home/stoffer/esp8266/esp-open-sdk/sdk/lib/liblwip.a(tcp.o)
                0x00000000402753a0                tcp_pcb_lists
                0x00000000402753b0                tcp_persist_backoff
                0x00000000402753c0                tcp_backoff
 *fill*         0x00000000402753cd        0x3 
 .irom0.literal
                0x00000000402753d0        0x0 /home/stoffer/esp8266/esp-open-sdk/sdk/lib/liblwip.a(tcp_out.o)
 *fill*         0x00000000402753d0        0x0 
 .irom.text     0x00000000402753d0        0xa /home/stoffer/esp8266/esp-open-sdk/sdk/lib/liblwip.a(tcp_out.o)
 *fill*         0x00000000402753da        0x2 
 .irom0.literal
                0x00000000402753dc        0x0 /home/stoffer/esp8266/esp-open-sdk/sdk/lib/liblwip.a(timers.o)
 *fill*         0x00000000402753dc        0x4 
 .irom.text     0x00000000402753e0        0x9 /home/stoffer/esp8266/esp-open-sdk/sdk/lib/liblwip.a(timers.o)
 *fill*         0x00000000402753e9        0x3 
 .irom0.literal
                0x00000000402753ec        0x0 /home/stoffer/esp8266/esp-open-sdk/sdk/lib/liblwip.a(udp.o)
 *fill*         0x00000000402753ec        0x4 
 .irom.text     0x00000000402753f0        0x6 /home/stoffer/esp8266/esp-open-sdk/sdk/lib/liblwip.a(udp.o)
 *fill*         0x00000000402753f6        0x2 
 .irom0.literal
                0x00000000402753f8        0x0 /home/stoffer/esp8266/esp-open-sdk/sdk/lib/liblwip.a(icmp.o)
 *fill*         0x00000000402753f8        0x0 
 .irom0.literal
                0x00000000402753f8        0x0 /home/stoffer/esp8266/esp-open-sdk/sdk/lib/libwpa.a(ap_config.o)
 *fill*         0x00000000402753f8        0x8 
 .irom.text     0x0000000040275400        0xc /home/stoffer/esp8266/esp-open-sdk/sdk/lib/libwpa.a(ap_config.o)
 .irom0.literal
                0x000000004027540c        0x0 /home/stoffer/esp8266/esp-open-sdk/sdk/lib/libwpa.a(common.o)
 *fill*         0x000000004027540c        0x4 
 .irom.text     0x0000000040275410        0x9 /home/stoffer/esp8266/esp-open-sdk/sdk/lib/libwpa.a(common.o)
 *fill*         0x0000000040275419        0x3 
 .irom0.literal
                0x000000004027541c        0x0 /home/stoffer/esp8266/esp-open-sdk/sdk/lib/libwpa.a(os_xtensa.o)
 *fill*         0x000000004027541c        0x4 
 .irom.text     0x0000000040275420        0xc /home/stoffer/esp8266/esp-open-sdk/sdk/lib/libwpa.a(os_xtensa.o)
 .irom0.literal
                0x000000004027542c        0x0 /home/stoffer/esp8266/esp-open-sdk/sdk/lib/libwpa.a(wpa_auth.o)
 *fill*         0x000000004027542c        0x4 
 .irom.text     0x0000000040275430       0x74 /home/stoffer/esp8266/esp-open-sdk/sdk/lib/libwpa.a(wpa_auth.o)
 .irom0.literal
                0x00000000402754a4        0x0 /home/stoffer/esp8266/esp-open-sdk/sdk/lib/libwpa.a(wpa_auth_ie.o)
 *fill*         0x00000000402754a4        0xc 
 .irom.text     0x00000000402754b0        0xe /home/stoffer/esp8266/esp-open-sdk/sdk/lib/libwpa.a(wpa_auth_ie.o)
 *fill*         0x00000000402754be        0x2 
 .irom0.literal
                0x00000000402754c0        0x0 /home/stoffer/esp8266/esp-open-sdk/sdk/lib/libwpa.a(wpa.o)
 *fill*         0x00000000402754c0        0x0 
 .irom.text     0x00000000402754c0       0x17 /home/stoffer/esp8266/esp-open-sdk/sdk/lib/libwpa.a(wpa.o)
 *fill*         0x00000000402754d7        0x1 
 .irom0.literal
                0x00000000402754d8        0x0 /home/stoffer/esp8266/esp-open-sdk/sdk/lib/libwpa.a(wpa_common.o)
 *fill*         0x00000000402754d8        0x8 
 .irom.text     0x00000000402754e0       0x1c /home/stoffer/esp8266/esp-open-sdk/sdk/lib/libwpa.a(wpa_common.o)
 .irom0.literal
                0x00000000402754fc        0x0 /home/stoffer/esp8266/esp-open-sdk/sdk/lib/libwpa.a(wpa_debug.o)
 .irom0.literal
                0x00000000402754fc        0x0 /home/stoffer/esp8266/esp-open-sdk/sdk/lib/libwpa.a(wpa_ie.o)
 *fill*         0x00000000402754fc        0x0 
 .irom0.literal
                0x00000000402754fc        0x0 /home/stoffer/esp8266/esp-open-sdk/sdk/lib/libwpa.a(wpa_main.o)
 *fill*         0x00000000402754fc        0x4 
 .irom.text     0x0000000040275500       0x67 /home/stoffer/esp8266/esp-open-sdk/sdk/lib/libwpa.a(wpa_main.o)
 *fill*         0x0000000040275567        0x1 
 .irom0.literal
                0x0000000040275568        0x0 /home/stoffer/esp8266/esp-open-sdk/sdk/lib/libwpa.a(wpas_glue.o)
 *fill*         0x0000000040275568        0x0 
 .irom0.literal
                0x0000000040275568        0x0 /home/stoffer/esp8266/esp-open-sdk/sdk/lib/libwpa.a(aes-wrap.o)
 *fill*         0x0000000040275568        0x0 
 .irom0.literal
                0x0000000040275568        0x0 /home/stoffer/esp8266/esp-open-sdk/sdk/lib/libwpa.a(aes-internal-enc.o)
 *fill*         0x0000000040275568        0x8 
 .irom.text     0x0000000040275570       0x13 /home/stoffer/esp8266/esp-open-sdk/sdk/lib/libwpa.a(aes-internal-enc.o)
 *fill*         0x0000000040275583        0x1 
 .irom0.literal
                0x0000000040275584        0x0 /home/stoffer/esp8266/esp-open-sdk/sdk/lib/libwpa.a(aes-internal.o)
 .irom0.literal
                0x0000000040275584        0x0 /home/stoffer/esp8266/esp-open-sdk/sdk/lib/libnet80211.a(ieee80211_crypto_tkip.o)
 *fill*         0x0000000040275584        0x0 
 .irom.text     0x0000000040275584       0x18 /home/stoffer/esp8266/esp-open-sdk/sdk/lib/libnet80211.a(ieee80211_crypto_tkip.o)
                0x0000000040275584                tkip
 .irom0.literal
                0x000000004027559c        0x0 /home/stoffer/esp8266/esp-open-sdk/sdk/lib/libnet80211.a(ieee80211_crypto_wep.o)
 .irom.text     0x000000004027559c       0x18 /home/stoffer/esp8266/esp-open-sdk/sdk/lib/libnet80211.a(ieee80211_crypto_wep.o)
                0x000000004027559c                wep
                0x00000000402755b4                _irom0_text_end = ABSOLUTE (.)
                0x00000000400047f0                PROVIDE (Cache_Read_Disable, 0x400047f0)
                0x0000000040004678                PROVIDE (Cache_Read_Enable, 0x40004678)
                [!provide]                        PROVIDE (FilePacketSendReqMsgProc, 0x400035a0)
                [!provide]                        PROVIDE (FlashDwnLdParamCfgMsgProc, 0x4000368c)
                [!provide]                        PROVIDE (FlashDwnLdStartMsgProc, 0x40003538)
                [!provide]                        PROVIDE (FlashDwnLdStopReqMsgProc, 0x40003658)
                [!provide]                        PROVIDE (GetUartDevice, 0x40003f4c)
                [!provide]                        PROVIDE (MD5Final, 0x40009900)
                [!provide]                        PROVIDE (MD5Init, 0x40009818)
                [!provide]                        PROVIDE (MD5Update, 0x40009834)
                [!provide]                        PROVIDE (MemDwnLdStartMsgProc, 0x400036c4)
                [!provide]                        PROVIDE (MemDwnLdStopReqMsgProc, 0x4000377c)
                [!provide]                        PROVIDE (MemPacketSendReqMsgProc, 0x400036f0)
                [!provide]                        PROVIDE (RcvMsg, 0x40003eac)
                [!provide]                        PROVIDE (SHA1Final, 0x4000b648)
                [!provide]                        PROVIDE (SHA1Init, 0x4000b584)
                [!provide]                        PROVIDE (SHA1Transform, 0x4000a364)
                [!provide]                        PROVIDE (SHA1Update, 0x4000b5a8)
                0x00000000400043c8                PROVIDE (SPI_read_status, 0x400043c8)
                0x0000000040004400                PROVIDE (SPI_write_status, 0x40004400)
                0x000000004000443c                PROVIDE (SPI_write_enable, 0x4000443c)
                0x000000004000448c                PROVIDE (Wait_SPI_Idle, 0x4000448c)
                [!provide]                        PROVIDE (SPIEraseArea, 0x40004b44)
                [!provide]                        PROVIDE (SPIEraseBlock, 0x400049b4)
                [!provide]                        PROVIDE (SPIEraseChip, 0x40004984)
                0x0000000040004a00                PROVIDE (SPIEraseSector, 0x40004a00)
                [!provide]                        PROVIDE (SPILock, 0x400048a8)
                [!provide]                        PROVIDE (SPIParamCfg, 0x40004c2c)
                0x0000000040004b1c                PROVIDE (SPIRead, 0x40004b1c)
                [!provide]                        PROVIDE (SPIReadModeCnfig, 0x400048ec)
                [!provide]                        PROVIDE (SPIUnlock, 0x40004878)
                0x0000000040004a4c                PROVIDE (SPIWrite, 0x40004a4c)
                [!provide]                        PROVIDE (SelectSpiFunction, 0x40003f58)
                [!provide]                        PROVIDE (SendMsg, 0x40003cf4)
                [!provide]                        PROVIDE (UartConnCheck, 0x40003230)
                [!provide]                        PROVIDE (UartConnectProc, 0x400037a0)
                [!provide]                        PROVIDE (UartDwnLdProc, 0x40003368)
                [!provide]                        PROVIDE (UartGetCmdLn, 0x40003ef4)
                [!provide]                        PROVIDE (UartRegReadProc, 0x4000381c)
                [!provide]                        PROVIDE (UartRegWriteProc, 0x400037ac)
                [!provide]                        PROVIDE (UartRxString, 0x40003c30)
                0x0000000040003a14                PROVIDE (Uart_Init, 0x40003a14)
                [!provide]                        PROVIDE (_DebugExceptionVector, 0x40000010)
                [!provide]                        PROVIDE (_DoubleExceptionVector, 0x40000070)
                [!provide]                        PROVIDE (_KernelExceptionVector, 0x40000030)
                [!provide]                        PROVIDE (_NMIExceptionVector, 0x40000020)
                [!provide]                        PROVIDE (_ResetHandler, 0x400000a4)
                [!provide]                        PROVIDE (_ResetVector, 0x40000080)
                [!provide]                        PROVIDE (_UserExceptionVector, 0x40000050)
                [!provide]                        PROVIDE (__adddf3, 0x4000c538)
                0x000000004000c180                PROVIDE (__addsf3, 0x4000c180)
                0x000000004000cb94                PROVIDE (__divdf3, 0x4000cb94)
                0x000000004000ce60                PROVIDE (__divdi3, 0x4000ce60)
                0x000000004000dc88                PROVIDE (__divsi3, 0x4000dc88)
                [!provide]                        PROVIDE (__extendsfdf2, 0x4000cdfc)
                0x000000004000ccb8                PROVIDE (__fixdfsi, 0x4000ccb8)
                [!provide]                        PROVIDE (__fixunsdfsi, 0x4000cd00)
                0x000000004000c4c4                PROVIDE (__fixunssfsi, 0x4000c4c4)
                0x000000004000e2f0                PROVIDE (__floatsidf, 0x4000e2f0)
                0x000000004000e2ac                PROVIDE (__floatsisf, 0x4000e2ac)
                0x000000004000e2e8                PROVIDE (__floatunsidf, 0x4000e2e8)
                0x000000004000e2a4                PROVIDE (__floatunsisf, 0x4000e2a4)
                0x000000004000c8f0                PROVIDE (__muldf3, 0x4000c8f0)
                0x0000000040000650                PROVIDE (__muldi3, 0x40000650)
                [!provide]                        PROVIDE (__mulsf3, 0x4000c3dc)
                [!provide]                        PROVIDE (__subdf3, 0x4000c688)
                0x000000004000c268                PROVIDE (__subsf3, 0x4000c268)
                0x000000004000cd5c                PROVIDE (__truncdfsf2, 0x4000cd5c)
                0x000000004000d310                PROVIDE (__udivdi3, 0x4000d310)
                0x000000004000e21c                PROVIDE (__udivsi3, 0x4000e21c)
                0x000000004000d770                PROVIDE (__umoddi3, 0x4000d770)
                0x000000004000e268                PROVIDE (__umodsi3, 0x4000e268)
                [!provide]                        PROVIDE (__umulsidi3, 0x4000dcf0)
                [!provide]                        PROVIDE (_rom_store, 0x4000e388)
                [!provide]                        PROVIDE (_rom_store_table, 0x4000e328)
                [!provide]                        PROVIDE (_start, 0x4000042c)
                [!provide]                        PROVIDE (_xtos_alloca_handler, 0x4000dbe0)
                [!provide]                        PROVIDE (_xtos_c_wrapper_handler, 0x40000598)
                [!provide]                        PROVIDE (_xtos_cause3_handler, 0x40000590)
                [!provide]                        PROVIDE (_xtos_ints_off, 0x4000bda4)
                [!provide]                        PROVIDE (_xtos_ints_on, 0x4000bd84)
                [!provide]                        PROVIDE (_xtos_l1int_handler, 0x4000048c)
                [!provide]                        PROVIDE (_xtos_p_none, 0x4000dbf8)
                [!provide]                        PROVIDE (_xtos_restore_intlevel, 0x4000056c)
                [!provide]                        PROVIDE (_xtos_return_from_exc, 0x4000dc54)
                0x0000000040000454                PROVIDE (_xtos_set_exception_handler, 0x40000454)
                [!provide]                        PROVIDE (_xtos_set_interrupt_handler, 0x4000bd70)
                [!provide]                        PROVIDE (_xtos_set_interrupt_handler_arg, 0x4000bd28)
                [!provide]                        PROVIDE (_xtos_set_intlevel, 0x4000dbfc)
                [!provide]                        PROVIDE (_xtos_set_min_intlevel, 0x4000dc18)
                [!provide]                        PROVIDE (_xtos_set_vpri, 0x40000574)
                [!provide]                        PROVIDE (_xtos_syscall_handler, 0x4000dbe4)
                [!provide]                        PROVIDE (_xtos_unhandled_exception, 0x4000dc44)
                [!provide]                        PROVIDE (_xtos_unhandled_interrupt, 0x4000dc3c)
                [!provide]                        PROVIDE (aes_decrypt, 0x400092d4)
                [!provide]                        PROVIDE (aes_decrypt_deinit, 0x400092e4)
                [!provide]                        PROVIDE (aes_decrypt_init, 0x40008ea4)
                0x0000000040009410                PROVIDE (aes_unwrap, 0x40009410)
                [!provide]                        PROVIDE (base64_decode, 0x40009648)
                [!provide]                        PROVIDE (base64_encode, 0x400094fc)
                [!provide]                        PROVIDE (bzero, 0x4000de84)
                [!provide]                        PROVIDE (cmd_parse, 0x40000814)
                [!provide]                        PROVIDE (conv_str_decimal, 0x40000b24)
                [!provide]                        PROVIDE (conv_str_hex, 0x40000cb8)
                [!provide]                        PROVIDE (convert_para_str, 0x40000a60)
                [!provide]                        PROVIDE (dtm_get_intr_mask, 0x400026d0)
                [!provide]                        PROVIDE (dtm_params_init, 0x4000269c)
                [!provide]                        PROVIDE (dtm_set_intr_mask, 0x400026c8)
                [!provide]                        PROVIDE (dtm_set_params, 0x400026dc)
                [!provide]                        PROVIDE (eprintf, 0x40001d14)
                [!provide]                        PROVIDE (eprintf_init_buf, 0x40001cb8)
                [!provide]                        PROVIDE (eprintf_to_host, 0x40001d48)
                [!provide]                        PROVIDE (est_get_printf_buf_remain_len, 0x40002494)
                [!provide]                        PROVIDE (est_reset_printf_buf_len, 0x4000249c)
                0x0000000040002ae8                PROVIDE (ets_bzero, 0x40002ae8)
                [!provide]                        PROVIDE (ets_char2xdigit, 0x40002b74)
                0x0000000040002ecc                PROVIDE (ets_delay_us, 0x40002ecc)
                [!provide]                        PROVIDE (ets_enter_sleep, 0x400027b8)
                [!provide]                        PROVIDE (ets_external_printf, 0x40002578)
                0x0000000040002f0c                PROVIDE (ets_get_cpu_frequency, 0x40002f0c)
                [!provide]                        PROVIDE (ets_getc, 0x40002bcc)
                [!provide]                        PROVIDE (ets_install_external_printf, 0x40002450)
                0x000000004000242c                PROVIDE (ets_install_putc1, 0x4000242c)
                [!provide]                        PROVIDE (ets_install_putc2, 0x4000248c)
                [!provide]                        PROVIDE (ets_install_uart_printf, 0x40002438)
                0x0000000040000f74                PROVIDE (ets_intr_lock, 0x40000f74)
                0x0000000040000f80                PROVIDE (ets_intr_unlock, 0x40000f80)
                0x0000000040000f88                PROVIDE (ets_isr_attach, 0x40000f88)
                0x0000000040000f98                PROVIDE (ets_isr_mask, 0x40000f98)
                0x0000000040000fa8                PROVIDE (ets_isr_unmask, 0x40000fa8)
                0x00000000400018d4                PROVIDE (ets_memcmp, 0x400018d4)
                0x00000000400018b4                PROVIDE (ets_memcpy, 0x400018b4)
                [!provide]                        PROVIDE (ets_memmove, 0x400018c4)
                0x00000000400018a4                PROVIDE (ets_memset, 0x400018a4)
                0x0000000040000e24                PROVIDE (ets_post, 0x40000e24)
                0x00000000400024cc                PROVIDE (ets_printf, 0x400024cc)
                [!provide]                        PROVIDE (ets_putc, 0x40002be8)
                [!provide]                        PROVIDE (ets_rtc_int_register, 0x40002a40)
                0x0000000040000e04                PROVIDE (ets_run, 0x40000e04)
                0x0000000040000dc0                PROVIDE (ets_set_idle_cb, 0x40000dc0)
                [!provide]                        PROVIDE (ets_set_user_start, 0x40000fbc)
                [!provide]                        PROVIDE (ets_str2macaddr, 0x40002af8)
                0x0000000040002aa8                PROVIDE (ets_strcmp, 0x40002aa8)
                0x0000000040002a88                PROVIDE (ets_strcpy, 0x40002a88)
                0x0000000040002ac8                PROVIDE (ets_strlen, 0x40002ac8)
                0x0000000040002ab8                PROVIDE (ets_strncmp, 0x40002ab8)
                0x0000000040002a98                PROVIDE (ets_strncpy, 0x40002a98)
                0x0000000040002ad8                PROVIDE (ets_strstr, 0x40002ad8)
                0x0000000040000dd0                PROVIDE (ets_task, 0x40000dd0)
                [!provide]                        PROVIDE (ets_timer_arm, 0x40002cc4)
                [!provide]                        PROVIDE (ets_timer_disarm, 0x40002d40)
                [!provide]                        PROVIDE (ets_timer_done, 0x40002d80)
                [!provide]                        PROVIDE (ets_timer_handler_isr, 0x40002da8)
                [!provide]                        PROVIDE (ets_timer_init, 0x40002e68)
                [!provide]                        PROVIDE (ets_timer_setfn, 0x40002c48)
                [!provide]                        PROVIDE (ets_uart_printf, 0x40002544)
                0x0000000040002f04                PROVIDE (ets_update_cpu_frequency, 0x40002f04)
                0x0000000040001f00                PROVIDE (ets_vprintf, 0x40001f00)
                [!provide]                        PROVIDE (ets_wdt_disable, 0x400030f0)
                [!provide]                        PROVIDE (ets_wdt_enable, 0x40002fa0)
                [!provide]                        PROVIDE (ets_wdt_get_mode, 0x40002f34)
                [!provide]                        PROVIDE (ets_wdt_init, 0x40003170)
                [!provide]                        PROVIDE (ets_wdt_restore, 0x40003158)
                0x0000000040001da0                PROVIDE (ets_write_char, 0x40001da0)
                [!provide]                        PROVIDE (get_first_seg, 0x4000091c)
                0x0000000040004c50                PROVIDE (gpio_init, 0x40004c50)
                [!provide]                        PROVIDE (gpio_input_get, 0x40004cf0)
                0x0000000040004dcc                PROVIDE (gpio_intr_ack, 0x40004dcc)
                [!provide]                        PROVIDE (gpio_intr_handler_register, 0x40004e28)
                [!provide]                        PROVIDE (gpio_intr_pending, 0x40004d88)
                [!provide]                        PROVIDE (gpio_intr_test, 0x40004efc)
                0x0000000040004cd0                PROVIDE (gpio_output_set, 0x40004cd0)
                0x0000000040004d90                PROVIDE (gpio_pin_intr_state_set, 0x40004d90)
                [!provide]                        PROVIDE (gpio_pin_wakeup_disable, 0x40004ed4)
                [!provide]                        PROVIDE (gpio_pin_wakeup_enable, 0x40004e90)
                [!provide]                        PROVIDE (gpio_register_get, 0x40004d5c)
                [!provide]                        PROVIDE (gpio_register_set, 0x40004d04)
                0x000000004000a2cc                PROVIDE (hmac_md5, 0x4000a2cc)
                [!provide]                        PROVIDE (hmac_md5_vector, 0x4000a160)
                0x000000004000ba28                PROVIDE (hmac_sha1, 0x4000ba28)
                0x000000004000b8b4                PROVIDE (hmac_sha1_vector, 0x4000b8b4)
                0x0000000040004f40                PROVIDE (lldesc_build_chain, 0x40004f40)
                0x0000000040005050                PROVIDE (lldesc_num2link, 0x40005050)
                [!provide]                        PROVIDE (lldesc_set_owner, 0x4000507c)
                [!provide]                        PROVIDE (main, 0x40000fec)
                [!provide]                        PROVIDE (md5_vector, 0x400097ac)
                [!provide]                        PROVIDE (mem_calloc, 0x40001c2c)
                [!provide]                        PROVIDE (mem_free, 0x400019e0)
                [!provide]                        PROVIDE (mem_init, 0x40001998)
                [!provide]                        PROVIDE (mem_malloc, 0x40001b40)
                [!provide]                        PROVIDE (mem_realloc, 0x40001c6c)
                [!provide]                        PROVIDE (mem_trim, 0x40001a14)
                [!provide]                        PROVIDE (mem_zalloc, 0x40001c58)
                [!provide]                        PROVIDE (memcmp, 0x4000dea8)
                [!provide]                        PROVIDE (memcpy, 0x4000df48)
                [!provide]                        PROVIDE (memmove, 0x4000e04c)
                [!provide]                        PROVIDE (memset, 0x4000e190)
                [!provide]                        PROVIDE (multofup, 0x400031c0)
                0x000000004000b840                PROVIDE (pbkdf2_sha1, 0x4000b840)
                0x0000000040006b08                PROVIDE (phy_get_romfuncs, 0x40006b08)
                [!provide]                        PROVIDE (rand, 0x40000600)
                0x000000004000dd68                PROVIDE (rc4_skip, 0x4000dd68)
                [!provide]                        PROVIDE (recv_packet, 0x40003d08)
                [!provide]                        PROVIDE (remove_head_space, 0x40000a04)
                [!provide]                        PROVIDE (rijndaelKeySetupDec, 0x40008dd0)
                [!provide]                        PROVIDE (rijndaelKeySetupEnc, 0x40009300)
                [!provide]                        PROVIDE (rom_abs_temp, 0x400060c0)
                [!provide]                        PROVIDE (rom_ana_inf_gating_en, 0x40006b10)
                [!provide]                        PROVIDE (rom_cal_tos_v50, 0x40007a28)
                [!provide]                        PROVIDE (rom_chip_50_set_channel, 0x40006f84)
                0x00000000400060d0                PROVIDE (rom_chip_v5_disable_cca, 0x400060d0)
                0x00000000400060ec                PROVIDE (rom_chip_v5_enable_cca, 0x400060ec)
                [!provide]                        PROVIDE (rom_chip_v5_rx_init, 0x4000711c)
                [!provide]                        PROVIDE (rom_chip_v5_sense_backoff, 0x4000610c)
                [!provide]                        PROVIDE (rom_chip_v5_tx_init, 0x4000718c)
                [!provide]                        PROVIDE (rom_dc_iq_est, 0x4000615c)
                [!provide]                        PROVIDE (rom_en_pwdet, 0x400061b8)
                [!provide]                        PROVIDE (rom_get_bb_atten, 0x40006238)
                [!provide]                        PROVIDE (rom_get_corr_power, 0x40006260)
                [!provide]                        PROVIDE (rom_get_fm_sar_dout, 0x400062dc)
                [!provide]                        PROVIDE (rom_get_noisefloor, 0x40006394)
                [!provide]                        PROVIDE (rom_get_power_db, 0x400063b0)
                [!provide]                        PROVIDE (rom_i2c_readReg, 0x40007268)
                [!provide]                        PROVIDE (rom_i2c_readReg_Mask, 0x4000729c)
                [!provide]                        PROVIDE (rom_i2c_writeReg, 0x400072d8)
                [!provide]                        PROVIDE (rom_i2c_writeReg_Mask, 0x4000730c)
                [!provide]                        PROVIDE (rom_iq_est_disable, 0x40006400)
                [!provide]                        PROVIDE (rom_iq_est_enable, 0x40006430)
                [!provide]                        PROVIDE (rom_linear_to_db, 0x40006484)
                [!provide]                        PROVIDE (rom_mhz2ieee, 0x400065a4)
                [!provide]                        PROVIDE (rom_pbus_dco___SA2, 0x40007bf0)
                [!provide]                        PROVIDE (rom_pbus_debugmode, 0x4000737c)
                [!provide]                        PROVIDE (rom_pbus_enter_debugmode, 0x40007410)
                [!provide]                        PROVIDE (rom_pbus_exit_debugmode, 0x40007448)
                [!provide]                        PROVIDE (rom_pbus_force_test, 0x4000747c)
                [!provide]                        PROVIDE (rom_pbus_rd, 0x400074d8)
                [!provide]                        PROVIDE (rom_pbus_set_rxgain, 0x4000754c)
                [!provide]                        PROVIDE (rom_pbus_set_txgain, 0x40007610)
                [!provide]                        PROVIDE (rom_pbus_workmode, 0x40007648)
                [!provide]                        PROVIDE (rom_pbus_xpd_rx_off, 0x40007688)
                [!provide]                        PROVIDE (rom_pbus_xpd_rx_on, 0x400076cc)
                [!provide]                        PROVIDE (rom_pbus_xpd_tx_off, 0x400076fc)
                [!provide]                        PROVIDE (rom_pbus_xpd_tx_on, 0x40007740)
                [!provide]                        PROVIDE (rom_pbus_xpd_tx_on__low_gain, 0x400077a0)
                [!provide]                        PROVIDE (rom_phy_reset_req, 0x40007804)
                [!provide]                        PROVIDE (rom_restart_cal, 0x4000781c)
                [!provide]                        PROVIDE (rom_rfcal_pwrctrl, 0x40007eb4)
                [!provide]                        PROVIDE (rom_rfcal_rxiq, 0x4000804c)
                [!provide]                        PROVIDE (rom_rfcal_rxiq_set_reg, 0x40008264)
                [!provide]                        PROVIDE (rom_rfcal_txcap, 0x40008388)
                [!provide]                        PROVIDE (rom_rfcal_txiq, 0x40008610)
                [!provide]                        PROVIDE (rom_rfcal_txiq_cover, 0x400088b8)
                [!provide]                        PROVIDE (rom_rfcal_txiq_set_reg, 0x40008a70)
                [!provide]                        PROVIDE (rom_rfpll_reset, 0x40007868)
                [!provide]                        PROVIDE (rom_rfpll_set_freq, 0x40007968)
                [!provide]                        PROVIDE (rom_rxiq_cover_mg_mp, 0x40008b6c)
                [!provide]                        PROVIDE (rom_rxiq_get_mis, 0x40006628)
                [!provide]                        PROVIDE (rom_sar_init, 0x40006738)
                [!provide]                        PROVIDE (rom_set_ana_inf_tx_scale, 0x4000678c)
                [!provide]                        PROVIDE (rom_set_channel_freq, 0x40006c50)
                [!provide]                        PROVIDE (rom_set_loopback_gain, 0x400067c8)
                [!provide]                        PROVIDE (rom_set_noise_floor, 0x40006830)
                [!provide]                        PROVIDE (rom_set_rxclk_en, 0x40006550)
                [!provide]                        PROVIDE (rom_set_txbb_atten, 0x40008c6c)
                [!provide]                        PROVIDE (rom_set_txclk_en, 0x4000650c)
                [!provide]                        PROVIDE (rom_set_txiq_cal, 0x40008d34)
                [!provide]                        PROVIDE (rom_start_noisefloor, 0x40006874)
                [!provide]                        PROVIDE (rom_start_tx_tone, 0x400068b4)
                [!provide]                        PROVIDE (rom_stop_tx_tone, 0x4000698c)
                [!provide]                        PROVIDE (rom_tx_mac_disable, 0x40006a98)
                [!provide]                        PROVIDE (rom_tx_mac_enable, 0x40006ad4)
                [!provide]                        PROVIDE (rom_txtone_linear_pwr, 0x40006a1c)
                [!provide]                        PROVIDE (rom_write_rfpll_sdm, 0x400078dc)
                0x00000000400031b4                PROVIDE (roundup2, 0x400031b4)
                [!provide]                        PROVIDE (rtc_enter_sleep, 0x40002870)
                0x00000000400025e0                PROVIDE (rtc_get_reset_reason, 0x400025e0)
                [!provide]                        PROVIDE (rtc_intr_handler, 0x400029ec)
                [!provide]                        PROVIDE (rtc_set_sleep_mode, 0x40002668)
                [!provide]                        PROVIDE (save_rxbcn_mactime, 0x400027a4)
                [!provide]                        PROVIDE (save_tsf_us, 0x400027ac)
                [!provide]                        PROVIDE (send_packet, 0x40003c80)
                0x000000004000ba48                PROVIDE (sha1_prf, 0x4000ba48)
                [!provide]                        PROVIDE (sha1_vector, 0x4000a2ec)
                [!provide]                        PROVIDE (sip_alloc_to_host_evt, 0x40005180)
                [!provide]                        PROVIDE (sip_get_ptr, 0x400058a8)
                [!provide]                        PROVIDE (sip_get_state, 0x40005668)
                [!provide]                        PROVIDE (sip_init_attach, 0x4000567c)
                [!provide]                        PROVIDE (sip_install_rx_ctrl_cb, 0x4000544c)
                [!provide]                        PROVIDE (sip_install_rx_data_cb, 0x4000545c)
                [!provide]                        PROVIDE (sip_post, 0x400050fc)
                [!provide]                        PROVIDE (sip_post_init, 0x400056c4)
                [!provide]                        PROVIDE (sip_reclaim_from_host_cmd, 0x4000534c)
                [!provide]                        PROVIDE (sip_reclaim_tx_data_pkt, 0x400052c0)
                [!provide]                        PROVIDE (sip_send, 0x40005808)
                [!provide]                        PROVIDE (sip_to_host_chain_append, 0x40005864)
                [!provide]                        PROVIDE (sip_to_host_evt_send_done, 0x40005234)
                [!provide]                        PROVIDE (slc_add_credits, 0x400060ac)
                [!provide]                        PROVIDE (slc_enable, 0x40005d90)
                [!provide]                        PROVIDE (slc_from_host_chain_fetch, 0x40005f24)
                [!provide]                        PROVIDE (slc_from_host_chain_recycle, 0x40005e94)
                [!provide]                        PROVIDE (slc_init_attach, 0x40005c50)
                [!provide]                        PROVIDE (slc_init_credit, 0x4000608c)
                [!provide]                        PROVIDE (slc_pause_from_host, 0x40006014)
                [!provide]                        PROVIDE (slc_reattach, 0x40005c1c)
                [!provide]                        PROVIDE (slc_resume_from_host, 0x4000603c)
                [!provide]                        PROVIDE (slc_select_tohost_gpio, 0x40005dc0)
                [!provide]                        PROVIDE (slc_select_tohost_gpio_mode, 0x40005db8)
                [!provide]                        PROVIDE (slc_send_to_host_chain, 0x40005de4)
                [!provide]                        PROVIDE (slc_set_host_io_max_window, 0x40006068)
                [!provide]                        PROVIDE (slc_to_host_chain_recycle, 0x40005f10)
                [!provide]                        PROVIDE (software_reset, 0x4000264c)
                [!provide]                        PROVIDE (spi_flash_attach, 0x40004644)
                [!provide]                        PROVIDE (srand, 0x400005f0)
                [!provide]                        PROVIDE (strcmp, 0x4000bdc8)
                [!provide]                        PROVIDE (strcpy, 0x4000bec8)
                [!provide]                        PROVIDE (strlen, 0x4000bf4c)
                [!provide]                        PROVIDE (strncmp, 0x4000bfa8)
                [!provide]                        PROVIDE (strncpy, 0x4000c0a0)
                [!provide]                        PROVIDE (strstr, 0x4000e1e0)
                [!provide]                        PROVIDE (timer_insert, 0x40002c64)
                [!provide]                        PROVIDE (uartAttach, 0x4000383c)
                [!provide]                        PROVIDE (uart_baudrate_detect, 0x40003924)
                0x00000000400038a4                PROVIDE (uart_buff_switch, 0x400038a4)
                0x00000000400039d8                PROVIDE (uart_div_modify, 0x400039d8)
                [!provide]                        PROVIDE (uart_rx_intr_handler, 0x40003bbc)
                [!provide]                        PROVIDE (uart_rx_one_char, 0x40003b8c)
                [!provide]                        PROVIDE (uart_rx_one_char_block, 0x40003b64)
                [!provide]                        PROVIDE (uart_rx_readbuff, 0x40003ec8)
                [!provide]                        PROVIDE (uart_tx_one_char, 0x40003b30)
                [!provide]                        PROVIDE (wepkey_128, 0x4000bc40)
                [!provide]                        PROVIDE (wepkey_64, 0x4000bb3c)
                [!provide]                        PROVIDE (xthal_bcopy, 0x40000688)
                [!provide]                        PROVIDE (xthal_copy123, 0x4000074c)
                [!provide]                        PROVIDE (xthal_get_ccompare, 0x4000dd4c)
                [!provide]                        PROVIDE (xthal_get_ccount, 0x4000dd38)
                [!provide]                        PROVIDE (xthal_get_interrupt, 0x4000dd58)
                [!provide]                        PROVIDE (xthal_get_intread, 0x4000dd58)
                [!provide]                        PROVIDE (xthal_memcpy, 0x400006c4)
                [!provide]                        PROVIDE (xthal_set_ccompare, 0x4000dd40)
                [!provide]                        PROVIDE (xthal_set_intclear, 0x4000dd60)
                [!provide]                        PROVIDE (xthal_spill_registers_into_stack_nw, 0x4000e320)
                [!provide]                        PROVIDE (xthal_window_spill, 0x4000e324)
                [!provide]                        PROVIDE (xthal_window_spill_nw, 0x4000e320)
                0x000000003fffccf0                PROVIDE (Te0, 0x3fffccf0)
                [!provide]                        PROVIDE (Td0, 0x3fffd100)
                [!provide]                        PROVIDE (Td4s, 0x3fffd500)
                0x000000003fffd0f0                PROVIDE (rcons, 0x3fffd0f0)
                0x000000003fffde10                PROVIDE (UartDev, 0x3fffde10)
                0x000000003fffc714                PROVIDE (flashchip, 0x3fffc714)
OUTPUT(build/app.out elf32-xtensa-le)

.xtensa.info    0x0000000000000000       0x38
 .xtensa.info   0x0000000000000000       0x38 /home/stoffer/esp8266/esp-open-sdk/sdk/lib/libmain.a(debug-vector.o)
 .xtensa.info   0x0000000000000038        0x0 /home/stoffer/esp8266/esp-open-sdk/sdk/lib/libmain.a(double-vector.o)
 .xtensa.info   0x0000000000000038        0x0 /home/stoffer/esp8266/esp-open-sdk/sdk/lib/libmain.a(kernel-vector.o)
 .xtensa.info   0x0000000000000038        0x0 /home/stoffer/esp8266/esp-open-sdk/sdk/lib/libmain.a(nmi-vector.o)
 .xtensa.info   0x0000000000000038        0x0 /home/stoffer/esp8266/esp-open-sdk/sdk/lib/libmain.a(user-vector.o)
 .xtensa.info   0x0000000000000038        0x0 /home/stoffer/esp8266/esp-open-sdk/sdk/lib/libmain.a(vector.o)
 .xtensa.info   0x0000000000000038        0x0 /home/stoffer/esp8266/esp-open-sdk/sdk/lib/libmain.a(app_main.o)
 .xtensa.info   0x0000000000000038        0x0 /home/stoffer/esp8266/esp-open-sdk/sdk/lib/libmain.a(ets_timer.o)
 .xtensa.info   0x0000000000000038        0x0 /home/stoffer/esp8266/esp-open-sdk/sdk/lib/libmain.a(mem_manager.o)
 .xtensa.info   0x0000000000000038        0x0 /home/stoffer/esp8266/esp-open-sdk/sdk/lib/libmain.a(spi_flash.o)
 .xtensa.info   0x0000000000000038        0x0 /home/stoffer/esp8266/esp-open-sdk/sdk/lib/libmain.a(user_interface.o)
 .xtensa.info   0x0000000000000038        0x0 /home/stoffer/esp8266/esp-open-sdk/sdk/lib/libmain.a(eagle_lib.o)
 .xtensa.info   0x0000000000000038        0x0 /home/stoffer/esp8266/esp-open-sdk/sdk/lib/libmain.a(eagle_lwip_if.o)
 .xtensa.info   0x0000000000000038        0x0 build/app_app.a(user_main.o)
 .xtensa.info   0x0000000000000038        0x0 build/app_app.a(captdns.o)
 .xtensa.info   0x0000000000000038        0x0 build/app_app.a(led.o)
 .xtensa.info   0x0000000000000038        0x0 build/app_app.a(httpd_user_init.o)
 .xtensa.info   0x0000000000000038        0x0 build/app_app.a(httpd.o)
 .xtensa.info   0x0000000000000038        0x0 build/app_app.a(utils.o)
 .xtensa.info   0x0000000000000038        0x0 build/app_app.a(crypto.o)
 .xtensa.info   0x0000000000000038        0x0 build/app_app.a(sha256.o)
 .xtensa.info   0x0000000000000038        0x0 build/app_app.a(aes.o)
 .xtensa.info   0x0000000000000038        0x0 build/app_app.a(uart.o)
 .xtensa.info   0x0000000000000038        0x0 build/app_app.a(ext_spi_flash.o)
 .xtensa.info   0x0000000000000038        0x0 build/app_app.a(gpio16.o)
 .xtensa.info   0x0000000000000038        0x0 build/app_app.a(spi.o)
 .xtensa.info   0x0000000000000038        0x0 build/app_app.a(mqtt.o)
 .xtensa.info   0x0000000000000038        0x0 build/app_app.a(mqtt_msg.o)
 .xtensa.info   0x0000000000000038        0x0 build/app_app.a(queue.o)
 .xtensa.info   0x0000000000000038        0x0 build/app_app.a(mqtt_utils.o)
 .xtensa.info   0x0000000000000038        0x0 build/app_app.a(proto.o)
 .xtensa.info   0x0000000000000038        0x0 build/app_app.a(config.o)
 .xtensa.info   0x0000000000000038        0x0 build/app_app.a(wifi.o)
 .xtensa.info   0x0000000000000038        0x0 build/app_app.a(cgiwifi.o)
 .xtensa.info   0x0000000000000038        0x0 build/app_app.a(tinyprintf.o)
 .xtensa.info   0x0000000000000038        0x0 build/app_app.a(unix_time.o)
 .xtensa.info   0x0000000000000038        0x0 build/app_app.a(cgi.o)
 .xtensa.info   0x0000000000000038        0x0 build/app_app.a(httpdespfs.o)
 .xtensa.info   0x0000000000000038        0x0 build/app_app.a(espfs.o)
 .xtensa.info   0x0000000000000038        0x0 build/app_app.a(heatshrink_decoder.o)
 .xtensa.info   0x0000000000000038        0x0 build/app_app.a(hmac-sha256.o)
 .xtensa.info   0x0000000000000038        0x0 build/app_app.a(ringbuf.o)
 .xtensa.info   0x0000000000000038        0x0 /home/stoffer/esp8266/esp-open-sdk/xtensa-lx106-elf/lib/gcc/xtensa-lx106-elf/4.8.5/../../../../xtensa-lx106-elf/lib/libc.a(lib_a-atoi.o)
 .xtensa.info   0x0000000000000038        0x0 /home/stoffer/esp8266/esp-open-sdk/xtensa-lx106-elf/lib/gcc/xtensa-lx106-elf/4.8.5/../../../../xtensa-lx106-elf/lib/libc.a(lib_a-memcpy.o)
 .xtensa.info   0x0000000000000038        0x0 /home/stoffer/esp8266/esp-open-sdk/xtensa-lx106-elf/lib/gcc/xtensa-lx106-elf/4.8.5/../../../../xtensa-lx106-elf/lib/libc.a(lib_a-memset.o)
 .xtensa.info   0x0000000000000038        0x0 /home/stoffer/esp8266/esp-open-sdk/xtensa-lx106-elf/lib/gcc/xtensa-lx106-elf/4.8.5/../../../../xtensa-lx106-elf/lib/libc.a(lib_a-strlen.o)
 .xtensa.info   0x0000000000000038        0x0 /home/stoffer/esp8266/esp-open-sdk/xtensa-lx106-elf/lib/gcc/xtensa-lx106-elf/4.8.5/../../../../xtensa-lx106-elf/lib/libc.a(lib_a-strtok.o)
 .xtensa.info   0x0000000000000038        0x0 /home/stoffer/esp8266/esp-open-sdk/xtensa-lx106-elf/lib/gcc/xtensa-lx106-elf/4.8.5/../../../../xtensa-lx106-elf/lib/libc.a(lib_a-strtok_r.o)
 .xtensa.info   0x0000000000000038        0x0 /home/stoffer/esp8266/esp-open-sdk/xtensa-lx106-elf/lib/gcc/xtensa-lx106-elf/4.8.5/../../../../xtensa-lx106-elf/lib/libc.a(lib_a-strtol.o)
 .xtensa.info   0x0000000000000038        0x0 /home/stoffer/esp8266/esp-open-sdk/xtensa-lx106-elf/lib/gcc/xtensa-lx106-elf/4.8.5/../../../../xtensa-lx106-elf/lib/libc.a(lib_a-ctype_.o)
 .xtensa.info   0x0000000000000038        0x0 /home/stoffer/esp8266/esp-open-sdk/xtensa-lx106-elf/lib/gcc/xtensa-lx106-elf/4.8.5/../../../../xtensa-lx106-elf/lib/libc.a(lib_a-impure.o)
 .xtensa.info   0x0000000000000038        0x0 /home/stoffer/esp8266/esp-open-sdk/xtensa-lx106-elf/xtensa-lx106-elf/sysroot/usr/lib/libhal.a(int_asm--set_intclear.o)
 .xtensa.info   0x0000000000000038        0x0 /home/stoffer/esp8266/esp-open-sdk/sdk/lib/libphy.a(phy.o)
 .xtensa.info   0x0000000000000038        0x0 /home/stoffer/esp8266/esp-open-sdk/sdk/lib/libphy.a(phy_chip_v6_ana.o)
 .xtensa.info   0x0000000000000038        0x0 /home/stoffer/esp8266/esp-open-sdk/sdk/lib/libphy.a(phy_chip_v6.o)
 .xtensa.info   0x0000000000000038        0x0 /home/stoffer/esp8266/esp-open-sdk/sdk/lib/libphy.a(phy_chip_v6_cal.o)
 .xtensa.info   0x0000000000000038        0x0 /home/stoffer/esp8266/esp-open-sdk/sdk/lib/libphy.a(phy_chip_v6_unused.o)
 .xtensa.info   0x0000000000000038        0x0 /home/stoffer/esp8266/esp-open-sdk/sdk/lib/libphy.a(phy_sleep.o)
 .xtensa.info   0x0000000000000038        0x0 /home/stoffer/esp8266/esp-open-sdk/sdk/lib/libpp.a(if_hwctrl.o)
 .xtensa.info   0x0000000000000038        0x0 /home/stoffer/esp8266/esp-open-sdk/sdk/lib/libpp.a(lmac.o)
 .xtensa.info   0x0000000000000038        0x0 /home/stoffer/esp8266/esp-open-sdk/sdk/lib/libpp.a(pm.o)
 .xtensa.info   0x0000000000000038        0x0 /home/stoffer/esp8266/esp-open-sdk/sdk/lib/libpp.a(pm_for_bcn_only_mode.o)
 .xtensa.info   0x0000000000000038        0x0 /home/stoffer/esp8266/esp-open-sdk/sdk/lib/libpp.a(pp.o)
 .xtensa.info   0x0000000000000038        0x0 /home/stoffer/esp8266/esp-open-sdk/sdk/lib/libpp.a(rate_control.o)
 .xtensa.info   0x0000000000000038        0x0 /home/stoffer/esp8266/esp-open-sdk/sdk/lib/libpp.a(trc.o)
 .xtensa.info   0x0000000000000038        0x0 /home/stoffer/esp8266/esp-open-sdk/sdk/lib/libpp.a(wdev.o)
 .xtensa.info   0x0000000000000038        0x0 /home/stoffer/esp8266/esp-open-sdk/sdk/lib/libpp.a(esf_buf.o)
 .xtensa.info   0x0000000000000038        0x0 /home/stoffer/esp8266/esp-open-sdk/sdk/lib/libnet80211.a(ieee80211.o)
 .xtensa.info   0x0000000000000038        0x0 /home/stoffer/esp8266/esp-open-sdk/sdk/lib/libnet80211.a(ieee80211_crypto.o)
 .xtensa.info   0x0000000000000038        0x0 /home/stoffer/esp8266/esp-open-sdk/sdk/lib/libnet80211.a(ieee80211_ets.o)
 .xtensa.info   0x0000000000000038        0x0 /home/stoffer/esp8266/esp-open-sdk/sdk/lib/libnet80211.a(ieee80211_hostap.o)
 .xtensa.info   0x0000000000000038        0x0 /home/stoffer/esp8266/esp-open-sdk/sdk/lib/libnet80211.a(ieee80211_ht.o)
 .xtensa.info   0x0000000000000038        0x0 /home/stoffer/esp8266/esp-open-sdk/sdk/lib/libnet80211.a(ieee80211_input.o)
 .xtensa.info   0x0000000000000038        0x0 /home/stoffer/esp8266/esp-open-sdk/sdk/lib/libnet80211.a(ieee80211_mesh_quick.o)
 .xtensa.info   0x0000000000000038        0x0 /home/stoffer/esp8266/esp-open-sdk/sdk/lib/libnet80211.a(ieee80211_output.o)
 .xtensa.info   0x0000000000000038        0x0 /home/stoffer/esp8266/esp-open-sdk/sdk/lib/libnet80211.a(ieee80211_phy.o)
 .xtensa.info   0x0000000000000038        0x0 /home/stoffer/esp8266/esp-open-sdk/sdk/lib/libnet80211.a(ieee80211_power.o)
 .xtensa.info   0x0000000000000038        0x0 /home/stoffer/esp8266/esp-open-sdk/sdk/lib/libnet80211.a(ieee80211_proto.o)
 .xtensa.info   0x0000000000000038        0x0 /home/stoffer/esp8266/esp-open-sdk/sdk/lib/libnet80211.a(ieee80211_rfid.o)
 .xtensa.info   0x0000000000000038        0x0 /home/stoffer/esp8266/esp-open-sdk/sdk/lib/libnet80211.a(ieee80211_scan.o)
 .xtensa.info   0x0000000000000038        0x0 /home/stoffer/esp8266/esp-open-sdk/sdk/lib/libnet80211.a(ieee80211_sta.o)
 .xtensa.info   0x0000000000000038        0x0 /home/stoffer/esp8266/esp-open-sdk/sdk/lib/libnet80211.a(wl_chm.o)
 .xtensa.info   0x0000000000000038        0x0 /home/stoffer/esp8266/esp-open-sdk/sdk/lib/libnet80211.a(wl_cnx.o)
 .xtensa.info   0x0000000000000038        0x0 /home/stoffer/esp8266/esp-open-sdk/sdk/lib/libnet80211.a(ieee80211_action.o)
 .xtensa.info   0x0000000000000038        0x0 /home/stoffer/esp8266/esp-open-sdk/sdk/lib/libnet80211.a(ieee80211_action_vendor.o)
 .xtensa.info   0x0000000000000038        0x0 /home/stoffer/esp8266/esp-open-sdk/sdk/lib/libnet80211.a(ieee80211_crypto_ccmp.o)
 .xtensa.info   0x0000000000000038        0x0 /home/stoffer/esp8266/esp-open-sdk/sdk/lib/libnet80211.a(ieee80211_ie_vendor.o)
 .xtensa.info   0x0000000000000038        0x0 /home/stoffer/esp8266/esp-open-sdk/sdk/lib/liblwip.a(dhcp.o)
 .xtensa.info   0x0000000000000038        0x0 /home/stoffer/esp8266/esp-open-sdk/sdk/lib/liblwip.a(dhcpserver.o)
 .xtensa.info   0x0000000000000038        0x0 /home/stoffer/esp8266/esp-open-sdk/sdk/lib/liblwip.a(dns.o)
 .xtensa.info   0x0000000000000038        0x0 /home/stoffer/esp8266/esp-open-sdk/sdk/lib/liblwip.a(espconn.o)
 .xtensa.info   0x0000000000000038        0x0 /home/stoffer/esp8266/esp-open-sdk/sdk/lib/liblwip.a(espconn_tcp.o)
 .xtensa.info   0x0000000000000038        0x0 /home/stoffer/esp8266/esp-open-sdk/sdk/lib/liblwip.a(espconn_udp.o)
 .xtensa.info   0x0000000000000038        0x0 /home/stoffer/esp8266/esp-open-sdk/sdk/lib/liblwip.a(etharp.o)
 .xtensa.info   0x0000000000000038        0x0 /home/stoffer/esp8266/esp-open-sdk/sdk/lib/liblwip.a(igmp.o)
 .xtensa.info   0x0000000000000038        0x0 /home/stoffer/esp8266/esp-open-sdk/sdk/lib/liblwip.a(inet_chksum.o)
 .xtensa.info   0x0000000000000038        0x0 /home/stoffer/esp8266/esp-open-sdk/sdk/lib/liblwip.a(init.o)
 .xtensa.info   0x0000000000000038        0x0 /home/stoffer/esp8266/esp-open-sdk/sdk/lib/liblwip.a(ip_addr.o)
 .xtensa.info   0x0000000000000038        0x0 /home/stoffer/esp8266/esp-open-sdk/sdk/lib/liblwip.a(ip.o)
 .xtensa.info   0x0000000000000038        0x0 /home/stoffer/esp8266/esp-open-sdk/sdk/lib/liblwip.a(memp.o)
 .xtensa.info   0x0000000000000038        0x0 /home/stoffer/esp8266/esp-open-sdk/sdk/lib/liblwip.a(netif.o)
 .xtensa.info   0x0000000000000038        0x0 /home/stoffer/esp8266/esp-open-sdk/sdk/lib/liblwip.a(pbuf.o)
 .xtensa.info   0x0000000000000038        0x0 /home/stoffer/esp8266/esp-open-sdk/sdk/lib/liblwip.a(raw.o)
 .xtensa.info   0x0000000000000038        0x0 /home/stoffer/esp8266/esp-open-sdk/sdk/lib/liblwip.a(sntp.o)
 .xtensa.info   0x0000000000000038        0x0 /home/stoffer/esp8266/esp-open-sdk/sdk/lib/liblwip.a(tcp_in.o)
 .xtensa.info   0x0000000000000038        0x0 /home/stoffer/esp8266/esp-open-sdk/sdk/lib/liblwip.a(tcp.o)
 .xtensa.info   0x0000000000000038        0x0 /home/stoffer/esp8266/esp-open-sdk/sdk/lib/liblwip.a(tcp_out.o)
 .xtensa.info   0x0000000000000038        0x0 /home/stoffer/esp8266/esp-open-sdk/sdk/lib/liblwip.a(timers.o)
 .xtensa.info   0x0000000000000038        0x0 /home/stoffer/esp8266/esp-open-sdk/sdk/lib/liblwip.a(udp.o)
 .xtensa.info   0x0000000000000038        0x0 /home/stoffer/esp8266/esp-open-sdk/sdk/lib/liblwip.a(icmp.o)
 .xtensa.info   0x0000000000000038        0x0 /home/stoffer/esp8266/esp-open-sdk/sdk/lib/libwpa.a(ap_config.o)
 .xtensa.info   0x0000000000000038        0x0 /home/stoffer/esp8266/esp-open-sdk/sdk/lib/libwpa.a(common.o)
 .xtensa.info   0x0000000000000038        0x0 /home/stoffer/esp8266/esp-open-sdk/sdk/lib/libwpa.a(os_xtensa.o)
 .xtensa.info   0x0000000000000038        0x0 /home/stoffer/esp8266/esp-open-sdk/sdk/lib/libwpa.a(wpa_auth.o)
 .xtensa.info   0x0000000000000038        0x0 /home/stoffer/esp8266/esp-open-sdk/sdk/lib/libwpa.a(wpa_auth_ie.o)
 .xtensa.info   0x0000000000000038        0x0 /home/stoffer/esp8266/esp-open-sdk/sdk/lib/libwpa.a(wpa.o)
 .xtensa.info   0x0000000000000038        0x0 /home/stoffer/esp8266/esp-open-sdk/sdk/lib/libwpa.a(wpa_common.o)
 .xtensa.info   0x0000000000000038        0x0 /home/stoffer/esp8266/esp-open-sdk/sdk/lib/libwpa.a(wpa_debug.o)
 .xtensa.info   0x0000000000000038        0x0 /home/stoffer/esp8266/esp-open-sdk/sdk/lib/libwpa.a(wpa_ie.o)
 .xtensa.info   0x0000000000000038        0x0 /home/stoffer/esp8266/esp-open-sdk/sdk/lib/libwpa.a(wpa_main.o)
 .xtensa.info   0x0000000000000038        0x0 /home/stoffer/esp8266/esp-open-sdk/sdk/lib/libwpa.a(wpas_glue.o)
 .xtensa.info   0x0000000000000038        0x0 /home/stoffer/esp8266/esp-open-sdk/sdk/lib/libwpa.a(aes-wrap.o)
 .xtensa.info   0x0000000000000038        0x0 /home/stoffer/esp8266/esp-open-sdk/sdk/lib/libwpa.a(aes-internal-enc.o)
 .xtensa.info   0x0000000000000038        0x0 /home/stoffer/esp8266/esp-open-sdk/sdk/lib/libwpa.a(aes-internal.o)
 .xtensa.info   0x0000000000000038        0x0 /home/stoffer/esp8266/esp-open-sdk/sdk/lib/libgcc.a(_modsi3.o)
 .xtensa.info   0x0000000000000038        0x0 /home/stoffer/esp8266/esp-open-sdk/sdk/lib/libgcc.a(_ashrdi3.o)
 .xtensa.info   0x0000000000000038        0x0 /home/stoffer/esp8266/esp-open-sdk/sdk/lib/libgcc.a(_mulsf3.o)
 .xtensa.info   0x0000000000000038        0x0 /home/stoffer/esp8266/esp-open-sdk/sdk/lib/libgcc.a(_divsf3.o)
 .xtensa.info   0x0000000000000038        0x0 /home/stoffer/esp8266/esp-open-sdk/sdk/lib/libgcc.a(_fixsfsi.o)
 .xtensa.info   0x0000000000000038        0x0 /home/stoffer/esp8266/esp-open-sdk/sdk/lib/libnet80211.a(ieee80211_crypto_tkip.o)
 .xtensa.info   0x0000000000000038        0x0 /home/stoffer/esp8266/esp-open-sdk/sdk/lib/libnet80211.a(ieee80211_crypto_wep.o)

.xt.prop        0x0000000000000000    0x2bea8
 .xt.prop       0x0000000000000000       0x18 /home/stoffer/esp8266/esp-open-sdk/sdk/lib/libmain.a(debug-vector.o)
 .xt.prop       0x0000000000000018       0x18 /home/stoffer/esp8266/esp-open-sdk/sdk/lib/libmain.a(double-vector.o)
 .xt.prop       0x0000000000000030       0x18 /home/stoffer/esp8266/esp-open-sdk/sdk/lib/libmain.a(kernel-vector.o)
 .xt.prop       0x0000000000000048       0x30 /home/stoffer/esp8266/esp-open-sdk/sdk/lib/libmain.a(nmi-vector.o)
                                         0x3c (size before relaxing)
 .xt.prop       0x0000000000000078       0x30 /home/stoffer/esp8266/esp-open-sdk/sdk/lib/libmain.a(user-vector.o)
                                         0x3c (size before relaxing)
 .xt.prop       0x00000000000000a8       0x18 /home/stoffer/esp8266/esp-open-sdk/sdk/lib/libmain.a(vector.o)
 .xt.prop       0x00000000000000c0      0xd98 /home/stoffer/esp8266/esp-open-sdk/sdk/lib/libmain.a(app_main.o)
                                        0xe28 (size before relaxing)
 .xt.prop       0x0000000000000e58      0x5e8 /home/stoffer/esp8266/esp-open-sdk/sdk/lib/libmain.a(ets_timer.o)
                                        0x630 (size before relaxing)
 .xt.prop       0x0000000000001440      0x3e4 /home/stoffer/esp8266/esp-open-sdk/sdk/lib/libmain.a(mem_manager.o)
                                        0x474 (size before relaxing)
 .xt.prop       0x0000000000001824      0x384 /home/stoffer/esp8266/esp-open-sdk/sdk/lib/libmain.a(spi_flash.o)
                                        0x39c (size before relaxing)
 .xt.prop       0x0000000000001ba8     0x35dc /home/stoffer/esp8266/esp-open-sdk/sdk/lib/libmain.a(user_interface.o)
                                       0x3768 (size before relaxing)
 .xt.prop       0x0000000000005184      0x858 /home/stoffer/esp8266/esp-open-sdk/sdk/lib/libmain.a(eagle_lib.o)
 .xt.prop       0x00000000000059dc      0x270 /home/stoffer/esp8266/esp-open-sdk/sdk/lib/libmain.a(eagle_lwip_if.o)
                                        0x2a0 (size before relaxing)
 .xt.prop       0x0000000000005c4c      0x420 build/app_app.a(user_main.o)
                                        0x474 (size before relaxing)
 .xt.prop       0x000000000000606c      0x180 build/app_app.a(captdns.o)
                                        0x198 (size before relaxing)
 .xt.prop       0x00000000000061ec      0x120 build/app_app.a(led.o)
                                        0x12c (size before relaxing)
 .xt.prop       0x000000000000630c       0x6c build/app_app.a(httpd_user_init.o)
 .xt.prop       0x0000000000006378      0x804 build/app_app.a(httpd.o)
                                        0x84c (size before relaxing)
 .xt.prop       0x0000000000006b7c      0x1f8 build/app_app.a(utils.o)
 .xt.prop       0x0000000000006d74       0x90 build/app_app.a(crypto.o)
 .xt.prop       0x0000000000006e04      0x240 build/app_app.a(sha256.o)
                                        0x24c (size before relaxing)
 .xt.prop       0x0000000000007044      0x3e4 build/app_app.a(aes.o)
                                        0x420 (size before relaxing)
 .xt.prop       0x0000000000007428      0x2c4 build/app_app.a(uart.o)
 .xt.prop       0x00000000000076ec      0x15c build/app_app.a(ext_spi_flash.o)
 .xt.prop       0x0000000000007848       0x9c build/app_app.a(gpio16.o)
 .xt.prop       0x00000000000078e4      0x270 build/app_app.a(spi.o)
 .xt.prop       0x0000000000007b54      0x804 build/app_app.a(mqtt.o)
 .xt.prop       0x0000000000008358      0x5f4 build/app_app.a(mqtt_msg.o)
 .xt.prop       0x000000000000894c       0x90 build/app_app.a(queue.o)
 .xt.prop       0x00000000000089dc      0x174 build/app_app.a(mqtt_utils.o)
 .xt.prop       0x0000000000008b50      0x210 build/app_app.a(proto.o)
 .xt.prop       0x0000000000008d60       0xfc build/app_app.a(config.o)
                                        0x108 (size before relaxing)
 .xt.prop       0x0000000000008e5c      0x1c8 build/app_app.a(wifi.o)
                                        0x228 (size before relaxing)
 .xt.prop       0x0000000000009024      0x2e8 build/app_app.a(cgiwifi.o)
                                        0x2f4 (size before relaxing)
 .xt.prop       0x000000000000930c      0x9b4 build/app_app.a(tinyprintf.o)
                                        0x9cc (size before relaxing)
 .xt.prop       0x0000000000009cc0       0xf0 build/app_app.a(unix_time.o)
                                        0x120 (size before relaxing)
 .xt.prop       0x0000000000009db0      0x138 build/app_app.a(cgi.o)
                                        0x150 (size before relaxing)
 .xt.prop       0x0000000000009ee8      0x15c build/app_app.a(httpdespfs.o)
 .xt.prop       0x000000000000a044      0x204 build/app_app.a(espfs.o)
 .xt.prop       0x000000000000a248      0x42c build/app_app.a(heatshrink_decoder.o)
 .xt.prop       0x000000000000a674       0xc0 build/app_app.a(hmac-sha256.o)
 .xt.prop       0x000000000000a734       0xb4 build/app_app.a(ringbuf.o)
 .xt.prop       0x000000000000a7e8       0x3c /home/stoffer/esp8266/esp-open-sdk/xtensa-lx106-elf/lib/gcc/xtensa-lx106-elf/4.8.5/../../../../xtensa-lx106-elf/lib/libc.a(lib_a-atoi.o)
                                         0x48 (size before relaxing)
 .xt.prop       0x000000000000a824      0x174 /home/stoffer/esp8266/esp-open-sdk/xtensa-lx106-elf/lib/gcc/xtensa-lx106-elf/4.8.5/../../../../xtensa-lx106-elf/lib/libc.a(lib_a-memcpy.o)
 .xt.prop       0x000000000000a998       0xe4 /home/stoffer/esp8266/esp-open-sdk/xtensa-lx106-elf/lib/gcc/xtensa-lx106-elf/4.8.5/../../../../xtensa-lx106-elf/lib/libc.a(lib_a-memset.o)
 .xt.prop       0x000000000000aa7c       0xb4 /home/stoffer/esp8266/esp-open-sdk/xtensa-lx106-elf/lib/gcc/xtensa-lx106-elf/4.8.5/../../../../xtensa-lx106-elf/lib/libc.a(lib_a-strlen.o)
 .xt.prop       0x000000000000ab30       0x30 /home/stoffer/esp8266/esp-open-sdk/xtensa-lx106-elf/lib/gcc/xtensa-lx106-elf/4.8.5/../../../../xtensa-lx106-elf/lib/libc.a(lib_a-strtok.o)
 .xt.prop       0x000000000000ab60       0xfc /home/stoffer/esp8266/esp-open-sdk/xtensa-lx106-elf/lib/gcc/xtensa-lx106-elf/4.8.5/../../../../xtensa-lx106-elf/lib/libc.a(lib_a-strtok_r.o)
                                        0x108 (size before relaxing)
 .xt.prop       0x000000000000ac5c      0x15c /home/stoffer/esp8266/esp-open-sdk/xtensa-lx106-elf/lib/gcc/xtensa-lx106-elf/4.8.5/../../../../xtensa-lx106-elf/lib/libc.a(lib_a-strtol.o)
 .xt.prop       0x000000000000adb8        0xc /home/stoffer/esp8266/esp-open-sdk/xtensa-lx106-elf/lib/gcc/xtensa-lx106-elf/4.8.5/../../../../xtensa-lx106-elf/lib/libc.a(lib_a-ctype_.o)
 .xt.prop       0x000000000000adc4       0x24 /home/stoffer/esp8266/esp-open-sdk/xtensa-lx106-elf/lib/gcc/xtensa-lx106-elf/4.8.5/../../../../xtensa-lx106-elf/lib/libc.a(lib_a-impure.o)
 .xt.prop       0x000000000000ade8       0x24 /home/stoffer/esp8266/esp-open-sdk/xtensa-lx106-elf/xtensa-lx106-elf/sysroot/usr/lib/libhal.a(int_asm--set_intclear.o)
 .xt.prop       0x000000000000ae0c      0x1d4 /home/stoffer/esp8266/esp-open-sdk/sdk/lib/libphy.a(phy.o)
                                        0x1e0 (size before relaxing)
 .xt.prop       0x000000000000afe0      0xdb0 /home/stoffer/esp8266/esp-open-sdk/sdk/lib/libphy.a(phy_chip_v6_ana.o)
                                        0xdc8 (size before relaxing)
 .xt.prop       0x000000000000bd90     0x20b8 /home/stoffer/esp8266/esp-open-sdk/sdk/lib/libphy.a(phy_chip_v6.o)
                                       0x228c (size before relaxing)
 .xt.prop       0x000000000000de48      0xfa8 /home/stoffer/esp8266/esp-open-sdk/sdk/lib/libphy.a(phy_chip_v6_cal.o)
                                       0x1014 (size before relaxing)
 .xt.prop       0x000000000000edf0       0x60 /home/stoffer/esp8266/esp-open-sdk/sdk/lib/libphy.a(phy_chip_v6_unused.o)
                                         0x6c (size before relaxing)
 .xt.prop       0x000000000000ee50      0x858 /home/stoffer/esp8266/esp-open-sdk/sdk/lib/libphy.a(phy_sleep.o)
                                        0x8ac (size before relaxing)
 .xt.prop       0x000000000000f6a8      0x4ec /home/stoffer/esp8266/esp-open-sdk/sdk/lib/libpp.a(if_hwctrl.o)
                                        0x51c (size before relaxing)
 .xt.prop       0x000000000000fb94     0x14f4 /home/stoffer/esp8266/esp-open-sdk/sdk/lib/libpp.a(lmac.o)
                                       0x1548 (size before relaxing)
 .xt.prop       0x0000000000011088     0x15c0 /home/stoffer/esp8266/esp-open-sdk/sdk/lib/libpp.a(pm.o)
                                       0x1698 (size before relaxing)
 .xt.prop       0x0000000000012648      0x954 /home/stoffer/esp8266/esp-open-sdk/sdk/lib/libpp.a(pm_for_bcn_only_mode.o)
                                        0x978 (size before relaxing)
 .xt.prop       0x0000000000012f9c     0x195c /home/stoffer/esp8266/esp-open-sdk/sdk/lib/libpp.a(pp.o)
                                       0x1b0c (size before relaxing)
 .xt.prop       0x00000000000148f8      0x1bc /home/stoffer/esp8266/esp-open-sdk/sdk/lib/libpp.a(rate_control.o)
                                        0x1d4 (size before relaxing)
 .xt.prop       0x0000000000014ab4     0x1140 /home/stoffer/esp8266/esp-open-sdk/sdk/lib/libpp.a(trc.o)
                                       0x11a0 (size before relaxing)
 .xt.prop       0x0000000000015bf4     0x1284 /home/stoffer/esp8266/esp-open-sdk/sdk/lib/libpp.a(wdev.o)
                                       0x135c (size before relaxing)
 .xt.prop       0x0000000000016e78      0x264 /home/stoffer/esp8266/esp-open-sdk/sdk/lib/libpp.a(esf_buf.o)
                                        0x2e8 (size before relaxing)
 .xt.prop       0x00000000000170dc      0x4a4 /home/stoffer/esp8266/esp-open-sdk/sdk/lib/libnet80211.a(ieee80211.o)
                                        0x4c8 (size before relaxing)
 .xt.prop       0x0000000000017580      0x15c /home/stoffer/esp8266/esp-open-sdk/sdk/lib/libnet80211.a(ieee80211_crypto.o)
 .xt.prop       0x00000000000176dc       0x48 /home/stoffer/esp8266/esp-open-sdk/sdk/lib/libnet80211.a(ieee80211_ets.o)
 .xt.prop       0x0000000000017724      0xe7c /home/stoffer/esp8266/esp-open-sdk/sdk/lib/libnet80211.a(ieee80211_hostap.o)
                                        0xf84 (size before relaxing)
 .xt.prop       0x00000000000185a0      0x684 /home/stoffer/esp8266/esp-open-sdk/sdk/lib/libnet80211.a(ieee80211_ht.o)
                                        0x690 (size before relaxing)
 .xt.prop       0x0000000000018c24      0x8d0 /home/stoffer/esp8266/esp-open-sdk/sdk/lib/libnet80211.a(ieee80211_input.o)
                                        0x8dc (size before relaxing)
 .xt.prop       0x00000000000194f4      0x468 /home/stoffer/esp8266/esp-open-sdk/sdk/lib/libnet80211.a(ieee80211_mesh_quick.o)
 .xt.prop       0x000000000001995c     0x11d0 /home/stoffer/esp8266/esp-open-sdk/sdk/lib/libnet80211.a(ieee80211_output.o)
                                       0x11e8 (size before relaxing)
 .xt.prop       0x000000000001ab2c      0x108 /home/stoffer/esp8266/esp-open-sdk/sdk/lib/libnet80211.a(ieee80211_phy.o)
 .xt.prop       0x000000000001ac34      0x1bc /home/stoffer/esp8266/esp-open-sdk/sdk/lib/libnet80211.a(ieee80211_power.o)
 .xt.prop       0x000000000001adf0      0x114 /home/stoffer/esp8266/esp-open-sdk/sdk/lib/libnet80211.a(ieee80211_proto.o)
                                        0x120 (size before relaxing)
 .xt.prop       0x000000000001af04      0x12c /home/stoffer/esp8266/esp-open-sdk/sdk/lib/libnet80211.a(ieee80211_rfid.o)
 .xt.prop       0x000000000001b030      0xc60 /home/stoffer/esp8266/esp-open-sdk/sdk/lib/libnet80211.a(ieee80211_scan.o)
                                        0xcfc (size before relaxing)
 .xt.prop       0x000000000001bc90      0xa80 /home/stoffer/esp8266/esp-open-sdk/sdk/lib/libnet80211.a(ieee80211_sta.o)
                                        0xaa4 (size before relaxing)
 .xt.prop       0x000000000001c710      0x2d0 /home/stoffer/esp8266/esp-open-sdk/sdk/lib/libnet80211.a(wl_chm.o)
                                        0x2dc (size before relaxing)
 .xt.prop       0x000000000001c9e0     0x11ac /home/stoffer/esp8266/esp-open-sdk/sdk/lib/libnet80211.a(wl_cnx.o)
                                       0x1218 (size before relaxing)
 .xt.prop       0x000000000001db8c      0x33c /home/stoffer/esp8266/esp-open-sdk/sdk/lib/libnet80211.a(ieee80211_action.o)
 .xt.prop       0x000000000001dec8      0x354 /home/stoffer/esp8266/esp-open-sdk/sdk/lib/libnet80211.a(ieee80211_action_vendor.o)
                                        0x384 (size before relaxing)
 .xt.prop       0x000000000001e21c       0xcc /home/stoffer/esp8266/esp-open-sdk/sdk/lib/libnet80211.a(ieee80211_crypto_ccmp.o)
                                         0xd8 (size before relaxing)
 .xt.prop       0x000000000001e2e8      0x114 /home/stoffer/esp8266/esp-open-sdk/sdk/lib/libnet80211.a(ieee80211_ie_vendor.o)
 .xt.prop       0x000000000001e3fc      0xd98 /home/stoffer/esp8266/esp-open-sdk/sdk/lib/liblwip.a(dhcp.o)
                                        0xdbc (size before relaxing)
 .xt.prop       0x000000000001f194      0xae0 /home/stoffer/esp8266/esp-open-sdk/sdk/lib/liblwip.a(dhcpserver.o)
                                        0xb40 (size before relaxing)
 .xt.prop       0x000000000001fc74      0x45c /home/stoffer/esp8266/esp-open-sdk/sdk/lib/liblwip.a(dns.o)
                                        0x4c8 (size before relaxing)
 .xt.prop       0x00000000000200d0      0xf24 /home/stoffer/esp8266/esp-open-sdk/sdk/lib/liblwip.a(espconn.o)
                                        0xf84 (size before relaxing)
 .xt.prop       0x0000000000020ff4      0xdb0 /home/stoffer/esp8266/esp-open-sdk/sdk/lib/liblwip.a(espconn_tcp.o)
                                        0xdbc (size before relaxing)
 .xt.prop       0x0000000000021da4      0x330 /home/stoffer/esp8266/esp-open-sdk/sdk/lib/liblwip.a(espconn_udp.o)
                                        0x33c (size before relaxing)
 .xt.prop       0x00000000000220d4      0x708 /home/stoffer/esp8266/esp-open-sdk/sdk/lib/liblwip.a(etharp.o)
                                        0x750 (size before relaxing)
 .xt.prop       0x00000000000227dc      0x63c /home/stoffer/esp8266/esp-open-sdk/sdk/lib/liblwip.a(igmp.o)
                                        0x66c (size before relaxing)
 .xt.prop       0x0000000000022e18      0x168 /home/stoffer/esp8266/esp-open-sdk/sdk/lib/liblwip.a(inet_chksum.o)
 .xt.prop       0x0000000000022f80       0x24 /home/stoffer/esp8266/esp-open-sdk/sdk/lib/liblwip.a(init.o)
 .xt.prop       0x0000000000022fa4      0x324 /home/stoffer/esp8266/esp-open-sdk/sdk/lib/liblwip.a(ip_addr.o)
                                        0x330 (size before relaxing)
 .xt.prop       0x00000000000232c8      0x438 /home/stoffer/esp8266/esp-open-sdk/sdk/lib/liblwip.a(ip.o)
                                        0x480 (size before relaxing)
 .xt.prop       0x0000000000023700        0x0 /home/stoffer/esp8266/esp-open-sdk/sdk/lib/liblwip.a(memp.o)
                                         0x18 (size before relaxing)
 .xt.prop       0x0000000000023700      0x330 /home/stoffer/esp8266/esp-open-sdk/sdk/lib/liblwip.a(netif.o)
                                        0x354 (size before relaxing)
 .xt.prop       0x0000000000023a30      0x7a4 /home/stoffer/esp8266/esp-open-sdk/sdk/lib/liblwip.a(pbuf.o)
                                        0x7b0 (size before relaxing)
 .xt.prop       0x00000000000241d4      0x294 /home/stoffer/esp8266/esp-open-sdk/sdk/lib/liblwip.a(raw.o)
                                        0x2ac (size before relaxing)
 .xt.prop       0x0000000000024468      0x828 /home/stoffer/esp8266/esp-open-sdk/sdk/lib/liblwip.a(sntp.o)
                                        0x8dc (size before relaxing)
 .xt.prop       0x0000000000024c90      0xc6c /home/stoffer/esp8266/esp-open-sdk/sdk/lib/liblwip.a(tcp_in.o)
                                        0xcfc (size before relaxing)
 .xt.prop       0x00000000000258fc      0xcfc /home/stoffer/esp8266/esp-open-sdk/sdk/lib/liblwip.a(tcp.o)
                                        0xd68 (size before relaxing)
 .xt.prop       0x00000000000265f8      0x8dc /home/stoffer/esp8266/esp-open-sdk/sdk/lib/liblwip.a(tcp_out.o)
                                        0x8e8 (size before relaxing)
 .xt.prop       0x0000000000026ed4      0x354 /home/stoffer/esp8266/esp-open-sdk/sdk/lib/liblwip.a(timers.o)
                                        0x384 (size before relaxing)
 .xt.prop       0x0000000000027228      0x5a0 /home/stoffer/esp8266/esp-open-sdk/sdk/lib/liblwip.a(udp.o)
                                        0x5b8 (size before relaxing)
 .xt.prop       0x00000000000277c8      0x114 /home/stoffer/esp8266/esp-open-sdk/sdk/lib/liblwip.a(icmp.o)
 .xt.prop       0x00000000000278dc      0x2e8 /home/stoffer/esp8266/esp-open-sdk/sdk/lib/libwpa.a(ap_config.o)
                                        0x2f4 (size before relaxing)
 .xt.prop       0x0000000000027bc4      0x21c /home/stoffer/esp8266/esp-open-sdk/sdk/lib/libwpa.a(common.o)
                                        0x228 (size before relaxing)
 .xt.prop       0x0000000000027de0       0xf0 /home/stoffer/esp8266/esp-open-sdk/sdk/lib/libwpa.a(os_xtensa.o)
                                         0xfc (size before relaxing)
 .xt.prop       0x0000000000027ed0     0x1668 /home/stoffer/esp8266/esp-open-sdk/sdk/lib/libwpa.a(wpa_auth.o)
 .xt.prop       0x0000000000029538      0x480 /home/stoffer/esp8266/esp-open-sdk/sdk/lib/libwpa.a(wpa_auth_ie.o)
                                        0x48c (size before relaxing)
 .xt.prop       0x00000000000299b8      0xd8c /home/stoffer/esp8266/esp-open-sdk/sdk/lib/libwpa.a(wpa.o)
                                        0xdb0 (size before relaxing)
 .xt.prop       0x000000000002a744      0x7a4 /home/stoffer/esp8266/esp-open-sdk/sdk/lib/libwpa.a(wpa_common.o)
 .xt.prop       0x000000000002aee8       0xc0 /home/stoffer/esp8266/esp-open-sdk/sdk/lib/libwpa.a(wpa_debug.o)
 .xt.prop       0x000000000002afa8      0x378 /home/stoffer/esp8266/esp-open-sdk/sdk/lib/libwpa.a(wpa_ie.o)
 .xt.prop       0x000000000002b320      0x330 /home/stoffer/esp8266/esp-open-sdk/sdk/lib/libwpa.a(wpa_main.o)
                                        0x33c (size before relaxing)
 .xt.prop       0x000000000002b650      0x12c /home/stoffer/esp8266/esp-open-sdk/sdk/lib/libwpa.a(wpas_glue.o)
 .xt.prop       0x000000000002b77c       0x6c /home/stoffer/esp8266/esp-open-sdk/sdk/lib/libwpa.a(aes-wrap.o)
 .xt.prop       0x000000000002b7e8       0xd8 /home/stoffer/esp8266/esp-open-sdk/sdk/lib/libwpa.a(aes-internal-enc.o)
                                         0xe4 (size before relaxing)
 .xt.prop       0x000000000002b8c0       0xb4 /home/stoffer/esp8266/esp-open-sdk/sdk/lib/libwpa.a(aes-internal.o)
 .xt.prop       0x000000000002b974       0x84 /home/stoffer/esp8266/esp-open-sdk/sdk/lib/libgcc.a(_modsi3.o)
 .xt.prop       0x000000000002b9f8       0x3c /home/stoffer/esp8266/esp-open-sdk/sdk/lib/libgcc.a(_ashrdi3.o)
 .xt.prop       0x000000000002ba34      0x168 /home/stoffer/esp8266/esp-open-sdk/sdk/lib/libgcc.a(_mulsf3.o)
 .xt.prop       0x000000000002bb9c      0x15c /home/stoffer/esp8266/esp-open-sdk/sdk/lib/libgcc.a(_divsf3.o)
                                        0x168 (size before relaxing)
 .xt.prop       0x000000000002bcf8       0x60 /home/stoffer/esp8266/esp-open-sdk/sdk/lib/libgcc.a(_fixsfsi.o)
                                         0x6c (size before relaxing)
 .xt.prop       0x000000000002bd58       0xe4 /home/stoffer/esp8266/esp-open-sdk/sdk/lib/libnet80211.a(ieee80211_crypto_tkip.o)
                                         0xfc (size before relaxing)
 .xt.prop       0x000000000002be3c       0x6c /home/stoffer/esp8266/esp-open-sdk/sdk/lib/libnet80211.a(ieee80211_crypto_wep.o)
                                         0x78 (size before relaxing)

.xt.lit         0x0000000000000000     0x1588
 .xt.lit        0x0000000000000000        0x8 /home/stoffer/esp8266/esp-open-sdk/sdk/lib/libmain.a(nmi-vector.o)
                                         0x10 (size before relaxing)
 .xt.lit        0x0000000000000008        0x8 /home/stoffer/esp8266/esp-open-sdk/sdk/lib/libmain.a(user-vector.o)
                                         0x10 (size before relaxing)
 .xt.lit        0x0000000000000010        0x8 /home/stoffer/esp8266/esp-open-sdk/sdk/lib/libmain.a(vector.o)
 .xt.lit        0x0000000000000018       0x98 /home/stoffer/esp8266/esp-open-sdk/sdk/lib/libmain.a(app_main.o)
                                         0xa0 (size before relaxing)
 .xt.lit        0x00000000000000b0       0x48 /home/stoffer/esp8266/esp-open-sdk/sdk/lib/libmain.a(ets_timer.o)
 .xt.lit        0x00000000000000f8       0x40 /home/stoffer/esp8266/esp-open-sdk/sdk/lib/libmain.a(mem_manager.o)
                                         0x60 (size before relaxing)
 .xt.lit        0x0000000000000138       0x58 /home/stoffer/esp8266/esp-open-sdk/sdk/lib/libmain.a(spi_flash.o)
 .xt.lit        0x0000000000000190      0x1e8 /home/stoffer/esp8266/esp-open-sdk/sdk/lib/libmain.a(user_interface.o)
                                        0x498 (size before relaxing)
 .xt.lit        0x0000000000000378       0x18 /home/stoffer/esp8266/esp-open-sdk/sdk/lib/libmain.a(eagle_lib.o)
 .xt.lit        0x0000000000000390        0x8 /home/stoffer/esp8266/esp-open-sdk/sdk/lib/libmain.a(eagle_lwip_if.o)
                                         0x28 (size before relaxing)
 .xt.lit        0x0000000000000398       0x58 build/app_app.a(user_main.o)
                                         0x70 (size before relaxing)
 .xt.lit        0x00000000000003f0       0x10 build/app_app.a(captdns.o)
 .xt.lit        0x0000000000000400       0x18 build/app_app.a(led.o)
                                         0x38 (size before relaxing)
 .xt.lit        0x0000000000000418       0x10 build/app_app.a(httpd_user_init.o)
 .xt.lit        0x0000000000000428       0x68 build/app_app.a(httpd.o)
                                         0x88 (size before relaxing)
 .xt.lit        0x0000000000000490       0x18 build/app_app.a(utils.o)
                                         0x20 (size before relaxing)
 .xt.lit        0x00000000000004a8        0x8 build/app_app.a(crypto.o)
                                         0x18 (size before relaxing)
 .xt.lit        0x00000000000004b0       0x20 build/app_app.a(sha256.o)
                                         0x28 (size before relaxing)
 .xt.lit        0x00000000000004d0       0x20 build/app_app.a(aes.o)
                                         0x40 (size before relaxing)
 .xt.lit        0x00000000000004f0       0x30 build/app_app.a(uart.o)
                                         0x48 (size before relaxing)
 .xt.lit        0x0000000000000520        0x8 build/app_app.a(ext_spi_flash.o)
                                         0x28 (size before relaxing)
 .xt.lit        0x0000000000000528       0x18 build/app_app.a(gpio16.o)
                                         0x20 (size before relaxing)
 .xt.lit        0x0000000000000540       0x28 build/app_app.a(spi.o)
                                         0x38 (size before relaxing)
 .xt.lit        0x0000000000000568       0x30 build/app_app.a(mqtt.o)
                                         0xa8 (size before relaxing)
 .xt.lit        0x0000000000000598       0x18 build/app_app.a(mqtt_msg.o)
                                         0x30 (size before relaxing)
 .xt.lit        0x00000000000005b0        0x8 build/app_app.a(queue.o)
                                         0x18 (size before relaxing)
 .xt.lit        0x00000000000005b8        0x0 build/app_app.a(proto.o)
                                         0x10 (size before relaxing)
 .xt.lit        0x00000000000005b8       0x18 build/app_app.a(config.o)
                                         0x20 (size before relaxing)
 .xt.lit        0x00000000000005d0       0x30 build/app_app.a(wifi.o)
 .xt.lit        0x0000000000000600       0x28 build/app_app.a(cgiwifi.o)
                                         0x30 (size before relaxing)
 .xt.lit        0x0000000000000628       0x20 build/app_app.a(tinyprintf.o)
                                         0x38 (size before relaxing)
 .xt.lit        0x0000000000000648       0x18 build/app_app.a(unix_time.o)
                                         0x28 (size before relaxing)
 .xt.lit        0x0000000000000660       0x20 build/app_app.a(cgi.o)
 .xt.lit        0x0000000000000680       0x10 build/app_app.a(httpdespfs.o)
 .xt.lit        0x0000000000000690       0x18 build/app_app.a(espfs.o)
 .xt.lit        0x00000000000006a8       0x10 build/app_app.a(heatshrink_decoder.o)
                                         0x28 (size before relaxing)
 .xt.lit        0x00000000000006b8        0x0 build/app_app.a(hmac-sha256.o)
                                         0x20 (size before relaxing)
 .xt.lit        0x00000000000006b8        0x0 /home/stoffer/esp8266/esp-open-sdk/xtensa-lx106-elf/lib/gcc/xtensa-lx106-elf/4.8.5/../../../../xtensa-lx106-elf/lib/libc.a(lib_a-atoi.o)
                                          0x8 (size before relaxing)
 .xt.lit        0x00000000000006b8        0x8 /home/stoffer/esp8266/esp-open-sdk/xtensa-lx106-elf/lib/gcc/xtensa-lx106-elf/4.8.5/../../../../xtensa-lx106-elf/lib/libc.a(lib_a-strlen.o)
 .xt.lit        0x00000000000006c0        0x8 /home/stoffer/esp8266/esp-open-sdk/xtensa-lx106-elf/lib/gcc/xtensa-lx106-elf/4.8.5/../../../../xtensa-lx106-elf/lib/libc.a(lib_a-strtok.o)
 .xt.lit        0x00000000000006c8        0x8 /home/stoffer/esp8266/esp-open-sdk/xtensa-lx106-elf/lib/gcc/xtensa-lx106-elf/4.8.5/../../../../xtensa-lx106-elf/lib/libc.a(lib_a-strtol.o)
 .xt.lit        0x00000000000006d0       0x10 /home/stoffer/esp8266/esp-open-sdk/sdk/lib/libphy.a(phy.o)
                                         0x68 (size before relaxing)
 .xt.lit        0x00000000000006e0       0x98 /home/stoffer/esp8266/esp-open-sdk/sdk/lib/libphy.a(phy_chip_v6_ana.o)
                                         0xc8 (size before relaxing)
 .xt.lit        0x0000000000000778      0x168 /home/stoffer/esp8266/esp-open-sdk/sdk/lib/libphy.a(phy_chip_v6.o)
                                        0x248 (size before relaxing)
 .xt.lit        0x00000000000008e0       0x78 /home/stoffer/esp8266/esp-open-sdk/sdk/lib/libphy.a(phy_chip_v6_cal.o)
                                         0xe8 (size before relaxing)
 .xt.lit        0x0000000000000958       0x70 /home/stoffer/esp8266/esp-open-sdk/sdk/lib/libphy.a(phy_sleep.o)
                                         0xd0 (size before relaxing)
 .xt.lit        0x00000000000009c8       0x30 /home/stoffer/esp8266/esp-open-sdk/sdk/lib/libpp.a(if_hwctrl.o)
                                         0xa0 (size before relaxing)
 .xt.lit        0x00000000000009f8       0x70 /home/stoffer/esp8266/esp-open-sdk/sdk/lib/libpp.a(lmac.o)
                                        0x130 (size before relaxing)
 .xt.lit        0x0000000000000a68       0xe0 /home/stoffer/esp8266/esp-open-sdk/sdk/lib/libpp.a(pm.o)
                                        0x198 (size before relaxing)
 .xt.lit        0x0000000000000b48       0x58 /home/stoffer/esp8266/esp-open-sdk/sdk/lib/libpp.a(pm_for_bcn_only_mode.o)
                                         0xa8 (size before relaxing)
 .xt.lit        0x0000000000000ba0       0xe0 /home/stoffer/esp8266/esp-open-sdk/sdk/lib/libpp.a(pp.o)
                                        0x1b0 (size before relaxing)
 .xt.lit        0x0000000000000c80       0x18 /home/stoffer/esp8266/esp-open-sdk/sdk/lib/libpp.a(rate_control.o)
                                         0x38 (size before relaxing)
 .xt.lit        0x0000000000000c98       0x68 /home/stoffer/esp8266/esp-open-sdk/sdk/lib/libpp.a(trc.o)
                                         0xa8 (size before relaxing)
 .xt.lit        0x0000000000000d00       0xd8 /home/stoffer/esp8266/esp-open-sdk/sdk/lib/libpp.a(wdev.o)
                                        0x198 (size before relaxing)
 .xt.lit        0x0000000000000dd8       0x18 /home/stoffer/esp8266/esp-open-sdk/sdk/lib/libpp.a(esf_buf.o)
                                         0x20 (size before relaxing)
 .xt.lit        0x0000000000000df0       0x28 /home/stoffer/esp8266/esp-open-sdk/sdk/lib/libnet80211.a(ieee80211.o)
                                         0x50 (size before relaxing)
 .xt.lit        0x0000000000000e18        0x0 /home/stoffer/esp8266/esp-open-sdk/sdk/lib/libnet80211.a(ieee80211_crypto.o)
                                         0x10 (size before relaxing)
 .xt.lit        0x0000000000000e18        0x8 /home/stoffer/esp8266/esp-open-sdk/sdk/lib/libnet80211.a(ieee80211_ets.o)
 .xt.lit        0x0000000000000e20       0x68 /home/stoffer/esp8266/esp-open-sdk/sdk/lib/libnet80211.a(ieee80211_hostap.o)
                                         0x78 (size before relaxing)
 .xt.lit        0x0000000000000e88       0x48 /home/stoffer/esp8266/esp-open-sdk/sdk/lib/libnet80211.a(ieee80211_ht.o)
                                         0x70 (size before relaxing)
 .xt.lit        0x0000000000000ed0       0x38 /home/stoffer/esp8266/esp-open-sdk/sdk/lib/libnet80211.a(ieee80211_input.o)
                                         0x60 (size before relaxing)
 .xt.lit        0x0000000000000f08       0x18 /home/stoffer/esp8266/esp-open-sdk/sdk/lib/libnet80211.a(ieee80211_mesh_quick.o)
                                         0x28 (size before relaxing)
 .xt.lit        0x0000000000000f20       0x38 /home/stoffer/esp8266/esp-open-sdk/sdk/lib/libnet80211.a(ieee80211_output.o)
                                         0xa8 (size before relaxing)
 .xt.lit        0x0000000000000f58        0x8 /home/stoffer/esp8266/esp-open-sdk/sdk/lib/libnet80211.a(ieee80211_phy.o)
                                         0x18 (size before relaxing)
 .xt.lit        0x0000000000000f60        0x8 /home/stoffer/esp8266/esp-open-sdk/sdk/lib/libnet80211.a(ieee80211_power.o)
                                         0x20 (size before relaxing)
 .xt.lit        0x0000000000000f68       0x18 /home/stoffer/esp8266/esp-open-sdk/sdk/lib/libnet80211.a(ieee80211_proto.o)
 .xt.lit        0x0000000000000f80        0x0 /home/stoffer/esp8266/esp-open-sdk/sdk/lib/libnet80211.a(ieee80211_rfid.o)
                                         0x30 (size before relaxing)
 .xt.lit        0x0000000000000f80       0x48 /home/stoffer/esp8266/esp-open-sdk/sdk/lib/libnet80211.a(ieee80211_scan.o)
                                         0xd8 (size before relaxing)
 .xt.lit        0x0000000000000fc8       0x30 /home/stoffer/esp8266/esp-open-sdk/sdk/lib/libnet80211.a(ieee80211_sta.o)
                                         0x60 (size before relaxing)
 .xt.lit        0x0000000000000ff8       0x20 /home/stoffer/esp8266/esp-open-sdk/sdk/lib/libnet80211.a(wl_chm.o)
                                         0x60 (size before relaxing)
 .xt.lit        0x0000000000001018       0x90 /home/stoffer/esp8266/esp-open-sdk/sdk/lib/libnet80211.a(wl_cnx.o)
                                        0x138 (size before relaxing)
 .xt.lit        0x00000000000010a8       0x20 /home/stoffer/esp8266/esp-open-sdk/sdk/lib/libnet80211.a(ieee80211_action.o)
                                         0x30 (size before relaxing)
 .xt.lit        0x00000000000010c8       0x20 /home/stoffer/esp8266/esp-open-sdk/sdk/lib/libnet80211.a(ieee80211_action_vendor.o)
                                         0x50 (size before relaxing)
 .xt.lit        0x00000000000010e8        0x0 /home/stoffer/esp8266/esp-open-sdk/sdk/lib/libnet80211.a(ieee80211_crypto_ccmp.o)
                                         0x10 (size before relaxing)
 .xt.lit        0x00000000000010e8        0x8 /home/stoffer/esp8266/esp-open-sdk/sdk/lib/libnet80211.a(ieee80211_ie_vendor.o)
                                         0x38 (size before relaxing)
 .xt.lit        0x00000000000010f0       0x50 /home/stoffer/esp8266/esp-open-sdk/sdk/lib/liblwip.a(dhcp.o)
                                         0xc0 (size before relaxing)
 .xt.lit        0x0000000000001140       0x30 /home/stoffer/esp8266/esp-open-sdk/sdk/lib/liblwip.a(dhcpserver.o)
                                         0xa8 (size before relaxing)
 .xt.lit        0x0000000000001170       0x20 /home/stoffer/esp8266/esp-open-sdk/sdk/lib/liblwip.a(dns.o)
                                         0x48 (size before relaxing)
 .xt.lit        0x0000000000001190       0x28 /home/stoffer/esp8266/esp-open-sdk/sdk/lib/liblwip.a(espconn.o)
                                         0xe8 (size before relaxing)
 .xt.lit        0x00000000000011b8       0x68 /home/stoffer/esp8266/esp-open-sdk/sdk/lib/liblwip.a(espconn_tcp.o)
                                         0xc8 (size before relaxing)
 .xt.lit        0x0000000000001220       0x18 /home/stoffer/esp8266/esp-open-sdk/sdk/lib/liblwip.a(espconn_udp.o)
                                         0x38 (size before relaxing)
 .xt.lit        0x0000000000001238       0x30 /home/stoffer/esp8266/esp-open-sdk/sdk/lib/liblwip.a(etharp.o)
                                         0x78 (size before relaxing)
 .xt.lit        0x0000000000001268       0x18 /home/stoffer/esp8266/esp-open-sdk/sdk/lib/liblwip.a(igmp.o)
                                         0x70 (size before relaxing)
 .xt.lit        0x0000000000001280        0x8 /home/stoffer/esp8266/esp-open-sdk/sdk/lib/liblwip.a(init.o)
 .xt.lit        0x0000000000001288        0x8 /home/stoffer/esp8266/esp-open-sdk/sdk/lib/liblwip.a(ip_addr.o)
                                         0x20 (size before relaxing)
 .xt.lit        0x0000000000001290       0x10 /home/stoffer/esp8266/esp-open-sdk/sdk/lib/liblwip.a(ip.o)
                                         0x20 (size before relaxing)
 .xt.lit        0x00000000000012a0       0x10 /home/stoffer/esp8266/esp-open-sdk/sdk/lib/liblwip.a(netif.o)
                                         0x40 (size before relaxing)
 .xt.lit        0x00000000000012b0       0x10 /home/stoffer/esp8266/esp-open-sdk/sdk/lib/liblwip.a(pbuf.o)
                                         0x48 (size before relaxing)
 .xt.lit        0x00000000000012c0       0x10 /home/stoffer/esp8266/esp-open-sdk/sdk/lib/liblwip.a(raw.o)
                                         0x20 (size before relaxing)
 .xt.lit        0x00000000000012d0       0x70 /home/stoffer/esp8266/esp-open-sdk/sdk/lib/liblwip.a(sntp.o)
                                         0xc0 (size before relaxing)
 .xt.lit        0x0000000000001340       0x18 /home/stoffer/esp8266/esp-open-sdk/sdk/lib/liblwip.a(tcp_in.o)
                                         0x38 (size before relaxing)
 .xt.lit        0x0000000000001358       0x50 /home/stoffer/esp8266/esp-open-sdk/sdk/lib/liblwip.a(tcp.o)
                                         0xb8 (size before relaxing)
 .xt.lit        0x00000000000013a8       0x28 /home/stoffer/esp8266/esp-open-sdk/sdk/lib/liblwip.a(tcp_out.o)
                                         0x68 (size before relaxing)
 .xt.lit        0x00000000000013d0       0x48 /home/stoffer/esp8266/esp-open-sdk/sdk/lib/liblwip.a(timers.o)
                                         0x68 (size before relaxing)
 .xt.lit        0x0000000000001418       0x18 /home/stoffer/esp8266/esp-open-sdk/sdk/lib/liblwip.a(udp.o)
                                         0x38 (size before relaxing)
 .xt.lit        0x0000000000001430        0x8 /home/stoffer/esp8266/esp-open-sdk/sdk/lib/liblwip.a(icmp.o)
                                         0x10 (size before relaxing)
 .xt.lit        0x0000000000001438       0x10 /home/stoffer/esp8266/esp-open-sdk/sdk/lib/libwpa.a(ap_config.o)
                                         0x40 (size before relaxing)
 .xt.lit        0x0000000000001448       0x10 /home/stoffer/esp8266/esp-open-sdk/sdk/lib/libwpa.a(common.o)
                                         0x18 (size before relaxing)
 .xt.lit        0x0000000000001458        0x8 /home/stoffer/esp8266/esp-open-sdk/sdk/lib/libwpa.a(os_xtensa.o)
                                         0x10 (size before relaxing)
 .xt.lit        0x0000000000001460       0x70 /home/stoffer/esp8266/esp-open-sdk/sdk/lib/libwpa.a(wpa_auth.o)
                                        0x100 (size before relaxing)
 .xt.lit        0x00000000000014d0       0x10 /home/stoffer/esp8266/esp-open-sdk/sdk/lib/libwpa.a(wpa_auth_ie.o)
                                         0x38 (size before relaxing)
 .xt.lit        0x00000000000014e0       0x38 /home/stoffer/esp8266/esp-open-sdk/sdk/lib/libwpa.a(wpa.o)
                                        0x110 (size before relaxing)
 .xt.lit        0x0000000000001518       0x28 /home/stoffer/esp8266/esp-open-sdk/sdk/lib/libwpa.a(wpa_common.o)
                                         0x58 (size before relaxing)
 .xt.lit        0x0000000000001540        0x8 /home/stoffer/esp8266/esp-open-sdk/sdk/lib/libwpa.a(wpa_debug.o)
 .xt.lit        0x0000000000001548        0x0 /home/stoffer/esp8266/esp-open-sdk/sdk/lib/libwpa.a(wpa_ie.o)
                                         0x18 (size before relaxing)
 .xt.lit        0x0000000000001548       0x18 /home/stoffer/esp8266/esp-open-sdk/sdk/lib/libwpa.a(wpa_main.o)
                                         0x48 (size before relaxing)
 .xt.lit        0x0000000000001560        0x0 /home/stoffer/esp8266/esp-open-sdk/sdk/lib/libwpa.a(wpas_glue.o)
                                         0x10 (size before relaxing)
 .xt.lit        0x0000000000001560        0x0 /home/stoffer/esp8266/esp-open-sdk/sdk/lib/libwpa.a(aes-wrap.o)
                                          0x8 (size before relaxing)
 .xt.lit        0x0000000000001560       0x10 /home/stoffer/esp8266/esp-open-sdk/sdk/lib/libwpa.a(aes-internal-enc.o)
                                         0x18 (size before relaxing)
 .xt.lit        0x0000000000001570        0x8 /home/stoffer/esp8266/esp-open-sdk/sdk/lib/libwpa.a(aes-internal.o)
 .xt.lit        0x0000000000001578        0x8 /home/stoffer/esp8266/esp-open-sdk/sdk/lib/libgcc.a(_mulsf3.o)
 .xt.lit        0x0000000000001580        0x0 /home/stoffer/esp8266/esp-open-sdk/sdk/lib/libgcc.a(_divsf3.o)
                                          0x8 (size before relaxing)
 .xt.lit        0x0000000000001580        0x0 /home/stoffer/esp8266/esp-open-sdk/sdk/lib/libgcc.a(_fixsfsi.o)
                                          0x8 (size before relaxing)
 .xt.lit        0x0000000000001580        0x8 /home/stoffer/esp8266/esp-open-sdk/sdk/lib/libnet80211.a(ieee80211_crypto_tkip.o)
                                         0x10 (size before relaxing)
 .xt.lit        0x0000000000001588        0x0 /home/stoffer/esp8266/esp-open-sdk/sdk/lib/libnet80211.a(ieee80211_crypto_wep.o)
                                          0x8 (size before relaxing)

.comment        0x0000000000000000     0x1b56
 .comment       0x0000000000000000       0x55 /home/stoffer/esp8266/esp-open-sdk/sdk/lib/libmain.a(app_main.o)
                                         0x56 (size before relaxing)
 .comment       0x0000000000000055       0x56 /home/stoffer/esp8266/esp-open-sdk/sdk/lib/libmain.a(ets_timer.o)
                                         0x57 (size before relaxing)
 .comment       0x00000000000000ab       0x58 /home/stoffer/esp8266/esp-open-sdk/sdk/lib/libmain.a(mem_manager.o)
                                         0x59 (size before relaxing)
 .comment       0x0000000000000103       0x56 /home/stoffer/esp8266/esp-open-sdk/sdk/lib/libmain.a(spi_flash.o)
                                         0x57 (size before relaxing)
 .comment       0x0000000000000159       0x5b /home/stoffer/esp8266/esp-open-sdk/sdk/lib/libmain.a(user_interface.o)
                                         0x5c (size before relaxing)
 .comment       0x00000000000001b4       0x56 /home/stoffer/esp8266/esp-open-sdk/sdk/lib/libmain.a(eagle_lib.o)
                                         0x57 (size before relaxing)
 .comment       0x000000000000020a       0x5a /home/stoffer/esp8266/esp-open-sdk/sdk/lib/libmain.a(eagle_lwip_if.o)
                                         0x5b (size before relaxing)
 .comment       0x0000000000000264       0x3a build/app_app.a(user_main.o)
                                         0x3b (size before relaxing)
 .comment       0x000000000000029e       0x3b build/app_app.a(captdns.o)
 .comment       0x000000000000029e       0x3b build/app_app.a(led.o)
 .comment       0x000000000000029e       0x3b build/app_app.a(httpd_user_init.o)
 .comment       0x000000000000029e       0x3b build/app_app.a(httpd.o)
 .comment       0x000000000000029e       0x3b build/app_app.a(utils.o)
 .comment       0x000000000000029e       0x3b build/app_app.a(crypto.o)
 .comment       0x000000000000029e       0x3b build/app_app.a(sha256.o)
 .comment       0x000000000000029e       0x3b build/app_app.a(aes.o)
 .comment       0x000000000000029e       0x3b build/app_app.a(uart.o)
 .comment       0x000000000000029e       0x3b build/app_app.a(ext_spi_flash.o)
 .comment       0x000000000000029e       0x3b build/app_app.a(gpio16.o)
 .comment       0x000000000000029e       0x3b build/app_app.a(spi.o)
 .comment       0x000000000000029e       0x3b build/app_app.a(mqtt.o)
 .comment       0x000000000000029e       0x3b build/app_app.a(mqtt_msg.o)
 .comment       0x000000000000029e       0x3b build/app_app.a(queue.o)
 .comment       0x000000000000029e       0x3b build/app_app.a(mqtt_utils.o)
 .comment       0x000000000000029e       0x3b build/app_app.a(proto.o)
 .comment       0x000000000000029e       0x3b build/app_app.a(config.o)
 .comment       0x000000000000029e       0x3b build/app_app.a(wifi.o)
 .comment       0x000000000000029e       0x3b build/app_app.a(cgiwifi.o)
 .comment       0x000000000000029e       0x3b build/app_app.a(tinyprintf.o)
 .comment       0x000000000000029e       0x3b build/app_app.a(unix_time.o)
 .comment       0x000000000000029e       0x3b build/app_app.a(cgi.o)
 .comment       0x000000000000029e       0x3b build/app_app.a(httpdespfs.o)
 .comment       0x000000000000029e       0x3b build/app_app.a(espfs.o)
 .comment       0x000000000000029e       0x3b build/app_app.a(heatshrink_decoder.o)
 .comment       0x000000000000029e       0x3b build/app_app.a(hmac-sha256.o)
 .comment       0x000000000000029e       0x3b build/app_app.a(ringbuf.o)
 .comment       0x000000000000029e       0x3b /home/stoffer/esp8266/esp-open-sdk/xtensa-lx106-elf/lib/gcc/xtensa-lx106-elf/4.8.5/../../../../xtensa-lx106-elf/lib/libc.a(lib_a-atoi.o)
 .comment       0x000000000000029e       0x3b /home/stoffer/esp8266/esp-open-sdk/xtensa-lx106-elf/lib/gcc/xtensa-lx106-elf/4.8.5/../../../../xtensa-lx106-elf/lib/libc.a(lib_a-strtok.o)
 .comment       0x000000000000029e       0x3b /home/stoffer/esp8266/esp-open-sdk/xtensa-lx106-elf/lib/gcc/xtensa-lx106-elf/4.8.5/../../../../xtensa-lx106-elf/lib/libc.a(lib_a-strtok_r.o)
 .comment       0x000000000000029e       0x3b /home/stoffer/esp8266/esp-open-sdk/xtensa-lx106-elf/lib/gcc/xtensa-lx106-elf/4.8.5/../../../../xtensa-lx106-elf/lib/libc.a(lib_a-strtol.o)
 .comment       0x000000000000029e       0x3b /home/stoffer/esp8266/esp-open-sdk/xtensa-lx106-elf/lib/gcc/xtensa-lx106-elf/4.8.5/../../../../xtensa-lx106-elf/lib/libc.a(lib_a-ctype_.o)
 .comment       0x000000000000029e       0x3b /home/stoffer/esp8266/esp-open-sdk/xtensa-lx106-elf/lib/gcc/xtensa-lx106-elf/4.8.5/../../../../xtensa-lx106-elf/lib/libc.a(lib_a-impure.o)
 .comment       0x000000000000029e       0x41 /home/stoffer/esp8266/esp-open-sdk/sdk/lib/libphy.a(phy.o)
 .comment       0x00000000000002df       0x4d /home/stoffer/esp8266/esp-open-sdk/sdk/lib/libphy.a(phy_chip_v6_ana.o)
 .comment       0x000000000000032c       0x49 /home/stoffer/esp8266/esp-open-sdk/sdk/lib/libphy.a(phy_chip_v6.o)
 .comment       0x0000000000000375       0x4d /home/stoffer/esp8266/esp-open-sdk/sdk/lib/libphy.a(phy_chip_v6_cal.o)
 .comment       0x00000000000003c2       0x50 /home/stoffer/esp8266/esp-open-sdk/sdk/lib/libphy.a(phy_chip_v6_unused.o)
 .comment       0x0000000000000412       0x47 /home/stoffer/esp8266/esp-open-sdk/sdk/lib/libphy.a(phy_sleep.o)
 .comment       0x0000000000000459       0x56 /home/stoffer/esp8266/esp-open-sdk/sdk/lib/libpp.a(if_hwctrl.o)
                                         0x57 (size before relaxing)
 .comment       0x00000000000004af       0x51 /home/stoffer/esp8266/esp-open-sdk/sdk/lib/libpp.a(lmac.o)
                                         0x52 (size before relaxing)
 .comment       0x0000000000000500       0x4f /home/stoffer/esp8266/esp-open-sdk/sdk/lib/libpp.a(pm.o)
                                         0x50 (size before relaxing)
 .comment       0x000000000000054f       0x61 /home/stoffer/esp8266/esp-open-sdk/sdk/lib/libpp.a(pm_for_bcn_only_mode.o)
                                         0x62 (size before relaxing)
 .comment       0x00000000000005b0       0x4f /home/stoffer/esp8266/esp-open-sdk/sdk/lib/libpp.a(pp.o)
                                         0x50 (size before relaxing)
 .comment       0x00000000000005ff       0x59 /home/stoffer/esp8266/esp-open-sdk/sdk/lib/libpp.a(rate_control.o)
                                         0x5a (size before relaxing)
 .comment       0x0000000000000658       0x50 /home/stoffer/esp8266/esp-open-sdk/sdk/lib/libpp.a(trc.o)
                                         0x51 (size before relaxing)
 .comment       0x00000000000006a8       0x51 /home/stoffer/esp8266/esp-open-sdk/sdk/lib/libpp.a(wdev.o)
                                         0x52 (size before relaxing)
 .comment       0x00000000000006f9       0x54 /home/stoffer/esp8266/esp-open-sdk/sdk/lib/libpp.a(esf_buf.o)
                                         0x55 (size before relaxing)
 .comment       0x000000000000074d       0x56 /home/stoffer/esp8266/esp-open-sdk/sdk/lib/libnet80211.a(ieee80211.o)
                                         0x57 (size before relaxing)
 .comment       0x00000000000007a3       0x5d /home/stoffer/esp8266/esp-open-sdk/sdk/lib/libnet80211.a(ieee80211_crypto.o)
                                         0x5e (size before relaxing)
 .comment       0x0000000000000800       0x5a /home/stoffer/esp8266/esp-open-sdk/sdk/lib/libnet80211.a(ieee80211_ets.o)
                                         0x5b (size before relaxing)
 .comment       0x000000000000085a       0x5d /home/stoffer/esp8266/esp-open-sdk/sdk/lib/libnet80211.a(ieee80211_hostap.o)
                                         0x5e (size before relaxing)
 .comment       0x00000000000008b7       0x59 /home/stoffer/esp8266/esp-open-sdk/sdk/lib/libnet80211.a(ieee80211_ht.o)
                                         0x5a (size before relaxing)
 .comment       0x0000000000000910       0x5c /home/stoffer/esp8266/esp-open-sdk/sdk/lib/libnet80211.a(ieee80211_input.o)
                                         0x5d (size before relaxing)
 .comment       0x000000000000096c       0x61 /home/stoffer/esp8266/esp-open-sdk/sdk/lib/libnet80211.a(ieee80211_mesh_quick.o)
                                         0x62 (size before relaxing)
 .comment       0x00000000000009cd       0x5d /home/stoffer/esp8266/esp-open-sdk/sdk/lib/libnet80211.a(ieee80211_output.o)
                                         0x5e (size before relaxing)
 .comment       0x0000000000000a2a       0x5a /home/stoffer/esp8266/esp-open-sdk/sdk/lib/libnet80211.a(ieee80211_phy.o)
                                         0x5b (size before relaxing)
 .comment       0x0000000000000a84       0x5c /home/stoffer/esp8266/esp-open-sdk/sdk/lib/libnet80211.a(ieee80211_power.o)
                                         0x5d (size before relaxing)
 .comment       0x0000000000000ae0       0x5c /home/stoffer/esp8266/esp-open-sdk/sdk/lib/libnet80211.a(ieee80211_proto.o)
                                         0x5d (size before relaxing)
 .comment       0x0000000000000b3c       0x5b /home/stoffer/esp8266/esp-open-sdk/sdk/lib/libnet80211.a(ieee80211_rfid.o)
                                         0x5c (size before relaxing)
 .comment       0x0000000000000b97       0x5b /home/stoffer/esp8266/esp-open-sdk/sdk/lib/libnet80211.a(ieee80211_scan.o)
                                         0x5c (size before relaxing)
 .comment       0x0000000000000bf2       0x5a /home/stoffer/esp8266/esp-open-sdk/sdk/lib/libnet80211.a(ieee80211_sta.o)
                                         0x5b (size before relaxing)
 .comment       0x0000000000000c4c       0x53 /home/stoffer/esp8266/esp-open-sdk/sdk/lib/libnet80211.a(wl_chm.o)
                                         0x54 (size before relaxing)
 .comment       0x0000000000000c9f       0x53 /home/stoffer/esp8266/esp-open-sdk/sdk/lib/libnet80211.a(wl_cnx.o)
                                         0x54 (size before relaxing)
 .comment       0x0000000000000cf2       0x5d /home/stoffer/esp8266/esp-open-sdk/sdk/lib/libnet80211.a(ieee80211_action.o)
                                         0x5e (size before relaxing)
 .comment       0x0000000000000d4f       0x64 /home/stoffer/esp8266/esp-open-sdk/sdk/lib/libnet80211.a(ieee80211_action_vendor.o)
                                         0x65 (size before relaxing)
 .comment       0x0000000000000db3       0x62 /home/stoffer/esp8266/esp-open-sdk/sdk/lib/libnet80211.a(ieee80211_crypto_ccmp.o)
                                         0x63 (size before relaxing)
 .comment       0x0000000000000e15       0x60 /home/stoffer/esp8266/esp-open-sdk/sdk/lib/libnet80211.a(ieee80211_ie_vendor.o)
                                         0x61 (size before relaxing)
 .comment       0x0000000000000e75       0x51 /home/stoffer/esp8266/esp-open-sdk/sdk/lib/liblwip.a(dhcp.o)
                                         0x52 (size before relaxing)
 .comment       0x0000000000000ec6       0x57 /home/stoffer/esp8266/esp-open-sdk/sdk/lib/liblwip.a(dhcpserver.o)
                                         0x58 (size before relaxing)
 .comment       0x0000000000000f1d       0x50 /home/stoffer/esp8266/esp-open-sdk/sdk/lib/liblwip.a(dns.o)
                                         0x51 (size before relaxing)
 .comment       0x0000000000000f6d       0x54 /home/stoffer/esp8266/esp-open-sdk/sdk/lib/liblwip.a(espconn.o)
                                         0x55 (size before relaxing)
 .comment       0x0000000000000fc1       0x58 /home/stoffer/esp8266/esp-open-sdk/sdk/lib/liblwip.a(espconn_tcp.o)
                                         0x59 (size before relaxing)
 .comment       0x0000000000001019       0x58 /home/stoffer/esp8266/esp-open-sdk/sdk/lib/liblwip.a(espconn_udp.o)
                                         0x59 (size before relaxing)
 .comment       0x0000000000001071       0x53 /home/stoffer/esp8266/esp-open-sdk/sdk/lib/liblwip.a(etharp.o)
                                         0x54 (size before relaxing)
 .comment       0x00000000000010c4       0x51 /home/stoffer/esp8266/esp-open-sdk/sdk/lib/liblwip.a(igmp.o)
                                         0x52 (size before relaxing)
 .comment       0x0000000000001115       0x58 /home/stoffer/esp8266/esp-open-sdk/sdk/lib/liblwip.a(inet_chksum.o)
                                         0x59 (size before relaxing)
 .comment       0x000000000000116d       0x51 /home/stoffer/esp8266/esp-open-sdk/sdk/lib/liblwip.a(init.o)
                                         0x52 (size before relaxing)
 .comment       0x00000000000011be       0x54 /home/stoffer/esp8266/esp-open-sdk/sdk/lib/liblwip.a(ip_addr.o)
                                         0x55 (size before relaxing)
 .comment       0x0000000000001212       0x4f /home/stoffer/esp8266/esp-open-sdk/sdk/lib/liblwip.a(ip.o)
                                         0x50 (size before relaxing)
 .comment       0x0000000000001261       0x51 /home/stoffer/esp8266/esp-open-sdk/sdk/lib/liblwip.a(memp.o)
                                         0x52 (size before relaxing)
 .comment       0x00000000000012b2       0x52 /home/stoffer/esp8266/esp-open-sdk/sdk/lib/liblwip.a(netif.o)
                                         0x53 (size before relaxing)
 .comment       0x0000000000001304       0x51 /home/stoffer/esp8266/esp-open-sdk/sdk/lib/liblwip.a(pbuf.o)
                                         0x52 (size before relaxing)
 .comment       0x0000000000001355       0x50 /home/stoffer/esp8266/esp-open-sdk/sdk/lib/liblwip.a(raw.o)
                                         0x51 (size before relaxing)
 .comment       0x00000000000013a5       0x51 /home/stoffer/esp8266/esp-open-sdk/sdk/lib/liblwip.a(sntp.o)
                                         0x52 (size before relaxing)
 .comment       0x00000000000013f6       0x53 /home/stoffer/esp8266/esp-open-sdk/sdk/lib/liblwip.a(tcp_in.o)
                                         0x54 (size before relaxing)
 .comment       0x0000000000001449       0x50 /home/stoffer/esp8266/esp-open-sdk/sdk/lib/liblwip.a(tcp.o)
                                         0x51 (size before relaxing)
 .comment       0x0000000000001499       0x54 /home/stoffer/esp8266/esp-open-sdk/sdk/lib/liblwip.a(tcp_out.o)
                                         0x55 (size before relaxing)
 .comment       0x00000000000014ed       0x53 /home/stoffer/esp8266/esp-open-sdk/sdk/lib/liblwip.a(timers.o)
                                         0x54 (size before relaxing)
 .comment       0x0000000000001540       0x50 /home/stoffer/esp8266/esp-open-sdk/sdk/lib/liblwip.a(udp.o)
                                         0x51 (size before relaxing)
 .comment       0x0000000000001590       0x51 /home/stoffer/esp8266/esp-open-sdk/sdk/lib/liblwip.a(icmp.o)
                                         0x52 (size before relaxing)
 .comment       0x00000000000015e1       0x56 /home/stoffer/esp8266/esp-open-sdk/sdk/lib/libwpa.a(ap_config.o)
                                         0x57 (size before relaxing)
 .comment       0x0000000000001637       0x53 /home/stoffer/esp8266/esp-open-sdk/sdk/lib/libwpa.a(common.o)
                                         0x54 (size before relaxing)
 .comment       0x000000000000168a       0x56 /home/stoffer/esp8266/esp-open-sdk/sdk/lib/libwpa.a(os_xtensa.o)
                                         0x57 (size before relaxing)
 .comment       0x00000000000016e0       0x55 /home/stoffer/esp8266/esp-open-sdk/sdk/lib/libwpa.a(wpa_auth.o)
                                         0x56 (size before relaxing)
 .comment       0x0000000000001735       0x58 /home/stoffer/esp8266/esp-open-sdk/sdk/lib/libwpa.a(wpa_auth_ie.o)
                                         0x59 (size before relaxing)
 .comment       0x000000000000178d       0x50 /home/stoffer/esp8266/esp-open-sdk/sdk/lib/libwpa.a(wpa.o)
                                         0x51 (size before relaxing)
 .comment       0x00000000000017dd       0x57 /home/stoffer/esp8266/esp-open-sdk/sdk/lib/libwpa.a(wpa_common.o)
                                         0x58 (size before relaxing)
 .comment       0x0000000000001834       0x56 /home/stoffer/esp8266/esp-open-sdk/sdk/lib/libwpa.a(wpa_debug.o)
                                         0x57 (size before relaxing)
 .comment       0x000000000000188a       0x53 /home/stoffer/esp8266/esp-open-sdk/sdk/lib/libwpa.a(wpa_ie.o)
                                         0x54 (size before relaxing)
 .comment       0x00000000000018dd       0x55 /home/stoffer/esp8266/esp-open-sdk/sdk/lib/libwpa.a(wpa_main.o)
                                         0x56 (size before relaxing)
 .comment       0x0000000000001932       0x56 /home/stoffer/esp8266/esp-open-sdk/sdk/lib/libwpa.a(wpas_glue.o)
                                         0x57 (size before relaxing)
 .comment       0x0000000000001988       0x55 /home/stoffer/esp8266/esp-open-sdk/sdk/lib/libwpa.a(aes-wrap.o)
                                         0x56 (size before relaxing)
 .comment       0x00000000000019dd       0x5d /home/stoffer/esp8266/esp-open-sdk/sdk/lib/libwpa.a(aes-internal-enc.o)
                                         0x5e (size before relaxing)
 .comment       0x0000000000001a3a       0x59 /home/stoffer/esp8266/esp-open-sdk/sdk/lib/libwpa.a(aes-internal.o)
                                         0x5a (size before relaxing)
 .comment       0x0000000000001a93       0x62 /home/stoffer/esp8266/esp-open-sdk/sdk/lib/libnet80211.a(ieee80211_crypto_tkip.o)
                                         0x63 (size before relaxing)
 .comment       0x0000000000001af5       0x61 /home/stoffer/esp8266/esp-open-sdk/sdk/lib/libnet80211.a(ieee80211_crypto_wep.o)
                                         0x62 (size before relaxing)

.debug_frame    0x0000000000000000     0x1f14
 .debug_frame   0x0000000000000000      0x22c build/app_app.a(user_main.o)
 .debug_frame   0x000000000000022c       0x8c build/app_app.a(captdns.o)
 .debug_frame   0x00000000000002b8      0x100 build/app_app.a(led.o)
 .debug_frame   0x00000000000003b8       0x50 build/app_app.a(httpd_user_init.o)
 .debug_frame   0x0000000000000408      0x348 build/app_app.a(httpd.o)
 .debug_frame   0x0000000000000750       0x98 build/app_app.a(utils.o)
 .debug_frame   0x00000000000007e8       0x90 build/app_app.a(crypto.o)
 .debug_frame   0x0000000000000878      0x14c build/app_app.a(sha256.o)
 .debug_frame   0x00000000000009c4      0x130 build/app_app.a(aes.o)
 .debug_frame   0x0000000000000af4       0xe0 build/app_app.a(uart.o)
 .debug_frame   0x0000000000000bd4       0xdc build/app_app.a(ext_spi_flash.o)
 .debug_frame   0x0000000000000cb0       0x50 build/app_app.a(gpio16.o)
 .debug_frame   0x0000000000000d00       0xa0 build/app_app.a(spi.o)
 .debug_frame   0x0000000000000da0      0x3a4 build/app_app.a(mqtt.o)
 .debug_frame   0x0000000000001144      0x254 build/app_app.a(mqtt_msg.o)
 .debug_frame   0x0000000000001398       0x8c build/app_app.a(queue.o)
 .debug_frame   0x0000000000001424       0x40 build/app_app.a(mqtt_utils.o)
 .debug_frame   0x0000000000001464       0xe4 build/app_app.a(proto.o)
 .debug_frame   0x0000000000001548       0xb8 build/app_app.a(config.o)
 .debug_frame   0x0000000000001600      0x104 build/app_app.a(wifi.o)
 .debug_frame   0x0000000000001704      0x100 build/app_app.a(cgiwifi.o)
 .debug_frame   0x0000000000001804      0x1bc build/app_app.a(tinyprintf.o)
 .debug_frame   0x00000000000019c0       0xa8 build/app_app.a(unix_time.o)
 .debug_frame   0x0000000000001a68       0xa8 build/app_app.a(cgi.o)
 .debug_frame   0x0000000000001b10       0x6c build/app_app.a(httpdespfs.o)
 .debug_frame   0x0000000000001b7c       0x90 build/app_app.a(espfs.o)
 .debug_frame   0x0000000000001c0c       0xf4 build/app_app.a(heatshrink_decoder.o)
 .debug_frame   0x0000000000001d00       0xb8 build/app_app.a(hmac-sha256.o)
 .debug_frame   0x0000000000001db8       0x40 build/app_app.a(ringbuf.o)
 .debug_frame   0x0000000000001df8       0x50 /home/stoffer/esp8266/esp-open-sdk/xtensa-lx106-elf/lib/gcc/xtensa-lx106-elf/4.8.5/../../../../xtensa-lx106-elf/lib/libc.a(lib_a-atoi.o)
 .debug_frame   0x0000000000001e48       0x30 /home/stoffer/esp8266/esp-open-sdk/xtensa-lx106-elf/lib/gcc/xtensa-lx106-elf/4.8.5/../../../../xtensa-lx106-elf/lib/libc.a(lib_a-strtok.o)
 .debug_frame   0x0000000000001e78       0x40 /home/stoffer/esp8266/esp-open-sdk/xtensa-lx106-elf/lib/gcc/xtensa-lx106-elf/4.8.5/../../../../xtensa-lx106-elf/lib/libc.a(lib_a-strtok_r.o)
 .debug_frame   0x0000000000001eb8       0x5c /home/stoffer/esp8266/esp-open-sdk/xtensa-lx106-elf/lib/gcc/xtensa-lx106-elf/4.8.5/../../../../xtensa-lx106-elf/lib/libc.a(lib_a-strtol.o)

.debug_info     0x0000000000000000    0x1596d
 .debug_info    0x0000000000000000     0x2908 build/app_app.a(user_main.o)
 .debug_info    0x0000000000002908      0xeef build/app_app.a(captdns.o)
 .debug_info    0x00000000000037f7      0x416 build/app_app.a(led.o)
 .debug_info    0x0000000000003c0d      0x507 build/app_app.a(httpd_user_init.o)
 .debug_info    0x0000000000004114     0x15b6 build/app_app.a(httpd.o)
 .debug_info    0x00000000000056ca      0x41d build/app_app.a(utils.o)
 .debug_info    0x0000000000005ae7      0x6a5 build/app_app.a(crypto.o)
 .debug_info    0x000000000000618c      0x850 build/app_app.a(sha256.o)
 .debug_info    0x00000000000069dc      0xbdc build/app_app.a(aes.o)
 .debug_info    0x00000000000075b8      0x8d0 build/app_app.a(uart.o)
 .debug_info    0x0000000000007e88      0x64a build/app_app.a(ext_spi_flash.o)
 .debug_info    0x00000000000084d2      0x105 build/app_app.a(gpio16.o)
 .debug_info    0x00000000000085d7      0x344 build/app_app.a(spi.o)
 .debug_info    0x000000000000891b     0x2300 build/app_app.a(mqtt.o)
 .debug_info    0x000000000000ac1b     0x1016 build/app_app.a(mqtt_msg.o)
 .debug_info    0x000000000000bc31      0x395 build/app_app.a(queue.o)
 .debug_info    0x000000000000bfc6      0x1e3 build/app_app.a(mqtt_utils.o)
 .debug_info    0x000000000000c1a9      0x4f9 build/app_app.a(proto.o)
 .debug_info    0x000000000000c6a2      0x8cc build/app_app.a(config.o)
 .debug_info    0x000000000000cf6e      0xe39 build/app_app.a(wifi.o)
 .debug_info    0x000000000000dda7     0x1432 build/app_app.a(cgiwifi.o)
 .debug_info    0x000000000000f1d9      0xae7 build/app_app.a(tinyprintf.o)
 .debug_info    0x000000000000fcc0      0x46f build/app_app.a(unix_time.o)
 .debug_info    0x000000000001012f      0x7f9 build/app_app.a(cgi.o)
 .debug_info    0x0000000000010928      0x85d build/app_app.a(httpdespfs.o)
 .debug_info    0x0000000000011185      0x766 build/app_app.a(espfs.o)
 .debug_info    0x00000000000118eb      0xaf1 build/app_app.a(heatshrink_decoder.o)
 .debug_info    0x00000000000123dc      0x586 build/app_app.a(hmac-sha256.o)
 .debug_info    0x0000000000012962      0x1ba build/app_app.a(ringbuf.o)
 .debug_info    0x0000000000012b1c      0x93d /home/stoffer/esp8266/esp-open-sdk/xtensa-lx106-elf/lib/gcc/xtensa-lx106-elf/4.8.5/../../../../xtensa-lx106-elf/lib/libc.a(lib_a-atoi.o)
 .debug_info    0x0000000000013459      0x119 /home/stoffer/esp8266/esp-open-sdk/xtensa-lx106-elf/lib/gcc/xtensa-lx106-elf/4.8.5/../../../../xtensa-lx106-elf/lib/libc.a(lib_a-memcpy.o)
 .debug_info    0x0000000000013572      0x119 /home/stoffer/esp8266/esp-open-sdk/xtensa-lx106-elf/lib/gcc/xtensa-lx106-elf/4.8.5/../../../../xtensa-lx106-elf/lib/libc.a(lib_a-memset.o)
 .debug_info    0x000000000001368b      0x119 /home/stoffer/esp8266/esp-open-sdk/xtensa-lx106-elf/lib/gcc/xtensa-lx106-elf/4.8.5/../../../../xtensa-lx106-elf/lib/libc.a(lib_a-strlen.o)
 .debug_info    0x00000000000137a4      0x8e7 /home/stoffer/esp8266/esp-open-sdk/xtensa-lx106-elf/lib/gcc/xtensa-lx106-elf/4.8.5/../../../../xtensa-lx106-elf/lib/libc.a(lib_a-strtok.o)
 .debug_info    0x000000000001408b      0x180 /home/stoffer/esp8266/esp-open-sdk/xtensa-lx106-elf/lib/gcc/xtensa-lx106-elf/4.8.5/../../../../xtensa-lx106-elf/lib/libc.a(lib_a-strtok_r.o)
 .debug_info    0x000000000001420b      0x9a5 /home/stoffer/esp8266/esp-open-sdk/xtensa-lx106-elf/lib/gcc/xtensa-lx106-elf/4.8.5/../../../../xtensa-lx106-elf/lib/libc.a(lib_a-strtol.o)
 .debug_info    0x0000000000014bb0       0x6b /home/stoffer/esp8266/esp-open-sdk/xtensa-lx106-elf/lib/gcc/xtensa-lx106-elf/4.8.5/../../../../xtensa-lx106-elf/lib/libc.a(lib_a-ctype_.o)
 .debug_info    0x0000000000014c1b      0x890 /home/stoffer/esp8266/esp-open-sdk/xtensa-lx106-elf/lib/gcc/xtensa-lx106-elf/4.8.5/../../../../xtensa-lx106-elf/lib/libc.a(lib_a-impure.o)
 .debug_info    0x00000000000154ab       0xf3 /home/stoffer/esp8266/esp-open-sdk/sdk/lib/libgcc.a(_modsi3.o)
 .debug_info    0x000000000001559e       0xf3 /home/stoffer/esp8266/esp-open-sdk/sdk/lib/libgcc.a(_ashrdi3.o)
 .debug_info    0x0000000000015691       0xf4 /home/stoffer/esp8266/esp-open-sdk/sdk/lib/libgcc.a(_mulsf3.o)
 .debug_info    0x0000000000015785       0xf4 /home/stoffer/esp8266/esp-open-sdk/sdk/lib/libgcc.a(_divsf3.o)
 .debug_info    0x0000000000015879       0xf4 /home/stoffer/esp8266/esp-open-sdk/sdk/lib/libgcc.a(_fixsfsi.o)

.debug_abbrev   0x0000000000000000     0x459a
 .debug_abbrev  0x0000000000000000      0x38b build/app_app.a(user_main.o)
 .debug_abbrev  0x000000000000038b      0x2c9 build/app_app.a(captdns.o)
 .debug_abbrev  0x0000000000000654      0x15b build/app_app.a(led.o)
 .debug_abbrev  0x00000000000007af      0x1a6 build/app_app.a(httpd_user_init.o)
 .debug_abbrev  0x0000000000000955      0x3bf build/app_app.a(httpd.o)
 .debug_abbrev  0x0000000000000d14      0x1fc build/app_app.a(utils.o)
 .debug_abbrev  0x0000000000000f10      0x186 build/app_app.a(crypto.o)
 .debug_abbrev  0x0000000000001096      0x26e build/app_app.a(sha256.o)
 .debug_abbrev  0x0000000000001304      0x28c build/app_app.a(aes.o)
 .debug_abbrev  0x0000000000001590      0x2c3 build/app_app.a(uart.o)
 .debug_abbrev  0x0000000000001853      0x135 build/app_app.a(ext_spi_flash.o)
 .debug_abbrev  0x0000000000001988       0x92 build/app_app.a(gpio16.o)
 .debug_abbrev  0x0000000000001a1a       0xd0 build/app_app.a(spi.o)
 .debug_abbrev  0x0000000000001aea      0x38b build/app_app.a(mqtt.o)
 .debug_abbrev  0x0000000000001e75      0x287 build/app_app.a(mqtt_msg.o)
 .debug_abbrev  0x00000000000020fc      0x121 build/app_app.a(queue.o)
 .debug_abbrev  0x000000000000221d       0xc7 build/app_app.a(mqtt_utils.o)
 .debug_abbrev  0x00000000000022e4      0x1df build/app_app.a(proto.o)
 .debug_abbrev  0x00000000000024c3      0x204 build/app_app.a(config.o)
 .debug_abbrev  0x00000000000026c7      0x2ff build/app_app.a(wifi.o)
 .debug_abbrev  0x00000000000029c6      0x336 build/app_app.a(cgiwifi.o)
 .debug_abbrev  0x0000000000002cfc      0x341 build/app_app.a(tinyprintf.o)
 .debug_abbrev  0x000000000000303d      0x1c7 build/app_app.a(unix_time.o)
 .debug_abbrev  0x0000000000003204      0x1c7 build/app_app.a(cgi.o)
 .debug_abbrev  0x00000000000033cb      0x1e0 build/app_app.a(httpdespfs.o)
 .debug_abbrev  0x00000000000035ab      0x1b7 build/app_app.a(espfs.o)
 .debug_abbrev  0x0000000000003762      0x2ad build/app_app.a(heatshrink_decoder.o)
 .debug_abbrev  0x0000000000003a0f      0x1a3 build/app_app.a(hmac-sha256.o)
 .debug_abbrev  0x0000000000003bb2       0xe2 build/app_app.a(ringbuf.o)
 .debug_abbrev  0x0000000000003c94      0x1cc /home/stoffer/esp8266/esp-open-sdk/xtensa-lx106-elf/lib/gcc/xtensa-lx106-elf/4.8.5/../../../../xtensa-lx106-elf/lib/libc.a(lib_a-atoi.o)
 .debug_abbrev  0x0000000000003e60       0x14 /home/stoffer/esp8266/esp-open-sdk/xtensa-lx106-elf/lib/gcc/xtensa-lx106-elf/4.8.5/../../../../xtensa-lx106-elf/lib/libc.a(lib_a-memcpy.o)
 .debug_abbrev  0x0000000000003e74       0x14 /home/stoffer/esp8266/esp-open-sdk/xtensa-lx106-elf/lib/gcc/xtensa-lx106-elf/4.8.5/../../../../xtensa-lx106-elf/lib/libc.a(lib_a-memset.o)
 .debug_abbrev  0x0000000000003e88       0x14 /home/stoffer/esp8266/esp-open-sdk/xtensa-lx106-elf/lib/gcc/xtensa-lx106-elf/4.8.5/../../../../xtensa-lx106-elf/lib/libc.a(lib_a-strlen.o)
 .debug_abbrev  0x0000000000003e9c      0x1d9 /home/stoffer/esp8266/esp-open-sdk/xtensa-lx106-elf/lib/gcc/xtensa-lx106-elf/4.8.5/../../../../xtensa-lx106-elf/lib/libc.a(lib_a-strtok.o)
 .debug_abbrev  0x0000000000004075       0xe8 /home/stoffer/esp8266/esp-open-sdk/xtensa-lx106-elf/lib/gcc/xtensa-lx106-elf/4.8.5/../../../../xtensa-lx106-elf/lib/libc.a(lib_a-strtok_r.o)
 .debug_abbrev  0x000000000000415d      0x20f /home/stoffer/esp8266/esp-open-sdk/xtensa-lx106-elf/lib/gcc/xtensa-lx106-elf/4.8.5/../../../../xtensa-lx106-elf/lib/libc.a(lib_a-strtol.o)
 .debug_abbrev  0x000000000000436c       0x4c /home/stoffer/esp8266/esp-open-sdk/xtensa-lx106-elf/lib/gcc/xtensa-lx106-elf/4.8.5/../../../../xtensa-lx106-elf/lib/libc.a(lib_a-ctype_.o)
 .debug_abbrev  0x00000000000043b8      0x17e /home/stoffer/esp8266/esp-open-sdk/xtensa-lx106-elf/lib/gcc/xtensa-lx106-elf/4.8.5/../../../../xtensa-lx106-elf/lib/libc.a(lib_a-impure.o)
 .debug_abbrev  0x0000000000004536       0x14 /home/stoffer/esp8266/esp-open-sdk/sdk/lib/libgcc.a(_modsi3.o)
 .debug_abbrev  0x000000000000454a       0x14 /home/stoffer/esp8266/esp-open-sdk/sdk/lib/libgcc.a(_ashrdi3.o)
 .debug_abbrev  0x000000000000455e       0x14 /home/stoffer/esp8266/esp-open-sdk/sdk/lib/libgcc.a(_mulsf3.o)
 .debug_abbrev  0x0000000000004572       0x14 /home/stoffer/esp8266/esp-open-sdk/sdk/lib/libgcc.a(_divsf3.o)
 .debug_abbrev  0x0000000000004586       0x14 /home/stoffer/esp8266/esp-open-sdk/sdk/lib/libgcc.a(_fixsfsi.o)

.debug_loc      0x0000000000000000     0xa1fa
 .debug_loc     0x0000000000000000      0x415 build/app_app.a(user_main.o)
 .debug_loc     0x0000000000000415      0xb4c build/app_app.a(captdns.o)
 .debug_loc     0x0000000000000f61       0x37 build/app_app.a(led.o)
 .debug_loc     0x0000000000000f98       0xc6 build/app_app.a(httpd_user_init.o)
 .debug_loc     0x000000000000105e      0xc7f build/app_app.a(httpd.o)
 .debug_loc     0x0000000000001cdd      0x584 build/app_app.a(utils.o)
 .debug_loc     0x0000000000002261      0x21d build/app_app.a(crypto.o)
 .debug_loc     0x000000000000247e     0x109c build/app_app.a(sha256.o)
 .debug_loc     0x000000000000351a     0x14df build/app_app.a(aes.o)
 .debug_loc     0x00000000000049f9      0x366 build/app_app.a(uart.o)
 .debug_loc     0x0000000000004d5f      0x19e build/app_app.a(ext_spi_flash.o)
 .debug_loc     0x0000000000004efd       0x21 build/app_app.a(gpio16.o)
 .debug_loc     0x0000000000004f1e      0x4e0 build/app_app.a(spi.o)
 .debug_loc     0x00000000000053fe      0xa3b build/app_app.a(mqtt.o)
 .debug_loc     0x0000000000005e39      0xb99 build/app_app.a(mqtt_msg.o)
 .debug_loc     0x00000000000069d2      0x17a build/app_app.a(queue.o)
 .debug_loc     0x0000000000006b4c      0x278 build/app_app.a(mqtt_utils.o)
 .debug_loc     0x0000000000006dc4      0x541 build/app_app.a(proto.o)
 .debug_loc     0x0000000000007305       0x6e build/app_app.a(config.o)
 .debug_loc     0x0000000000007373      0x147 build/app_app.a(wifi.o)
 .debug_loc     0x00000000000074ba      0x3ea build/app_app.a(cgiwifi.o)
 .debug_loc     0x00000000000078a4     0x108a build/app_app.a(tinyprintf.o)
 .debug_loc     0x000000000000892e       0x58 build/app_app.a(unix_time.o)
 .debug_loc     0x0000000000008986      0x18f build/app_app.a(cgi.o)
 .debug_loc     0x0000000000008b15      0x213 build/app_app.a(httpdespfs.o)
 .debug_loc     0x0000000000008d28      0x343 build/app_app.a(espfs.o)
 .debug_loc     0x000000000000906b      0x7ec build/app_app.a(heatshrink_decoder.o)
 .debug_loc     0x0000000000009857      0x2f0 build/app_app.a(hmac-sha256.o)
 .debug_loc     0x0000000000009b47       0xd7 build/app_app.a(ringbuf.o)
 .debug_loc     0x0000000000009c1e       0x63 /home/stoffer/esp8266/esp-open-sdk/xtensa-lx106-elf/lib/gcc/xtensa-lx106-elf/4.8.5/../../../../xtensa-lx106-elf/lib/libc.a(lib_a-atoi.o)
 .debug_loc     0x0000000000009c81       0x42 /home/stoffer/esp8266/esp-open-sdk/xtensa-lx106-elf/lib/gcc/xtensa-lx106-elf/4.8.5/../../../../xtensa-lx106-elf/lib/libc.a(lib_a-strtok.o)
 .debug_loc     0x0000000000009cc3      0x1aa /home/stoffer/esp8266/esp-open-sdk/xtensa-lx106-elf/lib/gcc/xtensa-lx106-elf/4.8.5/../../../../xtensa-lx106-elf/lib/libc.a(lib_a-strtok_r.o)
 .debug_loc     0x0000000000009e6d      0x38d /home/stoffer/esp8266/esp-open-sdk/xtensa-lx106-elf/lib/gcc/xtensa-lx106-elf/4.8.5/../../../../xtensa-lx106-elf/lib/libc.a(lib_a-strtol.o)

.debug_aranges  0x0000000000000000      0xae0
 .debug_aranges
                0x0000000000000000       0x98 build/app_app.a(user_main.o)
 .debug_aranges
                0x0000000000000098       0x30 build/app_app.a(captdns.o)
 .debug_aranges
                0x00000000000000c8       0x50 build/app_app.a(led.o)
 .debug_aranges
                0x0000000000000118       0x20 build/app_app.a(httpd_user_init.o)
 .debug_aranges
                0x0000000000000138       0xc0 build/app_app.a(httpd.o)
 .debug_aranges
                0x00000000000001f8       0x40 build/app_app.a(utils.o)
 .debug_aranges
                0x0000000000000238       0x30 build/app_app.a(crypto.o)
 .debug_aranges
                0x0000000000000268       0x58 build/app_app.a(sha256.o)
 .debug_aranges
                0x00000000000002c0       0x58 build/app_app.a(aes.o)
 .debug_aranges
                0x0000000000000318       0x58 build/app_app.a(uart.o)
 .debug_aranges
                0x0000000000000370       0x48 build/app_app.a(ext_spi_flash.o)
 .debug_aranges
                0x00000000000003b8       0x38 build/app_app.a(gpio16.o)
 .debug_aranges
                0x00000000000003f0       0x50 build/app_app.a(spi.o)
 .debug_aranges
                0x0000000000000440       0xe8 build/app_app.a(mqtt.o)
 .debug_aranges
                0x0000000000000528       0xb0 build/app_app.a(mqtt_msg.o)
 .debug_aranges
                0x00000000000005d8       0x38 build/app_app.a(queue.o)
 .debug_aranges
                0x0000000000000610       0x30 build/app_app.a(mqtt_utils.o)
 .debug_aranges
                0x0000000000000640       0x48 build/app_app.a(proto.o)
 .debug_aranges
                0x0000000000000688       0x38 build/app_app.a(config.o)
 .debug_aranges
                0x00000000000006c0       0x48 build/app_app.a(wifi.o)
 .debug_aranges
                0x0000000000000708       0x48 build/app_app.a(cgiwifi.o)
 .debug_aranges
                0x0000000000000750       0x80 build/app_app.a(tinyprintf.o)
 .debug_aranges
                0x00000000000007d0       0x40 build/app_app.a(unix_time.o)
 .debug_aranges
                0x0000000000000810       0x38 build/app_app.a(cgi.o)
 .debug_aranges
                0x0000000000000848       0x28 build/app_app.a(httpdespfs.o)
 .debug_aranges
                0x0000000000000870       0x38 build/app_app.a(espfs.o)
 .debug_aranges
                0x00000000000008a8       0x20 build/app_app.a(heatshrink_decoder.o)
 .debug_aranges
                0x00000000000008c8       0x38 build/app_app.a(hmac-sha256.o)
 .debug_aranges
                0x0000000000000900       0x30 build/app_app.a(ringbuf.o)
 .debug_aranges
                0x0000000000000930       0x20 /home/stoffer/esp8266/esp-open-sdk/xtensa-lx106-elf/lib/gcc/xtensa-lx106-elf/4.8.5/../../../../xtensa-lx106-elf/lib/libc.a(lib_a-atoi.o)
 .debug_aranges
                0x0000000000000950       0x20 /home/stoffer/esp8266/esp-open-sdk/xtensa-lx106-elf/lib/gcc/xtensa-lx106-elf/4.8.5/../../../../xtensa-lx106-elf/lib/libc.a(lib_a-memcpy.o)
 .debug_aranges
                0x0000000000000970       0x20 /home/stoffer/esp8266/esp-open-sdk/xtensa-lx106-elf/lib/gcc/xtensa-lx106-elf/4.8.5/../../../../xtensa-lx106-elf/lib/libc.a(lib_a-memset.o)
 .debug_aranges
                0x0000000000000990       0x20 /home/stoffer/esp8266/esp-open-sdk/xtensa-lx106-elf/lib/gcc/xtensa-lx106-elf/4.8.5/../../../../xtensa-lx106-elf/lib/libc.a(lib_a-strlen.o)
 .debug_aranges
                0x00000000000009b0       0x20 /home/stoffer/esp8266/esp-open-sdk/xtensa-lx106-elf/lib/gcc/xtensa-lx106-elf/4.8.5/../../../../xtensa-lx106-elf/lib/libc.a(lib_a-strtok.o)
 .debug_aranges
                0x00000000000009d0       0x20 /home/stoffer/esp8266/esp-open-sdk/xtensa-lx106-elf/lib/gcc/xtensa-lx106-elf/4.8.5/../../../../xtensa-lx106-elf/lib/libc.a(lib_a-strtok_r.o)
 .debug_aranges
                0x00000000000009f0       0x20 /home/stoffer/esp8266/esp-open-sdk/xtensa-lx106-elf/lib/gcc/xtensa-lx106-elf/4.8.5/../../../../xtensa-lx106-elf/lib/libc.a(lib_a-strtol.o)
 .debug_aranges
                0x0000000000000a10       0x18 /home/stoffer/esp8266/esp-open-sdk/xtensa-lx106-elf/lib/gcc/xtensa-lx106-elf/4.8.5/../../../../xtensa-lx106-elf/lib/libc.a(lib_a-ctype_.o)
 .debug_aranges
                0x0000000000000a28       0x18 /home/stoffer/esp8266/esp-open-sdk/xtensa-lx106-elf/lib/gcc/xtensa-lx106-elf/4.8.5/../../../../xtensa-lx106-elf/lib/libc.a(lib_a-impure.o)
 .debug_aranges
                0x0000000000000a40       0x20 /home/stoffer/esp8266/esp-open-sdk/sdk/lib/libgcc.a(_modsi3.o)
 .debug_aranges
                0x0000000000000a60       0x20 /home/stoffer/esp8266/esp-open-sdk/sdk/lib/libgcc.a(_ashrdi3.o)
 .debug_aranges
                0x0000000000000a80       0x20 /home/stoffer/esp8266/esp-open-sdk/sdk/lib/libgcc.a(_mulsf3.o)
 .debug_aranges
                0x0000000000000aa0       0x20 /home/stoffer/esp8266/esp-open-sdk/sdk/lib/libgcc.a(_divsf3.o)
 .debug_aranges
                0x0000000000000ac0       0x20 /home/stoffer/esp8266/esp-open-sdk/sdk/lib/libgcc.a(_fixsfsi.o)

.debug_ranges   0x0000000000000000     0x10e8
 .debug_ranges  0x0000000000000000       0x88 build/app_app.a(user_main.o)
 .debug_ranges  0x0000000000000088      0x228 build/app_app.a(captdns.o)
 .debug_ranges  0x00000000000002b0       0x40 build/app_app.a(led.o)
 .debug_ranges  0x00000000000002f0      0x118 build/app_app.a(httpd.o)
 .debug_ranges  0x0000000000000408       0x30 build/app_app.a(utils.o)
 .debug_ranges  0x0000000000000438       0x20 build/app_app.a(crypto.o)
 .debug_ranges  0x0000000000000458       0x98 build/app_app.a(sha256.o)
 .debug_ranges  0x00000000000004f0      0x4a0 build/app_app.a(aes.o)
 .debug_ranges  0x0000000000000990       0xd8 build/app_app.a(uart.o)
 .debug_ranges  0x0000000000000a68       0x38 build/app_app.a(ext_spi_flash.o)
 .debug_ranges  0x0000000000000aa0       0x28 build/app_app.a(gpio16.o)
 .debug_ranges  0x0000000000000ac8       0x40 build/app_app.a(spi.o)
 .debug_ranges  0x0000000000000b08      0x120 build/app_app.a(mqtt.o)
 .debug_ranges  0x0000000000000c28      0x118 build/app_app.a(mqtt_msg.o)
 .debug_ranges  0x0000000000000d40       0x28 build/app_app.a(queue.o)
 .debug_ranges  0x0000000000000d68       0x38 build/app_app.a(mqtt_utils.o)
 .debug_ranges  0x0000000000000da0       0x58 build/app_app.a(proto.o)
 .debug_ranges  0x0000000000000df8       0x28 build/app_app.a(config.o)
 .debug_ranges  0x0000000000000e20       0x38 build/app_app.a(wifi.o)
 .debug_ranges  0x0000000000000e58       0x38 build/app_app.a(cgiwifi.o)
 .debug_ranges  0x0000000000000e90       0xf8 build/app_app.a(tinyprintf.o)
 .debug_ranges  0x0000000000000f88       0x30 build/app_app.a(unix_time.o)
 .debug_ranges  0x0000000000000fb8       0x28 build/app_app.a(cgi.o)
 .debug_ranges  0x0000000000000fe0       0x18 build/app_app.a(httpdespfs.o)
 .debug_ranges  0x0000000000000ff8       0x28 build/app_app.a(espfs.o)
 .debug_ranges  0x0000000000001020       0x80 build/app_app.a(heatshrink_decoder.o)
 .debug_ranges  0x00000000000010a0       0x28 build/app_app.a(hmac-sha256.o)
 .debug_ranges  0x00000000000010c8       0x20 build/app_app.a(ringbuf.o)

.debug_line     0x0000000000000000     0xa386
 .debug_line    0x0000000000000000      0xa64 build/app_app.a(user_main.o)
 .debug_line    0x0000000000000a64      0x5a1 build/app_app.a(captdns.o)
 .debug_line    0x0000000000001005      0x231 build/app_app.a(led.o)
 .debug_line    0x0000000000001236      0x109 build/app_app.a(httpd_user_init.o)
 .debug_line    0x000000000000133f      0xace build/app_app.a(httpd.o)
 .debug_line    0x0000000000001e0d      0x2a0 build/app_app.a(utils.o)
 .debug_line    0x00000000000020ad      0x22c build/app_app.a(crypto.o)
 .debug_line    0x00000000000022d9      0x727 build/app_app.a(sha256.o)
 .debug_line    0x0000000000002a00      0x9ba build/app_app.a(aes.o)
 .debug_line    0x00000000000033ba      0x4a7 build/app_app.a(uart.o)
 .debug_line    0x0000000000003861      0x27a build/app_app.a(ext_spi_flash.o)
 .debug_line    0x0000000000003adb      0x14b build/app_app.a(gpio16.o)
 .debug_line    0x0000000000003c26      0x373 build/app_app.a(spi.o)
 .debug_line    0x0000000000003f99      0xd56 build/app_app.a(mqtt.o)
 .debug_line    0x0000000000004cef      0x8c2 build/app_app.a(mqtt_msg.o)
 .debug_line    0x00000000000055b1      0x183 build/app_app.a(queue.o)
 .debug_line    0x0000000000005734      0x249 build/app_app.a(mqtt_utils.o)
 .debug_line    0x000000000000597d      0x32f build/app_app.a(proto.o)
 .debug_line    0x0000000000005cac      0x339 build/app_app.a(config.o)
 .debug_line    0x0000000000005fe5      0x477 build/app_app.a(wifi.o)
 .debug_line    0x000000000000645c      0x4b0 build/app_app.a(cgiwifi.o)
 .debug_line    0x000000000000690c      0xae5 build/app_app.a(tinyprintf.o)
 .debug_line    0x00000000000073f1      0x22d build/app_app.a(unix_time.o)
 .debug_line    0x000000000000761e      0x242 build/app_app.a(cgi.o)
 .debug_line    0x0000000000007860      0x2e3 build/app_app.a(httpdespfs.o)
 .debug_line    0x0000000000007b43      0x379 build/app_app.a(espfs.o)
 .debug_line    0x0000000000007ebc      0x58b build/app_app.a(heatshrink_decoder.o)
 .debug_line    0x0000000000008447      0x20a build/app_app.a(hmac-sha256.o)
 .debug_line    0x0000000000008651      0x120 build/app_app.a(ringbuf.o)
 .debug_line    0x0000000000008771      0x238 /home/stoffer/esp8266/esp-open-sdk/xtensa-lx106-elf/lib/gcc/xtensa-lx106-elf/4.8.5/../../../../xtensa-lx106-elf/lib/libc.a(lib_a-atoi.o)
 .debug_line    0x00000000000089a9      0x38b /home/stoffer/esp8266/esp-open-sdk/xtensa-lx106-elf/lib/gcc/xtensa-lx106-elf/4.8.5/../../../../xtensa-lx106-elf/lib/libc.a(lib_a-memcpy.o)
 .debug_line    0x0000000000008d34      0x1b0 /home/stoffer/esp8266/esp-open-sdk/xtensa-lx106-elf/lib/gcc/xtensa-lx106-elf/4.8.5/../../../../xtensa-lx106-elf/lib/libc.a(lib_a-memset.o)
 .debug_line    0x0000000000008ee4      0x162 /home/stoffer/esp8266/esp-open-sdk/xtensa-lx106-elf/lib/gcc/xtensa-lx106-elf/4.8.5/../../../../xtensa-lx106-elf/lib/libc.a(lib_a-strlen.o)
 .debug_line    0x0000000000009046      0x228 /home/stoffer/esp8266/esp-open-sdk/xtensa-lx106-elf/lib/gcc/xtensa-lx106-elf/4.8.5/../../../../xtensa-lx106-elf/lib/libc.a(lib_a-strtok.o)
 .debug_line    0x000000000000926e      0x1b6 /home/stoffer/esp8266/esp-open-sdk/xtensa-lx106-elf/lib/gcc/xtensa-lx106-elf/4.8.5/../../../../xtensa-lx106-elf/lib/libc.a(lib_a-strtok_r.o)
 .debug_line    0x0000000000009424      0x3d3 /home/stoffer/esp8266/esp-open-sdk/xtensa-lx106-elf/lib/gcc/xtensa-lx106-elf/4.8.5/../../../../xtensa-lx106-elf/lib/libc.a(lib_a-strtol.o)
 .debug_line    0x00000000000097f7       0x84 /home/stoffer/esp8266/esp-open-sdk/xtensa-lx106-elf/lib/gcc/xtensa-lx106-elf/4.8.5/../../../../xtensa-lx106-elf/lib/libc.a(lib_a-ctype_.o)
 .debug_line    0x000000000000987b      0x18a /home/stoffer/esp8266/esp-open-sdk/xtensa-lx106-elf/lib/gcc/xtensa-lx106-elf/4.8.5/../../../../xtensa-lx106-elf/lib/libc.a(lib_a-impure.o)
 .debug_line    0x0000000000009a05      0x11a /home/stoffer/esp8266/esp-open-sdk/sdk/lib/libgcc.a(_modsi3.o)
 .debug_line    0x0000000000009b1f       0xba /home/stoffer/esp8266/esp-open-sdk/sdk/lib/libgcc.a(_ashrdi3.o)
 .debug_line    0x0000000000009bd9      0x37f /home/stoffer/esp8266/esp-open-sdk/sdk/lib/libgcc.a(_mulsf3.o)
 .debug_line    0x0000000000009f58      0x319 /home/stoffer/esp8266/esp-open-sdk/sdk/lib/libgcc.a(_divsf3.o)
 .debug_line    0x000000000000a271      0x115 /home/stoffer/esp8266/esp-open-sdk/sdk/lib/libgcc.a(_fixsfsi.o)

.debug_str      0x0000000000000000     0x3ee3
 .debug_str     0x0000000000000000     0x1240 build/app_app.a(user_main.o)
                                       0x13c2 (size before relaxing)
 .debug_str     0x0000000000001240      0x19d build/app_app.a(captdns.o)
                                        0x534 (size before relaxing)
 .debug_str     0x00000000000013dd       0x70 build/app_app.a(led.o)
                                        0x241 (size before relaxing)
 .debug_str     0x000000000000144d       0xba build/app_app.a(httpd_user_init.o)
                                        0x3e9 (size before relaxing)
 .debug_str     0x0000000000001507      0x2ec build/app_app.a(httpd.o)
                                        0x795 (size before relaxing)
 .debug_str     0x00000000000017f3       0x79 build/app_app.a(utils.o)
                                        0x225 (size before relaxing)
 .debug_str     0x000000000000186c      0x12d build/app_app.a(crypto.o)
                                        0x2f6 (size before relaxing)
 .debug_str     0x0000000000001999       0x94 build/app_app.a(sha256.o)
                                        0x238 (size before relaxing)
 .debug_str     0x0000000000001a2d       0xc4 build/app_app.a(aes.o)
                                        0x281 (size before relaxing)
 .debug_str     0x0000000000001af1      0x380 build/app_app.a(uart.o)
                                        0x615 (size before relaxing)
 .debug_str     0x0000000000001e71       0xde build/app_app.a(ext_spi_flash.o)
                                        0x235 (size before relaxing)
 .debug_str     0x0000000000001f4f       0x22 build/app_app.a(gpio16.o)
                                        0x188 (size before relaxing)
 .debug_str     0x0000000000001f71       0xc3 build/app_app.a(spi.o)
                                        0x254 (size before relaxing)
 .debug_str     0x0000000000002034      0x6b0 build/app_app.a(mqtt.o)
                                       0x10bc (size before relaxing)
 .debug_str     0x00000000000026e4      0x189 build/app_app.a(mqtt_msg.o)
                                        0x682 (size before relaxing)
 .debug_str     0x000000000000286d       0x3f build/app_app.a(queue.o)
                                        0x1de (size before relaxing)
 .debug_str     0x00000000000028ac       0x4d build/app_app.a(mqtt_utils.o)
                                        0x193 (size before relaxing)
 .debug_str     0x00000000000028f9       0xb7 build/app_app.a(proto.o)
                                        0x225 (size before relaxing)
 .debug_str     0x00000000000029b0       0x8b build/app_app.a(config.o)
                                        0x402 (size before relaxing)
 .debug_str     0x0000000000002a3b      0x4c5 build/app_app.a(wifi.o)
                                        0x8cb (size before relaxing)
 .debug_str     0x0000000000002f00      0x101 build/app_app.a(cgiwifi.o)
                                        0x809 (size before relaxing)
 .debug_str     0x0000000000003001      0x156 build/app_app.a(tinyprintf.o)
                                        0x2c1 (size before relaxing)
 .debug_str     0x0000000000003157      0x10a build/app_app.a(unix_time.o)
                                        0x2f5 (size before relaxing)
 .debug_str     0x0000000000003261       0x49 build/app_app.a(cgi.o)
                                        0x44c (size before relaxing)
 .debug_str     0x00000000000032aa       0x7d build/app_app.a(httpdespfs.o)
                                        0x46a (size before relaxing)
 .debug_str     0x0000000000003327      0x2c5 build/app_app.a(espfs.o)
                                        0x480 (size before relaxing)
 .debug_str     0x00000000000035ec      0x20c build/app_app.a(heatshrink_decoder.o)
                                        0x5a9 (size before relaxing)
 .debug_str     0x00000000000037f8       0x37 build/app_app.a(hmac-sha256.o)
                                        0x23e (size before relaxing)
 .debug_str     0x000000000000382f        0xf build/app_app.a(ringbuf.o)
                                        0x164 (size before relaxing)
 .debug_str     0x000000000000383e      0x42e /home/stoffer/esp8266/esp-open-sdk/xtensa-lx106-elf/lib/gcc/xtensa-lx106-elf/4.8.5/../../../../xtensa-lx106-elf/lib/libc.a(lib_a-atoi.o)
                                        0x4f8 (size before relaxing)
 .debug_str     0x0000000000003c6c       0x6f /home/stoffer/esp8266/esp-open-sdk/xtensa-lx106-elf/lib/gcc/xtensa-lx106-elf/4.8.5/../../../../xtensa-lx106-elf/lib/libc.a(lib_a-strtok.o)
                                        0x500 (size before relaxing)
 .debug_str     0x0000000000003cdb       0x8a /home/stoffer/esp8266/esp-open-sdk/xtensa-lx106-elf/lib/gcc/xtensa-lx106-elf/4.8.5/../../../../xtensa-lx106-elf/lib/libc.a(lib_a-strtok_r.o)
                                        0x166 (size before relaxing)
 .debug_str     0x0000000000003d65       0x91 /home/stoffer/esp8266/esp-open-sdk/xtensa-lx106-elf/lib/gcc/xtensa-lx106-elf/4.8.5/../../../../xtensa-lx106-elf/lib/libc.a(lib_a-strtol.o)
                                        0x52b (size before relaxing)
 .debug_str     0x0000000000003df6       0x6b /home/stoffer/esp8266/esp-open-sdk/xtensa-lx106-elf/lib/gcc/xtensa-lx106-elf/4.8.5/../../../../xtensa-lx106-elf/lib/libc.a(lib_a-ctype_.o)
                                         0xb7 (size before relaxing)
 .debug_str     0x0000000000003e61       0x82 /home/stoffer/esp8266/esp-open-sdk/xtensa-lx106-elf/lib/gcc/xtensa-lx106-elf/4.8.5/../../../../xtensa-lx106-elf/lib/libc.a(lib_a-impure.o)
                                        0x506 (size before relaxing)

Cross Reference Table

Symbol                                            File
AES128_CBC_decrypt_buffer                         build/app_app.a(aes.o)
                                                  build/app_app.a(crypto.o)
AES128_CBC_encrypt_buffer                         build/app_app.a(aes.o)
                                                  build/app_app.a(crypto.o)
APRecvBcnStartTick                                /home/stoffer/esp8266/esp-open-sdk/sdk/lib/libnet80211.a(ieee80211_hostap.o)
                                                  /home/stoffer/esp8266/esp-open-sdk/sdk/lib/libpp.a(pp.o)
ApFreqCalTimer                                    /home/stoffer/esp8266/esp-open-sdk/sdk/lib/libnet80211.a(ieee80211_hostap.o)
BcnEb_update                                      /home/stoffer/esp8266/esp-open-sdk/sdk/lib/libnet80211.a(ieee80211_hostap.o)
                                                  /home/stoffer/esp8266/esp-open-sdk/sdk/lib/libnet80211.a(ieee80211_mesh_quick.o)
                                                  /home/stoffer/esp8266/esp-open-sdk/sdk/lib/libmain.a(user_interface.o)
BcnWithMcastSendCnt                               /home/stoffer/esp8266/esp-open-sdk/sdk/lib/libnet80211.a(ieee80211_hostap.o)
                                                  /home/stoffer/esp8266/esp-open-sdk/sdk/lib/libpp.a(pp.o)
BcnWithMcastSendStart                             /home/stoffer/esp8266/esp-open-sdk/sdk/lib/libnet80211.a(ieee80211_hostap.o)
Cache_Read_Disable                                /home/stoffer/esp8266/esp-open-sdk/sdk/lib/libmain.a(user_interface.o)
                                                  /home/stoffer/esp8266/esp-open-sdk/sdk/lib/libmain.a(spi_flash.o)
Cache_Read_Disable_2                              /home/stoffer/esp8266/esp-open-sdk/sdk/lib/libmain.a(spi_flash.o)
Cache_Read_Enable                                 /home/stoffer/esp8266/esp-open-sdk/sdk/lib/libmain.a(app_main.o)
Cache_Read_Enable_2                               /home/stoffer/esp8266/esp-open-sdk/sdk/lib/libmain.a(spi_flash.o)
Cache_Read_Enable_New                             /home/stoffer/esp8266/esp-open-sdk/sdk/lib/libmain.a(app_main.o)
                                                  /home/stoffer/esp8266/esp-open-sdk/sdk/lib/libpp.a(pp.o)
                                                  /home/stoffer/esp8266/esp-open-sdk/sdk/lib/libmain.a(spi_flash.o)
                                                  /home/stoffer/esp8266/esp-open-sdk/sdk/lib/libmain.a(mem_manager.o)
CanDoFreqCal                                      /home/stoffer/esp8266/esp-open-sdk/sdk/lib/libpp.a(pp.o)
                                                  /home/stoffer/esp8266/esp-open-sdk/sdk/lib/libnet80211.a(ieee80211_hostap.o)
DefFreqCalTimer                                   /home/stoffer/esp8266/esp-open-sdk/sdk/lib/libpp.a(pp.o)
                                                  /home/stoffer/esp8266/esp-open-sdk/sdk/lib/libnet80211.a(ieee80211_hostap.o)
DefFreqCalTimerCB                                 /home/stoffer/esp8266/esp-open-sdk/sdk/lib/libpp.a(pp.o)
                                                  /home/stoffer/esp8266/esp-open-sdk/sdk/lib/libnet80211.a(ieee80211_hostap.o)
FreqCalCntForScan                                 /home/stoffer/esp8266/esp-open-sdk/sdk/lib/libnet80211.a(ieee80211_scan.o)
                                                  /home/stoffer/esp8266/esp-open-sdk/sdk/lib/libnet80211.a(ieee80211_sta.o)
GetAccess                                         /home/stoffer/esp8266/esp-open-sdk/sdk/lib/libpp.a(lmac.o)
                                                  /home/stoffer/esp8266/esp-open-sdk/sdk/lib/libpp.a(pp.o)
HdlAllBuffedEb                                    /home/stoffer/esp8266/esp-open-sdk/sdk/lib/libpp.a(pp.o)
                                                  /home/stoffer/esp8266/esp-open-sdk/sdk/lib/libnet80211.a(ieee80211_hostap.o)
HighestFreqOffsetInOneChk                         /home/stoffer/esp8266/esp-open-sdk/sdk/lib/libpp.a(pp.o)
                                                  /home/stoffer/esp8266/esp-open-sdk/sdk/lib/libnet80211.a(ieee80211_hostap.o)
LightSleepWakedCbSetFunc                          /home/stoffer/esp8266/esp-open-sdk/sdk/lib/libpp.a(pm.o)
LowestFreqOffsetInOneChk                          /home/stoffer/esp8266/esp-open-sdk/sdk/lib/libpp.a(pp.o)
                                                  /home/stoffer/esp8266/esp-open-sdk/sdk/lib/libnet80211.a(ieee80211_hostap.o)
MQTT_Connect                                      build/app_app.a(mqtt.o)
                                                  build/app_app.a(user_main.o)
MQTT_DeleteClient                                 build/app_app.a(mqtt.o)
MQTT_Disconnect                                   build/app_app.a(mqtt.o)
                                                  build/app_app.a(user_main.o)
MQTT_InitClient                                   build/app_app.a(mqtt.o)
                                                  build/app_app.a(user_main.o)
MQTT_InitConnection                               build/app_app.a(mqtt.o)
                                                  build/app_app.a(user_main.o)
MQTT_InitLWT                                      build/app_app.a(mqtt.o)
                                                  build/app_app.a(user_main.o)
MQTT_OnConnected                                  build/app_app.a(mqtt.o)
                                                  build/app_app.a(user_main.o)
MQTT_OnData                                       build/app_app.a(mqtt.o)
                                                  build/app_app.a(user_main.o)
MQTT_OnDisconnected                               build/app_app.a(mqtt.o)
                                                  build/app_app.a(user_main.o)
MQTT_OnPublished                                  build/app_app.a(mqtt.o)
                                                  build/app_app.a(user_main.o)
MQTT_OnTimeout                                    build/app_app.a(mqtt.o)
                                                  build/app_app.a(user_main.o)
MQTT_Ping                                         build/app_app.a(mqtt.o)
                                                  build/app_app.a(user_main.o)
MQTT_Publish                                      build/app_app.a(mqtt.o)
                                                  build/app_app.a(user_main.o)
MQTT_Subscribe                                    build/app_app.a(mqtt.o)
                                                  build/app_app.a(user_main.o)
MQTT_Task                                         build/app_app.a(mqtt.o)
MQTT_UnSubscribe                                  build/app_app.a(mqtt.o)
NMI_Handler                                       /home/stoffer/esp8266/esp-open-sdk/sdk/lib/libmain.a(app_main.o)
                                                  /home/stoffer/esp8266/esp-open-sdk/sdk/lib/libmain.a(nmi-vector.o)
NmiTimSetFunc                                     /home/stoffer/esp8266/esp-open-sdk/sdk/lib/libmain.a(app_main.o)
NoiseTimerInterval                                /home/stoffer/esp8266/esp-open-sdk/sdk/lib/libpp.a(pp.o)
                                                  /home/stoffer/esp8266/esp-open-sdk/sdk/lib/libnet80211.a(ieee80211_hostap.o)
OpmodChgIsOnGoing                                 /home/stoffer/esp8266/esp-open-sdk/sdk/lib/libmain.a(user_interface.o)
PPWdtReset                                        /home/stoffer/esp8266/esp-open-sdk/sdk/lib/libpp.a(pp.o)
                                                  /home/stoffer/esp8266/esp-open-sdk/sdk/lib/libpp.a(wdev.o)
PROTO_Add                                         build/app_app.a(proto.o)
PROTO_AddRb                                       build/app_app.a(proto.o)
                                                  build/app_app.a(queue.o)
PROTO_Init                                        build/app_app.a(proto.o)
PROTO_Parse                                       build/app_app.a(proto.o)
PROTO_ParseByte                                   build/app_app.a(proto.o)
PROTO_ParseRb                                     build/app_app.a(proto.o)
                                                  build/app_app.a(queue.o)
PendFreeBcnEb                                     /home/stoffer/esp8266/esp-open-sdk/sdk/lib/libnet80211.a(ieee80211_hostap.o)
                                                  /home/stoffer/esp8266/esp-open-sdk/sdk/lib/libpp.a(pp.o)
PktNumInOneChk                                    /home/stoffer/esp8266/esp-open-sdk/sdk/lib/libpp.a(pp.o)
                                                  /home/stoffer/esp8266/esp-open-sdk/sdk/lib/libnet80211.a(ieee80211_hostap.o)
QUEUE_Gets                                        build/app_app.a(queue.o)
                                                  build/app_app.a(mqtt.o)
QUEUE_Init                                        build/app_app.a(queue.o)
                                                  build/app_app.a(mqtt.o)
QUEUE_IsEmpty                                     build/app_app.a(queue.o)
                                                  build/app_app.a(mqtt.o)
QUEUE_Puts                                        build/app_app.a(queue.o)
                                                  build/app_app.a(mqtt.o)
RC_GetAckRate                                     /home/stoffer/esp8266/esp-open-sdk/sdk/lib/libpp.a(rate_control.o)
RC_GetAckTime                                     /home/stoffer/esp8266/esp-open-sdk/sdk/lib/libpp.a(rate_control.o)
                                                  /home/stoffer/esp8266/esp-open-sdk/sdk/lib/libpp.a(pp.o)
                                                  /home/stoffer/esp8266/esp-open-sdk/sdk/lib/libpp.a(lmac.o)
RC_GetBlockAckTime                                /home/stoffer/esp8266/esp-open-sdk/sdk/lib/libpp.a(rate_control.o)
                                                  /home/stoffer/esp8266/esp-open-sdk/sdk/lib/libpp.a(pp.o)
RC_GetCtsTime                                     /home/stoffer/esp8266/esp-open-sdk/sdk/lib/libpp.a(rate_control.o)
                                                  /home/stoffer/esp8266/esp-open-sdk/sdk/lib/libpp.a(pp.o)
RC_GetRtsRate                                     /home/stoffer/esp8266/esp-open-sdk/sdk/lib/libpp.a(rate_control.o)
RC_SetBasicRate                                   /home/stoffer/esp8266/esp-open-sdk/sdk/lib/libpp.a(rate_control.o)
                                                  /home/stoffer/esp8266/esp-open-sdk/sdk/lib/libpp.a(lmac.o)
RFChannelSel                                      /home/stoffer/esp8266/esp-open-sdk/sdk/lib/libphy.a(phy.o)
RINGBUF_Get                                       build/app_app.a(ringbuf.o)
                                                  build/app_app.a(proto.o)
RINGBUF_Init                                      build/app_app.a(ringbuf.o)
                                                  build/app_app.a(queue.o)
RINGBUF_Put                                       build/app_app.a(ringbuf.o)
                                                  build/app_app.a(proto.o)
RxNodeNum                                         /home/stoffer/esp8266/esp-open-sdk/sdk/lib/libpp.a(pp.o)
                                                  /home/stoffer/esp8266/esp-open-sdk/sdk/lib/liblwip.a(tcp_in.o)
                                                  /home/stoffer/esp8266/esp-open-sdk/sdk/lib/libnet80211.a(ieee80211_hostap.o)
SDIO_slp_reject                                   /home/stoffer/esp8266/esp-open-sdk/sdk/lib/libphy.a(phy_sleep.o)
SDK_VERSION                                       /home/stoffer/esp8266/esp-open-sdk/sdk/lib/libmain.a(app_main.o)
                                                  /home/stoffer/esp8266/esp-open-sdk/sdk/lib/libmain.a(user_interface.o)
SPIEraseSector                                    /home/stoffer/esp8266/esp-open-sdk/sdk/lib/libmain.a(spi_flash.o)
SPIRead                                           /home/stoffer/esp8266/esp-open-sdk/sdk/lib/libmain.a(spi_flash.o)
                                                  /home/stoffer/esp8266/esp-open-sdk/sdk/lib/libmain.a(app_main.o)
SPIWrite                                          /home/stoffer/esp8266/esp-open-sdk/sdk/lib/libmain.a(spi_flash.o)
SPI_read_status                                   /home/stoffer/esp8266/esp-open-sdk/sdk/lib/libmain.a(spi_flash.o)
SPI_write_enable                                  /home/stoffer/esp8266/esp-open-sdk/sdk/lib/libmain.a(spi_flash.o)
SPI_write_status                                  /home/stoffer/esp8266/esp-open-sdk/sdk/lib/libmain.a(spi_flash.o)
StopLightSleepSetFunc                             /home/stoffer/esp8266/esp-open-sdk/sdk/lib/libpp.a(pm.o)
Te0                                               /home/stoffer/esp8266/esp-open-sdk/sdk/lib/libwpa.a(aes-internal.o)
                                                  /home/stoffer/esp8266/esp-open-sdk/sdk/lib/libwpa.a(aes-internal-enc.o)
TestStaFreqCalValInput                            /home/stoffer/esp8266/esp-open-sdk/sdk/lib/libnet80211.a(ieee80211_scan.o)
                                                  /home/stoffer/esp8266/esp-open-sdk/sdk/lib/libnet80211.a(ieee80211_output.o)
                                                  /home/stoffer/esp8266/esp-open-sdk/sdk/lib/libnet80211.a(ieee80211_hostap.o)
                                                  /home/stoffer/esp8266/esp-open-sdk/sdk/lib/libpp.a(pp.o)
                                                  /home/stoffer/esp8266/esp-open-sdk/sdk/lib/libmain.a(app_main.o)
TmpSTAAPCloseAP                                   /home/stoffer/esp8266/esp-open-sdk/sdk/lib/libnet80211.a(ieee80211_hostap.o)
                                                  /home/stoffer/esp8266/esp-open-sdk/sdk/lib/libpp.a(pp.o)
TxNodeNum                                         /home/stoffer/esp8266/esp-open-sdk/sdk/lib/libpp.a(pp.o)
Tx_Copy2Queue                                     /home/stoffer/esp8266/esp-open-sdk/sdk/lib/libpp.a(wdev.o)
                                                  /home/stoffer/esp8266/esp-open-sdk/sdk/lib/libpp.a(lmac.o)
UTILS_Atoh                                        build/app_app.a(mqtt_utils.o)
UTILS_IsIPV4                                      build/app_app.a(mqtt_utils.o)
UTILS_StrToIP                                     build/app_app.a(mqtt_utils.o)
                                                  build/app_app.a(mqtt.o)
UartDev                                           build/app_app.a(uart.o)
Uart_Init                                         /home/stoffer/esp8266/esp-open-sdk/sdk/lib/libphy.a(phy_chip_v6.o)
Wait_SPI_Idle                                     /home/stoffer/esp8266/esp-open-sdk/sdk/lib/libpp.a(pp.o)
                                                  /home/stoffer/esp8266/esp-open-sdk/sdk/lib/libmain.a(user_interface.o)
                                                  /home/stoffer/esp8266/esp-open-sdk/sdk/lib/libmain.a(spi_flash.o)
                                                  /home/stoffer/esp8266/esp-open-sdk/sdk/lib/libmain.a(mem_manager.o)
                                                  /home/stoffer/esp8266/esp-open-sdk/sdk/lib/libmain.a(app_main.o)
WdevTimOffSet                                     /home/stoffer/esp8266/esp-open-sdk/sdk/lib/libpp.a(wdev.o)
                                                  /home/stoffer/esp8266/esp-open-sdk/sdk/lib/libpp.a(pm_for_bcn_only_mode.o)
                                                  /home/stoffer/esp8266/esp-open-sdk/sdk/lib/libpp.a(pm.o)
                                                  /home/stoffer/esp8266/esp-open-sdk/sdk/lib/libmain.a(user_interface.o)
_DebugExceptionVector                             /home/stoffer/esp8266/esp-open-sdk/sdk/lib/libmain.a(debug-vector.o)
_DoubleExceptionVector                            /home/stoffer/esp8266/esp-open-sdk/sdk/lib/libmain.a(double-vector.o)
_KernelExceptionVector                            /home/stoffer/esp8266/esp-open-sdk/sdk/lib/libmain.a(kernel-vector.o)
_NMIExceptionVector                               /home/stoffer/esp8266/esp-open-sdk/sdk/lib/libmain.a(nmi-vector.o)
_NMILevelVector                                   /home/stoffer/esp8266/esp-open-sdk/sdk/lib/libmain.a(nmi-vector.o)
_Pri_3_HandlerAddress                             /home/stoffer/esp8266/esp-open-sdk/sdk/lib/libmain.a(nmi-vector.o)
_UserExceptionVector                              /home/stoffer/esp8266/esp-open-sdk/sdk/lib/libmain.a(user-vector.o)
_UserExceptionVector_1                            /home/stoffer/esp8266/esp-open-sdk/sdk/lib/libmain.a(user-vector.o)
__addsf3                                          /home/stoffer/esp8266/esp-open-sdk/sdk/lib/libphy.a(phy_chip_v6_ana.o)
__ashrdi3                                         /home/stoffer/esp8266/esp-open-sdk/sdk/lib/libgcc.a(_ashrdi3.o)
                                                  /home/stoffer/esp8266/esp-open-sdk/sdk/lib/libphy.a(phy_chip_v6.o)
__ctype_ptr__                                     /home/stoffer/esp8266/esp-open-sdk/xtensa-lx106-elf/lib/gcc/xtensa-lx106-elf/4.8.5/../../../../xtensa-lx106-elf/lib/libc.a(lib_a-ctype_.o)
                                                  /home/stoffer/esp8266/esp-open-sdk/xtensa-lx106-elf/lib/gcc/xtensa-lx106-elf/4.8.5/../../../../xtensa-lx106-elf/lib/libc.a(lib_a-strtol.o)
__divdf3                                          /home/stoffer/esp8266/esp-open-sdk/sdk/lib/libphy.a(phy_chip_v6.o)
                                                  /home/stoffer/esp8266/esp-open-sdk/sdk/lib/libphy.a(phy_chip_v6_ana.o)
__divdi3                                          /home/stoffer/esp8266/esp-open-sdk/sdk/lib/libphy.a(phy_chip_v6_cal.o)
__divsf3                                          /home/stoffer/esp8266/esp-open-sdk/sdk/lib/libgcc.a(_divsf3.o)
                                                  /home/stoffer/esp8266/esp-open-sdk/sdk/lib/libphy.a(phy_chip_v6.o)
                                                  /home/stoffer/esp8266/esp-open-sdk/sdk/lib/libphy.a(phy_chip_v6_ana.o)
__divsi3                                          /home/stoffer/esp8266/esp-open-sdk/sdk/lib/libwpa.a(wpa_auth.o)
                                                  /home/stoffer/esp8266/esp-open-sdk/sdk/lib/liblwip.a(tcp_in.o)
                                                  /home/stoffer/esp8266/esp-open-sdk/sdk/lib/liblwip.a(sntp.o)
                                                  /home/stoffer/esp8266/esp-open-sdk/sdk/lib/liblwip.a(dhcp.o)
                                                  /home/stoffer/esp8266/esp-open-sdk/sdk/lib/libnet80211.a(ieee80211.o)
                                                  /home/stoffer/esp8266/esp-open-sdk/sdk/lib/libpp.a(pp.o)
                                                  /home/stoffer/esp8266/esp-open-sdk/sdk/lib/libpp.a(pm.o)
                                                  /home/stoffer/esp8266/esp-open-sdk/sdk/lib/libphy.a(phy_chip_v6_cal.o)
                                                  /home/stoffer/esp8266/esp-open-sdk/sdk/lib/libphy.a(phy_chip_v6.o)
                                                  /home/stoffer/esp8266/esp-open-sdk/sdk/lib/libphy.a(phy_chip_v6_ana.o)
                                                  build/app_app.a(cgiwifi.o)
                                                  build/app_app.a(utils.o)
                                                  /home/stoffer/esp8266/esp-open-sdk/sdk/lib/libmain.a(user_interface.o)
__fixdfsi                                         /home/stoffer/esp8266/esp-open-sdk/sdk/lib/libphy.a(phy_chip_v6.o)
__fixsfsi                                         /home/stoffer/esp8266/esp-open-sdk/sdk/lib/libgcc.a(_fixsfsi.o)
                                                  /home/stoffer/esp8266/esp-open-sdk/sdk/lib/libphy.a(phy_chip_v6.o)
__fixunssfsi                                      /home/stoffer/esp8266/esp-open-sdk/sdk/lib/libphy.a(phy_chip_v6_ana.o)
__floatsidf                                       /home/stoffer/esp8266/esp-open-sdk/sdk/lib/libphy.a(phy_chip_v6.o)
__floatsisf                                       /home/stoffer/esp8266/esp-open-sdk/sdk/lib/libphy.a(phy_chip_v6.o)
                                                  /home/stoffer/esp8266/esp-open-sdk/sdk/lib/libphy.a(phy_chip_v6_ana.o)
__floatunsidf                                     /home/stoffer/esp8266/esp-open-sdk/sdk/lib/libphy.a(phy_chip_v6_ana.o)
__floatunsisf                                     /home/stoffer/esp8266/esp-open-sdk/sdk/lib/libphy.a(phy_chip_v6.o)
__modsi3                                          /home/stoffer/esp8266/esp-open-sdk/sdk/lib/libgcc.a(_modsi3.o)
                                                  /home/stoffer/esp8266/esp-open-sdk/sdk/lib/libwpa.a(wpa_auth.o)
                                                  /home/stoffer/esp8266/esp-open-sdk/sdk/lib/liblwip.a(sntp.o)
                                                  /home/stoffer/esp8266/esp-open-sdk/sdk/lib/libnet80211.a(ieee80211_ht.o)
                                                  /home/stoffer/esp8266/esp-open-sdk/sdk/lib/libphy.a(phy_chip_v6.o)
__muldf3                                          /home/stoffer/esp8266/esp-open-sdk/sdk/lib/libphy.a(phy_chip_v6.o)
__muldi3                                          /home/stoffer/esp8266/esp-open-sdk/sdk/lib/libphy.a(phy_chip_v6_cal.o)
                                                  /home/stoffer/esp8266/esp-open-sdk/sdk/lib/libphy.a(phy_chip_v6.o)
                                                  build/app_app.a(tinyprintf.o)
                                                  /home/stoffer/esp8266/esp-open-sdk/sdk/lib/libmain.a(user_interface.o)
__mulsf3                                          /home/stoffer/esp8266/esp-open-sdk/sdk/lib/libgcc.a(_mulsf3.o)
                                                  /home/stoffer/esp8266/esp-open-sdk/sdk/lib/libphy.a(phy_chip_v6.o)
                                                  /home/stoffer/esp8266/esp-open-sdk/sdk/lib/libphy.a(phy_chip_v6_ana.o)
__strtok_r                                        /home/stoffer/esp8266/esp-open-sdk/xtensa-lx106-elf/lib/gcc/xtensa-lx106-elf/4.8.5/../../../../xtensa-lx106-elf/lib/libc.a(lib_a-strtok_r.o)
                                                  /home/stoffer/esp8266/esp-open-sdk/xtensa-lx106-elf/lib/gcc/xtensa-lx106-elf/4.8.5/../../../../xtensa-lx106-elf/lib/libc.a(lib_a-strtok.o)
__subsf3                                          /home/stoffer/esp8266/esp-open-sdk/sdk/lib/libphy.a(phy_chip_v6_ana.o)
__truncdfsf2                                      /home/stoffer/esp8266/esp-open-sdk/sdk/lib/libphy.a(phy_chip_v6_ana.o)
__tznorth                                         /home/stoffer/esp8266/esp-open-sdk/sdk/lib/liblwip.a(sntp.o)
__tzyear                                          /home/stoffer/esp8266/esp-open-sdk/sdk/lib/liblwip.a(sntp.o)
__udivdi3                                         build/app_app.a(tinyprintf.o)
__udivsi3                                         /home/stoffer/esp8266/esp-open-sdk/sdk/lib/liblwip.a(timers.o)
                                                  /home/stoffer/esp8266/esp-open-sdk/sdk/lib/liblwip.a(tcp.o)
                                                  /home/stoffer/esp8266/esp-open-sdk/sdk/lib/liblwip.a(ip_addr.o)
                                                  /home/stoffer/esp8266/esp-open-sdk/sdk/lib/liblwip.a(espconn.o)
                                                  /home/stoffer/esp8266/esp-open-sdk/sdk/lib/liblwip.a(dhcp.o)
                                                  /home/stoffer/esp8266/esp-open-sdk/sdk/lib/libnet80211.a(ieee80211_hostap.o)
                                                  /home/stoffer/esp8266/esp-open-sdk/sdk/lib/libnet80211.a(ieee80211.o)
                                                  /home/stoffer/esp8266/esp-open-sdk/sdk/lib/libpp.a(wdev.o)
                                                  /home/stoffer/esp8266/esp-open-sdk/sdk/lib/libpp.a(trc.o)
                                                  /home/stoffer/esp8266/esp-open-sdk/sdk/lib/libpp.a(pp.o)
                                                  /home/stoffer/esp8266/esp-open-sdk/sdk/lib/libpp.a(pm_for_bcn_only_mode.o)
                                                  /home/stoffer/esp8266/esp-open-sdk/sdk/lib/libpp.a(pm.o)
                                                  /home/stoffer/esp8266/esp-open-sdk/sdk/lib/libphy.a(phy_sleep.o)
                                                  /home/stoffer/esp8266/esp-open-sdk/sdk/lib/libphy.a(phy_chip_v6_cal.o)
                                                  /home/stoffer/esp8266/esp-open-sdk/sdk/lib/libphy.a(phy_chip_v6.o)
                                                  /home/stoffer/esp8266/esp-open-sdk/xtensa-lx106-elf/lib/gcc/xtensa-lx106-elf/4.8.5/../../../../xtensa-lx106-elf/lib/libc.a(lib_a-strtol.o)
                                                  build/app_app.a(tinyprintf.o)
                                                  build/app_app.a(uart.o)
                                                  build/app_app.a(utils.o)
                                                  build/app_app.a(user_main.o)
                                                  /home/stoffer/esp8266/esp-open-sdk/sdk/lib/libmain.a(eagle_lib.o)
                                                  /home/stoffer/esp8266/esp-open-sdk/sdk/lib/libmain.a(user_interface.o)
                                                  /home/stoffer/esp8266/esp-open-sdk/sdk/lib/libmain.a(ets_timer.o)
                                                  /home/stoffer/esp8266/esp-open-sdk/sdk/lib/libmain.a(app_main.o)
__umoddi3                                         /home/stoffer/esp8266/esp-open-sdk/sdk/lib/libpp.a(pm.o)
                                                  build/app_app.a(tinyprintf.o)
__umodsi3                                         /home/stoffer/esp8266/esp-open-sdk/sdk/lib/liblwip.a(tcp.o)
                                                  /home/stoffer/esp8266/esp-open-sdk/sdk/lib/liblwip.a(ip_addr.o)
                                                  /home/stoffer/esp8266/esp-open-sdk/sdk/lib/liblwip.a(igmp.o)
                                                  /home/stoffer/esp8266/esp-open-sdk/sdk/lib/liblwip.a(espconn.o)
                                                  /home/stoffer/esp8266/esp-open-sdk/xtensa-lx106-elf/lib/gcc/xtensa-lx106-elf/4.8.5/../../../../xtensa-lx106-elf/lib/libc.a(lib_a-strtol.o)
                                                  build/app_app.a(tinyprintf.o)
                                                  build/app_app.a(utils.o)
                                                  /home/stoffer/esp8266/esp-open-sdk/sdk/lib/libmain.a(eagle_lib.o)
__wpa_send_eapol                                  /home/stoffer/esp8266/esp-open-sdk/sdk/lib/libwpa.a(wpa_auth.o)
_atoi_r                                           /home/stoffer/esp8266/esp-open-sdk/xtensa-lx106-elf/lib/gcc/xtensa-lx106-elf/4.8.5/../../../../xtensa-lx106-elf/lib/libc.a(lib_a-atoi.o)
_bss_end                                          /home/stoffer/esp8266/esp-open-sdk/sdk/lib/libmain.a(user_interface.o)
                                                  /home/stoffer/esp8266/esp-open-sdk/sdk/lib/libmain.a(app_main.o)
_bss_start                                        /home/stoffer/esp8266/esp-open-sdk/sdk/lib/libmain.a(user_interface.o)
                                                  /home/stoffer/esp8266/esp-open-sdk/sdk/lib/libmain.a(app_main.o)
_ctype_                                           /home/stoffer/esp8266/esp-open-sdk/xtensa-lx106-elf/lib/gcc/xtensa-lx106-elf/4.8.5/../../../../xtensa-lx106-elf/lib/libc.a(lib_a-ctype_.o)
_data_end                                         /home/stoffer/esp8266/esp-open-sdk/sdk/lib/libmain.a(user_interface.o)
_data_start                                       /home/stoffer/esp8266/esp-open-sdk/sdk/lib/libmain.a(user_interface.o)
_global_impure_ptr                                /home/stoffer/esp8266/esp-open-sdk/xtensa-lx106-elf/lib/gcc/xtensa-lx106-elf/4.8.5/../../../../xtensa-lx106-elf/lib/libc.a(lib_a-impure.o)
_heap_start                                       /home/stoffer/esp8266/esp-open-sdk/sdk/lib/libmain.a(user_interface.o)
                                                  /home/stoffer/esp8266/esp-open-sdk/sdk/lib/libmain.a(mem_manager.o)
_impure_ptr                                       /home/stoffer/esp8266/esp-open-sdk/xtensa-lx106-elf/lib/gcc/xtensa-lx106-elf/4.8.5/../../../../xtensa-lx106-elf/lib/libc.a(lib_a-impure.o)
                                                  /home/stoffer/esp8266/esp-open-sdk/xtensa-lx106-elf/lib/gcc/xtensa-lx106-elf/4.8.5/../../../../xtensa-lx106-elf/lib/libc.a(lib_a-strtol.o)
                                                  /home/stoffer/esp8266/esp-open-sdk/xtensa-lx106-elf/lib/gcc/xtensa-lx106-elf/4.8.5/../../../../xtensa-lx106-elf/lib/libc.a(lib_a-strtok.o)
_rodata_end                                       /home/stoffer/esp8266/esp-open-sdk/sdk/lib/libmain.a(user_interface.o)
_rodata_start                                     /home/stoffer/esp8266/esp-open-sdk/sdk/lib/libmain.a(user_interface.o)
_strtol_r                                         /home/stoffer/esp8266/esp-open-sdk/xtensa-lx106-elf/lib/gcc/xtensa-lx106-elf/4.8.5/../../../../xtensa-lx106-elf/lib/libc.a(lib_a-strtol.o)
                                                  /home/stoffer/esp8266/esp-open-sdk/xtensa-lx106-elf/lib/gcc/xtensa-lx106-elf/4.8.5/../../../../xtensa-lx106-elf/lib/libc.a(lib_a-atoi.o)
_xtos_set_exception_handler                       /home/stoffer/esp8266/esp-open-sdk/sdk/lib/libmain.a(app_main.o)
adc_rand_noise                                    /home/stoffer/esp8266/esp-open-sdk/sdk/lib/libphy.a(phy_chip_v6.o)
                                                  /home/stoffer/esp8266/esp-open-sdk/sdk/lib/libphy.a(phy_sleep.o)
aes_encrypt                                       /home/stoffer/esp8266/esp-open-sdk/sdk/lib/libwpa.a(aes-internal-enc.o)
                                                  /home/stoffer/esp8266/esp-open-sdk/sdk/lib/libwpa.a(aes-wrap.o)
aes_encrypt_deinit                                /home/stoffer/esp8266/esp-open-sdk/sdk/lib/libwpa.a(aes-internal-enc.o)
                                                  /home/stoffer/esp8266/esp-open-sdk/sdk/lib/libwpa.a(aes-wrap.o)
aes_encrypt_init                                  /home/stoffer/esp8266/esp-open-sdk/sdk/lib/libwpa.a(aes-internal-enc.o)
                                                  /home/stoffer/esp8266/esp-open-sdk/sdk/lib/libwpa.a(aes-wrap.o)
aes_key                                           build/app_app.a(crypto.o)
aes_unwrap                                        /home/stoffer/esp8266/esp-open-sdk/sdk/lib/libwpa.a(wpa.o)
aes_wrap                                          /home/stoffer/esp8266/esp-open-sdk/sdk/lib/libwpa.a(aes-wrap.o)
                                                  /home/stoffer/esp8266/esp-open-sdk/sdk/lib/libwpa.a(wpa_auth.o)
ant_switch_init                                   /home/stoffer/esp8266/esp-open-sdk/sdk/lib/libphy.a(phy_chip_v6.o)
atoi                                              /home/stoffer/esp8266/esp-open-sdk/xtensa-lx106-elf/lib/gcc/xtensa-lx106-elf/4.8.5/../../../../xtensa-lx106-elf/lib/libc.a(lib_a-atoi.o)
                                                  build/app_app.a(cgi.o)
                                                  build/app_app.a(cgiwifi.o)
                                                  build/app_app.a(utils.o)
                                                  build/app_app.a(httpd.o)
                                                  build/app_app.a(user_main.o)
auth_type                                         /home/stoffer/esp8266/esp-open-sdk/sdk/lib/libnet80211.a(ieee80211_scan.o)
                                                  /home/stoffer/esp8266/esp-open-sdk/sdk/lib/libnet80211.a(wl_cnx.o)
backup_ni_connect_status                          /home/stoffer/esp8266/esp-open-sdk/sdk/lib/libnet80211.a(wl_cnx.o)
bb_init                                           /home/stoffer/esp8266/esp-open-sdk/sdk/lib/libphy.a(phy.o)
bbpll_cal                                         /home/stoffer/esp8266/esp-open-sdk/sdk/lib/libphy.a(phy_chip_v6.o)
bbpll_cal_flag                                    /home/stoffer/esp8266/esp-open-sdk/sdk/lib/libphy.a(phy_chip_v6.o)
                                                  /home/stoffer/esp8266/esp-open-sdk/sdk/lib/libphy.a(phy_sleep.o)
bit_popcount                                      /home/stoffer/esp8266/esp-open-sdk/sdk/lib/libmain.a(eagle_lib.o)
                                                  /home/stoffer/esp8266/esp-open-sdk/sdk/lib/libpp.a(trc.o)
                                                  /home/stoffer/esp8266/esp-open-sdk/sdk/lib/libpp.a(if_hwctrl.o)
boot_time                                         build/app_app.a(unix_time.o)
buffed_eb_arr                                     /home/stoffer/esp8266/esp-open-sdk/sdk/lib/libpp.a(pp.o)
builtInUrls                                       build/app_app.a(httpd_user_init.o)
cal_rf_ana_gain                                   /home/stoffer/esp8266/esp-open-sdk/sdk/lib/libphy.a(phy_chip_v6_cal.o)
                                                  /home/stoffer/esp8266/esp-open-sdk/sdk/lib/libphy.a(phy_chip_v6.o)
call_user_start                                   /home/stoffer/esp8266/esp-open-sdk/sdk/lib/libmain.a(vector.o)
call_user_start_local                             /home/stoffer/esp8266/esp-open-sdk/sdk/lib/libmain.a(app_main.o)
                                                  /home/stoffer/esp8266/esp-open-sdk/sdk/lib/libmain.a(vector.o)
cannel_scan_connect_state                         /home/stoffer/esp8266/esp-open-sdk/sdk/lib/libnet80211.a(ieee80211_scan.o)
captdnsInit                                       build/app_app.a(captdns.o)
                                                  build/app_app.a(user_main.o)
ccit_crc16                                        build/app_app.a(utils.o)
                                                  build/app_app.a(config.o)
ccit_crc16_table                                  build/app_app.a(utils.o)
ccmp                                              /home/stoffer/esp8266/esp-open-sdk/sdk/lib/libnet80211.a(ieee80211_crypto_ccmp.o)
                                                  /home/stoffer/esp8266/esp-open-sdk/sdk/lib/libwpa.a(wpa_main.o)
                                                  /home/stoffer/esp8266/esp-open-sdk/sdk/lib/libwpa.a(wpa_auth.o)
                                                  /home/stoffer/esp8266/esp-open-sdk/sdk/lib/libnet80211.a(ieee80211_action.o)
                                                  /home/stoffer/esp8266/esp-open-sdk/sdk/lib/libnet80211.a(ieee80211_input.o)
cfg_load                                          build/app_app.a(config.o)
                                                  build/app_app.a(cgiwifi.o)
                                                  build/app_app.a(user_main.o)
cfg_save                                          build/app_app.a(config.o)
                                                  build/app_app.a(cgiwifi.o)
                                                  build/app_app.a(user_main.o)
cfg_save_defered                                  build/app_app.a(config.o)
cgiEspFsHook                                      build/app_app.a(httpdespfs.o)
                                                  build/app_app.a(httpd_user_init.o)
cgiEspFsTemplate                                  build/app_app.a(httpdespfs.o)
                                                  build/app_app.a(httpd_user_init.o)
cgiLed                                            build/app_app.a(cgi.o)
                                                  build/app_app.a(httpd_user_init.o)
cgiReadFlash                                      build/app_app.a(cgi.o)
                                                  build/app_app.a(httpd_user_init.o)
cgiRedirect                                       build/app_app.a(httpd.o)
                                                  build/app_app.a(httpd_user_init.o)
cgiSetup                                          build/app_app.a(cgiwifi.o)
                                                  build/app_app.a(httpd_user_init.o)
cgiWiFiScan                                       build/app_app.a(cgiwifi.o)
                                                  build/app_app.a(httpd_user_init.o)
cgiWifiAps                                        build/app_app.a(cgiwifi.o)
cgiWifiSetMode                                    build/app_app.a(cgiwifi.o)
                                                  build/app_app.a(httpd_user_init.o)
change_bbpll160                                   /home/stoffer/esp8266/esp-open-sdk/sdk/lib/libphy.a(phy_chip_v6.o)
                                                  /home/stoffer/esp8266/esp-open-sdk/sdk/lib/libphy.a(phy_sleep.o)
change_bbpll160_sleep                             /home/stoffer/esp8266/esp-open-sdk/sdk/lib/libphy.a(phy_chip_v6.o)
check_data_flag                                   /home/stoffer/esp8266/esp-open-sdk/sdk/lib/libphy.a(phy_chip_v6_ana.o)
check_data_func                                   /home/stoffer/esp8266/esp-open-sdk/sdk/lib/libphy.a(phy_chip_v6.o)
check_memleak_debug_enable                        /home/stoffer/esp8266/esp-open-sdk/sdk/lib/libmain.a(mem_manager.o)
check_result                                      /home/stoffer/esp8266/esp-open-sdk/sdk/lib/libphy.a(phy_chip_v6.o)
                                                  /home/stoffer/esp8266/esp-open-sdk/sdk/lib/libphy.a(phy_chip_v6_cal.o)
check_timeouts_timer                              /home/stoffer/esp8266/esp-open-sdk/sdk/lib/libmain.a(app_main.o)
                                                  /home/stoffer/esp8266/esp-open-sdk/sdk/lib/libpp.a(pm_for_bcn_only_mode.o)
                                                  /home/stoffer/esp8266/esp-open-sdk/sdk/lib/libpp.a(pm.o)
check_tx_pwr_cal                                  /home/stoffer/esp8266/esp-open-sdk/sdk/lib/libphy.a(phy_chip_v6.o)
chg_lslp_mem_opt_8266                             /home/stoffer/esp8266/esp-open-sdk/sdk/lib/libphy.a(phy_sleep.o)
chip6_phy_init_ctrl                               /home/stoffer/esp8266/esp-open-sdk/sdk/lib/libphy.a(phy_chip_v6.o)
                                                  /home/stoffer/esp8266/esp-open-sdk/sdk/lib/libpp.a(pp.o)
                                                  /home/stoffer/esp8266/esp-open-sdk/sdk/lib/libphy.a(phy_sleep.o)
                                                  /home/stoffer/esp8266/esp-open-sdk/sdk/lib/libphy.a(phy_chip_v6_cal.o)
                                                  /home/stoffer/esp8266/esp-open-sdk/sdk/lib/libphy.a(phy_chip_v6_ana.o)
chip6_sleep_params                                /home/stoffer/esp8266/esp-open-sdk/sdk/lib/libphy.a(phy_chip_v6.o)
                                                  /home/stoffer/esp8266/esp-open-sdk/sdk/lib/libphy.a(phy_sleep.o)
                                                  /home/stoffer/esp8266/esp-open-sdk/sdk/lib/libphy.a(phy_chip_v6_cal.o)
                                                  /home/stoffer/esp8266/esp-open-sdk/sdk/lib/libphy.a(phy_chip_v6_ana.o)
chip_60_set_channel                               /home/stoffer/esp8266/esp-open-sdk/sdk/lib/libphy.a(phy_chip_v6_ana.o)
                                                  /home/stoffer/esp8266/esp-open-sdk/sdk/lib/libphy.a(phy_chip_v6.o)
chip_v6_get_sense                                 /home/stoffer/esp8266/esp-open-sdk/sdk/lib/libphy.a(phy_chip_v6_unused.o)
chip_v6_initialize_bb                             /home/stoffer/esp8266/esp-open-sdk/sdk/lib/libphy.a(phy_chip_v6.o)
chip_v6_rf_init                                   /home/stoffer/esp8266/esp-open-sdk/sdk/lib/libphy.a(phy_chip_v6_ana.o)
                                                  /home/stoffer/esp8266/esp-open-sdk/sdk/lib/libphy.a(phy_chip_v6.o)
chip_v6_rxmax_ext                                 /home/stoffer/esp8266/esp-open-sdk/sdk/lib/libphy.a(phy_chip_v6.o)
                                                  /home/stoffer/esp8266/esp-open-sdk/sdk/lib/libnet80211.a(ieee80211_sta.o)
chip_v6_rxmax_ext_ana                             /home/stoffer/esp8266/esp-open-sdk/sdk/lib/libphy.a(phy_chip_v6_ana.o)
                                                  /home/stoffer/esp8266/esp-open-sdk/sdk/lib/libphy.a(phy_chip_v6.o)
chip_v6_rxmax_ext_dig                             /home/stoffer/esp8266/esp-open-sdk/sdk/lib/libphy.a(phy_chip_v6.o)
chip_v6_set_chan                                  /home/stoffer/esp8266/esp-open-sdk/sdk/lib/libphy.a(phy_chip_v6_ana.o)
                                                  /home/stoffer/esp8266/esp-open-sdk/sdk/lib/libphy.a(phy_chip_v6.o)
chip_v6_set_chan_misc                             /home/stoffer/esp8266/esp-open-sdk/sdk/lib/libphy.a(phy_chip_v6.o)
                                                  /home/stoffer/esp8266/esp-open-sdk/sdk/lib/libphy.a(phy_chip_v6_ana.o)
chip_v6_set_chan_offset                           /home/stoffer/esp8266/esp-open-sdk/sdk/lib/libphy.a(phy_chip_v6_ana.o)
                                                  /home/stoffer/esp8266/esp-open-sdk/sdk/lib/libnet80211.a(ieee80211_scan.o)
                                                  /home/stoffer/esp8266/esp-open-sdk/sdk/lib/libnet80211.a(ieee80211_hostap.o)
                                                  /home/stoffer/esp8266/esp-open-sdk/sdk/lib/libpp.a(pp.o)
                                                  /home/stoffer/esp8266/esp-open-sdk/sdk/lib/libmain.a(app_main.o)
chip_v6_set_chan_rx_cmp                           /home/stoffer/esp8266/esp-open-sdk/sdk/lib/libphy.a(phy_chip_v6.o)
chip_v6_set_chan_wakeup                           /home/stoffer/esp8266/esp-open-sdk/sdk/lib/libphy.a(phy_chip_v6_ana.o)
chip_v6_set_chanfreq                              /home/stoffer/esp8266/esp-open-sdk/sdk/lib/libphy.a(phy_chip_v6.o)
chip_v6_set_sense                                 /home/stoffer/esp8266/esp-open-sdk/sdk/lib/libphy.a(phy_chip_v6_unused.o)
                                                  /home/stoffer/esp8266/esp-open-sdk/sdk/lib/libphy.a(phy_chip_v6.o)
chip_v6_unset_chanfreq                            /home/stoffer/esp8266/esp-open-sdk/sdk/lib/libphy.a(phy_chip_v6_unused.o)
                                                  /home/stoffer/esp8266/esp-open-sdk/sdk/lib/libphy.a(phy_chip_v6.o)
chip_version                                      /home/stoffer/esp8266/esp-open-sdk/sdk/lib/libphy.a(phy_sleep.o)
chm_acquire_lock                                  /home/stoffer/esp8266/esp-open-sdk/sdk/lib/libnet80211.a(wl_chm.o)
                                                  /home/stoffer/esp8266/esp-open-sdk/sdk/lib/libnet80211.a(wl_cnx.o)
                                                  /home/stoffer/esp8266/esp-open-sdk/sdk/lib/libnet80211.a(ieee80211_scan.o)
chm_cancel_op                                     /home/stoffer/esp8266/esp-open-sdk/sdk/lib/libnet80211.a(wl_chm.o)
                                                  /home/stoffer/esp8266/esp-open-sdk/sdk/lib/libnet80211.a(ieee80211_scan.o)
chm_check_same_channel                            /home/stoffer/esp8266/esp-open-sdk/sdk/lib/libnet80211.a(wl_chm.o)
                                                  /home/stoffer/esp8266/esp-open-sdk/sdk/lib/libnet80211.a(ieee80211_power.o)
                                                  /home/stoffer/esp8266/esp-open-sdk/sdk/lib/libnet80211.a(ieee80211_output.o)
                                                  /home/stoffer/esp8266/esp-open-sdk/sdk/lib/libnet80211.a(ieee80211_hostap.o)
chm_end_op                                        /home/stoffer/esp8266/esp-open-sdk/sdk/lib/libnet80211.a(wl_chm.o)
chm_freq2index                                    /home/stoffer/esp8266/esp-open-sdk/sdk/lib/libnet80211.a(wl_chm.o)
chm_get_current_channel                           /home/stoffer/esp8266/esp-open-sdk/sdk/lib/libnet80211.a(wl_chm.o)
                                                  /home/stoffer/esp8266/esp-open-sdk/sdk/lib/libnet80211.a(wl_cnx.o)
                                                  /home/stoffer/esp8266/esp-open-sdk/sdk/lib/libnet80211.a(ieee80211_scan.o)
                                                  /home/stoffer/esp8266/esp-open-sdk/sdk/lib/libnet80211.a(ieee80211_hostap.o)
                                                  /home/stoffer/esp8266/esp-open-sdk/sdk/lib/libpp.a(wdev.o)
                                                  /home/stoffer/esp8266/esp-open-sdk/sdk/lib/libpp.a(pp.o)
                                                  /home/stoffer/esp8266/esp-open-sdk/sdk/lib/libpp.a(pm.o)
                                                  /home/stoffer/esp8266/esp-open-sdk/sdk/lib/libmain.a(user_interface.o)
chm_init                                          /home/stoffer/esp8266/esp-open-sdk/sdk/lib/libnet80211.a(wl_chm.o)
                                                  /home/stoffer/esp8266/esp-open-sdk/sdk/lib/libnet80211.a(ieee80211.o)
chm_release_lock                                  /home/stoffer/esp8266/esp-open-sdk/sdk/lib/libnet80211.a(wl_chm.o)
                                                  /home/stoffer/esp8266/esp-open-sdk/sdk/lib/libnet80211.a(wl_cnx.o)
                                                  /home/stoffer/esp8266/esp-open-sdk/sdk/lib/libnet80211.a(ieee80211_scan.o)
chm_return_home_channel                           /home/stoffer/esp8266/esp-open-sdk/sdk/lib/libnet80211.a(wl_chm.o)
                                                  /home/stoffer/esp8266/esp-open-sdk/sdk/lib/libnet80211.a(wl_cnx.o)
                                                  /home/stoffer/esp8266/esp-open-sdk/sdk/lib/libnet80211.a(ieee80211_scan.o)
chm_set_current_channel                           /home/stoffer/esp8266/esp-open-sdk/sdk/lib/libnet80211.a(wl_chm.o)
                                                  /home/stoffer/esp8266/esp-open-sdk/sdk/lib/libnet80211.a(ieee80211_hostap.o)
                                                  /home/stoffer/esp8266/esp-open-sdk/sdk/lib/libmain.a(user_interface.o)
chm_start_op                                      /home/stoffer/esp8266/esp-open-sdk/sdk/lib/libnet80211.a(wl_chm.o)
                                                  /home/stoffer/esp8266/esp-open-sdk/sdk/lib/libnet80211.a(wl_cnx.o)
                                                  /home/stoffer/esp8266/esp-open-sdk/sdk/lib/libnet80211.a(ieee80211_scan.o)
clockgate_watchdog                                /home/stoffer/esp8266/esp-open-sdk/sdk/lib/libphy.a(phy_sleep.o)
                                                  /home/stoffer/esp8266/esp-open-sdk/sdk/lib/libpp.a(pm_for_bcn_only_mode.o)
                                                  /home/stoffer/esp8266/esp-open-sdk/sdk/lib/libpp.a(pm.o)
                                                  /home/stoffer/esp8266/esp-open-sdk/sdk/lib/libmain.a(user_interface.o)
cnx_add_rc                                        /home/stoffer/esp8266/esp-open-sdk/sdk/lib/libnet80211.a(wl_cnx.o)
                                                  /home/stoffer/esp8266/esp-open-sdk/sdk/lib/libnet80211.a(ieee80211_scan.o)
cnx_assoc_timeout                                 /home/stoffer/esp8266/esp-open-sdk/sdk/lib/libnet80211.a(wl_cnx.o)
                                                  /home/stoffer/esp8266/esp-open-sdk/sdk/lib/libnet80211.a(ieee80211_sta.o)
cnx_attach                                        /home/stoffer/esp8266/esp-open-sdk/sdk/lib/libnet80211.a(wl_cnx.o)
                                                  /home/stoffer/esp8266/esp-open-sdk/sdk/lib/libmain.a(app_main.o)
cnx_auth_timeout                                  /home/stoffer/esp8266/esp-open-sdk/sdk/lib/libnet80211.a(wl_cnx.o)
                                                  /home/stoffer/esp8266/esp-open-sdk/sdk/lib/libnet80211.a(ieee80211_proto.o)
cnx_bss_alloc                                     /home/stoffer/esp8266/esp-open-sdk/sdk/lib/libnet80211.a(wl_cnx.o)
                                                  /home/stoffer/esp8266/esp-open-sdk/sdk/lib/libnet80211.a(ieee80211_scan.o)
cnx_connect_timeout                               /home/stoffer/esp8266/esp-open-sdk/sdk/lib/libnet80211.a(wl_cnx.o)
                                                  /home/stoffer/esp8266/esp-open-sdk/sdk/lib/libnet80211.a(ieee80211_sta.o)
                                                  /home/stoffer/esp8266/esp-open-sdk/sdk/lib/libnet80211.a(ieee80211_scan.o)
cnx_handshake_timeout                             /home/stoffer/esp8266/esp-open-sdk/sdk/lib/libnet80211.a(wl_cnx.o)
cnx_node_alloc                                    /home/stoffer/esp8266/esp-open-sdk/sdk/lib/libnet80211.a(wl_cnx.o)
                                                  /home/stoffer/esp8266/esp-open-sdk/sdk/lib/libnet80211.a(ieee80211_hostap.o)
cnx_node_join                                     /home/stoffer/esp8266/esp-open-sdk/sdk/lib/libnet80211.a(wl_cnx.o)
                                                  /home/stoffer/esp8266/esp-open-sdk/sdk/lib/libnet80211.a(ieee80211_hostap.o)
cnx_node_leave                                    /home/stoffer/esp8266/esp-open-sdk/sdk/lib/libnet80211.a(wl_cnx.o)
                                                  /home/stoffer/esp8266/esp-open-sdk/sdk/lib/libnet80211.a(ieee80211_hostap.o)
                                                  /home/stoffer/esp8266/esp-open-sdk/sdk/lib/libmain.a(user_interface.o)
cnx_node_remove                                   /home/stoffer/esp8266/esp-open-sdk/sdk/lib/libnet80211.a(wl_cnx.o)
cnx_node_search                                   /home/stoffer/esp8266/esp-open-sdk/sdk/lib/libnet80211.a(wl_cnx.o)
                                                  /home/stoffer/esp8266/esp-open-sdk/sdk/lib/libwpa.a(wpa_auth.o)
                                                  /home/stoffer/esp8266/esp-open-sdk/sdk/lib/libnet80211.a(ieee80211_output.o)
                                                  /home/stoffer/esp8266/esp-open-sdk/sdk/lib/libnet80211.a(ieee80211_hostap.o)
cnx_rc_search                                     /home/stoffer/esp8266/esp-open-sdk/sdk/lib/libnet80211.a(wl_cnx.o)
                                                  /home/stoffer/esp8266/esp-open-sdk/sdk/lib/libnet80211.a(ieee80211_scan.o)
cnx_rc_update_age                                 /home/stoffer/esp8266/esp-open-sdk/sdk/lib/libnet80211.a(wl_cnx.o)
                                                  /home/stoffer/esp8266/esp-open-sdk/sdk/lib/libnet80211.a(ieee80211_scan.o)
cnx_rc_update_rssi                                /home/stoffer/esp8266/esp-open-sdk/sdk/lib/libnet80211.a(wl_cnx.o)
                                                  /home/stoffer/esp8266/esp-open-sdk/sdk/lib/libnet80211.a(ieee80211_scan.o)
cnx_rc_update_state_metric                        /home/stoffer/esp8266/esp-open-sdk/sdk/lib/libnet80211.a(wl_cnx.o)
                                                  /home/stoffer/esp8266/esp-open-sdk/sdk/lib/libnet80211.a(ieee80211_scan.o)
cnx_remove_all_rc                                 /home/stoffer/esp8266/esp-open-sdk/sdk/lib/libnet80211.a(wl_cnx.o)
                                                  /home/stoffer/esp8266/esp-open-sdk/sdk/lib/libnet80211.a(ieee80211_sta.o)
cnx_remove_rc                                     /home/stoffer/esp8266/esp-open-sdk/sdk/lib/libnet80211.a(wl_cnx.o)
                                                  /home/stoffer/esp8266/esp-open-sdk/sdk/lib/libnet80211.a(ieee80211_scan.o)
cnx_sta_associated                                /home/stoffer/esp8266/esp-open-sdk/sdk/lib/libnet80211.a(wl_cnx.o)
                                                  /home/stoffer/esp8266/esp-open-sdk/sdk/lib/libnet80211.a(ieee80211_sta.o)
cnx_sta_connect_cmd                               /home/stoffer/esp8266/esp-open-sdk/sdk/lib/libnet80211.a(wl_cnx.o)
                                                  /home/stoffer/esp8266/esp-open-sdk/sdk/lib/libmain.a(user_interface.o)
cnx_sta_connect_led_timer_cb                      /home/stoffer/esp8266/esp-open-sdk/sdk/lib/libnet80211.a(wl_cnx.o)
cnx_sta_leave                                     /home/stoffer/esp8266/esp-open-sdk/sdk/lib/libnet80211.a(wl_cnx.o)
                                                  /home/stoffer/esp8266/esp-open-sdk/sdk/lib/libnet80211.a(ieee80211_sta.o)
cnx_sta_scan_cmd                                  /home/stoffer/esp8266/esp-open-sdk/sdk/lib/libnet80211.a(wl_cnx.o)
                                                  /home/stoffer/esp8266/esp-open-sdk/sdk/lib/libmain.a(user_interface.o)
cnx_start_handoff_cb                              /home/stoffer/esp8266/esp-open-sdk/sdk/lib/libnet80211.a(wl_cnx.o)
cnx_update_bss                                    /home/stoffer/esp8266/esp-open-sdk/sdk/lib/libnet80211.a(wl_cnx.o)
                                                  /home/stoffer/esp8266/esp-open-sdk/sdk/lib/libnet80211.a(ieee80211_scan.o)
cnx_update_bss_more                               /home/stoffer/esp8266/esp-open-sdk/sdk/lib/libnet80211.a(wl_cnx.o)
                                                  /home/stoffer/esp8266/esp-open-sdk/sdk/lib/libnet80211.a(ieee80211_scan.o)
config_pass                                       build/app_app.a(wifi.o)
config_save_timer_func                            build/app_app.a(config.o)
config_save_timer_running                         build/app_app.a(config.o)
config_ssid                                       build/app_app.a(wifi.o)
connect_scan_flag                                 /home/stoffer/esp8266/esp-open-sdk/sdk/lib/libnet80211.a(ieee80211_scan.o)
correct_rf_ana_gain                               /home/stoffer/esp8266/esp-open-sdk/sdk/lib/libphy.a(phy_chip_v6_cal.o)
counter                                           build/app_app.a(user_main.o)
cpu_overclock                                     /home/stoffer/esp8266/esp-open-sdk/sdk/lib/libmain.a(user_interface.o)
current_energy                                    build/app_app.a(user_main.o)
current_header                                    /home/stoffer/esp8266/esp-open-sdk/sdk/lib/liblwip.a(ip.o)
current_iphdr_dest                                /home/stoffer/esp8266/esp-open-sdk/sdk/lib/liblwip.a(ip.o)
                                                  /home/stoffer/esp8266/esp-open-sdk/sdk/lib/liblwip.a(icmp.o)
                                                  /home/stoffer/esp8266/esp-open-sdk/sdk/lib/liblwip.a(udp.o)
                                                  /home/stoffer/esp8266/esp-open-sdk/sdk/lib/liblwip.a(tcp_in.o)
                                                  /home/stoffer/esp8266/esp-open-sdk/sdk/lib/liblwip.a(raw.o)
current_iphdr_src                                 /home/stoffer/esp8266/esp-open-sdk/sdk/lib/liblwip.a(ip.o)
                                                  /home/stoffer/esp8266/esp-open-sdk/sdk/lib/liblwip.a(icmp.o)
                                                  /home/stoffer/esp8266/esp-open-sdk/sdk/lib/liblwip.a(udp.o)
                                                  /home/stoffer/esp8266/esp-open-sdk/sdk/lib/liblwip.a(tcp_in.o)
                                                  /home/stoffer/esp8266/esp-open-sdk/sdk/lib/liblwip.a(raw.o)
current_netif                                     /home/stoffer/esp8266/esp-open-sdk/sdk/lib/liblwip.a(ip.o)
current_unix_time                                 build/app_app.a(unix_time.o)
dbg_stop_hw_wdt                                   /home/stoffer/esp8266/esp-open-sdk/sdk/lib/libpp.a(pp.o)
dbg_stop_sw_wdt                                   /home/stoffer/esp8266/esp-open-sdk/sdk/lib/libpp.a(pp.o)
dbg_timer_flag                                    /home/stoffer/esp8266/esp-open-sdk/sdk/lib/libmain.a(ets_timer.o)
dcoindex2txbbgain                                 /home/stoffer/esp8266/esp-open-sdk/sdk/lib/libphy.a(phy_chip_v6_cal.o)
debug_timer                                       /home/stoffer/esp8266/esp-open-sdk/sdk/lib/libmain.a(ets_timer.o)
debug_timerfn                                     /home/stoffer/esp8266/esp-open-sdk/sdk/lib/libmain.a(ets_timer.o)
decimal_number_length                             build/app_app.a(utils.o)
                                                  build/app_app.a(user_main.o)
decrypt_aes_hmac_combined                         build/app_app.a(crypto.o)
                                                  build/app_app.a(user_main.o)
deep_sleep_flag                                   /home/stoffer/esp8266/esp-open-sdk/sdk/lib/libmain.a(user_interface.o)
deep_sleep_set_option                             /home/stoffer/esp8266/esp-open-sdk/sdk/lib/libphy.a(phy_chip_v6.o)
                                                  /home/stoffer/esp8266/esp-open-sdk/sdk/lib/libmain.a(user_interface.o)
default_certificate                               build/app_app.a(mqtt.o)
default_certificate_len                           build/app_app.a(mqtt.o)
default_hostname                                  /home/stoffer/esp8266/esp-open-sdk/sdk/lib/libmain.a(eagle_lwip_if.o)
                                                  /home/stoffer/esp8266/esp-open-sdk/sdk/lib/libmain.a(user_interface.o)
default_interface                                 /home/stoffer/esp8266/esp-open-sdk/sdk/lib/libmain.a(user_interface.o)
                                                  /home/stoffer/esp8266/esp-open-sdk/sdk/lib/liblwip.a(espconn_udp.o)
default_private_key                               build/app_app.a(mqtt.o)
default_private_key_len                           build/app_app.a(mqtt.o)
default_ssid                                      /home/stoffer/esp8266/esp-open-sdk/sdk/lib/libmain.a(user_interface.o)
dhcp_arp_reply                                    /home/stoffer/esp8266/esp-open-sdk/sdk/lib/liblwip.a(dhcp.o)
                                                  /home/stoffer/esp8266/esp-open-sdk/sdk/lib/liblwip.a(etharp.o)
dhcp_bind_check                                   /home/stoffer/esp8266/esp-open-sdk/sdk/lib/libwpa.a(wpa_main.o)
dhcp_cleanup                                      /home/stoffer/esp8266/esp-open-sdk/sdk/lib/liblwip.a(dhcp.o)
                                                  /home/stoffer/esp8266/esp-open-sdk/sdk/lib/libnet80211.a(wl_cnx.o)
                                                  /home/stoffer/esp8266/esp-open-sdk/sdk/lib/libmain.a(user_interface.o)
dhcp_coarse_tmr                                   /home/stoffer/esp8266/esp-open-sdk/sdk/lib/liblwip.a(dhcp.o)
                                                  /home/stoffer/esp8266/esp-open-sdk/sdk/lib/liblwip.a(timers.o)
dhcp_fine_tmr                                     /home/stoffer/esp8266/esp-open-sdk/sdk/lib/liblwip.a(dhcp.o)
                                                  /home/stoffer/esp8266/esp-open-sdk/sdk/lib/liblwip.a(timers.o)
dhcp_inform                                       /home/stoffer/esp8266/esp-open-sdk/sdk/lib/liblwip.a(dhcp.o)
dhcp_network_changed                              /home/stoffer/esp8266/esp-open-sdk/sdk/lib/liblwip.a(dhcp.o)
                                                  /home/stoffer/esp8266/esp-open-sdk/sdk/lib/liblwip.a(netif.o)
dhcp_release                                      /home/stoffer/esp8266/esp-open-sdk/sdk/lib/liblwip.a(dhcp.o)
                                                  /home/stoffer/esp8266/esp-open-sdk/sdk/lib/libnet80211.a(wl_cnx.o)
dhcp_renew                                        /home/stoffer/esp8266/esp-open-sdk/sdk/lib/liblwip.a(dhcp.o)
dhcp_rx_options_given                             /home/stoffer/esp8266/esp-open-sdk/sdk/lib/liblwip.a(dhcp.o)
dhcp_rx_options_val                               /home/stoffer/esp8266/esp-open-sdk/sdk/lib/liblwip.a(dhcp.o)
dhcp_set_struct                                   /home/stoffer/esp8266/esp-open-sdk/sdk/lib/liblwip.a(dhcp.o)
dhcp_start                                        /home/stoffer/esp8266/esp-open-sdk/sdk/lib/liblwip.a(dhcp.o)
                                                  /home/stoffer/esp8266/esp-open-sdk/sdk/lib/libwpa.a(wpa_main.o)
                                                  /home/stoffer/esp8266/esp-open-sdk/sdk/lib/libmain.a(user_interface.o)
dhcp_stop                                         /home/stoffer/esp8266/esp-open-sdk/sdk/lib/liblwip.a(dhcp.o)
                                                  /home/stoffer/esp8266/esp-open-sdk/sdk/lib/libnet80211.a(wl_cnx.o)
                                                  /home/stoffer/esp8266/esp-open-sdk/sdk/lib/libmain.a(user_interface.o)
dhcpc_flag                                        /home/stoffer/esp8266/esp-open-sdk/sdk/lib/libmain.a(user_interface.o)
                                                  /home/stoffer/esp8266/esp-open-sdk/sdk/lib/libwpa.a(wpa_main.o)
dhcps_coarse_tmr                                  /home/stoffer/esp8266/esp-open-sdk/sdk/lib/liblwip.a(dhcpserver.o)
                                                  /home/stoffer/esp8266/esp-open-sdk/sdk/lib/liblwip.a(timers.o)
dhcps_flag                                        /home/stoffer/esp8266/esp-open-sdk/sdk/lib/libmain.a(user_interface.o)
                                                  /home/stoffer/esp8266/esp-open-sdk/sdk/lib/libmain.a(eagle_lwip_if.o)
dhcps_lease_time                                  /home/stoffer/esp8266/esp-open-sdk/sdk/lib/liblwip.a(dhcpserver.o)
dhcps_start                                       /home/stoffer/esp8266/esp-open-sdk/sdk/lib/liblwip.a(dhcpserver.o)
                                                  /home/stoffer/esp8266/esp-open-sdk/sdk/lib/libmain.a(eagle_lwip_if.o)
                                                  /home/stoffer/esp8266/esp-open-sdk/sdk/lib/libmain.a(user_interface.o)
dhcps_stop                                        /home/stoffer/esp8266/esp-open-sdk/sdk/lib/liblwip.a(dhcpserver.o)
                                                  /home/stoffer/esp8266/esp-open-sdk/sdk/lib/libmain.a(eagle_lwip_if.o)
                                                  /home/stoffer/esp8266/esp-open-sdk/sdk/lib/libmain.a(user_interface.o)
divide                                            /home/stoffer/esp8266/esp-open-sdk/sdk/lib/libmain.a(eagle_lib.o)
dns_gethostbyname                                 /home/stoffer/esp8266/esp-open-sdk/sdk/lib/liblwip.a(dns.o)
                                                  /home/stoffer/esp8266/esp-open-sdk/sdk/lib/liblwip.a(sntp.o)
                                                  /home/stoffer/esp8266/esp-open-sdk/sdk/lib/liblwip.a(espconn.o)
dns_getserver                                     /home/stoffer/esp8266/esp-open-sdk/sdk/lib/liblwip.a(dns.o)
dns_init                                          /home/stoffer/esp8266/esp-open-sdk/sdk/lib/liblwip.a(dns.o)
                                                  /home/stoffer/esp8266/esp-open-sdk/sdk/lib/liblwip.a(init.o)
dns_setserver                                     /home/stoffer/esp8266/esp-open-sdk/sdk/lib/liblwip.a(dns.o)
                                                  /home/stoffer/esp8266/esp-open-sdk/sdk/lib/liblwip.a(espconn.o)
                                                  /home/stoffer/esp8266/esp-open-sdk/sdk/lib/liblwip.a(dhcp.o)
dns_tmr                                           /home/stoffer/esp8266/esp-open-sdk/sdk/lib/liblwip.a(dns.o)
                                                  /home/stoffer/esp8266/esp-open-sdk/sdk/lib/liblwip.a(timers.o)
do_noisefloor                                     /home/stoffer/esp8266/esp-open-sdk/sdk/lib/libphy.a(phy_chip_v6.o)
do_noisefloor_lsleep_v50                          /home/stoffer/esp8266/esp-open-sdk/sdk/lib/libphy.a(phy_chip_v6.o)
do_pwctrl_flag                                    /home/stoffer/esp8266/esp-open-sdk/sdk/lib/libphy.a(phy_chip_v6.o)
                                                  /home/stoffer/esp8266/esp-open-sdk/sdk/lib/libphy.a(phy_sleep.o)
done_cb                                           /home/stoffer/esp8266/esp-open-sdk/sdk/lib/libmain.a(user_interface.o)
                                                  /home/stoffer/esp8266/esp-open-sdk/sdk/lib/libmain.a(app_main.o)
dpd_bypass_original                               /home/stoffer/esp8266/esp-open-sdk/sdk/lib/libphy.a(phy_chip_v6.o)
dpd_mem_write                                     /home/stoffer/esp8266/esp-open-sdk/sdk/lib/libphy.a(phy_chip_v6_cal.o)
dpd_scale_set                                     /home/stoffer/esp8266/esp-open-sdk/sdk/lib/libphy.a(phy_chip_v6_cal.o)
                                                  /home/stoffer/esp8266/esp-open-sdk/sdk/lib/libphy.a(phy_chip_v6.o)
dup_binstr                                        /home/stoffer/esp8266/esp-open-sdk/sdk/lib/libwpa.a(common.o)
eagle_auth_done                                   /home/stoffer/esp8266/esp-open-sdk/sdk/lib/libwpa.a(wpa_main.o)
                                                  /home/stoffer/esp8266/esp-open-sdk/sdk/lib/libnet80211.a(ieee80211_sta.o)
eagle_lwip_getif                                  /home/stoffer/esp8266/esp-open-sdk/sdk/lib/libmain.a(eagle_lwip_if.o)
                                                  /home/stoffer/esp8266/esp-open-sdk/sdk/lib/liblwip.a(ip.o)
                                                  /home/stoffer/esp8266/esp-open-sdk/sdk/lib/liblwip.a(espconn_udp.o)
                                                  /home/stoffer/esp8266/esp-open-sdk/sdk/lib/liblwip.a(dhcpserver.o)
                                                  /home/stoffer/esp8266/esp-open-sdk/sdk/lib/libmain.a(user_interface.o)
eagle_lwip_if_alloc                               /home/stoffer/esp8266/esp-open-sdk/sdk/lib/libmain.a(eagle_lwip_if.o)
                                                  /home/stoffer/esp8266/esp-open-sdk/sdk/lib/libnet80211.a(ieee80211_sta.o)
                                                  /home/stoffer/esp8266/esp-open-sdk/sdk/lib/libnet80211.a(ieee80211_hostap.o)
eagle_lwip_if_free                                /home/stoffer/esp8266/esp-open-sdk/sdk/lib/libmain.a(eagle_lwip_if.o)
                                                  /home/stoffer/esp8266/esp-open-sdk/sdk/lib/libnet80211.a(ieee80211_hostap.o)
                                                  /home/stoffer/esp8266/esp-open-sdk/sdk/lib/libmain.a(user_interface.o)
eapol_txcb                                        /home/stoffer/esp8266/esp-open-sdk/sdk/lib/libwpa.a(wpa.o)
                                                  /home/stoffer/esp8266/esp-open-sdk/sdk/lib/libwpa.a(wpa_main.o)
eloop_cancel_timeout                              /home/stoffer/esp8266/esp-open-sdk/sdk/lib/libwpa.a(wpa_debug.o)
                                                  /home/stoffer/esp8266/esp-open-sdk/sdk/lib/libwpa.a(wpa.o)
                                                  /home/stoffer/esp8266/esp-open-sdk/sdk/lib/libwpa.a(wpa_auth.o)
eloop_register_timeout                            /home/stoffer/esp8266/esp-open-sdk/sdk/lib/libwpa.a(wpa_debug.o)
                                                  /home/stoffer/esp8266/esp-open-sdk/sdk/lib/libwpa.a(wpa.o)
                                                  /home/stoffer/esp8266/esp-open-sdk/sdk/lib/libwpa.a(wpa_auth.o)
encrypt_aes_hmac_combined                         build/app_app.a(crypto.o)
                                                  build/app_app.a(user_main.o)
esf_buf_alloc                                     /home/stoffer/esp8266/esp-open-sdk/sdk/lib/libpp.a(esf_buf.o)
                                                  /home/stoffer/esp8266/esp-open-sdk/sdk/lib/libnet80211.a(ieee80211_output.o)
                                                  /home/stoffer/esp8266/esp-open-sdk/sdk/lib/libnet80211.a(ieee80211_ets.o)
esf_buf_recycle                                   /home/stoffer/esp8266/esp-open-sdk/sdk/lib/libpp.a(esf_buf.o)
                                                  /home/stoffer/esp8266/esp-open-sdk/sdk/lib/libnet80211.a(ieee80211_power.o)
                                                  /home/stoffer/esp8266/esp-open-sdk/sdk/lib/libnet80211.a(ieee80211_output.o)
                                                  /home/stoffer/esp8266/esp-open-sdk/sdk/lib/libnet80211.a(ieee80211_hostap.o)
                                                  /home/stoffer/esp8266/esp-open-sdk/sdk/lib/libpp.a(pp.o)
esf_buf_setup                                     /home/stoffer/esp8266/esp-open-sdk/sdk/lib/libpp.a(esf_buf.o)
                                                  /home/stoffer/esp8266/esp-open-sdk/sdk/lib/libpp.a(pp.o)
esf_rx_buf_alloc                                  /home/stoffer/esp8266/esp-open-sdk/sdk/lib/libpp.a(esf_buf.o)
                                                  /home/stoffer/esp8266/esp-open-sdk/sdk/lib/libpp.a(wdev.o)
espFsClose                                        build/app_app.a(espfs.o)
                                                  build/app_app.a(httpdespfs.o)
espFsOpen                                         build/app_app.a(espfs.o)
                                                  build/app_app.a(httpdespfs.o)
espFsRead                                         build/app_app.a(espfs.o)
                                                  build/app_app.a(httpdespfs.o)
espconn_TaskQueue                                 /home/stoffer/esp8266/esp-open-sdk/sdk/lib/liblwip.a(espconn_tcp.o)
espconn_abort                                     /home/stoffer/esp8266/esp-open-sdk/sdk/lib/liblwip.a(espconn.o)
espconn_accept                                    /home/stoffer/esp8266/esp-open-sdk/sdk/lib/liblwip.a(espconn.o)
                                                  build/app_app.a(httpd.o)
espconn_clear_opt                                 /home/stoffer/esp8266/esp-open-sdk/sdk/lib/liblwip.a(espconn.o)
espconn_connect                                   /home/stoffer/esp8266/esp-open-sdk/sdk/lib/liblwip.a(espconn.o)
                                                  build/app_app.a(mqtt.o)
espconn_copy_partial                              /home/stoffer/esp8266/esp-open-sdk/sdk/lib/liblwip.a(espconn.o)
                                                  /home/stoffer/esp8266/esp-open-sdk/sdk/lib/liblwip.a(espconn_tcp.o)
espconn_create                                    /home/stoffer/esp8266/esp-open-sdk/sdk/lib/liblwip.a(espconn.o)
                                                  build/app_app.a(captdns.o)
espconn_delete                                    /home/stoffer/esp8266/esp-open-sdk/sdk/lib/liblwip.a(espconn.o)
                                                  build/app_app.a(mqtt.o)
                                                  build/app_app.a(httpd.o)
espconn_disconnect                                /home/stoffer/esp8266/esp-open-sdk/sdk/lib/liblwip.a(espconn.o)
                                                  build/app_app.a(mqtt.o)
                                                  build/app_app.a(httpd.o)
espconn_dns_setserver                             /home/stoffer/esp8266/esp-open-sdk/sdk/lib/liblwip.a(espconn.o)
espconn_find_connection                           /home/stoffer/esp8266/esp-open-sdk/sdk/lib/liblwip.a(espconn.o)
                                                  /home/stoffer/esp8266/esp-open-sdk/sdk/lib/liblwip.a(espconn_tcp.o)
espconn_find_current_pcb                          /home/stoffer/esp8266/esp-open-sdk/sdk/lib/liblwip.a(espconn_tcp.o)
espconn_get_connection_info                       /home/stoffer/esp8266/esp-open-sdk/sdk/lib/liblwip.a(espconn.o)
                                                  /home/stoffer/esp8266/esp-open-sdk/sdk/lib/liblwip.a(espconn_tcp.o)
                                                  build/app_app.a(captdns.o)
espconn_get_keepalive                             /home/stoffer/esp8266/esp-open-sdk/sdk/lib/liblwip.a(espconn.o)
espconn_get_packet_info                           /home/stoffer/esp8266/esp-open-sdk/sdk/lib/liblwip.a(espconn.o)
espconn_gethostbyname                             /home/stoffer/esp8266/esp-open-sdk/sdk/lib/liblwip.a(espconn.o)
                                                  build/app_app.a(mqtt.o)
espconn_igmp_join                                 /home/stoffer/esp8266/esp-open-sdk/sdk/lib/liblwip.a(espconn_udp.o)
espconn_igmp_leave                                /home/stoffer/esp8266/esp-open-sdk/sdk/lib/liblwip.a(espconn_udp.o)
espconn_init                                      /home/stoffer/esp8266/esp-open-sdk/sdk/lib/liblwip.a(espconn_tcp.o)
                                                  /home/stoffer/esp8266/esp-open-sdk/sdk/lib/libmain.a(app_main.o)
espconn_kill_oldest_pcb                           /home/stoffer/esp8266/esp-open-sdk/sdk/lib/liblwip.a(espconn_tcp.o)
espconn_kill_pcb                                  /home/stoffer/esp8266/esp-open-sdk/sdk/lib/liblwip.a(espconn_tcp.o)
espconn_list_creat                                /home/stoffer/esp8266/esp-open-sdk/sdk/lib/liblwip.a(espconn.o)
                                                  /home/stoffer/esp8266/esp-open-sdk/sdk/lib/liblwip.a(espconn_udp.o)
                                                  /home/stoffer/esp8266/esp-open-sdk/sdk/lib/liblwip.a(espconn_tcp.o)
espconn_list_delete                               /home/stoffer/esp8266/esp-open-sdk/sdk/lib/liblwip.a(espconn.o)
                                                  /home/stoffer/esp8266/esp-open-sdk/sdk/lib/liblwip.a(espconn_udp.o)
                                                  /home/stoffer/esp8266/esp-open-sdk/sdk/lib/liblwip.a(espconn_tcp.o)
espconn_pbuf_create                               /home/stoffer/esp8266/esp-open-sdk/sdk/lib/liblwip.a(espconn.o)
espconn_pbuf_delete                               /home/stoffer/esp8266/esp-open-sdk/sdk/lib/liblwip.a(espconn.o)
                                                  /home/stoffer/esp8266/esp-open-sdk/sdk/lib/liblwip.a(espconn_tcp.o)
espconn_port                                      /home/stoffer/esp8266/esp-open-sdk/sdk/lib/liblwip.a(espconn.o)
                                                  build/app_app.a(mqtt.o)
espconn_recv_hold                                 /home/stoffer/esp8266/esp-open-sdk/sdk/lib/liblwip.a(espconn_tcp.o)
espconn_recv_unhold                               /home/stoffer/esp8266/esp-open-sdk/sdk/lib/liblwip.a(espconn_tcp.o)
espconn_regist_connectcb                          /home/stoffer/esp8266/esp-open-sdk/sdk/lib/liblwip.a(espconn.o)
                                                  build/app_app.a(mqtt.o)
                                                  build/app_app.a(httpd.o)
espconn_regist_disconcb                           /home/stoffer/esp8266/esp-open-sdk/sdk/lib/liblwip.a(espconn.o)
                                                  build/app_app.a(mqtt.o)
                                                  build/app_app.a(httpd.o)
espconn_regist_reconcb                            /home/stoffer/esp8266/esp-open-sdk/sdk/lib/liblwip.a(espconn.o)
                                                  build/app_app.a(mqtt.o)
                                                  build/app_app.a(httpd.o)
espconn_regist_recvcb                             /home/stoffer/esp8266/esp-open-sdk/sdk/lib/liblwip.a(espconn.o)
                                                  build/app_app.a(mqtt.o)
                                                  build/app_app.a(httpd.o)
                                                  build/app_app.a(captdns.o)
espconn_regist_sentcb                             /home/stoffer/esp8266/esp-open-sdk/sdk/lib/liblwip.a(espconn.o)
                                                  build/app_app.a(mqtt.o)
                                                  build/app_app.a(httpd.o)
espconn_regist_time                               /home/stoffer/esp8266/esp-open-sdk/sdk/lib/liblwip.a(espconn.o)
espconn_regist_write_finish                       /home/stoffer/esp8266/esp-open-sdk/sdk/lib/liblwip.a(espconn.o)
espconn_send                                      /home/stoffer/esp8266/esp-open-sdk/sdk/lib/liblwip.a(espconn.o)
                                                  build/app_app.a(mqtt.o)
espconn_sendto                                    /home/stoffer/esp8266/esp-open-sdk/sdk/lib/liblwip.a(espconn.o)
                                                  build/app_app.a(captdns.o)
espconn_sent                                      /home/stoffer/esp8266/esp-open-sdk/sdk/lib/liblwip.a(espconn.o)
                                                  build/app_app.a(httpdespfs.o)
                                                  build/app_app.a(cgi.o)
                                                  build/app_app.a(httpd.o)
espconn_set_keepalive                             /home/stoffer/esp8266/esp-open-sdk/sdk/lib/liblwip.a(espconn.o)
                                                  build/app_app.a(mqtt.o)
espconn_set_opt                                   /home/stoffer/esp8266/esp-open-sdk/sdk/lib/liblwip.a(espconn.o)
                                                  build/app_app.a(mqtt.o)
espconn_tcp_client                                /home/stoffer/esp8266/esp-open-sdk/sdk/lib/liblwip.a(espconn_tcp.o)
                                                  /home/stoffer/esp8266/esp-open-sdk/sdk/lib/liblwip.a(espconn.o)
espconn_tcp_delete                                /home/stoffer/esp8266/esp-open-sdk/sdk/lib/liblwip.a(espconn_tcp.o)
                                                  /home/stoffer/esp8266/esp-open-sdk/sdk/lib/liblwip.a(espconn.o)
espconn_tcp_disconnect                            /home/stoffer/esp8266/esp-open-sdk/sdk/lib/liblwip.a(espconn_tcp.o)
                                                  /home/stoffer/esp8266/esp-open-sdk/sdk/lib/liblwip.a(espconn.o)
espconn_tcp_get_max_con                           /home/stoffer/esp8266/esp-open-sdk/sdk/lib/liblwip.a(espconn.o)
espconn_tcp_get_max_con_allow                     /home/stoffer/esp8266/esp-open-sdk/sdk/lib/liblwip.a(espconn.o)
                                                  /home/stoffer/esp8266/esp-open-sdk/sdk/lib/liblwip.a(espconn_tcp.o)
espconn_tcp_get_max_retran                        /home/stoffer/esp8266/esp-open-sdk/sdk/lib/liblwip.a(espconn.o)
espconn_tcp_get_max_syn                           /home/stoffer/esp8266/esp-open-sdk/sdk/lib/liblwip.a(espconn.o)
espconn_tcp_get_mss                               /home/stoffer/esp8266/esp-open-sdk/sdk/lib/liblwip.a(espconn.o)
espconn_tcp_get_wnd                               /home/stoffer/esp8266/esp-open-sdk/sdk/lib/liblwip.a(espconn.o)
espconn_tcp_memp_free                             /home/stoffer/esp8266/esp-open-sdk/sdk/lib/liblwip.a(espconn_tcp.o)
espconn_tcp_sent                                  /home/stoffer/esp8266/esp-open-sdk/sdk/lib/liblwip.a(espconn_tcp.o)
espconn_tcp_server                                /home/stoffer/esp8266/esp-open-sdk/sdk/lib/liblwip.a(espconn_tcp.o)
                                                  /home/stoffer/esp8266/esp-open-sdk/sdk/lib/liblwip.a(espconn.o)
espconn_tcp_set_buf_count                         /home/stoffer/esp8266/esp-open-sdk/sdk/lib/liblwip.a(espconn.o)
                                                  /home/stoffer/esp8266/esp-open-sdk/sdk/lib/liblwip.a(espconn_tcp.o)
espconn_tcp_set_max_con                           /home/stoffer/esp8266/esp-open-sdk/sdk/lib/liblwip.a(espconn.o)
espconn_tcp_set_max_con_allow                     /home/stoffer/esp8266/esp-open-sdk/sdk/lib/liblwip.a(espconn.o)
espconn_tcp_set_max_retran                        /home/stoffer/esp8266/esp-open-sdk/sdk/lib/liblwip.a(espconn.o)
espconn_tcp_set_max_syn                           /home/stoffer/esp8266/esp-open-sdk/sdk/lib/liblwip.a(espconn.o)
espconn_tcp_set_wnd                               /home/stoffer/esp8266/esp-open-sdk/sdk/lib/liblwip.a(espconn.o)
espconn_tcp_write                                 /home/stoffer/esp8266/esp-open-sdk/sdk/lib/liblwip.a(espconn_tcp.o)
                                                  /home/stoffer/esp8266/esp-open-sdk/sdk/lib/liblwip.a(espconn.o)
espconn_udp_disconnect                            /home/stoffer/esp8266/esp-open-sdk/sdk/lib/liblwip.a(espconn_udp.o)
                                                  /home/stoffer/esp8266/esp-open-sdk/sdk/lib/liblwip.a(espconn.o)
espconn_udp_sendto                                /home/stoffer/esp8266/esp-open-sdk/sdk/lib/liblwip.a(espconn_udp.o)
                                                  /home/stoffer/esp8266/esp-open-sdk/sdk/lib/liblwip.a(espconn.o)
espconn_udp_sent                                  /home/stoffer/esp8266/esp-open-sdk/sdk/lib/liblwip.a(espconn_udp.o)
                                                  /home/stoffer/esp8266/esp-open-sdk/sdk/lib/liblwip.a(espconn.o)
espconn_udp_server                                /home/stoffer/esp8266/esp-open-sdk/sdk/lib/liblwip.a(espconn_udp.o)
                                                  /home/stoffer/esp8266/esp-open-sdk/sdk/lib/liblwip.a(espconn.o)
etharp_cleanup_netif                              /home/stoffer/esp8266/esp-open-sdk/sdk/lib/liblwip.a(etharp.o)
                                                  /home/stoffer/esp8266/esp-open-sdk/sdk/lib/liblwip.a(netif.o)
etharp_find_addr                                  /home/stoffer/esp8266/esp-open-sdk/sdk/lib/liblwip.a(etharp.o)
etharp_output                                     /home/stoffer/esp8266/esp-open-sdk/sdk/lib/liblwip.a(etharp.o)
                                                  /home/stoffer/esp8266/esp-open-sdk/sdk/lib/libmain.a(eagle_lwip_if.o)
etharp_query                                      /home/stoffer/esp8266/esp-open-sdk/sdk/lib/liblwip.a(etharp.o)
                                                  /home/stoffer/esp8266/esp-open-sdk/sdk/lib/liblwip.a(dhcp.o)
etharp_request                                    /home/stoffer/esp8266/esp-open-sdk/sdk/lib/liblwip.a(etharp.o)
                                                  /home/stoffer/esp8266/esp-open-sdk/sdk/lib/liblwip.a(netif.o)
etharp_tmr                                        /home/stoffer/esp8266/esp-open-sdk/sdk/lib/liblwip.a(etharp.o)
                                                  /home/stoffer/esp8266/esp-open-sdk/sdk/lib/liblwip.a(timers.o)
ethbroadcast                                      /home/stoffer/esp8266/esp-open-sdk/sdk/lib/liblwip.a(etharp.o)
                                                  /home/stoffer/esp8266/esp-open-sdk/sdk/lib/libwpa.a(wpa_auth.o)
                                                  /home/stoffer/esp8266/esp-open-sdk/sdk/lib/libnet80211.a(wl_cnx.o)
                                                  /home/stoffer/esp8266/esp-open-sdk/sdk/lib/libnet80211.a(ieee80211_scan.o)
                                                  /home/stoffer/esp8266/esp-open-sdk/sdk/lib/libnet80211.a(ieee80211_output.o)
                                                  /home/stoffer/esp8266/esp-open-sdk/sdk/lib/libnet80211.a(ieee80211_hostap.o)
                                                  /home/stoffer/esp8266/esp-open-sdk/sdk/lib/libnet80211.a(ieee80211.o)
                                                  /home/stoffer/esp8266/esp-open-sdk/sdk/lib/libpp.a(wdev.o)
                                                  /home/stoffer/esp8266/esp-open-sdk/sdk/lib/libmain.a(user_interface.o)
ethernet_input                                    /home/stoffer/esp8266/esp-open-sdk/sdk/lib/liblwip.a(etharp.o)
                                                  /home/stoffer/esp8266/esp-open-sdk/sdk/lib/libmain.a(eagle_lwip_if.o)
ethzero                                           /home/stoffer/esp8266/esp-open-sdk/sdk/lib/liblwip.a(etharp.o)
ets_bzero                                         /home/stoffer/esp8266/esp-open-sdk/sdk/lib/libwpa.a(wpa_main.o)
                                                  /home/stoffer/esp8266/esp-open-sdk/sdk/lib/libwpa.a(wpa.o)
                                                  /home/stoffer/esp8266/esp-open-sdk/sdk/lib/libwpa.a(wpa_auth.o)
                                                  /home/stoffer/esp8266/esp-open-sdk/sdk/lib/libwpa.a(ap_config.o)
                                                  /home/stoffer/esp8266/esp-open-sdk/sdk/lib/liblwip.a(espconn_tcp.o)
                                                  /home/stoffer/esp8266/esp-open-sdk/sdk/lib/liblwip.a(dhcpserver.o)
                                                  /home/stoffer/esp8266/esp-open-sdk/sdk/lib/libnet80211.a(wl_cnx.o)
                                                  /home/stoffer/esp8266/esp-open-sdk/sdk/lib/libnet80211.a(wl_chm.o)
                                                  /home/stoffer/esp8266/esp-open-sdk/sdk/lib/libnet80211.a(ieee80211_sta.o)
                                                  /home/stoffer/esp8266/esp-open-sdk/sdk/lib/libnet80211.a(ieee80211_scan.o)
                                                  /home/stoffer/esp8266/esp-open-sdk/sdk/lib/libnet80211.a(ieee80211_input.o)
                                                  /home/stoffer/esp8266/esp-open-sdk/sdk/lib/libpp.a(trc.o)
                                                  /home/stoffer/esp8266/esp-open-sdk/sdk/lib/libpp.a(pm.o)
                                                  /home/stoffer/esp8266/esp-open-sdk/sdk/lib/libmain.a(user_interface.o)
                                                  /home/stoffer/esp8266/esp-open-sdk/sdk/lib/libmain.a(app_main.o)
ets_delay_us                                      /home/stoffer/esp8266/esp-open-sdk/sdk/lib/libwpa.a(wpa.o)
                                                  /home/stoffer/esp8266/esp-open-sdk/sdk/lib/libnet80211.a(ieee80211_hostap.o)
                                                  /home/stoffer/esp8266/esp-open-sdk/sdk/lib/libpp.a(wdev.o)
                                                  /home/stoffer/esp8266/esp-open-sdk/sdk/lib/libpp.a(lmac.o)
                                                  /home/stoffer/esp8266/esp-open-sdk/sdk/lib/libphy.a(phy_sleep.o)
                                                  /home/stoffer/esp8266/esp-open-sdk/sdk/lib/libphy.a(phy_chip_v6_cal.o)
                                                  /home/stoffer/esp8266/esp-open-sdk/sdk/lib/libphy.a(phy_chip_v6.o)
                                                  /home/stoffer/esp8266/esp-open-sdk/sdk/lib/libphy.a(phy_chip_v6_ana.o)
                                                  build/app_app.a(user_main.o)
                                                  /home/stoffer/esp8266/esp-open-sdk/sdk/lib/libmain.a(user_interface.o)
                                                  /home/stoffer/esp8266/esp-open-sdk/sdk/lib/libmain.a(mem_manager.o)
ets_get_cpu_frequency                             /home/stoffer/esp8266/esp-open-sdk/sdk/lib/libmain.a(user_interface.o)
ets_install_putc1                                 build/app_app.a(uart.o)
                                                  /home/stoffer/esp8266/esp-open-sdk/sdk/lib/libmain.a(app_main.o)
ets_intr_lock                                     /home/stoffer/esp8266/esp-open-sdk/sdk/lib/libnet80211.a(wl_cnx.o)
                                                  /home/stoffer/esp8266/esp-open-sdk/sdk/lib/libnet80211.a(wl_chm.o)
                                                  /home/stoffer/esp8266/esp-open-sdk/sdk/lib/libnet80211.a(ieee80211_scan.o)
                                                  /home/stoffer/esp8266/esp-open-sdk/sdk/lib/libnet80211.a(ieee80211_hostap.o)
                                                  /home/stoffer/esp8266/esp-open-sdk/sdk/lib/libpp.a(esf_buf.o)
                                                  /home/stoffer/esp8266/esp-open-sdk/sdk/lib/libpp.a(wdev.o)
                                                  /home/stoffer/esp8266/esp-open-sdk/sdk/lib/libpp.a(pp.o)
                                                  /home/stoffer/esp8266/esp-open-sdk/sdk/lib/libpp.a(pm_for_bcn_only_mode.o)
                                                  /home/stoffer/esp8266/esp-open-sdk/sdk/lib/libpp.a(pm.o)
                                                  /home/stoffer/esp8266/esp-open-sdk/sdk/lib/libpp.a(lmac.o)
                                                  /home/stoffer/esp8266/esp-open-sdk/sdk/lib/libpp.a(if_hwctrl.o)
                                                  /home/stoffer/esp8266/esp-open-sdk/sdk/lib/libmain.a(user_interface.o)
                                                  /home/stoffer/esp8266/esp-open-sdk/sdk/lib/libmain.a(mem_manager.o)
                                                  /home/stoffer/esp8266/esp-open-sdk/sdk/lib/libmain.a(ets_timer.o)
                                                  /home/stoffer/esp8266/esp-open-sdk/sdk/lib/libmain.a(app_main.o)
ets_intr_unlock                                   /home/stoffer/esp8266/esp-open-sdk/sdk/lib/libnet80211.a(wl_cnx.o)
                                                  /home/stoffer/esp8266/esp-open-sdk/sdk/lib/libnet80211.a(wl_chm.o)
                                                  /home/stoffer/esp8266/esp-open-sdk/sdk/lib/libnet80211.a(ieee80211_scan.o)
                                                  /home/stoffer/esp8266/esp-open-sdk/sdk/lib/libnet80211.a(ieee80211_hostap.o)
                                                  /home/stoffer/esp8266/esp-open-sdk/sdk/lib/libpp.a(esf_buf.o)
                                                  /home/stoffer/esp8266/esp-open-sdk/sdk/lib/libpp.a(wdev.o)
                                                  /home/stoffer/esp8266/esp-open-sdk/sdk/lib/libpp.a(pp.o)
                                                  /home/stoffer/esp8266/esp-open-sdk/sdk/lib/libpp.a(pm_for_bcn_only_mode.o)
                                                  /home/stoffer/esp8266/esp-open-sdk/sdk/lib/libpp.a(pm.o)
                                                  /home/stoffer/esp8266/esp-open-sdk/sdk/lib/libpp.a(lmac.o)
                                                  /home/stoffer/esp8266/esp-open-sdk/sdk/lib/libpp.a(if_hwctrl.o)
                                                  /home/stoffer/esp8266/esp-open-sdk/sdk/lib/libmain.a(user_interface.o)
                                                  /home/stoffer/esp8266/esp-open-sdk/sdk/lib/libmain.a(mem_manager.o)
                                                  /home/stoffer/esp8266/esp-open-sdk/sdk/lib/libmain.a(ets_timer.o)
ets_isr_attach                                    build/app_app.a(uart.o)
                                                  build/app_app.a(user_main.o)
                                                  /home/stoffer/esp8266/esp-open-sdk/sdk/lib/libmain.a(ets_timer.o)
                                                  /home/stoffer/esp8266/esp-open-sdk/sdk/lib/libmain.a(app_main.o)
ets_isr_mask                                      build/app_app.a(user_main.o)
                                                  /home/stoffer/esp8266/esp-open-sdk/sdk/lib/libmain.a(user_interface.o)
ets_isr_unmask                                    build/app_app.a(uart.o)
                                                  build/app_app.a(user_main.o)
                                                  /home/stoffer/esp8266/esp-open-sdk/sdk/lib/libmain.a(ets_timer.o)
                                                  /home/stoffer/esp8266/esp-open-sdk/sdk/lib/libmain.a(app_main.o)
ets_memcmp                                        /home/stoffer/esp8266/esp-open-sdk/sdk/lib/libwpa.a(wpa_common.o)
                                                  /home/stoffer/esp8266/esp-open-sdk/sdk/lib/libwpa.a(wpa.o)
                                                  /home/stoffer/esp8266/esp-open-sdk/sdk/lib/libwpa.a(wpa_auth.o)
                                                  /home/stoffer/esp8266/esp-open-sdk/sdk/lib/libwpa.a(ap_config.o)
                                                  /home/stoffer/esp8266/esp-open-sdk/sdk/lib/liblwip.a(dhcpserver.o)
                                                  /home/stoffer/esp8266/esp-open-sdk/sdk/lib/libnet80211.a(ieee80211_action_vendor.o)
                                                  /home/stoffer/esp8266/esp-open-sdk/sdk/lib/libnet80211.a(wl_cnx.o)
                                                  /home/stoffer/esp8266/esp-open-sdk/sdk/lib/libnet80211.a(ieee80211_sta.o)
                                                  /home/stoffer/esp8266/esp-open-sdk/sdk/lib/libnet80211.a(ieee80211_scan.o)
                                                  /home/stoffer/esp8266/esp-open-sdk/sdk/lib/libnet80211.a(ieee80211_input.o)
                                                  /home/stoffer/esp8266/esp-open-sdk/sdk/lib/libnet80211.a(ieee80211_hostap.o)
                                                  /home/stoffer/esp8266/esp-open-sdk/sdk/lib/libpp.a(trc.o)
                                                  /home/stoffer/esp8266/esp-open-sdk/sdk/lib/libpp.a(pp.o)
                                                  /home/stoffer/esp8266/esp-open-sdk/sdk/lib/libpp.a(pm.o)
                                                  build/app_app.a(crypto.o)
                                                  /home/stoffer/esp8266/esp-open-sdk/sdk/lib/libmain.a(user_interface.o)
ets_memcpy                                        /home/stoffer/esp8266/esp-open-sdk/sdk/lib/libwpa.a(aes-wrap.o)
                                                  /home/stoffer/esp8266/esp-open-sdk/sdk/lib/libwpa.a(wpas_glue.o)
                                                  /home/stoffer/esp8266/esp-open-sdk/sdk/lib/libwpa.a(wpa_main.o)
                                                  /home/stoffer/esp8266/esp-open-sdk/sdk/lib/libwpa.a(wpa_common.o)
                                                  /home/stoffer/esp8266/esp-open-sdk/sdk/lib/libwpa.a(wpa.o)
                                                  /home/stoffer/esp8266/esp-open-sdk/sdk/lib/libwpa.a(wpa_auth_ie.o)
                                                  /home/stoffer/esp8266/esp-open-sdk/sdk/lib/libwpa.a(wpa_auth.o)
                                                  /home/stoffer/esp8266/esp-open-sdk/sdk/lib/libwpa.a(os_xtensa.o)
                                                  /home/stoffer/esp8266/esp-open-sdk/sdk/lib/libwpa.a(common.o)
                                                  /home/stoffer/esp8266/esp-open-sdk/sdk/lib/libwpa.a(ap_config.o)
                                                  /home/stoffer/esp8266/esp-open-sdk/sdk/lib/liblwip.a(icmp.o)
                                                  /home/stoffer/esp8266/esp-open-sdk/sdk/lib/liblwip.a(tcp_out.o)
                                                  /home/stoffer/esp8266/esp-open-sdk/sdk/lib/liblwip.a(tcp.o)
                                                  /home/stoffer/esp8266/esp-open-sdk/sdk/lib/liblwip.a(pbuf.o)
                                                  /home/stoffer/esp8266/esp-open-sdk/sdk/lib/liblwip.a(ip.o)
                                                  /home/stoffer/esp8266/esp-open-sdk/sdk/lib/liblwip.a(etharp.o)
                                                  /home/stoffer/esp8266/esp-open-sdk/sdk/lib/liblwip.a(espconn_tcp.o)
                                                  /home/stoffer/esp8266/esp-open-sdk/sdk/lib/liblwip.a(espconn.o)
                                                  /home/stoffer/esp8266/esp-open-sdk/sdk/lib/liblwip.a(dns.o)
                                                  /home/stoffer/esp8266/esp-open-sdk/sdk/lib/liblwip.a(dhcpserver.o)
                                                  /home/stoffer/esp8266/esp-open-sdk/sdk/lib/libnet80211.a(ieee80211_ie_vendor.o)
                                                  /home/stoffer/esp8266/esp-open-sdk/sdk/lib/libnet80211.a(ieee80211_action_vendor.o)
                                                  /home/stoffer/esp8266/esp-open-sdk/sdk/lib/libnet80211.a(wl_cnx.o)
                                                  /home/stoffer/esp8266/esp-open-sdk/sdk/lib/libnet80211.a(ieee80211_sta.o)
                                                  /home/stoffer/esp8266/esp-open-sdk/sdk/lib/libnet80211.a(ieee80211_scan.o)
                                                  /home/stoffer/esp8266/esp-open-sdk/sdk/lib/libnet80211.a(ieee80211_proto.o)
                                                  /home/stoffer/esp8266/esp-open-sdk/sdk/lib/libnet80211.a(ieee80211_phy.o)
                                                  /home/stoffer/esp8266/esp-open-sdk/sdk/lib/libnet80211.a(ieee80211_output.o)
                                                  /home/stoffer/esp8266/esp-open-sdk/sdk/lib/libnet80211.a(ieee80211_mesh_quick.o)
                                                  /home/stoffer/esp8266/esp-open-sdk/sdk/lib/libnet80211.a(ieee80211_input.o)
                                                  /home/stoffer/esp8266/esp-open-sdk/sdk/lib/libnet80211.a(ieee80211_hostap.o)
                                                  /home/stoffer/esp8266/esp-open-sdk/sdk/lib/libnet80211.a(ieee80211.o)
                                                  /home/stoffer/esp8266/esp-open-sdk/sdk/lib/libpp.a(wdev.o)
                                                  /home/stoffer/esp8266/esp-open-sdk/sdk/lib/libpp.a(trc.o)
                                                  /home/stoffer/esp8266/esp-open-sdk/sdk/lib/libpp.a(pm.o)
                                                  /home/stoffer/esp8266/esp-open-sdk/sdk/lib/libpp.a(if_hwctrl.o)
                                                  build/app_app.a(hmac-sha256.o)
                                                  build/app_app.a(heatshrink_decoder.o)
                                                  build/app_app.a(espfs.o)
                                                  build/app_app.a(config.o)
                                                  build/app_app.a(mqtt.o)
                                                  build/app_app.a(sha256.o)
                                                  build/app_app.a(crypto.o)
                                                  build/app_app.a(httpd.o)
                                                  build/app_app.a(captdns.o)
                                                  build/app_app.a(user_main.o)
                                                  /home/stoffer/esp8266/esp-open-sdk/sdk/lib/libmain.a(eagle_lwip_if.o)
                                                  /home/stoffer/esp8266/esp-open-sdk/sdk/lib/libmain.a(user_interface.o)
                                                  /home/stoffer/esp8266/esp-open-sdk/sdk/lib/libmain.a(mem_manager.o)
                                                  /home/stoffer/esp8266/esp-open-sdk/sdk/lib/libmain.a(app_main.o)
ets_memset                                        /home/stoffer/esp8266/esp-open-sdk/sdk/lib/libwpa.a(aes-internal-enc.o)
                                                  /home/stoffer/esp8266/esp-open-sdk/sdk/lib/libwpa.a(aes-wrap.o)
                                                  /home/stoffer/esp8266/esp-open-sdk/sdk/lib/libwpa.a(wpas_glue.o)
                                                  /home/stoffer/esp8266/esp-open-sdk/sdk/lib/libwpa.a(wpa_ie.o)
                                                  /home/stoffer/esp8266/esp-open-sdk/sdk/lib/libwpa.a(wpa_common.o)
                                                  /home/stoffer/esp8266/esp-open-sdk/sdk/lib/libwpa.a(wpa.o)
                                                  /home/stoffer/esp8266/esp-open-sdk/sdk/lib/libwpa.a(wpa_auth_ie.o)
                                                  /home/stoffer/esp8266/esp-open-sdk/sdk/lib/libwpa.a(wpa_auth.o)
                                                  /home/stoffer/esp8266/esp-open-sdk/sdk/lib/liblwip.a(udp.o)
                                                  /home/stoffer/esp8266/esp-open-sdk/sdk/lib/liblwip.a(tcp.o)
                                                  /home/stoffer/esp8266/esp-open-sdk/sdk/lib/liblwip.a(sntp.o)
                                                  /home/stoffer/esp8266/esp-open-sdk/sdk/lib/liblwip.a(raw.o)
                                                  /home/stoffer/esp8266/esp-open-sdk/sdk/lib/liblwip.a(ip.o)
                                                  /home/stoffer/esp8266/esp-open-sdk/sdk/lib/liblwip.a(espconn.o)
                                                  /home/stoffer/esp8266/esp-open-sdk/sdk/lib/liblwip.a(dns.o)
                                                  /home/stoffer/esp8266/esp-open-sdk/sdk/lib/liblwip.a(dhcpserver.o)
                                                  /home/stoffer/esp8266/esp-open-sdk/sdk/lib/liblwip.a(dhcp.o)
                                                  /home/stoffer/esp8266/esp-open-sdk/sdk/lib/libnet80211.a(wl_cnx.o)
                                                  /home/stoffer/esp8266/esp-open-sdk/sdk/lib/libnet80211.a(ieee80211_power.o)
                                                  /home/stoffer/esp8266/esp-open-sdk/sdk/lib/libnet80211.a(ieee80211_output.o)
                                                  /home/stoffer/esp8266/esp-open-sdk/sdk/lib/libnet80211.a(ieee80211_input.o)
                                                  /home/stoffer/esp8266/esp-open-sdk/sdk/lib/libnet80211.a(ieee80211_ht.o)
                                                  /home/stoffer/esp8266/esp-open-sdk/sdk/lib/libpp.a(esf_buf.o)
                                                  build/app_app.a(hmac-sha256.o)
                                                  build/app_app.a(heatshrink_decoder.o)
                                                  build/app_app.a(wifi.o)
                                                  build/app_app.a(config.o)
                                                  build/app_app.a(mqtt.o)
                                                  build/app_app.a(aes.o)
                                                  build/app_app.a(sha256.o)
                                                  build/app_app.a(crypto.o)
                                                  build/app_app.a(user_main.o)
                                                  /home/stoffer/esp8266/esp-open-sdk/sdk/lib/libmain.a(user_interface.o)
                                                  /home/stoffer/esp8266/esp-open-sdk/sdk/lib/libmain.a(mem_manager.o)
                                                  /home/stoffer/esp8266/esp-open-sdk/sdk/lib/libmain.a(app_main.o)
ets_post                                          /home/stoffer/esp8266/esp-open-sdk/sdk/lib/libwpa.a(wpa_main.o)
                                                  /home/stoffer/esp8266/esp-open-sdk/sdk/lib/liblwip.a(espconn_tcp.o)
                                                  /home/stoffer/esp8266/esp-open-sdk/sdk/lib/libnet80211.a(wl_cnx.o)
                                                  /home/stoffer/esp8266/esp-open-sdk/sdk/lib/libnet80211.a(ieee80211_sta.o)
                                                  /home/stoffer/esp8266/esp-open-sdk/sdk/lib/libnet80211.a(ieee80211_input.o)
                                                  /home/stoffer/esp8266/esp-open-sdk/sdk/lib/libnet80211.a(ieee80211_hostap.o)
                                                  /home/stoffer/esp8266/esp-open-sdk/sdk/lib/libpp.a(pp.o)
                                                  /home/stoffer/esp8266/esp-open-sdk/sdk/lib/libpp.a(pm.o)
                                                  /home/stoffer/esp8266/esp-open-sdk/sdk/lib/libpp.a(lmac.o)
                                                  /home/stoffer/esp8266/esp-open-sdk/sdk/lib/libmain.a(user_interface.o)
                                                  /home/stoffer/esp8266/esp-open-sdk/sdk/lib/libmain.a(ets_timer.o)
ets_printf                                        /home/stoffer/esp8266/esp-open-sdk/sdk/lib/libpp.a(wdev.o)
                                                  /home/stoffer/esp8266/esp-open-sdk/sdk/lib/libpp.a(pp.o)
                                                  /home/stoffer/esp8266/esp-open-sdk/sdk/lib/libpp.a(pm_for_bcn_only_mode.o)
                                                  /home/stoffer/esp8266/esp-open-sdk/sdk/lib/libpp.a(pm.o)
                                                  /home/stoffer/esp8266/esp-open-sdk/sdk/lib/libpp.a(lmac.o)
                                                  /home/stoffer/esp8266/esp-open-sdk/sdk/lib/libmain.a(mem_manager.o)
                                                  /home/stoffer/esp8266/esp-open-sdk/sdk/lib/libmain.a(ets_timer.o)
                                                  /home/stoffer/esp8266/esp-open-sdk/sdk/lib/libmain.a(app_main.o)
ets_run                                           /home/stoffer/esp8266/esp-open-sdk/sdk/lib/libmain.a(app_main.o)
ets_set_idle_cb                                   /home/stoffer/esp8266/esp-open-sdk/sdk/lib/libpp.a(pm_for_bcn_only_mode.o)
                                                  /home/stoffer/esp8266/esp-open-sdk/sdk/lib/libpp.a(pm.o)
ets_snprintf                                      /home/stoffer/esp8266/esp-open-sdk/sdk/lib/libmain.a(eagle_lib.o)
ets_sprintf                                       /home/stoffer/esp8266/esp-open-sdk/sdk/lib/libmain.a(eagle_lib.o)
                                                  /home/stoffer/esp8266/esp-open-sdk/sdk/lib/liblwip.a(sntp.o)
                                                  /home/stoffer/esp8266/esp-open-sdk/sdk/lib/libmain.a(user_interface.o)
ets_strcat                                        /home/stoffer/esp8266/esp-open-sdk/sdk/lib/libmain.a(eagle_lib.o)
ets_strchr                                        /home/stoffer/esp8266/esp-open-sdk/sdk/lib/libmain.a(eagle_lib.o)
ets_strcmp                                        build/app_app.a(espfs.o)
                                                  build/app_app.a(cgi.o)
                                                  build/app_app.a(cgiwifi.o)
                                                  build/app_app.a(httpd.o)
ets_strcpy                                        build/app_app.a(cgi.o)
                                                  build/app_app.a(cgiwifi.o)
                                                  build/app_app.a(mqtt.o)
                                                  build/app_app.a(httpd_user_init.o)
                                                  build/app_app.a(user_main.o)
                                                  /home/stoffer/esp8266/esp-open-sdk/sdk/lib/libmain.a(user_interface.o)
ets_strdup                                        /home/stoffer/esp8266/esp-open-sdk/sdk/lib/libwpa.a(os_xtensa.o)
ets_strlen                                        /home/stoffer/esp8266/esp-open-sdk/sdk/lib/libwpa.a(wpa.o)
                                                  /home/stoffer/esp8266/esp-open-sdk/sdk/lib/libwpa.a(os_xtensa.o)
                                                  /home/stoffer/esp8266/esp-open-sdk/sdk/lib/libwpa.a(common.o)
                                                  /home/stoffer/esp8266/esp-open-sdk/sdk/lib/libwpa.a(ap_config.o)
                                                  /home/stoffer/esp8266/esp-open-sdk/sdk/lib/liblwip.a(pbuf.o)
                                                  /home/stoffer/esp8266/esp-open-sdk/sdk/lib/liblwip.a(dns.o)
                                                  /home/stoffer/esp8266/esp-open-sdk/sdk/lib/liblwip.a(dhcp.o)
                                                  /home/stoffer/esp8266/esp-open-sdk/sdk/lib/libnet80211.a(wl_cnx.o)
                                                  /home/stoffer/esp8266/esp-open-sdk/sdk/lib/libnet80211.a(ieee80211_scan.o)
                                                  /home/stoffer/esp8266/esp-open-sdk/sdk/lib/libnet80211.a(ieee80211_hostap.o)
                                                  build/app_app.a(cgiwifi.o)
                                                  build/app_app.a(mqtt.o)
                                                  build/app_app.a(crypto.o)
                                                  build/app_app.a(utils.o)
                                                  build/app_app.a(httpd.o)
                                                  build/app_app.a(user_main.o)
                                                  /home/stoffer/esp8266/esp-open-sdk/sdk/lib/libmain.a(eagle_lib.o)
                                                  /home/stoffer/esp8266/esp-open-sdk/sdk/lib/libmain.a(user_interface.o)
                                                  /home/stoffer/esp8266/esp-open-sdk/sdk/lib/libmain.a(mem_manager.o)
ets_strncmp                                       /home/stoffer/esp8266/esp-open-sdk/sdk/lib/libnet80211.a(ieee80211_scan.o)
                                                  build/app_app.a(wifi.o)
                                                  build/app_app.a(httpd.o)
                                                  build/app_app.a(user_main.o)
                                                  /home/stoffer/esp8266/esp-open-sdk/sdk/lib/libmain.a(user_interface.o)
ets_strncpy                                       /home/stoffer/esp8266/esp-open-sdk/sdk/lib/libnet80211.a(ieee80211_scan.o)
                                                  build/app_app.a(cgiwifi.o)
                                                  build/app_app.a(user_main.o)
ets_strrchr                                       /home/stoffer/esp8266/esp-open-sdk/sdk/lib/libmain.a(eagle_lib.o)
                                                  /home/stoffer/esp8266/esp-open-sdk/sdk/lib/libwpa.a(common.o)
ets_strstr                                        build/app_app.a(httpd.o)
ets_task                                          /home/stoffer/esp8266/esp-open-sdk/sdk/lib/liblwip.a(espconn_tcp.o)
                                                  /home/stoffer/esp8266/esp-open-sdk/sdk/lib/libpp.a(pp.o)
                                                  /home/stoffer/esp8266/esp-open-sdk/sdk/lib/libpp.a(pm.o)
                                                  /home/stoffer/esp8266/esp-open-sdk/sdk/lib/libmain.a(eagle_lwip_if.o)
                                                  /home/stoffer/esp8266/esp-open-sdk/sdk/lib/libmain.a(user_interface.o)
                                                  /home/stoffer/esp8266/esp-open-sdk/sdk/lib/libmain.a(ets_timer.o)
ets_timer_arm_new                                 /home/stoffer/esp8266/esp-open-sdk/sdk/lib/libmain.a(ets_timer.o)
                                                  /home/stoffer/esp8266/esp-open-sdk/sdk/lib/libwpa.a(wpa_main.o)
                                                  /home/stoffer/esp8266/esp-open-sdk/sdk/lib/libwpa.a(wpa.o)
                                                  /home/stoffer/esp8266/esp-open-sdk/sdk/lib/liblwip.a(sntp.o)
                                                  /home/stoffer/esp8266/esp-open-sdk/sdk/lib/libnet80211.a(wl_cnx.o)
                                                  /home/stoffer/esp8266/esp-open-sdk/sdk/lib/libnet80211.a(wl_chm.o)
                                                  /home/stoffer/esp8266/esp-open-sdk/sdk/lib/libnet80211.a(ieee80211_sta.o)
                                                  /home/stoffer/esp8266/esp-open-sdk/sdk/lib/libnet80211.a(ieee80211_scan.o)
                                                  /home/stoffer/esp8266/esp-open-sdk/sdk/lib/libnet80211.a(ieee80211_proto.o)
                                                  /home/stoffer/esp8266/esp-open-sdk/sdk/lib/libnet80211.a(ieee80211_hostap.o)
                                                  /home/stoffer/esp8266/esp-open-sdk/sdk/lib/libpp.a(pp.o)
                                                  /home/stoffer/esp8266/esp-open-sdk/sdk/lib/libpp.a(pm_for_bcn_only_mode.o)
                                                  /home/stoffer/esp8266/esp-open-sdk/sdk/lib/libpp.a(pm.o)
                                                  /home/stoffer/esp8266/esp-open-sdk/sdk/lib/libpp.a(if_hwctrl.o)
                                                  build/app_app.a(unix_time.o)
                                                  build/app_app.a(cgiwifi.o)
                                                  build/app_app.a(wifi.o)
                                                  build/app_app.a(config.o)
                                                  build/app_app.a(mqtt.o)
                                                  build/app_app.a(httpd.o)
                                                  build/app_app.a(led.o)
                                                  build/app_app.a(user_main.o)
                                                  /home/stoffer/esp8266/esp-open-sdk/sdk/lib/libmain.a(user_interface.o)
                                                  /home/stoffer/esp8266/esp-open-sdk/sdk/lib/libmain.a(app_main.o)
ets_timer_disarm                                  /home/stoffer/esp8266/esp-open-sdk/sdk/lib/libmain.a(ets_timer.o)
                                                  /home/stoffer/esp8266/esp-open-sdk/sdk/lib/libwpa.a(wpa_main.o)
                                                  /home/stoffer/esp8266/esp-open-sdk/sdk/lib/libwpa.a(wpa.o)
                                                  /home/stoffer/esp8266/esp-open-sdk/sdk/lib/liblwip.a(sntp.o)
                                                  /home/stoffer/esp8266/esp-open-sdk/sdk/lib/libnet80211.a(wl_cnx.o)
                                                  /home/stoffer/esp8266/esp-open-sdk/sdk/lib/libnet80211.a(wl_chm.o)
                                                  /home/stoffer/esp8266/esp-open-sdk/sdk/lib/libnet80211.a(ieee80211_sta.o)
                                                  /home/stoffer/esp8266/esp-open-sdk/sdk/lib/libnet80211.a(ieee80211_scan.o)
                                                  /home/stoffer/esp8266/esp-open-sdk/sdk/lib/libnet80211.a(ieee80211_proto.o)
                                                  /home/stoffer/esp8266/esp-open-sdk/sdk/lib/libnet80211.a(ieee80211_hostap.o)
                                                  /home/stoffer/esp8266/esp-open-sdk/sdk/lib/libpp.a(pp.o)
                                                  /home/stoffer/esp8266/esp-open-sdk/sdk/lib/libpp.a(pm_for_bcn_only_mode.o)
                                                  /home/stoffer/esp8266/esp-open-sdk/sdk/lib/libpp.a(pm.o)
                                                  /home/stoffer/esp8266/esp-open-sdk/sdk/lib/libpp.a(if_hwctrl.o)
                                                  build/app_app.a(unix_time.o)
                                                  build/app_app.a(cgiwifi.o)
                                                  build/app_app.a(wifi.o)
                                                  build/app_app.a(config.o)
                                                  build/app_app.a(mqtt.o)
                                                  build/app_app.a(httpd.o)
                                                  build/app_app.a(led.o)
                                                  build/app_app.a(user_main.o)
                                                  /home/stoffer/esp8266/esp-open-sdk/sdk/lib/libmain.a(user_interface.o)
                                                  /home/stoffer/esp8266/esp-open-sdk/sdk/lib/libmain.a(app_main.o)
ets_timer_done                                    /home/stoffer/esp8266/esp-open-sdk/sdk/lib/libmain.a(ets_timer.o)
ets_timer_handler_isr                             /home/stoffer/esp8266/esp-open-sdk/sdk/lib/libmain.a(ets_timer.o)
ets_timer_init                                    /home/stoffer/esp8266/esp-open-sdk/sdk/lib/libmain.a(ets_timer.o)
                                                  /home/stoffer/esp8266/esp-open-sdk/sdk/lib/libmain.a(app_main.o)
ets_timer_setfn                                   /home/stoffer/esp8266/esp-open-sdk/sdk/lib/libmain.a(ets_timer.o)
                                                  /home/stoffer/esp8266/esp-open-sdk/sdk/lib/libwpa.a(wpa_main.o)
                                                  /home/stoffer/esp8266/esp-open-sdk/sdk/lib/libwpa.a(wpa.o)
                                                  /home/stoffer/esp8266/esp-open-sdk/sdk/lib/liblwip.a(sntp.o)
                                                  /home/stoffer/esp8266/esp-open-sdk/sdk/lib/libnet80211.a(wl_cnx.o)
                                                  /home/stoffer/esp8266/esp-open-sdk/sdk/lib/libnet80211.a(wl_chm.o)
                                                  /home/stoffer/esp8266/esp-open-sdk/sdk/lib/libnet80211.a(ieee80211_sta.o)
                                                  /home/stoffer/esp8266/esp-open-sdk/sdk/lib/libnet80211.a(ieee80211_scan.o)
                                                  /home/stoffer/esp8266/esp-open-sdk/sdk/lib/libnet80211.a(ieee80211_proto.o)
                                                  /home/stoffer/esp8266/esp-open-sdk/sdk/lib/libnet80211.a(ieee80211_hostap.o)
                                                  /home/stoffer/esp8266/esp-open-sdk/sdk/lib/libpp.a(pp.o)
                                                  /home/stoffer/esp8266/esp-open-sdk/sdk/lib/libpp.a(pm_for_bcn_only_mode.o)
                                                  /home/stoffer/esp8266/esp-open-sdk/sdk/lib/libpp.a(pm.o)
                                                  /home/stoffer/esp8266/esp-open-sdk/sdk/lib/libpp.a(if_hwctrl.o)
                                                  build/app_app.a(unix_time.o)
                                                  build/app_app.a(cgiwifi.o)
                                                  build/app_app.a(wifi.o)
                                                  build/app_app.a(config.o)
                                                  build/app_app.a(mqtt.o)
                                                  build/app_app.a(httpd.o)
                                                  build/app_app.a(led.o)
                                                  build/app_app.a(user_main.o)
                                                  /home/stoffer/esp8266/esp-open-sdk/sdk/lib/libmain.a(user_interface.o)
                                                  /home/stoffer/esp8266/esp-open-sdk/sdk/lib/libmain.a(app_main.o)
ets_update_cpu_frequency                          /home/stoffer/esp8266/esp-open-sdk/sdk/lib/libpp.a(pm_for_bcn_only_mode.o)
                                                  /home/stoffer/esp8266/esp-open-sdk/sdk/lib/libpp.a(pm.o)
                                                  /home/stoffer/esp8266/esp-open-sdk/sdk/lib/libphy.a(phy_chip_v6.o)
                                                  /home/stoffer/esp8266/esp-open-sdk/sdk/lib/libmain.a(user_interface.o)
ets_vprintf                                       /home/stoffer/esp8266/esp-open-sdk/sdk/lib/libmain.a(user_interface.o)
ets_vsnprintf                                     /home/stoffer/esp8266/esp-open-sdk/sdk/lib/libmain.a(eagle_lib.o)
                                                  /home/stoffer/esp8266/esp-open-sdk/sdk/lib/libwpa.a(wpa_debug.o)
ets_vsprintf                                      /home/stoffer/esp8266/esp-open-sdk/sdk/lib/libmain.a(eagle_lib.o)
ets_write_char                                    /home/stoffer/esp8266/esp-open-sdk/sdk/lib/libmain.a(user_interface.o)
event_TaskQueue                                   /home/stoffer/esp8266/esp-open-sdk/sdk/lib/libmain.a(user_interface.o)
event_cb                                          /home/stoffer/esp8266/esp-open-sdk/sdk/lib/libmain.a(user_interface.o)
                                                  /home/stoffer/esp8266/esp-open-sdk/sdk/lib/libwpa.a(wpa_main.o)
                                                  /home/stoffer/esp8266/esp-open-sdk/sdk/lib/libnet80211.a(wl_cnx.o)
                                                  /home/stoffer/esp8266/esp-open-sdk/sdk/lib/libnet80211.a(ieee80211_sta.o)
                                                  /home/stoffer/esp8266/esp-open-sdk/sdk/lib/libnet80211.a(ieee80211_hostap.o)
ext_spi_flash_erase_sector                        build/app_app.a(ext_spi_flash.o)
ext_spi_flash_hexdump                             build/app_app.a(ext_spi_flash.o)
ext_spi_flash_id                                  build/app_app.a(ext_spi_flash.o)
ext_spi_flash_read                                build/app_app.a(ext_spi_flash.o)
                                                  build/app_app.a(config.o)
ext_spi_flash_write                               build/app_app.a(ext_spi_flash.o)
                                                  build/app_app.a(config.o)
ext_spi_init                                      build/app_app.a(ext_spi_flash.o)
                                                  build/app_app.a(user_main.o)
flash_read                                        /home/stoffer/esp8266/esp-open-sdk/sdk/lib/libmain.a(spi_flash.o)
flash_tmp                                         /home/stoffer/esp8266/esp-open-sdk/sdk/lib/libpp.a(pm.o)
                                                  /home/stoffer/esp8266/esp-open-sdk/sdk/lib/libpp.a(pm_for_bcn_only_mode.o)
flashchip                                         /home/stoffer/esp8266/esp-open-sdk/sdk/lib/libpp.a(pp.o)
                                                  /home/stoffer/esp8266/esp-open-sdk/sdk/lib/libpp.a(pm_for_bcn_only_mode.o)
                                                  /home/stoffer/esp8266/esp-open-sdk/sdk/lib/libpp.a(pm.o)
                                                  /home/stoffer/esp8266/esp-open-sdk/sdk/lib/libmain.a(user_interface.o)
                                                  /home/stoffer/esp8266/esp-open-sdk/sdk/lib/libmain.a(spi_flash.o)
                                                  /home/stoffer/esp8266/esp-open-sdk/sdk/lib/libmain.a(mem_manager.o)
                                                  /home/stoffer/esp8266/esp-open-sdk/sdk/lib/libmain.a(app_main.o)
fpm_allow_tx                                      /home/stoffer/esp8266/esp-open-sdk/sdk/lib/libpp.a(pm_for_bcn_only_mode.o)
                                                  /home/stoffer/esp8266/esp-open-sdk/sdk/lib/libnet80211.a(ieee80211_scan.o)
                                                  /home/stoffer/esp8266/esp-open-sdk/sdk/lib/libpp.a(pp.o)
                                                  /home/stoffer/esp8266/esp-open-sdk/sdk/lib/libmain.a(user_interface.o)
fpm_attach                                        /home/stoffer/esp8266/esp-open-sdk/sdk/lib/libpp.a(pm_for_bcn_only_mode.o)
                                                  /home/stoffer/esp8266/esp-open-sdk/sdk/lib/libmain.a(app_main.o)
fpm_auto_sleep_set_in_null_mode                   /home/stoffer/esp8266/esp-open-sdk/sdk/lib/libpp.a(pm_for_bcn_only_mode.o)
fpm_close                                         /home/stoffer/esp8266/esp-open-sdk/sdk/lib/libpp.a(pm_for_bcn_only_mode.o)
                                                  /home/stoffer/esp8266/esp-open-sdk/sdk/lib/libnet80211.a(ieee80211_hostap.o)
                                                  /home/stoffer/esp8266/esp-open-sdk/sdk/lib/libpp.a(pm.o)
fpm_do_sleep                                      /home/stoffer/esp8266/esp-open-sdk/sdk/lib/libpp.a(pm_for_bcn_only_mode.o)
                                                  /home/stoffer/esp8266/esp-open-sdk/sdk/lib/libnet80211.a(ieee80211_hostap.o)
fpm_do_wakeup                                     /home/stoffer/esp8266/esp-open-sdk/sdk/lib/libpp.a(pm_for_bcn_only_mode.o)
                                                  /home/stoffer/esp8266/esp-open-sdk/sdk/lib/libnet80211.a(ieee80211_scan.o)
                                                  /home/stoffer/esp8266/esp-open-sdk/sdk/lib/libpp.a(pp.o)
                                                  /home/stoffer/esp8266/esp-open-sdk/sdk/lib/libmain.a(user_interface.o)
fpm_get_slp_type                                  /home/stoffer/esp8266/esp-open-sdk/sdk/lib/libpp.a(pm_for_bcn_only_mode.o)
fpm_is_open                                       /home/stoffer/esp8266/esp-open-sdk/sdk/lib/libpp.a(pm_for_bcn_only_mode.o)
                                                  /home/stoffer/esp8266/esp-open-sdk/sdk/lib/libnet80211.a(ieee80211_hostap.o)
                                                  /home/stoffer/esp8266/esp-open-sdk/sdk/lib/libpp.a(pm.o)
fpm_open                                          /home/stoffer/esp8266/esp-open-sdk/sdk/lib/libpp.a(pm_for_bcn_only_mode.o)
                                                  /home/stoffer/esp8266/esp-open-sdk/sdk/lib/libnet80211.a(ieee80211_hostap.o)
fpm_rf_is_closed                                  /home/stoffer/esp8266/esp-open-sdk/sdk/lib/libpp.a(pm_for_bcn_only_mode.o)
                                                  /home/stoffer/esp8266/esp-open-sdk/sdk/lib/libpp.a(pp.o)
fpm_set_type_from_upper                           /home/stoffer/esp8266/esp-open-sdk/sdk/lib/libpp.a(pm_for_bcn_only_mode.o)
fpm_set_wakeup_cb                                 /home/stoffer/esp8266/esp-open-sdk/sdk/lib/libpp.a(pm_for_bcn_only_mode.o)
gScanStruct                                       /home/stoffer/esp8266/esp-open-sdk/sdk/lib/libnet80211.a(ieee80211_scan.o)
                                                  /home/stoffer/esp8266/esp-open-sdk/sdk/lib/libnet80211.a(wl_cnx.o)
                                                  /home/stoffer/esp8266/esp-open-sdk/sdk/lib/libnet80211.a(ieee80211_sta.o)
                                                  /home/stoffer/esp8266/esp-open-sdk/sdk/lib/libnet80211.a(ieee80211_hostap.o)
                                                  /home/stoffer/esp8266/esp-open-sdk/sdk/lib/libpp.a(pp.o)
g_cnx_probe_rc_list_cb                            /home/stoffer/esp8266/esp-open-sdk/sdk/lib/libnet80211.a(wl_cnx.o)
g_ic                                              /home/stoffer/esp8266/esp-open-sdk/sdk/lib/libnet80211.a(ieee80211.o)
                                                  /home/stoffer/esp8266/esp-open-sdk/sdk/lib/libnet80211.a(ieee80211_crypto_tkip.o)
                                                  /home/stoffer/esp8266/esp-open-sdk/sdk/lib/libwpa.a(wpa_main.o)
                                                  /home/stoffer/esp8266/esp-open-sdk/sdk/lib/libwpa.a(wpa.o)
                                                  /home/stoffer/esp8266/esp-open-sdk/sdk/lib/libwpa.a(wpa_auth.o)
                                                  /home/stoffer/esp8266/esp-open-sdk/sdk/lib/libwpa.a(ap_config.o)
                                                  /home/stoffer/esp8266/esp-open-sdk/sdk/lib/libnet80211.a(ieee80211_action_vendor.o)
                                                  /home/stoffer/esp8266/esp-open-sdk/sdk/lib/libnet80211.a(wl_cnx.o)
                                                  /home/stoffer/esp8266/esp-open-sdk/sdk/lib/libnet80211.a(wl_chm.o)
                                                  /home/stoffer/esp8266/esp-open-sdk/sdk/lib/libnet80211.a(ieee80211_sta.o)
                                                  /home/stoffer/esp8266/esp-open-sdk/sdk/lib/libnet80211.a(ieee80211_scan.o)
                                                  /home/stoffer/esp8266/esp-open-sdk/sdk/lib/libnet80211.a(ieee80211_rfid.o)
                                                  /home/stoffer/esp8266/esp-open-sdk/sdk/lib/libnet80211.a(ieee80211_proto.o)
                                                  /home/stoffer/esp8266/esp-open-sdk/sdk/lib/libnet80211.a(ieee80211_power.o)
                                                  /home/stoffer/esp8266/esp-open-sdk/sdk/lib/libnet80211.a(ieee80211_phy.o)
                                                  /home/stoffer/esp8266/esp-open-sdk/sdk/lib/libnet80211.a(ieee80211_output.o)
                                                  /home/stoffer/esp8266/esp-open-sdk/sdk/lib/libnet80211.a(ieee80211_mesh_quick.o)
                                                  /home/stoffer/esp8266/esp-open-sdk/sdk/lib/libnet80211.a(ieee80211_input.o)
                                                  /home/stoffer/esp8266/esp-open-sdk/sdk/lib/libnet80211.a(ieee80211_ht.o)
                                                  /home/stoffer/esp8266/esp-open-sdk/sdk/lib/libnet80211.a(ieee80211_hostap.o)
                                                  /home/stoffer/esp8266/esp-open-sdk/sdk/lib/libnet80211.a(ieee80211_crypto.o)
                                                  /home/stoffer/esp8266/esp-open-sdk/sdk/lib/libpp.a(wdev.o)
                                                  /home/stoffer/esp8266/esp-open-sdk/sdk/lib/libpp.a(trc.o)
                                                  /home/stoffer/esp8266/esp-open-sdk/sdk/lib/libpp.a(pp.o)
                                                  /home/stoffer/esp8266/esp-open-sdk/sdk/lib/libpp.a(pm.o)
                                                  /home/stoffer/esp8266/esp-open-sdk/sdk/lib/libpp.a(if_hwctrl.o)
                                                  /home/stoffer/esp8266/esp-open-sdk/sdk/lib/libmain.a(eagle_lwip_if.o)
                                                  /home/stoffer/esp8266/esp-open-sdk/sdk/lib/libmain.a(user_interface.o)
                                                  /home/stoffer/esp8266/esp-open-sdk/sdk/lib/libmain.a(app_main.o)
g_phyFuns                                         /home/stoffer/esp8266/esp-open-sdk/sdk/lib/libphy.a(phy_chip_v6.o)
                                                  /home/stoffer/esp8266/esp-open-sdk/sdk/lib/libpp.a(pm.o)
                                                  /home/stoffer/esp8266/esp-open-sdk/sdk/lib/libphy.a(phy_sleep.o)
                                                  /home/stoffer/esp8266/esp-open-sdk/sdk/lib/libphy.a(phy_chip_v6_cal.o)
                                                  /home/stoffer/esp8266/esp-open-sdk/sdk/lib/libphy.a(phy_chip_v6_ana.o)
gen_rx_gain_table                                 /home/stoffer/esp8266/esp-open-sdk/sdk/lib/libphy.a(phy_chip_v6.o)
get_adc_rand                                      /home/stoffer/esp8266/esp-open-sdk/sdk/lib/libphy.a(phy_chip_v6.o)
                                                  /home/stoffer/esp8266/esp-open-sdk/sdk/lib/libphy.a(phy_sleep.o)
get_chip_version                                  /home/stoffer/esp8266/esp-open-sdk/sdk/lib/libphy.a(phy_sleep.o)
                                                  /home/stoffer/esp8266/esp-open-sdk/sdk/lib/libphy.a(phy_chip_v6.o)
get_data_from_rtc                                 /home/stoffer/esp8266/esp-open-sdk/sdk/lib/libphy.a(phy_chip_v6.o)
get_fcc_1m2m_pwr_offset                           /home/stoffer/esp8266/esp-open-sdk/sdk/lib/libphy.a(phy_chip_v6_cal.o)
get_fpm_auto_sleep_flag                           /home/stoffer/esp8266/esp-open-sdk/sdk/lib/libpp.a(pm_for_bcn_only_mode.o)
                                                  /home/stoffer/esp8266/esp-open-sdk/sdk/lib/libmain.a(user_interface.o)
get_iav_key                                       /home/stoffer/esp8266/esp-open-sdk/sdk/lib/libnet80211.a(ieee80211_action_vendor.o)
get_noisefloor_sat                                /home/stoffer/esp8266/esp-open-sdk/sdk/lib/libphy.a(phy_chip_v6.o)
get_phy_target_power                              /home/stoffer/esp8266/esp-open-sdk/sdk/lib/libphy.a(phy_chip_v6.o)
                                                  /home/stoffer/esp8266/esp-open-sdk/sdk/lib/libphy.a(phy_chip_v6_cal.o)
get_pwctrl_correct                                /home/stoffer/esp8266/esp-open-sdk/sdk/lib/libphy.a(phy_chip_v6_cal.o)
get_rf_gain_qdb                                   /home/stoffer/esp8266/esp-open-sdk/sdk/lib/libphy.a(phy_chip_v6_cal.o)
                                                  /home/stoffer/esp8266/esp-open-sdk/sdk/lib/libphy.a(phy_chip_v6.o)
get_sar_dout                                      /home/stoffer/esp8266/esp-open-sdk/sdk/lib/libphy.a(phy_chip_v6_cal.o)
get_target_power_offset                           /home/stoffer/esp8266/esp-open-sdk/sdk/lib/libphy.a(phy_chip_v6_cal.o)
get_unix_time                                     build/app_app.a(unix_time.o)
                                                  build/app_app.a(user_main.o)
get_vdd33_offset                                  /home/stoffer/esp8266/esp-open-sdk/sdk/lib/libphy.a(phy_chip_v6.o)
gpio16_input_conf                                 build/app_app.a(gpio16.o)
gpio16_input_get                                  build/app_app.a(gpio16.o)
                                                  build/app_app.a(user_main.o)
gpio16_output_conf                                build/app_app.a(gpio16.o)
                                                  build/app_app.a(user_main.o)
gpio16_output_set                                 build/app_app.a(gpio16.o)
                                                  build/app_app.a(user_main.o)
gpio_init                                         build/app_app.a(user_main.o)
gpio_int_handler                                  build/app_app.a(user_main.o)
gpio_int_init                                     build/app_app.a(user_main.o)
gpio_intr_ack                                     build/app_app.a(user_main.o)
gpio_output_set                                   /home/stoffer/esp8266/esp-open-sdk/sdk/lib/libnet80211.a(wl_cnx.o)
                                                  /home/stoffer/esp8266/esp-open-sdk/sdk/lib/libnet80211.a(ieee80211_hostap.o)
                                                  /home/stoffer/esp8266/esp-open-sdk/sdk/lib/libphy.a(phy_sleep.o)
                                                  /home/stoffer/esp8266/esp-open-sdk/sdk/lib/libphy.a(phy_chip_v6.o)
                                                  build/app_app.a(led.o)
                                                  build/app_app.a(user_main.o)
                                                  /home/stoffer/esp8266/esp-open-sdk/sdk/lib/libmain.a(user_interface.o)
gpio_pin_intr_state_set                           build/app_app.a(user_main.o)
hardware_reject                                   /home/stoffer/esp8266/esp-open-sdk/sdk/lib/libphy.a(phy_sleep.o)
heatshrink_decoder_alloc                          build/app_app.a(heatshrink_decoder.o)
                                                  build/app_app.a(espfs.o)
heatshrink_decoder_finish                         build/app_app.a(heatshrink_decoder.o)
                                                  build/app_app.a(espfs.o)
heatshrink_decoder_free                           build/app_app.a(heatshrink_decoder.o)
                                                  build/app_app.a(espfs.o)
heatshrink_decoder_poll                           build/app_app.a(heatshrink_decoder.o)
                                                  build/app_app.a(espfs.o)
heatshrink_decoder_reset                          build/app_app.a(heatshrink_decoder.o)
heatshrink_decoder_sink                           build/app_app.a(heatshrink_decoder.o)
                                                  build/app_app.a(espfs.o)
hex2byte                                          /home/stoffer/esp8266/esp-open-sdk/sdk/lib/libwpa.a(common.o)
hexstr2bin                                        /home/stoffer/esp8266/esp-open-sdk/sdk/lib/libwpa.a(common.o)
                                                  /home/stoffer/esp8266/esp-open-sdk/sdk/lib/libwpa.a(wpa.o)
                                                  /home/stoffer/esp8266/esp-open-sdk/sdk/lib/libmain.a(user_interface.o)
hmac_md5                                          /home/stoffer/esp8266/esp-open-sdk/sdk/lib/libwpa.a(wpa_common.o)
hmac_sha1                                         /home/stoffer/esp8266/esp-open-sdk/sdk/lib/libwpa.a(wpa_common.o)
hmac_sha1_vector                                  /home/stoffer/esp8266/esp-open-sdk/sdk/lib/libwpa.a(wpa_common.o)
hmac_sha256                                       build/app_app.a(hmac-sha256.o)
hmac_sha256_final                                 build/app_app.a(hmac-sha256.o)
                                                  build/app_app.a(crypto.o)
hmac_sha256_init                                  build/app_app.a(hmac-sha256.o)
                                                  build/app_app.a(crypto.o)
hmac_sha256_key                                   build/app_app.a(crypto.o)
hmac_sha256_update                                build/app_app.a(hmac-sha256.o)
                                                  build/app_app.a(crypto.o)
hostap_handle_timer                               /home/stoffer/esp8266/esp-open-sdk/sdk/lib/libnet80211.a(ieee80211_hostap.o)
hostap_input                                      /home/stoffer/esp8266/esp-open-sdk/sdk/lib/libnet80211.a(ieee80211_hostap.o)
                                                  /home/stoffer/esp8266/esp-open-sdk/sdk/lib/libpp.a(pp.o)
hostapd_config_defaults                           /home/stoffer/esp8266/esp-open-sdk/sdk/lib/libwpa.a(ap_config.o)
hostapd_config_defaults_bss                       /home/stoffer/esp8266/esp-open-sdk/sdk/lib/libwpa.a(ap_config.o)
hostapd_get_psk                                   /home/stoffer/esp8266/esp-open-sdk/sdk/lib/libwpa.a(ap_config.o)
                                                  /home/stoffer/esp8266/esp-open-sdk/sdk/lib/libwpa.a(wpa_auth.o)
hostapd_mac_comp                                  /home/stoffer/esp8266/esp-open-sdk/sdk/lib/libwpa.a(ap_config.o)
hostapd_mac_comp_empty                            /home/stoffer/esp8266/esp-open-sdk/sdk/lib/libwpa.a(ap_config.o)
hostapd_maclist_found                             /home/stoffer/esp8266/esp-open-sdk/sdk/lib/libwpa.a(ap_config.o)
hostapd_rate_found                                /home/stoffer/esp8266/esp-open-sdk/sdk/lib/libwpa.a(ap_config.o)
hostapd_setup_wpa_psk                             /home/stoffer/esp8266/esp-open-sdk/sdk/lib/libwpa.a(ap_config.o)
                                                  /home/stoffer/esp8266/esp-open-sdk/sdk/lib/libnet80211.a(ieee80211_hostap.o)
hostapd_wep_key_cmp                               /home/stoffer/esp8266/esp-open-sdk/sdk/lib/libwpa.a(ap_config.o)
hostname                                          /home/stoffer/esp8266/esp-open-sdk/sdk/lib/libmain.a(eagle_lwip_if.o)
                                                  /home/stoffer/esp8266/esp-open-sdk/sdk/lib/libmain.a(user_interface.o)
httpdEndHeaders                                   build/app_app.a(httpd.o)
                                                  build/app_app.a(httpdespfs.o)
                                                  build/app_app.a(cgi.o)
                                                  build/app_app.a(cgiwifi.o)
httpdFindArg                                      build/app_app.a(httpd.o)
                                                  build/app_app.a(cgi.o)
                                                  build/app_app.a(cgiwifi.o)
httpdGetHeader                                    build/app_app.a(httpd.o)
httpdGetMimetype                                  build/app_app.a(httpd.o)
                                                  build/app_app.a(httpdespfs.o)
httpdHeader                                       build/app_app.a(httpd.o)
                                                  build/app_app.a(httpdespfs.o)
                                                  build/app_app.a(cgi.o)
                                                  build/app_app.a(cgiwifi.o)
httpdInit                                         build/app_app.a(httpd.o)
                                                  build/app_app.a(httpd_user_init.o)
httpdRedirect                                     build/app_app.a(httpd.o)
                                                  build/app_app.a(cgi.o)
                                                  build/app_app.a(cgiwifi.o)
httpdSend                                         build/app_app.a(httpd.o)
                                                  build/app_app.a(httpdespfs.o)
                                                  build/app_app.a(cgi.o)
                                                  build/app_app.a(cgiwifi.o)
httpdStartResponse                                build/app_app.a(httpd.o)
                                                  build/app_app.a(httpdespfs.o)
                                                  build/app_app.a(cgi.o)
                                                  build/app_app.a(cgiwifi.o)
httpdStop                                         build/app_app.a(httpd.o)
                                                  build/app_app.a(user_main.o)
httpdUrlDecode                                    build/app_app.a(httpd.o)
httpd_user_init                                   build/app_app.a(httpd_user_init.o)
                                                  build/app_app.a(user_main.o)
ic_bss_info_update                                /home/stoffer/esp8266/esp-open-sdk/sdk/lib/libpp.a(if_hwctrl.o)
                                                  /home/stoffer/esp8266/esp-open-sdk/sdk/lib/libnet80211.a(ieee80211_sta.o)
                                                  /home/stoffer/esp8266/esp-open-sdk/sdk/lib/libnet80211.a(ieee80211_hostap.o)
ic_disable_interface                              /home/stoffer/esp8266/esp-open-sdk/sdk/lib/libpp.a(if_hwctrl.o)
ic_enable_interface                               /home/stoffer/esp8266/esp-open-sdk/sdk/lib/libpp.a(if_hwctrl.o)
ic_get_addr                                       /home/stoffer/esp8266/esp-open-sdk/sdk/lib/libpp.a(if_hwctrl.o)
                                                  /home/stoffer/esp8266/esp-open-sdk/sdk/lib/libpp.a(pm.o)
ic_get_gtk_alg                                    /home/stoffer/esp8266/esp-open-sdk/sdk/lib/libpp.a(if_hwctrl.o)
                                                  /home/stoffer/esp8266/esp-open-sdk/sdk/lib/libpp.a(pp.o)
ic_get_ptk_alg                                    /home/stoffer/esp8266/esp-open-sdk/sdk/lib/libpp.a(if_hwctrl.o)
                                                  /home/stoffer/esp8266/esp-open-sdk/sdk/lib/libpp.a(pp.o)
ic_get_rssi                                       /home/stoffer/esp8266/esp-open-sdk/sdk/lib/libpp.a(if_hwctrl.o)
                                                  /home/stoffer/esp8266/esp-open-sdk/sdk/lib/libmain.a(user_interface.o)
ic_interface_enabled                              /home/stoffer/esp8266/esp-open-sdk/sdk/lib/libpp.a(if_hwctrl.o)
ic_interface_is_p2p                               /home/stoffer/esp8266/esp-open-sdk/sdk/lib/libpp.a(if_hwctrl.o)
ic_is_pure_sta                                    /home/stoffer/esp8266/esp-open-sdk/sdk/lib/libpp.a(if_hwctrl.o)
                                                  /home/stoffer/esp8266/esp-open-sdk/sdk/lib/libpp.a(pp.o)
ic_remove_key                                     /home/stoffer/esp8266/esp-open-sdk/sdk/lib/libpp.a(if_hwctrl.o)
                                                  /home/stoffer/esp8266/esp-open-sdk/sdk/lib/libwpa.a(wpa_auth.o)
ic_set_gtk_alg                                    /home/stoffer/esp8266/esp-open-sdk/sdk/lib/libpp.a(if_hwctrl.o)
ic_set_key                                        /home/stoffer/esp8266/esp-open-sdk/sdk/lib/libpp.a(if_hwctrl.o)
                                                  /home/stoffer/esp8266/esp-open-sdk/sdk/lib/libwpa.a(wpa_main.o)
                                                  /home/stoffer/esp8266/esp-open-sdk/sdk/lib/libwpa.a(wpa_auth.o)
ic_set_opmode                                     /home/stoffer/esp8266/esp-open-sdk/sdk/lib/libpp.a(if_hwctrl.o)
ic_set_ptk_alg                                    /home/stoffer/esp8266/esp-open-sdk/sdk/lib/libpp.a(if_hwctrl.o)
ic_set_sta                                        /home/stoffer/esp8266/esp-open-sdk/sdk/lib/libpp.a(if_hwctrl.o)
                                                  /home/stoffer/esp8266/esp-open-sdk/sdk/lib/libnet80211.a(wl_cnx.o)
ic_set_vif                                        /home/stoffer/esp8266/esp-open-sdk/sdk/lib/libpp.a(if_hwctrl.o)
                                                  /home/stoffer/esp8266/esp-open-sdk/sdk/lib/libnet80211.a(ieee80211_sta.o)
                                                  /home/stoffer/esp8266/esp-open-sdk/sdk/lib/libnet80211.a(ieee80211_hostap.o)
                                                  /home/stoffer/esp8266/esp-open-sdk/sdk/lib/libmain.a(user_interface.o)
icmp_dest_unreach                                 /home/stoffer/esp8266/esp-open-sdk/sdk/lib/liblwip.a(icmp.o)
                                                  /home/stoffer/esp8266/esp-open-sdk/sdk/lib/liblwip.a(udp.o)
                                                  /home/stoffer/esp8266/esp-open-sdk/sdk/lib/liblwip.a(ip.o)
icmp_input                                        /home/stoffer/esp8266/esp-open-sdk/sdk/lib/liblwip.a(icmp.o)
                                                  /home/stoffer/esp8266/esp-open-sdk/sdk/lib/liblwip.a(ip.o)
idle_timer_reopen_flag                            /home/stoffer/esp8266/esp-open-sdk/sdk/lib/libpp.a(pp.o)
                                                  /home/stoffer/esp8266/esp-open-sdk/sdk/lib/libpp.a(pm.o)
ieee80211_action_vendor_spec_attach               /home/stoffer/esp8266/esp-open-sdk/sdk/lib/libnet80211.a(ieee80211_action_vendor.o)
                                                  /home/stoffer/esp8266/esp-open-sdk/sdk/lib/libnet80211.a(ieee80211.o)
ieee80211_add_action_vendor_spec_esp              /home/stoffer/esp8266/esp-open-sdk/sdk/lib/libnet80211.a(ieee80211_action_vendor.o)
ieee80211_add_htcap                               /home/stoffer/esp8266/esp-open-sdk/sdk/lib/libnet80211.a(ieee80211_ht.o)
                                                  /home/stoffer/esp8266/esp-open-sdk/sdk/lib/libnet80211.a(ieee80211_output.o)
ieee80211_add_htcap_vendor                        /home/stoffer/esp8266/esp-open-sdk/sdk/lib/libnet80211.a(ieee80211_ht.o)
                                                  /home/stoffer/esp8266/esp-open-sdk/sdk/lib/libnet80211.a(ieee80211_output.o)
ieee80211_add_htinfo                              /home/stoffer/esp8266/esp-open-sdk/sdk/lib/libnet80211.a(ieee80211_ht.o)
                                                  /home/stoffer/esp8266/esp-open-sdk/sdk/lib/libnet80211.a(ieee80211_output.o)
ieee80211_add_htinfo_vendor                       /home/stoffer/esp8266/esp-open-sdk/sdk/lib/libnet80211.a(ieee80211_ht.o)
                                                  /home/stoffer/esp8266/esp-open-sdk/sdk/lib/libnet80211.a(ieee80211_output.o)
ieee80211_add_ie_vendor_esp_freq_annon            /home/stoffer/esp8266/esp-open-sdk/sdk/lib/libnet80211.a(ieee80211_ie_vendor.o)
                                                  /home/stoffer/esp8266/esp-open-sdk/sdk/lib/libnet80211.a(ieee80211_output.o)
ieee80211_add_ie_vendor_esp_head                  /home/stoffer/esp8266/esp-open-sdk/sdk/lib/libnet80211.a(ieee80211_ie_vendor.o)
ieee80211_add_ie_vendor_esp_manufacturer          /home/stoffer/esp8266/esp-open-sdk/sdk/lib/libnet80211.a(ieee80211_ie_vendor.o)
                                                  /home/stoffer/esp8266/esp-open-sdk/sdk/lib/libnet80211.a(ieee80211_output.o)
ieee80211_add_ie_vendor_esp_mesh_assoc            /home/stoffer/esp8266/esp-open-sdk/sdk/lib/libnet80211.a(ieee80211_ie_vendor.o)
                                                  /home/stoffer/esp8266/esp-open-sdk/sdk/lib/libnet80211.a(ieee80211_mesh_quick.o)
ieee80211_add_ie_vendor_esp_mesh_group            /home/stoffer/esp8266/esp-open-sdk/sdk/lib/libnet80211.a(ieee80211_ie_vendor.o)
ieee80211_add_ie_vendor_esp_now                   /home/stoffer/esp8266/esp-open-sdk/sdk/lib/libnet80211.a(ieee80211_ie_vendor.o)
                                                  /home/stoffer/esp8266/esp-open-sdk/sdk/lib/libnet80211.a(ieee80211_action_vendor.o)
ieee80211_add_ie_vendor_esp_simple_pair           /home/stoffer/esp8266/esp-open-sdk/sdk/lib/libnet80211.a(ieee80211_ie_vendor.o)
ieee80211_add_ie_vendor_esp_ssid                  /home/stoffer/esp8266/esp-open-sdk/sdk/lib/libnet80211.a(ieee80211_ie_vendor.o)
                                                  /home/stoffer/esp8266/esp-open-sdk/sdk/lib/libnet80211.a(ieee80211_output.o)
ieee80211_add_rates                               /home/stoffer/esp8266/esp-open-sdk/sdk/lib/libnet80211.a(ieee80211_output.o)
ieee80211_add_xrates                              /home/stoffer/esp8266/esp-open-sdk/sdk/lib/libnet80211.a(ieee80211_output.o)
ieee80211_alloc_action_vendor_spec                /home/stoffer/esp8266/esp-open-sdk/sdk/lib/libnet80211.a(ieee80211_action_vendor.o)
ieee80211_alloc_challenge                         /home/stoffer/esp8266/esp-open-sdk/sdk/lib/libnet80211.a(ieee80211_input.o)
                                                  /home/stoffer/esp8266/esp-open-sdk/sdk/lib/libnet80211.a(ieee80211_sta.o)
ieee80211_alloc_deauth                            /home/stoffer/esp8266/esp-open-sdk/sdk/lib/libnet80211.a(ieee80211_output.o)
ieee80211_alloc_proberesp                         /home/stoffer/esp8266/esp-open-sdk/sdk/lib/libnet80211.a(ieee80211_output.o)
ieee80211_beacon_alloc                            /home/stoffer/esp8266/esp-open-sdk/sdk/lib/libnet80211.a(ieee80211_output.o)
                                                  /home/stoffer/esp8266/esp-open-sdk/sdk/lib/libnet80211.a(ieee80211_hostap.o)
ieee80211_chan2ieee                               /home/stoffer/esp8266/esp-open-sdk/sdk/lib/libnet80211.a(ieee80211.o)
                                                  /home/stoffer/esp8266/esp-open-sdk/sdk/lib/libnet80211.a(wl_chm.o)
                                                  /home/stoffer/esp8266/esp-open-sdk/sdk/lib/libnet80211.a(ieee80211_scan.o)
                                                  /home/stoffer/esp8266/esp-open-sdk/sdk/lib/libnet80211.a(ieee80211_output.o)
                                                  /home/stoffer/esp8266/esp-open-sdk/sdk/lib/libnet80211.a(ieee80211_input.o)
                                                  /home/stoffer/esp8266/esp-open-sdk/sdk/lib/libnet80211.a(ieee80211_ht.o)
                                                  /home/stoffer/esp8266/esp-open-sdk/sdk/lib/libnet80211.a(ieee80211_hostap.o)
ieee80211_crypto_attach                           /home/stoffer/esp8266/esp-open-sdk/sdk/lib/libnet80211.a(ieee80211_crypto.o)
                                                  /home/stoffer/esp8266/esp-open-sdk/sdk/lib/libnet80211.a(ieee80211.o)
ieee80211_crypto_available                        /home/stoffer/esp8266/esp-open-sdk/sdk/lib/libnet80211.a(ieee80211_crypto.o)
ieee80211_crypto_decap                            /home/stoffer/esp8266/esp-open-sdk/sdk/lib/libnet80211.a(ieee80211_crypto.o)
                                                  /home/stoffer/esp8266/esp-open-sdk/sdk/lib/libnet80211.a(ieee80211_sta.o)
                                                  /home/stoffer/esp8266/esp-open-sdk/sdk/lib/libnet80211.a(ieee80211_hostap.o)
ieee80211_crypto_encap                            /home/stoffer/esp8266/esp-open-sdk/sdk/lib/libnet80211.a(ieee80211_crypto.o)
                                                  /home/stoffer/esp8266/esp-open-sdk/sdk/lib/libnet80211.a(ieee80211_output.o)
ieee80211_crypto_setkey                           /home/stoffer/esp8266/esp-open-sdk/sdk/lib/libnet80211.a(ieee80211_crypto.o)
ieee80211_decap                                   /home/stoffer/esp8266/esp-open-sdk/sdk/lib/libnet80211.a(ieee80211_input.o)
                                                  /home/stoffer/esp8266/esp-open-sdk/sdk/lib/libnet80211.a(ieee80211_sta.o)
                                                  /home/stoffer/esp8266/esp-open-sdk/sdk/lib/libnet80211.a(ieee80211_hostap.o)
ieee80211_deliver_data                            /home/stoffer/esp8266/esp-open-sdk/sdk/lib/libnet80211.a(ieee80211_input.o)
                                                  /home/stoffer/esp8266/esp-open-sdk/sdk/lib/libnet80211.a(ieee80211_sta.o)
ieee80211_find_channel                            /home/stoffer/esp8266/esp-open-sdk/sdk/lib/libnet80211.a(ieee80211.o)
                                                  /home/stoffer/esp8266/esp-open-sdk/sdk/lib/libnet80211.a(ieee80211_ht.o)
ieee80211_find_channel_byieee                     /home/stoffer/esp8266/esp-open-sdk/sdk/lib/libnet80211.a(ieee80211.o)
ieee80211_freedom_init                            /home/stoffer/esp8266/esp-open-sdk/sdk/lib/libnet80211.a(ieee80211.o)
ieee80211_freedom_inside_cb                       /home/stoffer/esp8266/esp-open-sdk/sdk/lib/libnet80211.a(ieee80211.o)
ieee80211_freedom_output                          /home/stoffer/esp8266/esp-open-sdk/sdk/lib/libnet80211.a(ieee80211_output.o)
                                                  /home/stoffer/esp8266/esp-open-sdk/sdk/lib/libmain.a(user_interface.o)
ieee80211_getcapinfo                              /home/stoffer/esp8266/esp-open-sdk/sdk/lib/libnet80211.a(ieee80211_output.o)
ieee80211_getmgtframe                             /home/stoffer/esp8266/esp-open-sdk/sdk/lib/libnet80211.a(ieee80211_ets.o)
                                                  /home/stoffer/esp8266/esp-open-sdk/sdk/lib/libnet80211.a(ieee80211_action_vendor.o)
                                                  /home/stoffer/esp8266/esp-open-sdk/sdk/lib/libnet80211.a(ieee80211_output.o)
                                                  /home/stoffer/esp8266/esp-open-sdk/sdk/lib/libnet80211.a(ieee80211_ht.o)
                                                  /home/stoffer/esp8266/esp-open-sdk/sdk/lib/libpp.a(pm.o)
ieee80211_hostap_attach                           /home/stoffer/esp8266/esp-open-sdk/sdk/lib/libnet80211.a(ieee80211_hostap.o)
ieee80211_ht_attach                               /home/stoffer/esp8266/esp-open-sdk/sdk/lib/libnet80211.a(ieee80211_ht.o)
                                                  /home/stoffer/esp8266/esp-open-sdk/sdk/lib/libnet80211.a(ieee80211.o)
                                                  /home/stoffer/esp8266/esp-open-sdk/sdk/lib/libmain.a(user_interface.o)
ieee80211_ht_node_cleanup                         /home/stoffer/esp8266/esp-open-sdk/sdk/lib/libnet80211.a(ieee80211_ht.o)
ieee80211_ht_node_init                            /home/stoffer/esp8266/esp-open-sdk/sdk/lib/libnet80211.a(ieee80211_ht.o)
                                                  /home/stoffer/esp8266/esp-open-sdk/sdk/lib/libnet80211.a(ieee80211_sta.o)
ieee80211_ht_updateparams                         /home/stoffer/esp8266/esp-open-sdk/sdk/lib/libnet80211.a(ieee80211_ht.o)
                                                  /home/stoffer/esp8266/esp-open-sdk/sdk/lib/libnet80211.a(wl_cnx.o)
                                                  /home/stoffer/esp8266/esp-open-sdk/sdk/lib/libnet80211.a(ieee80211_sta.o)
ieee80211_ieee2mhz                                /home/stoffer/esp8266/esp-open-sdk/sdk/lib/libnet80211.a(ieee80211.o)
ieee80211_ifattach                                /home/stoffer/esp8266/esp-open-sdk/sdk/lib/libnet80211.a(ieee80211.o)
                                                  /home/stoffer/esp8266/esp-open-sdk/sdk/lib/libmain.a(app_main.o)
ieee80211_iserp_rateset                           /home/stoffer/esp8266/esp-open-sdk/sdk/lib/libnet80211.a(ieee80211_proto.o)
ieee80211_mesh_quick_deinit                       /home/stoffer/esp8266/esp-open-sdk/sdk/lib/libnet80211.a(ieee80211_mesh_quick.o)
ieee80211_mesh_quick_get                          /home/stoffer/esp8266/esp-open-sdk/sdk/lib/libnet80211.a(ieee80211_mesh_quick.o)
                                                  /home/stoffer/esp8266/esp-open-sdk/sdk/lib/libnet80211.a(ieee80211_output.o)
                                                  /home/stoffer/esp8266/esp-open-sdk/sdk/lib/libnet80211.a(ieee80211_hostap.o)
ieee80211_mesh_quick_ie_add                       /home/stoffer/esp8266/esp-open-sdk/sdk/lib/libnet80211.a(ieee80211_mesh_quick.o)
                                                  /home/stoffer/esp8266/esp-open-sdk/sdk/lib/libnet80211.a(ieee80211_output.o)
ieee80211_mesh_quick_init                         /home/stoffer/esp8266/esp-open-sdk/sdk/lib/libnet80211.a(ieee80211_mesh_quick.o)
ieee80211_mesh_quick_set                          /home/stoffer/esp8266/esp-open-sdk/sdk/lib/libnet80211.a(ieee80211_mesh_quick.o)
ieee80211_mgmt_output                             /home/stoffer/esp8266/esp-open-sdk/sdk/lib/libnet80211.a(ieee80211_output.o)
                                                  /home/stoffer/esp8266/esp-open-sdk/sdk/lib/libnet80211.a(ieee80211_ht.o)
ieee80211_mhz2ieee                                /home/stoffer/esp8266/esp-open-sdk/sdk/lib/libnet80211.a(ieee80211.o)
ieee80211_mlme_connect_bss                        /home/stoffer/esp8266/esp-open-sdk/sdk/lib/libnet80211.a(ieee80211_proto.o)
                                                  /home/stoffer/esp8266/esp-open-sdk/sdk/lib/libnet80211.a(wl_cnx.o)
ieee80211_node_pwrsave                            /home/stoffer/esp8266/esp-open-sdk/sdk/lib/libnet80211.a(ieee80211_power.o)
                                                  /home/stoffer/esp8266/esp-open-sdk/sdk/lib/libnet80211.a(ieee80211_hostap.o)
ieee80211_opcap                                   /home/stoffer/esp8266/esp-open-sdk/sdk/lib/libnet80211.a(ieee80211.o)
ieee80211_output_pbuf                             /home/stoffer/esp8266/esp-open-sdk/sdk/lib/libnet80211.a(ieee80211_output.o)
                                                  /home/stoffer/esp8266/esp-open-sdk/sdk/lib/libwpa.a(wpa_main.o)
                                                  /home/stoffer/esp8266/esp-open-sdk/sdk/lib/libwpa.a(wpa_auth.o)
                                                  /home/stoffer/esp8266/esp-open-sdk/sdk/lib/libnet80211.a(ieee80211_hostap.o)
                                                  /home/stoffer/esp8266/esp-open-sdk/sdk/lib/libmain.a(eagle_lwip_if.o)
ieee80211_parse_action                            /home/stoffer/esp8266/esp-open-sdk/sdk/lib/libnet80211.a(ieee80211_input.o)
                                                  /home/stoffer/esp8266/esp-open-sdk/sdk/lib/libnet80211.a(ieee80211_sta.o)
ieee80211_parse_beacon                            /home/stoffer/esp8266/esp-open-sdk/sdk/lib/libnet80211.a(ieee80211_input.o)
                                                  /home/stoffer/esp8266/esp-open-sdk/sdk/lib/libnet80211.a(ieee80211_sta.o)
                                                  /home/stoffer/esp8266/esp-open-sdk/sdk/lib/libnet80211.a(ieee80211_hostap.o)
ieee80211_parse_htcap                             /home/stoffer/esp8266/esp-open-sdk/sdk/lib/libnet80211.a(ieee80211_ht.o)
ieee80211_parse_rsn                               /home/stoffer/esp8266/esp-open-sdk/sdk/lib/libnet80211.a(ieee80211_input.o)
                                                  /home/stoffer/esp8266/esp-open-sdk/sdk/lib/libnet80211.a(ieee80211_scan.o)
ieee80211_parse_wmeparams                         /home/stoffer/esp8266/esp-open-sdk/sdk/lib/libnet80211.a(ieee80211_sta.o)
                                                  /home/stoffer/esp8266/esp-open-sdk/sdk/lib/libnet80211.a(wl_cnx.o)
ieee80211_parse_wpa                               /home/stoffer/esp8266/esp-open-sdk/sdk/lib/libnet80211.a(ieee80211_input.o)
                                                  /home/stoffer/esp8266/esp-open-sdk/sdk/lib/libnet80211.a(ieee80211_scan.o)
ieee80211_phy_init                                /home/stoffer/esp8266/esp-open-sdk/sdk/lib/libnet80211.a(ieee80211_phy.o)
                                                  /home/stoffer/esp8266/esp-open-sdk/sdk/lib/libmain.a(user_interface.o)
                                                  /home/stoffer/esp8266/esp-open-sdk/sdk/lib/libmain.a(app_main.o)
ieee80211_phy_type_get                            /home/stoffer/esp8266/esp-open-sdk/sdk/lib/libnet80211.a(ieee80211_phy.o)
                                                  /home/stoffer/esp8266/esp-open-sdk/sdk/lib/libnet80211.a(wl_cnx.o)
ieee80211_proto_attach                            /home/stoffer/esp8266/esp-open-sdk/sdk/lib/libnet80211.a(ieee80211_proto.o)
                                                  /home/stoffer/esp8266/esp-open-sdk/sdk/lib/libnet80211.a(ieee80211.o)
ieee80211_psq_cleanup                             /home/stoffer/esp8266/esp-open-sdk/sdk/lib/libnet80211.a(ieee80211_power.o)
ieee80211_psq_init                                /home/stoffer/esp8266/esp-open-sdk/sdk/lib/libnet80211.a(ieee80211_power.o)
                                                  /home/stoffer/esp8266/esp-open-sdk/sdk/lib/libnet80211.a(ieee80211_hostap.o)
ieee80211_pwrsave                                 /home/stoffer/esp8266/esp-open-sdk/sdk/lib/libnet80211.a(ieee80211_power.o)
                                                  /home/stoffer/esp8266/esp-open-sdk/sdk/lib/libnet80211.a(ieee80211_output.o)
ieee80211_rate_ref_init                           /home/stoffer/esp8266/esp-open-sdk/sdk/lib/libnet80211.a(ieee80211.o)
ieee80211_recv_action                             /home/stoffer/esp8266/esp-open-sdk/sdk/lib/libnet80211.a(ieee80211_action.o)
                                                  /home/stoffer/esp8266/esp-open-sdk/sdk/lib/libnet80211.a(ieee80211_sta.o)
                                                  /home/stoffer/esp8266/esp-open-sdk/sdk/lib/libnet80211.a(ieee80211_hostap.o)
ieee80211_recv_action_register                    /home/stoffer/esp8266/esp-open-sdk/sdk/lib/libnet80211.a(ieee80211_action.o)
                                                  /home/stoffer/esp8266/esp-open-sdk/sdk/lib/libnet80211.a(ieee80211_action_vendor.o)
                                                  /home/stoffer/esp8266/esp-open-sdk/sdk/lib/libnet80211.a(ieee80211_ht.o)
ieee80211_recv_action_unregister                  /home/stoffer/esp8266/esp-open-sdk/sdk/lib/libnet80211.a(ieee80211_action.o)
ieee80211_recv_action_vendor_spec                 /home/stoffer/esp8266/esp-open-sdk/sdk/lib/libnet80211.a(ieee80211_action_vendor.o)
ieee80211_rfid_locp_recv                          /home/stoffer/esp8266/esp-open-sdk/sdk/lib/libnet80211.a(ieee80211_rfid.o)
                                                  /home/stoffer/esp8266/esp-open-sdk/sdk/lib/libnet80211.a(ieee80211_hostap.o)
ieee80211_rfid_locp_recv_close                    /home/stoffer/esp8266/esp-open-sdk/sdk/lib/libnet80211.a(ieee80211_rfid.o)
                                                  /home/stoffer/esp8266/esp-open-sdk/sdk/lib/libmain.a(user_interface.o)
ieee80211_rfid_locp_recv_open                     /home/stoffer/esp8266/esp-open-sdk/sdk/lib/libnet80211.a(ieee80211_rfid.o)
                                                  /home/stoffer/esp8266/esp-open-sdk/sdk/lib/libmain.a(user_interface.o)
ieee80211_rfid_locp_recv_reset                    /home/stoffer/esp8266/esp-open-sdk/sdk/lib/libnet80211.a(ieee80211_rfid.o)
                                                  /home/stoffer/esp8266/esp-open-sdk/sdk/lib/libnet80211.a(ieee80211.o)
ieee80211_scan_attach                             /home/stoffer/esp8266/esp-open-sdk/sdk/lib/libnet80211.a(ieee80211_scan.o)
                                                  /home/stoffer/esp8266/esp-open-sdk/sdk/lib/libnet80211.a(ieee80211.o)
ieee80211_send_action                             /home/stoffer/esp8266/esp-open-sdk/sdk/lib/libnet80211.a(ieee80211_action.o)
                                                  /home/stoffer/esp8266/esp-open-sdk/sdk/lib/libnet80211.a(ieee80211_ht.o)
ieee80211_send_action_register                    /home/stoffer/esp8266/esp-open-sdk/sdk/lib/libnet80211.a(ieee80211_action.o)
                                                  /home/stoffer/esp8266/esp-open-sdk/sdk/lib/libnet80211.a(ieee80211_ht.o)
ieee80211_send_action_unregister                  /home/stoffer/esp8266/esp-open-sdk/sdk/lib/libnet80211.a(ieee80211_action.o)
ieee80211_send_action_vendor_spec                 /home/stoffer/esp8266/esp-open-sdk/sdk/lib/libnet80211.a(ieee80211_action_vendor.o)
ieee80211_send_deauth                             /home/stoffer/esp8266/esp-open-sdk/sdk/lib/libnet80211.a(ieee80211_output.o)
                                                  /home/stoffer/esp8266/esp-open-sdk/sdk/lib/libnet80211.a(ieee80211_hostap.o)
ieee80211_send_mgmt                               /home/stoffer/esp8266/esp-open-sdk/sdk/lib/libnet80211.a(ieee80211_output.o)
                                                  /home/stoffer/esp8266/esp-open-sdk/sdk/lib/libwpa.a(wpa_main.o)
                                                  /home/stoffer/esp8266/esp-open-sdk/sdk/lib/libnet80211.a(wl_cnx.o)
                                                  /home/stoffer/esp8266/esp-open-sdk/sdk/lib/libnet80211.a(ieee80211_sta.o)
                                                  /home/stoffer/esp8266/esp-open-sdk/sdk/lib/libnet80211.a(ieee80211_hostap.o)
                                                  /home/stoffer/esp8266/esp-open-sdk/sdk/lib/libmain.a(user_interface.o)
ieee80211_send_nulldata                           /home/stoffer/esp8266/esp-open-sdk/sdk/lib/libnet80211.a(ieee80211_output.o)
                                                  /home/stoffer/esp8266/esp-open-sdk/sdk/lib/libnet80211.a(ieee80211_hostap.o)
ieee80211_send_probereq                           /home/stoffer/esp8266/esp-open-sdk/sdk/lib/libnet80211.a(ieee80211_output.o)
                                                  /home/stoffer/esp8266/esp-open-sdk/sdk/lib/libnet80211.a(wl_cnx.o)
                                                  /home/stoffer/esp8266/esp-open-sdk/sdk/lib/libnet80211.a(ieee80211_scan.o)
ieee80211_send_proberesp                          /home/stoffer/esp8266/esp-open-sdk/sdk/lib/libnet80211.a(ieee80211_output.o)
                                                  /home/stoffer/esp8266/esp-open-sdk/sdk/lib/libnet80211.a(ieee80211_hostap.o)
ieee80211_send_setup                              /home/stoffer/esp8266/esp-open-sdk/sdk/lib/libnet80211.a(ieee80211_output.o)
                                                  /home/stoffer/esp8266/esp-open-sdk/sdk/lib/libnet80211.a(ieee80211_action_vendor.o)
                                                  /home/stoffer/esp8266/esp-open-sdk/sdk/lib/libpp.a(pm.o)
ieee80211_set_shortslottime                       /home/stoffer/esp8266/esp-open-sdk/sdk/lib/libnet80211.a(ieee80211_proto.o)
                                                  /home/stoffer/esp8266/esp-open-sdk/sdk/lib/libnet80211.a(wl_cnx.o)
                                                  /home/stoffer/esp8266/esp-open-sdk/sdk/lib/libnet80211.a(ieee80211_sta.o)
ieee80211_set_tim                                 /home/stoffer/esp8266/esp-open-sdk/sdk/lib/libnet80211.a(ieee80211_power.o)
                                                  /home/stoffer/esp8266/esp-open-sdk/sdk/lib/libnet80211.a(ieee80211_hostap.o)
ieee80211_setup_basic_htrates                     /home/stoffer/esp8266/esp-open-sdk/sdk/lib/libnet80211.a(ieee80211_ht.o)
                                                  /home/stoffer/esp8266/esp-open-sdk/sdk/lib/libnet80211.a(ieee80211_sta.o)
ieee80211_setup_htrates                           /home/stoffer/esp8266/esp-open-sdk/sdk/lib/libnet80211.a(ieee80211_ht.o)
                                                  /home/stoffer/esp8266/esp-open-sdk/sdk/lib/libnet80211.a(ieee80211_sta.o)
ieee80211_setup_rates                             /home/stoffer/esp8266/esp-open-sdk/sdk/lib/libnet80211.a(ieee80211_input.o)
                                                  /home/stoffer/esp8266/esp-open-sdk/sdk/lib/libnet80211.a(ieee80211_sta.o)
                                                  /home/stoffer/esp8266/esp-open-sdk/sdk/lib/libnet80211.a(ieee80211_hostap.o)
ieee80211_setup_rateset                           /home/stoffer/esp8266/esp-open-sdk/sdk/lib/libnet80211.a(ieee80211_input.o)
                                                  /home/stoffer/esp8266/esp-open-sdk/sdk/lib/libnet80211.a(wl_cnx.o)
ieee80211_setup_ratetable                         /home/stoffer/esp8266/esp-open-sdk/sdk/lib/libnet80211.a(ieee80211_phy.o)
ieee80211_sta_new_state                           /home/stoffer/esp8266/esp-open-sdk/sdk/lib/libnet80211.a(ieee80211_sta.o)
                                                  /home/stoffer/esp8266/esp-open-sdk/sdk/lib/libwpa.a(wpa_main.o)
                                                  /home/stoffer/esp8266/esp-open-sdk/sdk/lib/libnet80211.a(wl_cnx.o)
                                                  /home/stoffer/esp8266/esp-open-sdk/sdk/lib/libnet80211.a(ieee80211_proto.o)
                                                  /home/stoffer/esp8266/esp-open-sdk/sdk/lib/libmain.a(user_interface.o)
ieee80211_tx_mgt_cb                               /home/stoffer/esp8266/esp-open-sdk/sdk/lib/libnet80211.a(ieee80211_output.o)
                                                  /home/stoffer/esp8266/esp-open-sdk/sdk/lib/libnet80211.a(ieee80211_proto.o)
ieee80211_user_ie_init                            /home/stoffer/esp8266/esp-open-sdk/sdk/lib/libnet80211.a(ieee80211.o)
ieee80211_wme_initparams                          /home/stoffer/esp8266/esp-open-sdk/sdk/lib/libnet80211.a(ieee80211_proto.o)
ieee80211_wme_updateparams                        /home/stoffer/esp8266/esp-open-sdk/sdk/lib/libnet80211.a(ieee80211_proto.o)
                                                  /home/stoffer/esp8266/esp-open-sdk/sdk/lib/libnet80211.a(wl_cnx.o)
                                                  /home/stoffer/esp8266/esp-open-sdk/sdk/lib/libnet80211.a(ieee80211_sta.o)
if_ctrl                                           /home/stoffer/esp8266/esp-open-sdk/sdk/lib/libpp.a(if_hwctrl.o)
igmp_init                                         /home/stoffer/esp8266/esp-open-sdk/sdk/lib/liblwip.a(igmp.o)
                                                  /home/stoffer/esp8266/esp-open-sdk/sdk/lib/liblwip.a(init.o)
igmp_input                                        /home/stoffer/esp8266/esp-open-sdk/sdk/lib/liblwip.a(igmp.o)
                                                  /home/stoffer/esp8266/esp-open-sdk/sdk/lib/liblwip.a(ip.o)
igmp_joingroup                                    /home/stoffer/esp8266/esp-open-sdk/sdk/lib/liblwip.a(igmp.o)
                                                  /home/stoffer/esp8266/esp-open-sdk/sdk/lib/liblwip.a(espconn_udp.o)
igmp_leavegroup                                   /home/stoffer/esp8266/esp-open-sdk/sdk/lib/liblwip.a(igmp.o)
                                                  /home/stoffer/esp8266/esp-open-sdk/sdk/lib/liblwip.a(espconn_udp.o)
igmp_lookfor_group                                /home/stoffer/esp8266/esp-open-sdk/sdk/lib/liblwip.a(igmp.o)
                                                  /home/stoffer/esp8266/esp-open-sdk/sdk/lib/liblwip.a(ip.o)
igmp_report_groups                                /home/stoffer/esp8266/esp-open-sdk/sdk/lib/liblwip.a(igmp.o)
                                                  /home/stoffer/esp8266/esp-open-sdk/sdk/lib/liblwip.a(netif.o)
igmp_start                                        /home/stoffer/esp8266/esp-open-sdk/sdk/lib/liblwip.a(igmp.o)
                                                  /home/stoffer/esp8266/esp-open-sdk/sdk/lib/liblwip.a(netif.o)
igmp_stop                                         /home/stoffer/esp8266/esp-open-sdk/sdk/lib/liblwip.a(igmp.o)
                                                  /home/stoffer/esp8266/esp-open-sdk/sdk/lib/liblwip.a(netif.o)
igmp_tmr                                          /home/stoffer/esp8266/esp-open-sdk/sdk/lib/liblwip.a(igmp.o)
                                                  /home/stoffer/esp8266/esp-open-sdk/sdk/lib/liblwip.a(timers.o)
impulse_falling_edge_time                         build/app_app.a(user_main.o)
impulse_meter_energy                              build/app_app.a(user_main.o)
impulse_meter_init                                build/app_app.a(user_main.o)
impulse_rising_edge_time                          build/app_app.a(user_main.o)
impulse_time                                      build/app_app.a(user_main.o)
impulses_per_kwh                                  build/app_app.a(user_main.o)
inc_byte_array                                    /home/stoffer/esp8266/esp-open-sdk/sdk/lib/libwpa.a(common.o)
                                                  /home/stoffer/esp8266/esp-open-sdk/sdk/lib/libwpa.a(wpa.o)
                                                  /home/stoffer/esp8266/esp-open-sdk/sdk/lib/libwpa.a(wpa_auth.o)
inet_chksum                                       /home/stoffer/esp8266/esp-open-sdk/sdk/lib/liblwip.a(inet_chksum.o)
                                                  /home/stoffer/esp8266/esp-open-sdk/sdk/lib/liblwip.a(icmp.o)
                                                  /home/stoffer/esp8266/esp-open-sdk/sdk/lib/liblwip.a(ip.o)
                                                  /home/stoffer/esp8266/esp-open-sdk/sdk/lib/liblwip.a(igmp.o)
inet_chksum_pbuf                                  /home/stoffer/esp8266/esp-open-sdk/sdk/lib/liblwip.a(inet_chksum.o)
                                                  /home/stoffer/esp8266/esp-open-sdk/sdk/lib/liblwip.a(icmp.o)
inet_chksum_pseudo                                /home/stoffer/esp8266/esp-open-sdk/sdk/lib/liblwip.a(inet_chksum.o)
                                                  /home/stoffer/esp8266/esp-open-sdk/sdk/lib/liblwip.a(udp.o)
                                                  /home/stoffer/esp8266/esp-open-sdk/sdk/lib/liblwip.a(tcp_out.o)
                                                  /home/stoffer/esp8266/esp-open-sdk/sdk/lib/liblwip.a(tcp_in.o)
inet_chksum_pseudo_partial                        /home/stoffer/esp8266/esp-open-sdk/sdk/lib/liblwip.a(inet_chksum.o)
info                                              /home/stoffer/esp8266/esp-open-sdk/sdk/lib/libmain.a(app_main.o)
                                                  /home/stoffer/esp8266/esp-open-sdk/sdk/lib/libwpa.a(wpa_main.o)
                                                  /home/stoffer/esp8266/esp-open-sdk/sdk/lib/libnet80211.a(ieee80211_sta.o)
                                                  /home/stoffer/esp8266/esp-open-sdk/sdk/lib/libnet80211.a(ieee80211_hostap.o)
                                                  /home/stoffer/esp8266/esp-open-sdk/sdk/lib/libnet80211.a(ieee80211.o)
                                                  /home/stoffer/esp8266/esp-open-sdk/sdk/lib/libmain.a(user_interface.o)
init_aes_hmac_combined                            build/app_app.a(crypto.o)
                                                  build/app_app.a(user_main.o)
init_cal_dcoffset                                 /home/stoffer/esp8266/esp-open-sdk/sdk/lib/libphy.a(phy_chip_v6_cal.o)
                                                  /home/stoffer/esp8266/esp-open-sdk/sdk/lib/libphy.a(phy_chip_v6.o)
init_printf                                       build/app_app.a(tinyprintf.o)
init_rf_no_cal                                    /home/stoffer/esp8266/esp-open-sdk/sdk/lib/libphy.a(phy_chip_v6.o)
                                                  /home/stoffer/esp8266/esp-open-sdk/sdk/lib/libphy.a(phy_chip_v6_ana.o)
init_time                                         build/app_app.a(unix_time.o)
init_unix_time                                    build/app_app.a(unix_time.o)
                                                  build/app_app.a(user_main.o)
int_pow                                           build/app_app.a(utils.o)
interface_mask                                    /home/stoffer/esp8266/esp-open-sdk/sdk/lib/libpp.a(if_hwctrl.o)
ip4_addr_isbroadcast                              /home/stoffer/esp8266/esp-open-sdk/sdk/lib/liblwip.a(ip_addr.o)
                                                  /home/stoffer/esp8266/esp-open-sdk/sdk/lib/liblwip.a(icmp.o)
                                                  /home/stoffer/esp8266/esp-open-sdk/sdk/lib/liblwip.a(udp.o)
                                                  /home/stoffer/esp8266/esp-open-sdk/sdk/lib/liblwip.a(tcp_in.o)
                                                  /home/stoffer/esp8266/esp-open-sdk/sdk/lib/liblwip.a(ip.o)
                                                  /home/stoffer/esp8266/esp-open-sdk/sdk/lib/liblwip.a(etharp.o)
                                                  /home/stoffer/esp8266/esp-open-sdk/sdk/lib/liblwip.a(espconn_udp.o)
ip4_addr_netmask_valid                            /home/stoffer/esp8266/esp-open-sdk/sdk/lib/liblwip.a(ip_addr.o)
ip_addr_any                                       /home/stoffer/esp8266/esp-open-sdk/sdk/lib/liblwip.a(ip_addr.o)
                                                  /home/stoffer/esp8266/esp-open-sdk/sdk/lib/liblwip.a(sntp.o)
                                                  /home/stoffer/esp8266/esp-open-sdk/sdk/lib/liblwip.a(igmp.o)
                                                  /home/stoffer/esp8266/esp-open-sdk/sdk/lib/liblwip.a(espconn_udp.o)
                                                  /home/stoffer/esp8266/esp-open-sdk/sdk/lib/liblwip.a(espconn_tcp.o)
                                                  /home/stoffer/esp8266/esp-open-sdk/sdk/lib/liblwip.a(dns.o)
                                                  /home/stoffer/esp8266/esp-open-sdk/sdk/lib/liblwip.a(dhcpserver.o)
                                                  /home/stoffer/esp8266/esp-open-sdk/sdk/lib/liblwip.a(dhcp.o)
ip_addr_broadcast                                 /home/stoffer/esp8266/esp-open-sdk/sdk/lib/liblwip.a(ip_addr.o)
                                                  /home/stoffer/esp8266/esp-open-sdk/sdk/lib/liblwip.a(dhcp.o)
ip_input                                          /home/stoffer/esp8266/esp-open-sdk/sdk/lib/liblwip.a(ip.o)
                                                  /home/stoffer/esp8266/esp-open-sdk/sdk/lib/liblwip.a(etharp.o)
ip_output                                         /home/stoffer/esp8266/esp-open-sdk/sdk/lib/liblwip.a(ip.o)
                                                  /home/stoffer/esp8266/esp-open-sdk/sdk/lib/liblwip.a(icmp.o)
                                                  /home/stoffer/esp8266/esp-open-sdk/sdk/lib/liblwip.a(tcp_out.o)
ip_output_if                                      /home/stoffer/esp8266/esp-open-sdk/sdk/lib/liblwip.a(ip.o)
                                                  /home/stoffer/esp8266/esp-open-sdk/sdk/lib/liblwip.a(icmp.o)
                                                  /home/stoffer/esp8266/esp-open-sdk/sdk/lib/liblwip.a(udp.o)
                                                  /home/stoffer/esp8266/esp-open-sdk/sdk/lib/liblwip.a(raw.o)
ip_output_if_opt                                  /home/stoffer/esp8266/esp-open-sdk/sdk/lib/liblwip.a(ip.o)
                                                  /home/stoffer/esp8266/esp-open-sdk/sdk/lib/liblwip.a(igmp.o)
ip_route                                          /home/stoffer/esp8266/esp-open-sdk/sdk/lib/liblwip.a(ip.o)
                                                  /home/stoffer/esp8266/esp-open-sdk/sdk/lib/liblwip.a(udp.o)
                                                  /home/stoffer/esp8266/esp-open-sdk/sdk/lib/liblwip.a(tcp_out.o)
                                                  /home/stoffer/esp8266/esp-open-sdk/sdk/lib/liblwip.a(tcp.o)
                                                  /home/stoffer/esp8266/esp-open-sdk/sdk/lib/liblwip.a(raw.o)
ip_router                                         /home/stoffer/esp8266/esp-open-sdk/sdk/lib/liblwip.a(ip.o)
ipaddr_addr                                       /home/stoffer/esp8266/esp-open-sdk/sdk/lib/liblwip.a(ip_addr.o)
                                                  /home/stoffer/esp8266/esp-open-sdk/sdk/lib/liblwip.a(dns.o)
ipaddr_aton                                       /home/stoffer/esp8266/esp-open-sdk/sdk/lib/liblwip.a(ip_addr.o)
ipaddr_ntoa                                       /home/stoffer/esp8266/esp-open-sdk/sdk/lib/liblwip.a(ip_addr.o)
ipaddr_ntoa_r                                     /home/stoffer/esp8266/esp-open-sdk/sdk/lib/liblwip.a(ip_addr.o)
kmp_received_task_queue                           build/app_app.a(uart.o)
kw_to_w_str                                       build/app_app.a(utils.o)
                                                  build/app_app.a(cgiwifi.o)
last_impulse_meter_count                          build/app_app.a(user_main.o)
last_impulse_time                                 build/app_app.a(user_main.o)
led_init                                          build/app_app.a(led.o)
                                                  build/app_app.a(user_main.o)
led_off                                           build/app_app.a(led.o)
led_on                                            build/app_app.a(led.o)
led_pattern_a                                     build/app_app.a(led.o)
led_pattern_b                                     build/app_app.a(led.o)
                                                  build/app_app.a(wifi.o)
led_stop_pattern                                  build/app_app.a(led.o)
                                                  build/app_app.a(wifi.o)
lldesc_build_chain                                /home/stoffer/esp8266/esp-open-sdk/sdk/lib/libpp.a(wdev.o)
lldesc_num2link                                   /home/stoffer/esp8266/esp-open-sdk/sdk/lib/libpp.a(pp.o)
lmacConfMib                                       /home/stoffer/esp8266/esp-open-sdk/sdk/lib/libpp.a(lmac.o)
                                                  /home/stoffer/esp8266/esp-open-sdk/sdk/lib/libpp.a(trc.o)
lmacDiscardAgedMSDU                               /home/stoffer/esp8266/esp-open-sdk/sdk/lib/libpp.a(lmac.o)
                                                  /home/stoffer/esp8266/esp-open-sdk/sdk/lib/libpp.a(pp.o)
lmacInit                                          /home/stoffer/esp8266/esp-open-sdk/sdk/lib/libpp.a(lmac.o)
                                                  /home/stoffer/esp8266/esp-open-sdk/sdk/lib/libmain.a(app_main.o)
lmacInitAc                                        /home/stoffer/esp8266/esp-open-sdk/sdk/lib/libpp.a(lmac.o)
lmacIsActive                                      /home/stoffer/esp8266/esp-open-sdk/sdk/lib/libpp.a(lmac.o)
lmacIsIdle                                        /home/stoffer/esp8266/esp-open-sdk/sdk/lib/libpp.a(lmac.o)
                                                  /home/stoffer/esp8266/esp-open-sdk/sdk/lib/libpp.a(pp.o)
lmacMSDUAged                                      /home/stoffer/esp8266/esp-open-sdk/sdk/lib/libpp.a(lmac.o)
                                                  /home/stoffer/esp8266/esp-open-sdk/sdk/lib/libpp.a(pp.o)
lmacProcessAckTimeout                             /home/stoffer/esp8266/esp-open-sdk/sdk/lib/libpp.a(lmac.o)
                                                  /home/stoffer/esp8266/esp-open-sdk/sdk/lib/libpp.a(wdev.o)
lmacProcessAllTxTimeout                           /home/stoffer/esp8266/esp-open-sdk/sdk/lib/libpp.a(lmac.o)
                                                  /home/stoffer/esp8266/esp-open-sdk/sdk/lib/libpp.a(wdev.o)
lmacProcessCollision                              /home/stoffer/esp8266/esp-open-sdk/sdk/lib/libpp.a(lmac.o)
lmacProcessCollisions                             /home/stoffer/esp8266/esp-open-sdk/sdk/lib/libpp.a(lmac.o)
                                                  /home/stoffer/esp8266/esp-open-sdk/sdk/lib/libpp.a(wdev.o)
lmacProcessCtsTimeout                             /home/stoffer/esp8266/esp-open-sdk/sdk/lib/libpp.a(lmac.o)
                                                  /home/stoffer/esp8266/esp-open-sdk/sdk/lib/libpp.a(wdev.o)
lmacProcessRtsStart                               /home/stoffer/esp8266/esp-open-sdk/sdk/lib/libpp.a(lmac.o)
                                                  /home/stoffer/esp8266/esp-open-sdk/sdk/lib/libpp.a(wdev.o)
lmacProcessTXStartData                            /home/stoffer/esp8266/esp-open-sdk/sdk/lib/libpp.a(lmac.o)
                                                  /home/stoffer/esp8266/esp-open-sdk/sdk/lib/libpp.a(wdev.o)
lmacProcessTxError                                /home/stoffer/esp8266/esp-open-sdk/sdk/lib/libpp.a(lmac.o)
                                                  /home/stoffer/esp8266/esp-open-sdk/sdk/lib/libpp.a(wdev.o)
lmacProcessTxRtsError                             /home/stoffer/esp8266/esp-open-sdk/sdk/lib/libpp.a(lmac.o)
                                                  /home/stoffer/esp8266/esp-open-sdk/sdk/lib/libpp.a(wdev.o)
lmacProcessTxSuccess                              /home/stoffer/esp8266/esp-open-sdk/sdk/lib/libpp.a(lmac.o)
                                                  /home/stoffer/esp8266/esp-open-sdk/sdk/lib/libpp.a(wdev.o)
lmacProcessTxTimeout                              /home/stoffer/esp8266/esp-open-sdk/sdk/lib/libpp.a(lmac.o)
                                                  /home/stoffer/esp8266/esp-open-sdk/sdk/lib/libpp.a(pp.o)
lmacRecycleMPDU                                   /home/stoffer/esp8266/esp-open-sdk/sdk/lib/libpp.a(lmac.o)
lmacRxDone                                        /home/stoffer/esp8266/esp-open-sdk/sdk/lib/libpp.a(lmac.o)
                                                  /home/stoffer/esp8266/esp-open-sdk/sdk/lib/libpp.a(wdev.o)
lmacSetAcParam                                    /home/stoffer/esp8266/esp-open-sdk/sdk/lib/libpp.a(lmac.o)
lmacSetRetryLimit                                 /home/stoffer/esp8266/esp-open-sdk/sdk/lib/libpp.a(lmac.o)
lmacTxFrame                                       /home/stoffer/esp8266/esp-open-sdk/sdk/lib/libpp.a(lmac.o)
                                                  /home/stoffer/esp8266/esp-open-sdk/sdk/lib/libpp.a(pp.o)
low_power_set                                     /home/stoffer/esp8266/esp-open-sdk/sdk/lib/libphy.a(phy_chip_v6_ana.o)
                                                  /home/stoffer/esp8266/esp-open-sdk/sdk/lib/libphy.a(phy_chip_v6.o)
lslp_mem_opt_8266                                 /home/stoffer/esp8266/esp-open-sdk/sdk/lib/libphy.a(phy_sleep.o)
lwip_init                                         /home/stoffer/esp8266/esp-open-sdk/sdk/lib/liblwip.a(init.o)
                                                  /home/stoffer/esp8266/esp-open-sdk/sdk/lib/libmain.a(app_main.o)
lwip_timer_interval                               /home/stoffer/esp8266/esp-open-sdk/sdk/lib/libmain.a(app_main.o)
                                                  /home/stoffer/esp8266/esp-open-sdk/sdk/lib/libpp.a(pm.o)
meas_tone_pwr_db                                  /home/stoffer/esp8266/esp-open-sdk/sdk/lib/libphy.a(phy_chip_v6_cal.o)
memcpy                                            /home/stoffer/esp8266/esp-open-sdk/xtensa-lx106-elf/lib/gcc/xtensa-lx106-elf/4.8.5/../../../../xtensa-lx106-elf/lib/libc.a(lib_a-memcpy.o)
                                                  build/app_app.a(mqtt_msg.o)
memcpyAligned                                     build/app_app.a(espfs.o)
memp_sizes                                        /home/stoffer/esp8266/esp-open-sdk/sdk/lib/liblwip.a(memp.o)
                                                  /home/stoffer/esp8266/esp-open-sdk/sdk/lib/liblwip.a(udp.o)
                                                  /home/stoffer/esp8266/esp-open-sdk/sdk/lib/liblwip.a(timers.o)
                                                  /home/stoffer/esp8266/esp-open-sdk/sdk/lib/liblwip.a(tcp_out.o)
                                                  /home/stoffer/esp8266/esp-open-sdk/sdk/lib/liblwip.a(tcp.o)
                                                  /home/stoffer/esp8266/esp-open-sdk/sdk/lib/liblwip.a(raw.o)
                                                  /home/stoffer/esp8266/esp-open-sdk/sdk/lib/liblwip.a(pbuf.o)
                                                  /home/stoffer/esp8266/esp-open-sdk/sdk/lib/liblwip.a(igmp.o)
                                                  /home/stoffer/esp8266/esp-open-sdk/sdk/lib/liblwip.a(etharp.o)
memp_sizes_test                                   /home/stoffer/esp8266/esp-open-sdk/sdk/lib/liblwip.a(memp.o)
memset                                            /home/stoffer/esp8266/esp-open-sdk/xtensa-lx106-elf/lib/gcc/xtensa-lx106-elf/4.8.5/../../../../xtensa-lx106-elf/lib/libc.a(lib_a-memset.o)
                                                  build/app_app.a(mqtt_msg.o)
mqttConnectedCb                                   build/app_app.a(user_main.o)
mqttDataCb                                        build/app_app.a(user_main.o)
mqttDisconnectedCb                                build/app_app.a(user_main.o)
mqttPublishedCb                                   build/app_app.a(user_main.o)
mqttTimeoutCb                                     build/app_app.a(user_main.o)
mqtt_client                                       build/app_app.a(user_main.o)
mqtt_client_delete                                build/app_app.a(mqtt.o)
mqtt_get_id                                       build/app_app.a(mqtt_msg.o)
                                                  build/app_app.a(mqtt.o)
mqtt_get_publish_data                             build/app_app.a(mqtt_msg.o)
                                                  build/app_app.a(mqtt.o)
mqtt_get_publish_topic                            build/app_app.a(mqtt_msg.o)
                                                  build/app_app.a(mqtt.o)
mqtt_get_total_length                             build/app_app.a(mqtt_msg.o)
                                                  build/app_app.a(mqtt.o)
mqtt_msg_connect                                  build/app_app.a(mqtt_msg.o)
                                                  build/app_app.a(mqtt.o)
mqtt_msg_disconnect                               build/app_app.a(mqtt_msg.o)
mqtt_msg_init                                     build/app_app.a(mqtt_msg.o)
                                                  build/app_app.a(mqtt.o)
mqtt_msg_pingreq                                  build/app_app.a(mqtt_msg.o)
                                                  build/app_app.a(mqtt.o)
mqtt_msg_pingresp                                 build/app_app.a(mqtt_msg.o)
                                                  build/app_app.a(mqtt.o)
mqtt_msg_puback                                   build/app_app.a(mqtt_msg.o)
                                                  build/app_app.a(mqtt.o)
mqtt_msg_pubcomp                                  build/app_app.a(mqtt_msg.o)
                                                  build/app_app.a(mqtt.o)
mqtt_msg_publish                                  build/app_app.a(mqtt_msg.o)
                                                  build/app_app.a(mqtt.o)
mqtt_msg_pubrec                                   build/app_app.a(mqtt_msg.o)
                                                  build/app_app.a(mqtt.o)
mqtt_msg_pubrel                                   build/app_app.a(mqtt_msg.o)
                                                  build/app_app.a(mqtt.o)
mqtt_msg_subscribe                                build/app_app.a(mqtt_msg.o)
                                                  build/app_app.a(mqtt.o)
mqtt_msg_unsubscribe                              build/app_app.a(mqtt_msg.o)
                                                  build/app_app.a(mqtt.o)
mqtt_procTaskQueue                                build/app_app.a(mqtt.o)
mqtt_send_keepalive                               build/app_app.a(mqtt.o)
mqtt_tcpclient_connect_cb                         build/app_app.a(mqtt.o)
mqtt_tcpclient_delete                             build/app_app.a(mqtt.o)
mqtt_tcpclient_discon_cb                          build/app_app.a(mqtt.o)
mqtt_tcpclient_recon_cb                           build/app_app.a(mqtt.o)
mqtt_tcpclient_recv                               build/app_app.a(mqtt.o)
mqtt_tcpclient_sent_cb                            build/app_app.a(mqtt.o)
mqtt_timer                                        build/app_app.a(mqtt.o)
myPassFn                                          build/app_app.a(httpd_user_init.o)
netif_add                                         /home/stoffer/esp8266/esp-open-sdk/sdk/lib/liblwip.a(netif.o)
                                                  /home/stoffer/esp8266/esp-open-sdk/sdk/lib/libmain.a(eagle_lwip_if.o)
netif_default                                     /home/stoffer/esp8266/esp-open-sdk/sdk/lib/liblwip.a(netif.o)
                                                  /home/stoffer/esp8266/esp-open-sdk/sdk/lib/liblwip.a(ip.o)
                                                  /home/stoffer/esp8266/esp-open-sdk/sdk/lib/libmain.a(user_interface.o)
netif_find                                        /home/stoffer/esp8266/esp-open-sdk/sdk/lib/liblwip.a(netif.o)
netif_init                                        /home/stoffer/esp8266/esp-open-sdk/sdk/lib/liblwip.a(netif.o)
                                                  /home/stoffer/esp8266/esp-open-sdk/sdk/lib/liblwip.a(init.o)
netif_list                                        /home/stoffer/esp8266/esp-open-sdk/sdk/lib/liblwip.a(netif.o)
                                                  /home/stoffer/esp8266/esp-open-sdk/sdk/lib/liblwip.a(ip.o)
                                                  /home/stoffer/esp8266/esp-open-sdk/sdk/lib/liblwip.a(igmp.o)
                                                  /home/stoffer/esp8266/esp-open-sdk/sdk/lib/liblwip.a(dhcp.o)
netif_remove                                      /home/stoffer/esp8266/esp-open-sdk/sdk/lib/liblwip.a(netif.o)
                                                  /home/stoffer/esp8266/esp-open-sdk/sdk/lib/libmain.a(eagle_lwip_if.o)
netif_set_addr                                    /home/stoffer/esp8266/esp-open-sdk/sdk/lib/liblwip.a(netif.o)
                                                  /home/stoffer/esp8266/esp-open-sdk/sdk/lib/libwpa.a(wpa_main.o)
                                                  /home/stoffer/esp8266/esp-open-sdk/sdk/lib/libmain.a(eagle_lwip_if.o)
                                                  /home/stoffer/esp8266/esp-open-sdk/sdk/lib/libmain.a(user_interface.o)
netif_set_default                                 /home/stoffer/esp8266/esp-open-sdk/sdk/lib/liblwip.a(netif.o)
                                                  /home/stoffer/esp8266/esp-open-sdk/sdk/lib/liblwip.a(espconn_udp.o)
                                                  /home/stoffer/esp8266/esp-open-sdk/sdk/lib/libnet80211.a(ieee80211_hostap.o)
                                                  /home/stoffer/esp8266/esp-open-sdk/sdk/lib/libmain.a(user_interface.o)
                                                  /home/stoffer/esp8266/esp-open-sdk/sdk/lib/libmain.a(app_main.o)
netif_set_down                                    /home/stoffer/esp8266/esp-open-sdk/sdk/lib/liblwip.a(netif.o)
                                                  /home/stoffer/esp8266/esp-open-sdk/sdk/lib/liblwip.a(dhcp.o)
                                                  /home/stoffer/esp8266/esp-open-sdk/sdk/lib/libnet80211.a(wl_cnx.o)
                                                  /home/stoffer/esp8266/esp-open-sdk/sdk/lib/libnet80211.a(ieee80211_hostap.o)
netif_set_gw                                      /home/stoffer/esp8266/esp-open-sdk/sdk/lib/liblwip.a(netif.o)
                                                  /home/stoffer/esp8266/esp-open-sdk/sdk/lib/liblwip.a(dhcp.o)
netif_set_ipaddr                                  /home/stoffer/esp8266/esp-open-sdk/sdk/lib/liblwip.a(netif.o)
                                                  /home/stoffer/esp8266/esp-open-sdk/sdk/lib/liblwip.a(dhcp.o)
netif_set_link_down                               /home/stoffer/esp8266/esp-open-sdk/sdk/lib/liblwip.a(netif.o)
netif_set_link_up                                 /home/stoffer/esp8266/esp-open-sdk/sdk/lib/liblwip.a(netif.o)
netif_set_netmask                                 /home/stoffer/esp8266/esp-open-sdk/sdk/lib/liblwip.a(netif.o)
                                                  /home/stoffer/esp8266/esp-open-sdk/sdk/lib/liblwip.a(dhcp.o)
netif_set_up                                      /home/stoffer/esp8266/esp-open-sdk/sdk/lib/liblwip.a(netif.o)
                                                  /home/stoffer/esp8266/esp-open-sdk/sdk/lib/libwpa.a(wpa_main.o)
                                                  /home/stoffer/esp8266/esp-open-sdk/sdk/lib/liblwip.a(dhcp.o)
                                                  /home/stoffer/esp8266/esp-open-sdk/sdk/lib/libnet80211.a(ieee80211_hostap.o)
no_ap_found_index                                 /home/stoffer/esp8266/esp-open-sdk/sdk/lib/libnet80211.a(wl_cnx.o)
                                                  /home/stoffer/esp8266/esp-open-sdk/sdk/lib/libwpa.a(wpa_main.o)
                                                  /home/stoffer/esp8266/esp-open-sdk/sdk/lib/libmain.a(user_interface.o)
node_insert_to_list                               /home/stoffer/esp8266/esp-open-sdk/sdk/lib/liblwip.a(dhcpserver.o)
node_remove_from_list                             /home/stoffer/esp8266/esp-open-sdk/sdk/lib/liblwip.a(dhcpserver.o)
noise_array                                       /home/stoffer/esp8266/esp-open-sdk/sdk/lib/libphy.a(phy_chip_v6.o)
noise_check_loop                                  /home/stoffer/esp8266/esp-open-sdk/sdk/lib/libphy.a(phy_chip_v6.o)
                                                  /home/stoffer/esp8266/esp-open-sdk/sdk/lib/libnet80211.a(ieee80211_hostap.o)
                                                  /home/stoffer/esp8266/esp-open-sdk/sdk/lib/libpp.a(pp.o)
                                                  /home/stoffer/esp8266/esp-open-sdk/sdk/lib/libpp.a(pm_for_bcn_only_mode.o)
                                                  /home/stoffer/esp8266/esp-open-sdk/sdk/lib/libpp.a(pm.o)
                                                  /home/stoffer/esp8266/esp-open-sdk/sdk/lib/libphy.a(phy_sleep.o)
noise_init                                        /home/stoffer/esp8266/esp-open-sdk/sdk/lib/libphy.a(phy_chip_v6.o)
ntp_offline_second_counter                        build/app_app.a(unix_time.o)
os_get_random                                     /home/stoffer/esp8266/esp-open-sdk/sdk/lib/libwpa.a(os_xtensa.o)
                                                  /home/stoffer/esp8266/esp-open-sdk/sdk/lib/libwpa.a(wpa.o)
                                                  /home/stoffer/esp8266/esp-open-sdk/sdk/lib/libwpa.a(wpa_auth.o)
                                                  build/app_app.a(crypto.o)
os_get_time                                       /home/stoffer/esp8266/esp-open-sdk/sdk/lib/libwpa.a(os_xtensa.o)
                                                  /home/stoffer/esp8266/esp-open-sdk/sdk/lib/libwpa.a(common.o)
os_printf_plus                                    /home/stoffer/esp8266/esp-open-sdk/sdk/lib/libmain.a(user_interface.o)
                                                  /home/stoffer/esp8266/esp-open-sdk/sdk/lib/libwpa.a(wpa_main.o)
                                                  /home/stoffer/esp8266/esp-open-sdk/sdk/lib/liblwip.a(sntp.o)
                                                  /home/stoffer/esp8266/esp-open-sdk/sdk/lib/liblwip.a(ip.o)
                                                  /home/stoffer/esp8266/esp-open-sdk/sdk/lib/liblwip.a(espconn_tcp.o)
                                                  /home/stoffer/esp8266/esp-open-sdk/sdk/lib/liblwip.a(dhcpserver.o)
                                                  /home/stoffer/esp8266/esp-open-sdk/sdk/lib/liblwip.a(dhcp.o)
                                                  /home/stoffer/esp8266/esp-open-sdk/sdk/lib/libnet80211.a(ieee80211_action_vendor.o)
                                                  /home/stoffer/esp8266/esp-open-sdk/sdk/lib/libnet80211.a(wl_cnx.o)
                                                  /home/stoffer/esp8266/esp-open-sdk/sdk/lib/libnet80211.a(ieee80211_sta.o)
                                                  /home/stoffer/esp8266/esp-open-sdk/sdk/lib/libnet80211.a(ieee80211_scan.o)
                                                  /home/stoffer/esp8266/esp-open-sdk/sdk/lib/libnet80211.a(ieee80211_output.o)
                                                  /home/stoffer/esp8266/esp-open-sdk/sdk/lib/libnet80211.a(ieee80211_mesh_quick.o)
                                                  /home/stoffer/esp8266/esp-open-sdk/sdk/lib/libnet80211.a(ieee80211_ht.o)
                                                  /home/stoffer/esp8266/esp-open-sdk/sdk/lib/libnet80211.a(ieee80211_hostap.o)
                                                  /home/stoffer/esp8266/esp-open-sdk/sdk/lib/libnet80211.a(ieee80211.o)
                                                  /home/stoffer/esp8266/esp-open-sdk/sdk/lib/libpp.a(trc.o)
                                                  /home/stoffer/esp8266/esp-open-sdk/sdk/lib/libpp.a(pp.o)
                                                  /home/stoffer/esp8266/esp-open-sdk/sdk/lib/libpp.a(pm_for_bcn_only_mode.o)
                                                  /home/stoffer/esp8266/esp-open-sdk/sdk/lib/libpp.a(pm.o)
                                                  /home/stoffer/esp8266/esp-open-sdk/sdk/lib/libpp.a(lmac.o)
                                                  /home/stoffer/esp8266/esp-open-sdk/sdk/lib/libpp.a(if_hwctrl.o)
                                                  /home/stoffer/esp8266/esp-open-sdk/sdk/lib/libphy.a(phy_chip_v6_cal.o)
                                                  /home/stoffer/esp8266/esp-open-sdk/sdk/lib/libphy.a(phy_chip_v6.o)
                                                  /home/stoffer/esp8266/esp-open-sdk/sdk/lib/libphy.a(phy_chip_v6_ana.o)
                                                  build/app_app.a(wifi.o)
                                                  build/app_app.a(user_main.o)
                                                  /home/stoffer/esp8266/esp-open-sdk/sdk/lib/libmain.a(eagle_lwip_if.o)
                                                  /home/stoffer/esp8266/esp-open-sdk/sdk/lib/libmain.a(spi_flash.o)
                                                  /home/stoffer/esp8266/esp-open-sdk/sdk/lib/libmain.a(ets_timer.o)
                                                  /home/stoffer/esp8266/esp-open-sdk/sdk/lib/libmain.a(app_main.o)
os_random                                         /home/stoffer/esp8266/esp-open-sdk/sdk/lib/libwpa.a(os_xtensa.o)
                                                  /home/stoffer/esp8266/esp-open-sdk/sdk/lib/liblwip.a(tcp.o)
                                                  /home/stoffer/esp8266/esp-open-sdk/sdk/lib/liblwip.a(espconn.o)
                                                  /home/stoffer/esp8266/esp-open-sdk/sdk/lib/liblwip.a(dns.o)
our_tx_eb                                         /home/stoffer/esp8266/esp-open-sdk/sdk/lib/libpp.a(lmac.o)
                                                  /home/stoffer/esp8266/esp-open-sdk/sdk/lib/libpp.a(wdev.o)
pbkdf2_sha1                                       /home/stoffer/esp8266/esp-open-sdk/sdk/lib/libwpa.a(wpa.o)
                                                  /home/stoffer/esp8266/esp-open-sdk/sdk/lib/libmain.a(user_interface.o)
pbuf_alloc                                        /home/stoffer/esp8266/esp-open-sdk/sdk/lib/liblwip.a(pbuf.o)
                                                  /home/stoffer/esp8266/esp-open-sdk/sdk/lib/libwpa.a(wpas_glue.o)
                                                  /home/stoffer/esp8266/esp-open-sdk/sdk/lib/libwpa.a(wpa_auth.o)
                                                  /home/stoffer/esp8266/esp-open-sdk/sdk/lib/liblwip.a(icmp.o)
                                                  /home/stoffer/esp8266/esp-open-sdk/sdk/lib/liblwip.a(udp.o)
                                                  /home/stoffer/esp8266/esp-open-sdk/sdk/lib/liblwip.a(tcp_out.o)
                                                  /home/stoffer/esp8266/esp-open-sdk/sdk/lib/liblwip.a(sntp.o)
                                                  /home/stoffer/esp8266/esp-open-sdk/sdk/lib/liblwip.a(raw.o)
                                                  /home/stoffer/esp8266/esp-open-sdk/sdk/lib/liblwip.a(igmp.o)
                                                  /home/stoffer/esp8266/esp-open-sdk/sdk/lib/liblwip.a(etharp.o)
                                                  /home/stoffer/esp8266/esp-open-sdk/sdk/lib/liblwip.a(espconn_udp.o)
                                                  /home/stoffer/esp8266/esp-open-sdk/sdk/lib/liblwip.a(dns.o)
                                                  /home/stoffer/esp8266/esp-open-sdk/sdk/lib/liblwip.a(dhcpserver.o)
                                                  /home/stoffer/esp8266/esp-open-sdk/sdk/lib/liblwip.a(dhcp.o)
                                                  /home/stoffer/esp8266/esp-open-sdk/sdk/lib/libnet80211.a(ieee80211_input.o)
                                                  /home/stoffer/esp8266/esp-open-sdk/sdk/lib/libnet80211.a(ieee80211_hostap.o)
pbuf_cat                                          /home/stoffer/esp8266/esp-open-sdk/sdk/lib/liblwip.a(pbuf.o)
                                                  /home/stoffer/esp8266/esp-open-sdk/sdk/lib/liblwip.a(tcp_out.o)
                                                  /home/stoffer/esp8266/esp-open-sdk/sdk/lib/liblwip.a(tcp_in.o)
pbuf_chain                                        /home/stoffer/esp8266/esp-open-sdk/sdk/lib/liblwip.a(pbuf.o)
                                                  /home/stoffer/esp8266/esp-open-sdk/sdk/lib/liblwip.a(udp.o)
                                                  /home/stoffer/esp8266/esp-open-sdk/sdk/lib/liblwip.a(raw.o)
pbuf_clen                                         /home/stoffer/esp8266/esp-open-sdk/sdk/lib/liblwip.a(pbuf.o)
                                                  /home/stoffer/esp8266/esp-open-sdk/sdk/lib/liblwip.a(tcp_out.o)
                                                  /home/stoffer/esp8266/esp-open-sdk/sdk/lib/liblwip.a(tcp_in.o)
pbuf_coalesce                                     /home/stoffer/esp8266/esp-open-sdk/sdk/lib/liblwip.a(pbuf.o)
pbuf_copy                                         /home/stoffer/esp8266/esp-open-sdk/sdk/lib/liblwip.a(pbuf.o)
                                                  /home/stoffer/esp8266/esp-open-sdk/sdk/lib/liblwip.a(icmp.o)
                                                  /home/stoffer/esp8266/esp-open-sdk/sdk/lib/liblwip.a(etharp.o)
                                                  /home/stoffer/esp8266/esp-open-sdk/sdk/lib/liblwip.a(espconn_udp.o)
pbuf_copy_partial                                 /home/stoffer/esp8266/esp-open-sdk/sdk/lib/liblwip.a(pbuf.o)
                                                  /home/stoffer/esp8266/esp-open-sdk/sdk/lib/liblwip.a(tcp_out.o)
                                                  /home/stoffer/esp8266/esp-open-sdk/sdk/lib/liblwip.a(sntp.o)
                                                  /home/stoffer/esp8266/esp-open-sdk/sdk/lib/liblwip.a(espconn_udp.o)
                                                  /home/stoffer/esp8266/esp-open-sdk/sdk/lib/liblwip.a(espconn_tcp.o)
                                                  /home/stoffer/esp8266/esp-open-sdk/sdk/lib/liblwip.a(dns.o)
                                                  /home/stoffer/esp8266/esp-open-sdk/sdk/lib/liblwip.a(dhcp.o)
pbuf_dechain                                      /home/stoffer/esp8266/esp-open-sdk/sdk/lib/liblwip.a(pbuf.o)
pbuf_free                                         /home/stoffer/esp8266/esp-open-sdk/sdk/lib/liblwip.a(pbuf.o)
                                                  /home/stoffer/esp8266/esp-open-sdk/sdk/lib/liblwip.a(icmp.o)
                                                  /home/stoffer/esp8266/esp-open-sdk/sdk/lib/liblwip.a(udp.o)
                                                  /home/stoffer/esp8266/esp-open-sdk/sdk/lib/liblwip.a(tcp_out.o)
                                                  /home/stoffer/esp8266/esp-open-sdk/sdk/lib/liblwip.a(tcp.o)
                                                  /home/stoffer/esp8266/esp-open-sdk/sdk/lib/liblwip.a(tcp_in.o)
                                                  /home/stoffer/esp8266/esp-open-sdk/sdk/lib/liblwip.a(sntp.o)
                                                  /home/stoffer/esp8266/esp-open-sdk/sdk/lib/liblwip.a(raw.o)
                                                  /home/stoffer/esp8266/esp-open-sdk/sdk/lib/liblwip.a(ip.o)
                                                  /home/stoffer/esp8266/esp-open-sdk/sdk/lib/liblwip.a(igmp.o)
                                                  /home/stoffer/esp8266/esp-open-sdk/sdk/lib/liblwip.a(etharp.o)
                                                  /home/stoffer/esp8266/esp-open-sdk/sdk/lib/liblwip.a(espconn_udp.o)
                                                  /home/stoffer/esp8266/esp-open-sdk/sdk/lib/liblwip.a(espconn_tcp.o)
                                                  /home/stoffer/esp8266/esp-open-sdk/sdk/lib/liblwip.a(dns.o)
                                                  /home/stoffer/esp8266/esp-open-sdk/sdk/lib/liblwip.a(dhcpserver.o)
                                                  /home/stoffer/esp8266/esp-open-sdk/sdk/lib/liblwip.a(dhcp.o)
                                                  /home/stoffer/esp8266/esp-open-sdk/sdk/lib/libnet80211.a(ieee80211_power.o)
                                                  /home/stoffer/esp8266/esp-open-sdk/sdk/lib/libnet80211.a(ieee80211_hostap.o)
                                                  /home/stoffer/esp8266/esp-open-sdk/sdk/lib/libpp.a(pp.o)
                                                  /home/stoffer/esp8266/esp-open-sdk/sdk/lib/libmain.a(eagle_lwip_if.o)
pbuf_free_ooseq_new                               /home/stoffer/esp8266/esp-open-sdk/sdk/lib/liblwip.a(pbuf.o)
                                                  /home/stoffer/esp8266/esp-open-sdk/sdk/lib/liblwip.a(tcp_in.o)
pbuf_get_at                                       /home/stoffer/esp8266/esp-open-sdk/sdk/lib/liblwip.a(pbuf.o)
pbuf_header                                       /home/stoffer/esp8266/esp-open-sdk/sdk/lib/liblwip.a(pbuf.o)
                                                  /home/stoffer/esp8266/esp-open-sdk/sdk/lib/liblwip.a(icmp.o)
                                                  /home/stoffer/esp8266/esp-open-sdk/sdk/lib/liblwip.a(udp.o)
                                                  /home/stoffer/esp8266/esp-open-sdk/sdk/lib/liblwip.a(tcp_out.o)
                                                  /home/stoffer/esp8266/esp-open-sdk/sdk/lib/liblwip.a(tcp_in.o)
                                                  /home/stoffer/esp8266/esp-open-sdk/sdk/lib/liblwip.a(raw.o)
                                                  /home/stoffer/esp8266/esp-open-sdk/sdk/lib/liblwip.a(ip.o)
                                                  /home/stoffer/esp8266/esp-open-sdk/sdk/lib/liblwip.a(igmp.o)
                                                  /home/stoffer/esp8266/esp-open-sdk/sdk/lib/liblwip.a(etharp.o)
pbuf_memcmp                                       /home/stoffer/esp8266/esp-open-sdk/sdk/lib/liblwip.a(pbuf.o)
pbuf_memfind                                      /home/stoffer/esp8266/esp-open-sdk/sdk/lib/liblwip.a(pbuf.o)
pbuf_realloc                                      /home/stoffer/esp8266/esp-open-sdk/sdk/lib/liblwip.a(pbuf.o)
                                                  /home/stoffer/esp8266/esp-open-sdk/sdk/lib/liblwip.a(tcp_in.o)
                                                  /home/stoffer/esp8266/esp-open-sdk/sdk/lib/liblwip.a(ip.o)
                                                  /home/stoffer/esp8266/esp-open-sdk/sdk/lib/liblwip.a(dns.o)
                                                  /home/stoffer/esp8266/esp-open-sdk/sdk/lib/liblwip.a(dhcp.o)
pbuf_ref                                          /home/stoffer/esp8266/esp-open-sdk/sdk/lib/liblwip.a(pbuf.o)
                                                  /home/stoffer/esp8266/esp-open-sdk/sdk/lib/liblwip.a(tcp.o)
                                                  /home/stoffer/esp8266/esp-open-sdk/sdk/lib/liblwip.a(etharp.o)
                                                  /home/stoffer/esp8266/esp-open-sdk/sdk/lib/libnet80211.a(ieee80211_output.o)
pbuf_strstr                                       /home/stoffer/esp8266/esp-open-sdk/sdk/lib/liblwip.a(pbuf.o)
pbuf_take                                         /home/stoffer/esp8266/esp-open-sdk/sdk/lib/liblwip.a(pbuf.o)
pbus_set_rxbbgain                                 /home/stoffer/esp8266/esp-open-sdk/sdk/lib/libphy.a(phy_chip_v6.o)
pend_flag_noise_check                             /home/stoffer/esp8266/esp-open-sdk/sdk/lib/libpp.a(pp.o)
                                                  /home/stoffer/esp8266/esp-open-sdk/sdk/lib/libpp.a(pm_for_bcn_only_mode.o)
                                                  /home/stoffer/esp8266/esp-open-sdk/sdk/lib/libpp.a(pm.o)
pend_flag_periodic_cal                            /home/stoffer/esp8266/esp-open-sdk/sdk/lib/libpp.a(pp.o)
                                                  /home/stoffer/esp8266/esp-open-sdk/sdk/lib/libpp.a(pm_for_bcn_only_mode.o)
                                                  /home/stoffer/esp8266/esp-open-sdk/sdk/lib/libpp.a(pm.o)
periodic_cal                                      /home/stoffer/esp8266/esp-open-sdk/sdk/lib/libphy.a(phy_chip_v6.o)
                                                  /home/stoffer/esp8266/esp-open-sdk/sdk/lib/libphy.a(phy_sleep.o)
periodic_cal_dc_num                               /home/stoffer/esp8266/esp-open-sdk/sdk/lib/libphy.a(phy_chip_v6.o)
periodic_cal_flag                                 /home/stoffer/esp8266/esp-open-sdk/sdk/lib/libphy.a(phy_chip_v6.o)
                                                  /home/stoffer/esp8266/esp-open-sdk/sdk/lib/libphy.a(phy_sleep.o)
periodic_cal_sat                                  /home/stoffer/esp8266/esp-open-sdk/sdk/lib/libphy.a(phy_sleep.o)
periodic_cal_top                                  /home/stoffer/esp8266/esp-open-sdk/sdk/lib/libphy.a(phy_chip_v6.o)
                                                  /home/stoffer/esp8266/esp-open-sdk/sdk/lib/libnet80211.a(ieee80211_hostap.o)
                                                  /home/stoffer/esp8266/esp-open-sdk/sdk/lib/libpp.a(pp.o)
                                                  /home/stoffer/esp8266/esp-open-sdk/sdk/lib/libpp.a(pm_for_bcn_only_mode.o)
                                                  /home/stoffer/esp8266/esp-open-sdk/sdk/lib/libpp.a(pm.o)
                                                  /home/stoffer/esp8266/esp-open-sdk/sdk/lib/libphy.a(phy_chip_v6_cal.o)
phy_adc_read_fast                                 /home/stoffer/esp8266/esp-open-sdk/sdk/lib/libphy.a(phy_chip_v6_ana.o)
                                                  /home/stoffer/esp8266/esp-open-sdk/sdk/lib/libmain.a(user_interface.o)
phy_after_init_enrx                               /home/stoffer/esp8266/esp-open-sdk/sdk/lib/libphy.a(phy_chip_v6.o)
                                                  /home/stoffer/esp8266/esp-open-sdk/sdk/lib/libphy.a(phy_chip_v6_ana.o)
phy_afterwake_set_rfoption                        /home/stoffer/esp8266/esp-open-sdk/sdk/lib/libphy.a(phy_chip_v6.o)
                                                  /home/stoffer/esp8266/esp-open-sdk/sdk/lib/libmain.a(user_interface.o)
phy_bb_rx_cfg                                     /home/stoffer/esp8266/esp-open-sdk/sdk/lib/libphy.a(phy_chip_v6.o)
phy_change_channel                                /home/stoffer/esp8266/esp-open-sdk/sdk/lib/libphy.a(phy.o)
                                                  /home/stoffer/esp8266/esp-open-sdk/sdk/lib/libnet80211.a(wl_chm.o)
phy_check_data_table                              /home/stoffer/esp8266/esp-open-sdk/sdk/lib/libphy.a(phy_chip_v6.o)
phy_debug_print                                   /home/stoffer/esp8266/esp-open-sdk/sdk/lib/libphy.a(phy_chip_v6.o)
phy_delete_channel                                /home/stoffer/esp8266/esp-open-sdk/sdk/lib/libphy.a(phy.o)
phy_dig_spur_prot                                 /home/stoffer/esp8266/esp-open-sdk/sdk/lib/libphy.a(phy_chip_v6.o)
                                                  /home/stoffer/esp8266/esp-open-sdk/sdk/lib/libphy.a(phy_chip_v6_ana.o)
phy_dig_spur_set                                  /home/stoffer/esp8266/esp-open-sdk/sdk/lib/libphy.a(phy_chip_v6.o)
                                                  /home/stoffer/esp8266/esp-open-sdk/sdk/lib/libphy.a(phy_chip_v6_ana.o)
phy_disable_agc                                   /home/stoffer/esp8266/esp-open-sdk/sdk/lib/libphy.a(phy.o)
                                                  /home/stoffer/esp8266/esp-open-sdk/sdk/lib/libmain.a(app_main.o)
phy_enable_agc                                    /home/stoffer/esp8266/esp-open-sdk/sdk/lib/libphy.a(phy.o)
                                                  /home/stoffer/esp8266/esp-open-sdk/sdk/lib/libmain.a(app_main.o)
phy_freq_offset                                   /home/stoffer/esp8266/esp-open-sdk/sdk/lib/libphy.a(phy_chip_v6.o)
                                                  /home/stoffer/esp8266/esp-open-sdk/sdk/lib/libphy.a(phy_chip_v6_ana.o)
phy_get_bb_evm                                    /home/stoffer/esp8266/esp-open-sdk/sdk/lib/libphy.a(phy_chip_v6_cal.o)
phy_get_bb_freqoffset                             /home/stoffer/esp8266/esp-open-sdk/sdk/lib/libphy.a(phy_chip_v6_cal.o)
                                                  /home/stoffer/esp8266/esp-open-sdk/sdk/lib/libpp.a(wdev.o)
phy_get_check_flag                                /home/stoffer/esp8266/esp-open-sdk/sdk/lib/libphy.a(phy_chip_v6_ana.o)
                                                  /home/stoffer/esp8266/esp-open-sdk/sdk/lib/libmain.a(user_interface.o)
phy_get_freq_param                                /home/stoffer/esp8266/esp-open-sdk/sdk/lib/libphy.a(phy_chip_v6.o)
phy_get_mactime                                   /home/stoffer/esp8266/esp-open-sdk/sdk/lib/libphy.a(phy.o)
phy_get_rand                                      /home/stoffer/esp8266/esp-open-sdk/sdk/lib/libphy.a(phy_chip_v6.o)
                                                  /home/stoffer/esp8266/esp-open-sdk/sdk/lib/libwpa.a(os_xtensa.o)
phy_get_romfuncs                                  /home/stoffer/esp8266/esp-open-sdk/sdk/lib/libphy.a(phy_chip_v6.o)
phy_get_rxnf_param                                /home/stoffer/esp8266/esp-open-sdk/sdk/lib/libphy.a(phy_chip_v6.o)
phy_get_txpwr_param                               /home/stoffer/esp8266/esp-open-sdk/sdk/lib/libphy.a(phy_chip_v6.o)
phy_get_vdd33                                     /home/stoffer/esp8266/esp-open-sdk/sdk/lib/libphy.a(phy_chip_v6_ana.o)
                                                  /home/stoffer/esp8266/esp-open-sdk/sdk/lib/libmain.a(user_interface.o)
phy_gpio_cfg                                      /home/stoffer/esp8266/esp-open-sdk/sdk/lib/libphy.a(phy_chip_v6.o)
phy_in_most_power                                 /home/stoffer/esp8266/esp-open-sdk/sdk/lib/libphy.a(phy_chip_v6.o)
phy_in_vdd33_offset                               /home/stoffer/esp8266/esp-open-sdk/sdk/lib/libphy.a(phy_chip_v6.o)
                                                  /home/stoffer/esp8266/esp-open-sdk/sdk/lib/libphy.a(phy_chip_v6_cal.o)
phy_init                                          /home/stoffer/esp8266/esp-open-sdk/sdk/lib/libphy.a(phy.o)
phy_initialize_bb                                 /home/stoffer/esp8266/esp-open-sdk/sdk/lib/libphy.a(phy.o)
phy_meas_freq_offset                              /home/stoffer/esp8266/esp-open-sdk/sdk/lib/libphy.a(phy_chip_v6_cal.o)
                                                  /home/stoffer/esp8266/esp-open-sdk/sdk/lib/libphy.a(phy_chip_v6.o)
phy_pbus_soc_cfg                                  /home/stoffer/esp8266/esp-open-sdk/sdk/lib/libphy.a(phy_chip_v6.o)
phy_rx_gain_dc_flag                               /home/stoffer/esp8266/esp-open-sdk/sdk/lib/libphy.a(phy_chip_v6.o)
                                                  /home/stoffer/esp8266/esp-open-sdk/sdk/lib/libpp.a(pm_for_bcn_only_mode.o)
                                                  /home/stoffer/esp8266/esp-open-sdk/sdk/lib/libpp.a(pm.o)
                                                  /home/stoffer/esp8266/esp-open-sdk/sdk/lib/libmain.a(app_main.o)
phy_rx_gain_dc_table                              /home/stoffer/esp8266/esp-open-sdk/sdk/lib/libphy.a(phy_chip_v6.o)
                                                  /home/stoffer/esp8266/esp-open-sdk/sdk/lib/libpp.a(pm_for_bcn_only_mode.o)
                                                  /home/stoffer/esp8266/esp-open-sdk/sdk/lib/libpp.a(pm.o)
                                                  /home/stoffer/esp8266/esp-open-sdk/sdk/lib/libmain.a(app_main.o)
phy_set_most_tpw                                  /home/stoffer/esp8266/esp-open-sdk/sdk/lib/libphy.a(phy_chip_v6.o)
                                                  /home/stoffer/esp8266/esp-open-sdk/sdk/lib/libmain.a(user_interface.o)
phy_set_most_tpw_disbg                            /home/stoffer/esp8266/esp-open-sdk/sdk/lib/libphy.a(phy_chip_v6.o)
                                                  /home/stoffer/esp8266/esp-open-sdk/sdk/lib/libphy.a(phy_chip_v6_cal.o)
phy_set_most_tpw_index                            /home/stoffer/esp8266/esp-open-sdk/sdk/lib/libphy.a(phy_chip_v6.o)
                                                  /home/stoffer/esp8266/esp-open-sdk/sdk/lib/libphy.a(phy_chip_v6_cal.o)
phy_set_powerup_option                            /home/stoffer/esp8266/esp-open-sdk/sdk/lib/libphy.a(phy_chip_v6.o)
                                                  /home/stoffer/esp8266/esp-open-sdk/sdk/lib/libmain.a(user_interface.o)
phy_set_rx11b_reg                                 /home/stoffer/esp8266/esp-open-sdk/sdk/lib/libphy.a(phy_chip_v6.o)
phy_set_sense                                     /home/stoffer/esp8266/esp-open-sdk/sdk/lib/libphy.a(phy.o)
phy_tx_power_out                                  /home/stoffer/esp8266/esp-open-sdk/sdk/lib/libphy.a(phy_chip_v6_cal.o)
phy_tx_pwctrl_cali                                /home/stoffer/esp8266/esp-open-sdk/sdk/lib/libphy.a(phy_chip_v6.o)
phy_tx_pwr_error                                  /home/stoffer/esp8266/esp-open-sdk/sdk/lib/libphy.a(phy_chip_v6_cal.o)
                                                  /home/stoffer/esp8266/esp-open-sdk/sdk/lib/libphy.a(phy_chip_v6.o)
phy_txpwr_diff_flash                              /home/stoffer/esp8266/esp-open-sdk/sdk/lib/libphy.a(phy_chip_v6.o)
phy_vdd33_set_tpw                                 /home/stoffer/esp8266/esp-open-sdk/sdk/lib/libphy.a(phy_chip_v6.o)
                                                  /home/stoffer/esp8266/esp-open-sdk/sdk/lib/libmain.a(user_interface.o)
phytype2mode                                      /home/stoffer/esp8266/esp-open-sdk/sdk/lib/libpp.a(trc.o)
pktinfo                                           /home/stoffer/esp8266/esp-open-sdk/sdk/lib/liblwip.a(espconn.o)
                                                  /home/stoffer/esp8266/esp-open-sdk/sdk/lib/liblwip.a(espconn_tcp.o)
plink_active                                      /home/stoffer/esp8266/esp-open-sdk/sdk/lib/liblwip.a(espconn.o)
                                                  /home/stoffer/esp8266/esp-open-sdk/sdk/lib/liblwip.a(espconn_udp.o)
                                                  /home/stoffer/esp8266/esp-open-sdk/sdk/lib/liblwip.a(espconn_tcp.o)
pm_allow_tx                                       /home/stoffer/esp8266/esp-open-sdk/sdk/lib/libpp.a(pm.o)
                                                  /home/stoffer/esp8266/esp-open-sdk/sdk/lib/libpp.a(pp.o)
pm_assoc_parse                                    /home/stoffer/esp8266/esp-open-sdk/sdk/lib/libpp.a(pm.o)
                                                  /home/stoffer/esp8266/esp-open-sdk/sdk/lib/libpp.a(pp.o)
pm_attach                                         /home/stoffer/esp8266/esp-open-sdk/sdk/lib/libpp.a(pm.o)
                                                  /home/stoffer/esp8266/esp-open-sdk/sdk/lib/libmain.a(app_main.o)
pm_check_mac_idle                                 /home/stoffer/esp8266/esp-open-sdk/sdk/lib/libphy.a(phy_sleep.o)
pm_enable_gpio_wakeup                             /home/stoffer/esp8266/esp-open-sdk/sdk/lib/libpp.a(pm.o)
                                                  /home/stoffer/esp8266/esp-open-sdk/sdk/lib/libpp.a(pp.o)
pm_force_scan_unlock                              /home/stoffer/esp8266/esp-open-sdk/sdk/lib/libpp.a(pm.o)
                                                  /home/stoffer/esp8266/esp-open-sdk/sdk/lib/libnet80211.a(ieee80211_scan.o)
                                                  /home/stoffer/esp8266/esp-open-sdk/sdk/lib/libpp.a(if_hwctrl.o)
pm_get_ck170_period                               /home/stoffer/esp8266/esp-open-sdk/sdk/lib/libpp.a(pm.o)
                                                  /home/stoffer/esp8266/esp-open-sdk/sdk/lib/libpp.a(pm_for_bcn_only_mode.o)
pm_get_idle_wait_time                             /home/stoffer/esp8266/esp-open-sdk/sdk/lib/libpp.a(pm.o)
pm_get_sleep_type                                 /home/stoffer/esp8266/esp-open-sdk/sdk/lib/libpp.a(pm.o)
                                                  /home/stoffer/esp8266/esp-open-sdk/sdk/lib/libmain.a(user_interface.o)
pm_goto_sleep                                     /home/stoffer/esp8266/esp-open-sdk/sdk/lib/libphy.a(phy_sleep.o)
                                                  /home/stoffer/esp8266/esp-open-sdk/sdk/lib/libpp.a(pm_for_bcn_only_mode.o)
                                                  /home/stoffer/esp8266/esp-open-sdk/sdk/lib/libpp.a(pm.o)
pm_idle_sleep                                     /home/stoffer/esp8266/esp-open-sdk/sdk/lib/libpp.a(pm.o)
pm_is_open                                        /home/stoffer/esp8266/esp-open-sdk/sdk/lib/libpp.a(pm.o)
                                                  /home/stoffer/esp8266/esp-open-sdk/sdk/lib/libnet80211.a(ieee80211_scan.o)
                                                  /home/stoffer/esp8266/esp-open-sdk/sdk/lib/libpp.a(pm_for_bcn_only_mode.o)
                                                  /home/stoffer/esp8266/esp-open-sdk/sdk/lib/libmain.a(user_interface.o)
pm_is_waked                                       /home/stoffer/esp8266/esp-open-sdk/sdk/lib/libpp.a(pm.o)
                                                  /home/stoffer/esp8266/esp-open-sdk/sdk/lib/libnet80211.a(ieee80211_scan.o)
                                                  /home/stoffer/esp8266/esp-open-sdk/sdk/lib/libpp.a(pp.o)
                                                  /home/stoffer/esp8266/esp-open-sdk/sdk/lib/libmain.a(user_interface.o)
pm_onBcnRx                                        /home/stoffer/esp8266/esp-open-sdk/sdk/lib/libpp.a(pm.o)
                                                  /home/stoffer/esp8266/esp-open-sdk/sdk/lib/libpp.a(pp.o)
pm_open                                           /home/stoffer/esp8266/esp-open-sdk/sdk/lib/libpp.a(pm.o)
                                                  /home/stoffer/esp8266/esp-open-sdk/sdk/lib/libpp.a(if_hwctrl.o)
pm_open_rf                                        /home/stoffer/esp8266/esp-open-sdk/sdk/lib/libphy.a(phy_sleep.o)
                                                  /home/stoffer/esp8266/esp-open-sdk/sdk/lib/libmain.a(user_interface.o)
pm_post                                           /home/stoffer/esp8266/esp-open-sdk/sdk/lib/libpp.a(pm.o)
                                                  /home/stoffer/esp8266/esp-open-sdk/sdk/lib/libnet80211.a(ieee80211_scan.o)
                                                  /home/stoffer/esp8266/esp-open-sdk/sdk/lib/libpp.a(pp.o)
                                                  /home/stoffer/esp8266/esp-open-sdk/sdk/lib/libmain.a(user_interface.o)
pm_prepare_to_sleep                               /home/stoffer/esp8266/esp-open-sdk/sdk/lib/libphy.a(phy_sleep.o)
pm_reset_idle_sleep                               /home/stoffer/esp8266/esp-open-sdk/sdk/lib/libpp.a(pm.o)
pm_rf_is_closed                                   /home/stoffer/esp8266/esp-open-sdk/sdk/lib/libpp.a(pm.o)
                                                  /home/stoffer/esp8266/esp-open-sdk/sdk/lib/libpp.a(pp.o)
pm_rtc2usec                                       /home/stoffer/esp8266/esp-open-sdk/sdk/lib/libphy.a(phy_sleep.o)
                                                  /home/stoffer/esp8266/esp-open-sdk/sdk/lib/libpp.a(pm_for_bcn_only_mode.o)
                                                  /home/stoffer/esp8266/esp-open-sdk/sdk/lib/libpp.a(pm.o)
pm_rtc_clock_cali                                 /home/stoffer/esp8266/esp-open-sdk/sdk/lib/libphy.a(phy_sleep.o)
                                                  /home/stoffer/esp8266/esp-open-sdk/sdk/lib/libpp.a(pm.o)
pm_rtc_clock_cali_proc                            /home/stoffer/esp8266/esp-open-sdk/sdk/lib/libpp.a(pm.o)
                                                  /home/stoffer/esp8266/esp-open-sdk/sdk/lib/libpp.a(pm_for_bcn_only_mode.o)
                                                  /home/stoffer/esp8266/esp-open-sdk/sdk/lib/libmain.a(user_interface.o)
pm_scan_lock                                      /home/stoffer/esp8266/esp-open-sdk/sdk/lib/libpp.a(pm.o)
                                                  /home/stoffer/esp8266/esp-open-sdk/sdk/lib/libnet80211.a(ieee80211_scan.o)
pm_scan_unlocked                                  /home/stoffer/esp8266/esp-open-sdk/sdk/lib/libpp.a(pm.o)
                                                  /home/stoffer/esp8266/esp-open-sdk/sdk/lib/libpp.a(pp.o)
pm_sdio_nidle                                     /home/stoffer/esp8266/esp-open-sdk/sdk/lib/libphy.a(phy_sleep.o)
pm_send_nullfunc                                  /home/stoffer/esp8266/esp-open-sdk/sdk/lib/libpp.a(pm.o)
pm_set_addr                                       /home/stoffer/esp8266/esp-open-sdk/sdk/lib/libpp.a(pm.o)
                                                  /home/stoffer/esp8266/esp-open-sdk/sdk/lib/libpp.a(pp.o)
pm_set_pll_xtal_wait_time                         /home/stoffer/esp8266/esp-open-sdk/sdk/lib/libphy.a(phy_sleep.o)
pm_set_sleep_btco                                 /home/stoffer/esp8266/esp-open-sdk/sdk/lib/libphy.a(phy_sleep.o)
pm_set_sleep_cycles                               /home/stoffer/esp8266/esp-open-sdk/sdk/lib/libphy.a(phy_sleep.o)
                                                  /home/stoffer/esp8266/esp-open-sdk/sdk/lib/libpp.a(pm_for_bcn_only_mode.o)
                                                  /home/stoffer/esp8266/esp-open-sdk/sdk/lib/libpp.a(pm.o)
                                                  /home/stoffer/esp8266/esp-open-sdk/sdk/lib/libphy.a(phy_chip_v6.o)
pm_set_sleep_mode                                 /home/stoffer/esp8266/esp-open-sdk/sdk/lib/libphy.a(phy_sleep.o)
                                                  /home/stoffer/esp8266/esp-open-sdk/sdk/lib/libpp.a(pm_for_bcn_only_mode.o)
                                                  /home/stoffer/esp8266/esp-open-sdk/sdk/lib/libpp.a(pm.o)
                                                  /home/stoffer/esp8266/esp-open-sdk/sdk/lib/libphy.a(phy_chip_v6.o)
                                                  /home/stoffer/esp8266/esp-open-sdk/sdk/lib/libphy.a(phy_chip_v6_ana.o)
pm_set_sleep_time                                 /home/stoffer/esp8266/esp-open-sdk/sdk/lib/libpp.a(pm.o)
                                                  /home/stoffer/esp8266/esp-open-sdk/sdk/lib/libmain.a(user_interface.o)
pm_set_sleep_type_from_upper                      /home/stoffer/esp8266/esp-open-sdk/sdk/lib/libpp.a(pm.o)
                                                  /home/stoffer/esp8266/esp-open-sdk/sdk/lib/libmain.a(user_interface.o)
pm_set_wakeup_btco                                /home/stoffer/esp8266/esp-open-sdk/sdk/lib/libphy.a(phy_sleep.o)
pm_set_wakeup_mac                                 /home/stoffer/esp8266/esp-open-sdk/sdk/lib/libphy.a(phy_sleep.o)
pm_shutdown                                       /home/stoffer/esp8266/esp-open-sdk/sdk/lib/libpp.a(pm.o)
                                                  /home/stoffer/esp8266/esp-open-sdk/sdk/lib/libpp.a(pm_for_bcn_only_mode.o)
                                                  /home/stoffer/esp8266/esp-open-sdk/sdk/lib/libpp.a(if_hwctrl.o)
pm_sleep_for                                      /home/stoffer/esp8266/esp-open-sdk/sdk/lib/libpp.a(pm.o)
                                                  /home/stoffer/esp8266/esp-open-sdk/sdk/lib/libpp.a(pp.o)
pm_sleep_opt                                      /home/stoffer/esp8266/esp-open-sdk/sdk/lib/libphy.a(phy_sleep.o)
pm_sleep_opt_bb_off                               /home/stoffer/esp8266/esp-open-sdk/sdk/lib/libphy.a(phy_sleep.o)
pm_sleep_opt_bb_on                                /home/stoffer/esp8266/esp-open-sdk/sdk/lib/libphy.a(phy_sleep.o)
pm_sleep_set_mac                                  /home/stoffer/esp8266/esp-open-sdk/sdk/lib/libphy.a(phy_sleep.o)
pm_suspend                                        /home/stoffer/esp8266/esp-open-sdk/sdk/lib/libpp.a(pm.o)
pm_try_scan_unlock                                /home/stoffer/esp8266/esp-open-sdk/sdk/lib/libpp.a(pm.o)
pm_unmask_bt                                      /home/stoffer/esp8266/esp-open-sdk/sdk/lib/libphy.a(phy_sleep.o)
pm_usec2rtc                                       /home/stoffer/esp8266/esp-open-sdk/sdk/lib/libphy.a(phy_sleep.o)
                                                  /home/stoffer/esp8266/esp-open-sdk/sdk/lib/libpp.a(pm_for_bcn_only_mode.o)
                                                  /home/stoffer/esp8266/esp-open-sdk/sdk/lib/libpp.a(pm.o)
pm_wait4wakeup                                    /home/stoffer/esp8266/esp-open-sdk/sdk/lib/libphy.a(phy_sleep.o)
                                                  /home/stoffer/esp8266/esp-open-sdk/sdk/lib/libpp.a(pm_for_bcn_only_mode.o)
                                                  /home/stoffer/esp8266/esp-open-sdk/sdk/lib/libpp.a(pm.o)
                                                  /home/stoffer/esp8266/esp-open-sdk/sdk/lib/libphy.a(phy_chip_v6.o)
pm_wakeup_init                                    /home/stoffer/esp8266/esp-open-sdk/sdk/lib/libphy.a(phy_sleep.o)
                                                  /home/stoffer/esp8266/esp-open-sdk/sdk/lib/libpp.a(pm_for_bcn_only_mode.o)
                                                  /home/stoffer/esp8266/esp-open-sdk/sdk/lib/libpp.a(pm.o)
                                                  /home/stoffer/esp8266/esp-open-sdk/sdk/lib/libphy.a(phy_chip_v6.o)
                                                  /home/stoffer/esp8266/esp-open-sdk/sdk/lib/libphy.a(phy_chip_v6_ana.o)
pm_wakeup_opt                                     /home/stoffer/esp8266/esp-open-sdk/sdk/lib/libphy.a(phy_sleep.o)
                                                  /home/stoffer/esp8266/esp-open-sdk/sdk/lib/libpp.a(pm_for_bcn_only_mode.o)
                                                  /home/stoffer/esp8266/esp-open-sdk/sdk/lib/libpp.a(pm.o)
                                                  /home/stoffer/esp8266/esp-open-sdk/sdk/lib/libphy.a(phy_chip_v6.o)
pmc                                               /home/stoffer/esp8266/esp-open-sdk/sdk/lib/libpp.a(pm.o)
ppCalFrameTimes                                   /home/stoffer/esp8266/esp-open-sdk/sdk/lib/libpp.a(pp.o)
                                                  /home/stoffer/esp8266/esp-open-sdk/sdk/lib/libpp.a(lmac.o)
ppCalTxop                                         /home/stoffer/esp8266/esp-open-sdk/sdk/lib/libpp.a(pp.o)
                                                  /home/stoffer/esp8266/esp-open-sdk/sdk/lib/libpp.a(lmac.o)
ppCheckTxIdle                                     /home/stoffer/esp8266/esp-open-sdk/sdk/lib/libpp.a(pp.o)
                                                  /home/stoffer/esp8266/esp-open-sdk/sdk/lib/libnet80211.a(ieee80211_scan.o)
                                                  /home/stoffer/esp8266/esp-open-sdk/sdk/lib/libpp.a(pm_for_bcn_only_mode.o)
                                                  /home/stoffer/esp8266/esp-open-sdk/sdk/lib/libpp.a(pm.o)
ppDequeueTxQ                                      /home/stoffer/esp8266/esp-open-sdk/sdk/lib/libpp.a(pp.o)
                                                  /home/stoffer/esp8266/esp-open-sdk/sdk/lib/libpp.a(lmac.o)
ppDiscardMPDU                                     /home/stoffer/esp8266/esp-open-sdk/sdk/lib/libpp.a(pp.o)
ppEnqueueRxq                                      /home/stoffer/esp8266/esp-open-sdk/sdk/lib/libpp.a(pp.o)
                                                  /home/stoffer/esp8266/esp-open-sdk/sdk/lib/libpp.a(lmac.o)
ppEnqueueTxDone                                   /home/stoffer/esp8266/esp-open-sdk/sdk/lib/libpp.a(pp.o)
                                                  /home/stoffer/esp8266/esp-open-sdk/sdk/lib/libpp.a(lmac.o)
ppFetchTxQFirstAvail                              /home/stoffer/esp8266/esp-open-sdk/sdk/lib/libpp.a(pp.o)
                                                  /home/stoffer/esp8266/esp-open-sdk/sdk/lib/libpp.a(lmac.o)
ppGetTxQFirstAvail_Locked                         /home/stoffer/esp8266/esp-open-sdk/sdk/lib/libpp.a(pp.o)
                                                  /home/stoffer/esp8266/esp-open-sdk/sdk/lib/libpp.a(lmac.o)
ppInstallKey                                      /home/stoffer/esp8266/esp-open-sdk/sdk/lib/libwpa.a(wpa_main.o)
                                                  /home/stoffer/esp8266/esp-open-sdk/sdk/lib/libnet80211.a(wl_cnx.o)
ppPeocessRxPktHdr                                 /home/stoffer/esp8266/esp-open-sdk/sdk/lib/libpp.a(pp.o)
ppProcessTxQ                                      /home/stoffer/esp8266/esp-open-sdk/sdk/lib/libpp.a(pp.o)
                                                  /home/stoffer/esp8266/esp-open-sdk/sdk/lib/libpp.a(lmac.o)
ppProcessWaitQ                                    /home/stoffer/esp8266/esp-open-sdk/sdk/lib/libpp.a(pp.o)
                                                  /home/stoffer/esp8266/esp-open-sdk/sdk/lib/libpp.a(pm_for_bcn_only_mode.o)
                                                  /home/stoffer/esp8266/esp-open-sdk/sdk/lib/libpp.a(pm.o)
ppRecordBarRRC                                    /home/stoffer/esp8266/esp-open-sdk/sdk/lib/libpp.a(pp.o)
                                                  /home/stoffer/esp8266/esp-open-sdk/sdk/lib/libpp.a(lmac.o)
ppRecycleRxPkt                                    /home/stoffer/esp8266/esp-open-sdk/sdk/lib/libpp.a(pp.o)
                                                  /home/stoffer/esp8266/esp-open-sdk/sdk/lib/libnet80211.a(ieee80211_sta.o)
                                                  /home/stoffer/esp8266/esp-open-sdk/sdk/lib/libnet80211.a(ieee80211_input.o)
                                                  /home/stoffer/esp8266/esp-open-sdk/sdk/lib/libnet80211.a(ieee80211_hostap.o)
                                                  /home/stoffer/esp8266/esp-open-sdk/sdk/lib/libmain.a(eagle_lwip_if.o)
                                                  /home/stoffer/esp8266/esp-open-sdk/sdk/lib/libmain.a(user_interface.o)
ppRegisterTxCallback                              /home/stoffer/esp8266/esp-open-sdk/sdk/lib/libpp.a(pp.o)
                                                  /home/stoffer/esp8266/esp-open-sdk/sdk/lib/libwpa.a(wpa_main.o)
                                                  /home/stoffer/esp8266/esp-open-sdk/sdk/lib/libnet80211.a(wl_cnx.o)
                                                  /home/stoffer/esp8266/esp-open-sdk/sdk/lib/libnet80211.a(ieee80211_proto.o)
                                                  /home/stoffer/esp8266/esp-open-sdk/sdk/lib/libnet80211.a(ieee80211_hostap.o)
                                                  /home/stoffer/esp8266/esp-open-sdk/sdk/lib/libnet80211.a(ieee80211.o)
                                                  /home/stoffer/esp8266/esp-open-sdk/sdk/lib/libpp.a(pm.o)
ppRollBackTxQ                                     /home/stoffer/esp8266/esp-open-sdk/sdk/lib/libpp.a(pp.o)
                                                  /home/stoffer/esp8266/esp-open-sdk/sdk/lib/libpp.a(lmac.o)
ppTxPkt                                           /home/stoffer/esp8266/esp-open-sdk/sdk/lib/libpp.a(pp.o)
                                                  /home/stoffer/esp8266/esp-open-sdk/sdk/lib/libnet80211.a(ieee80211_action_vendor.o)
                                                  /home/stoffer/esp8266/esp-open-sdk/sdk/lib/libnet80211.a(ieee80211_scan.o)
                                                  /home/stoffer/esp8266/esp-open-sdk/sdk/lib/libnet80211.a(ieee80211_power.o)
                                                  /home/stoffer/esp8266/esp-open-sdk/sdk/lib/libnet80211.a(ieee80211_output.o)
                                                  /home/stoffer/esp8266/esp-open-sdk/sdk/lib/libnet80211.a(ieee80211_hostap.o)
                                                  /home/stoffer/esp8266/esp-open-sdk/sdk/lib/libpp.a(pm.o)
ppTxqUpdateBitmap                                 /home/stoffer/esp8266/esp-open-sdk/sdk/lib/libpp.a(pp.o)
                                                  /home/stoffer/esp8266/esp-open-sdk/sdk/lib/libpp.a(lmac.o)
ppUnregisterTxCallback                            /home/stoffer/esp8266/esp-open-sdk/sdk/lib/libpp.a(pp.o)
pp_attach                                         /home/stoffer/esp8266/esp-open-sdk/sdk/lib/libpp.a(pp.o)
                                                  /home/stoffer/esp8266/esp-open-sdk/sdk/lib/libmain.a(app_main.o)
pp_disable_idle_timer                             /home/stoffer/esp8266/esp-open-sdk/sdk/lib/libpp.a(pp.o)
                                                  /home/stoffer/esp8266/esp-open-sdk/sdk/lib/libpp.a(pm.o)
pp_disable_noise_timer                            /home/stoffer/esp8266/esp-open-sdk/sdk/lib/libpp.a(pp.o)
                                                  /home/stoffer/esp8266/esp-open-sdk/sdk/lib/libnet80211.a(ieee80211_hostap.o)
                                                  /home/stoffer/esp8266/esp-open-sdk/sdk/lib/libpp.a(pm_for_bcn_only_mode.o)
pp_enable_idle_timer                              /home/stoffer/esp8266/esp-open-sdk/sdk/lib/libpp.a(pp.o)
                                                  /home/stoffer/esp8266/esp-open-sdk/sdk/lib/libpp.a(pm.o)
pp_enable_noise_timer                             /home/stoffer/esp8266/esp-open-sdk/sdk/lib/libpp.a(pp.o)
pp_michael_mic_failure                            /home/stoffer/esp8266/esp-open-sdk/sdk/lib/libwpa.a(wpa.o)
pp_noise_test                                     /home/stoffer/esp8266/esp-open-sdk/sdk/lib/libpp.a(pp.o)
pp_post                                           /home/stoffer/esp8266/esp-open-sdk/sdk/lib/libpp.a(pp.o)
                                                  /home/stoffer/esp8266/esp-open-sdk/sdk/lib/libpp.a(lmac.o)
pp_post2                                          /home/stoffer/esp8266/esp-open-sdk/sdk/lib/libpp.a(pp.o)
                                                  /home/stoffer/esp8266/esp-open-sdk/sdk/lib/libpp.a(wdev.o)
pp_soft_wdt_feed                                  /home/stoffer/esp8266/esp-open-sdk/sdk/lib/libpp.a(pp.o)
                                                  /home/stoffer/esp8266/esp-open-sdk/sdk/lib/libmain.a(spi_flash.o)
pp_soft_wdt_feed_local                            /home/stoffer/esp8266/esp-open-sdk/sdk/lib/libpp.a(pp.o)
pp_soft_wdt_init                                  /home/stoffer/esp8266/esp-open-sdk/sdk/lib/libpp.a(pp.o)
                                                  /home/stoffer/esp8266/esp-open-sdk/sdk/lib/libmain.a(app_main.o)
pp_soft_wdt_restart                               /home/stoffer/esp8266/esp-open-sdk/sdk/lib/libpp.a(pp.o)
                                                  /home/stoffer/esp8266/esp-open-sdk/sdk/lib/libpp.a(pm_for_bcn_only_mode.o)
                                                  /home/stoffer/esp8266/esp-open-sdk/sdk/lib/libpp.a(pm.o)
pp_soft_wdt_stop                                  /home/stoffer/esp8266/esp-open-sdk/sdk/lib/libpp.a(pp.o)
                                                  /home/stoffer/esp8266/esp-open-sdk/sdk/lib/libpp.a(pm_for_bcn_only_mode.o)
                                                  /home/stoffer/esp8266/esp-open-sdk/sdk/lib/libpp.a(pm.o)
pp_try_enable_idle_timer                          /home/stoffer/esp8266/esp-open-sdk/sdk/lib/libpp.a(pp.o)
                                                  /home/stoffer/esp8266/esp-open-sdk/sdk/lib/libpp.a(pm.o)
pp_tx_idle_timeout                                /home/stoffer/esp8266/esp-open-sdk/sdk/lib/libpp.a(pp.o)
premot                                            /home/stoffer/esp8266/esp-open-sdk/sdk/lib/liblwip.a(espconn.o)
promiscuous_cb                                    /home/stoffer/esp8266/esp-open-sdk/sdk/lib/libmain.a(user_interface.o)
                                                  /home/stoffer/esp8266/esp-open-sdk/sdk/lib/libpp.a(pp.o)
prvInsertBlockIntoUsedList                        /home/stoffer/esp8266/esp-open-sdk/sdk/lib/libmain.a(mem_manager.o)
prvRemoveBlockFromUsedList                        /home/stoffer/esp8266/esp-open-sdk/sdk/lib/libmain.a(mem_manager.o)
pserver_list                                      /home/stoffer/esp8266/esp-open-sdk/sdk/lib/liblwip.a(espconn.o)
                                                  /home/stoffer/esp8266/esp-open-sdk/sdk/lib/liblwip.a(espconn_tcp.o)
pvPortCalloc                                      /home/stoffer/esp8266/esp-open-sdk/sdk/lib/libmain.a(mem_manager.o)
pvPortMalloc                                      /home/stoffer/esp8266/esp-open-sdk/sdk/lib/libmain.a(mem_manager.o)
                                                  /home/stoffer/esp8266/esp-open-sdk/sdk/lib/libwpa.a(aes-internal-enc.o)
                                                  /home/stoffer/esp8266/esp-open-sdk/sdk/lib/libwpa.a(wpa_main.o)
                                                  /home/stoffer/esp8266/esp-open-sdk/sdk/lib/libwpa.a(wpa_auth_ie.o)
                                                  /home/stoffer/esp8266/esp-open-sdk/sdk/lib/libwpa.a(wpa_auth.o)
                                                  /home/stoffer/esp8266/esp-open-sdk/sdk/lib/libwpa.a(os_xtensa.o)
                                                  /home/stoffer/esp8266/esp-open-sdk/sdk/lib/libwpa.a(common.o)
                                                  /home/stoffer/esp8266/esp-open-sdk/sdk/lib/liblwip.a(udp.o)
                                                  /home/stoffer/esp8266/esp-open-sdk/sdk/lib/liblwip.a(timers.o)
                                                  /home/stoffer/esp8266/esp-open-sdk/sdk/lib/liblwip.a(tcp_out.o)
                                                  /home/stoffer/esp8266/esp-open-sdk/sdk/lib/liblwip.a(tcp.o)
                                                  /home/stoffer/esp8266/esp-open-sdk/sdk/lib/liblwip.a(raw.o)
                                                  /home/stoffer/esp8266/esp-open-sdk/sdk/lib/liblwip.a(pbuf.o)
                                                  /home/stoffer/esp8266/esp-open-sdk/sdk/lib/liblwip.a(igmp.o)
                                                  /home/stoffer/esp8266/esp-open-sdk/sdk/lib/liblwip.a(etharp.o)
                                                  /home/stoffer/esp8266/esp-open-sdk/sdk/lib/liblwip.a(dhcp.o)
                                                  /home/stoffer/esp8266/esp-open-sdk/sdk/lib/libnet80211.a(ieee80211_input.o)
                                                  /home/stoffer/esp8266/esp-open-sdk/sdk/lib/libpp.a(esf_buf.o)
                                                  /home/stoffer/esp8266/esp-open-sdk/sdk/lib/libpp.a(wdev.o)
                                                  build/app_app.a(heatshrink_decoder.o)
                                                  build/app_app.a(espfs.o)
                                                  build/app_app.a(httpdespfs.o)
                                                  build/app_app.a(cgiwifi.o)
                                                  build/app_app.a(httpd.o)
                                                  /home/stoffer/esp8266/esp-open-sdk/sdk/lib/libmain.a(eagle_lwip_if.o)
                                                  /home/stoffer/esp8266/esp-open-sdk/sdk/lib/libmain.a(user_interface.o)
                                                  /home/stoffer/esp8266/esp-open-sdk/sdk/lib/libmain.a(app_main.o)
pvPortRealloc                                     /home/stoffer/esp8266/esp-open-sdk/sdk/lib/libmain.a(mem_manager.o)
pvPortZalloc                                      /home/stoffer/esp8266/esp-open-sdk/sdk/lib/libmain.a(mem_manager.o)
                                                  /home/stoffer/esp8266/esp-open-sdk/sdk/lib/libwpa.a(wpa_main.o)
                                                  /home/stoffer/esp8266/esp-open-sdk/sdk/lib/libwpa.a(wpa_auth.o)
                                                  /home/stoffer/esp8266/esp-open-sdk/sdk/lib/libwpa.a(ap_config.o)
                                                  /home/stoffer/esp8266/esp-open-sdk/sdk/lib/liblwip.a(espconn_udp.o)
                                                  /home/stoffer/esp8266/esp-open-sdk/sdk/lib/liblwip.a(espconn_tcp.o)
                                                  /home/stoffer/esp8266/esp-open-sdk/sdk/lib/liblwip.a(espconn.o)
                                                  /home/stoffer/esp8266/esp-open-sdk/sdk/lib/liblwip.a(dns.o)
                                                  /home/stoffer/esp8266/esp-open-sdk/sdk/lib/liblwip.a(dhcpserver.o)
                                                  /home/stoffer/esp8266/esp-open-sdk/sdk/lib/libnet80211.a(wl_cnx.o)
                                                  /home/stoffer/esp8266/esp-open-sdk/sdk/lib/libnet80211.a(ieee80211_sta.o)
                                                  /home/stoffer/esp8266/esp-open-sdk/sdk/lib/libnet80211.a(ieee80211_scan.o)
                                                  /home/stoffer/esp8266/esp-open-sdk/sdk/lib/libnet80211.a(ieee80211_phy.o)
                                                  /home/stoffer/esp8266/esp-open-sdk/sdk/lib/libnet80211.a(ieee80211_mesh_quick.o)
                                                  /home/stoffer/esp8266/esp-open-sdk/sdk/lib/libnet80211.a(ieee80211_hostap.o)
                                                  /home/stoffer/esp8266/esp-open-sdk/sdk/lib/libnet80211.a(ieee80211.o)
                                                  /home/stoffer/esp8266/esp-open-sdk/sdk/lib/libpp.a(esf_buf.o)
                                                  /home/stoffer/esp8266/esp-open-sdk/sdk/lib/libpp.a(pm_for_bcn_only_mode.o)
                                                  /home/stoffer/esp8266/esp-open-sdk/sdk/lib/libpp.a(pm.o)
                                                  build/app_app.a(queue.o)
                                                  build/app_app.a(mqtt.o)
                                                  /home/stoffer/esp8266/esp-open-sdk/sdk/lib/libmain.a(user_interface.o)
                                                  /home/stoffer/esp8266/esp-open-sdk/sdk/lib/libmain.a(app_main.o)
pvShowMalloc                                      /home/stoffer/esp8266/esp-open-sdk/sdk/lib/libmain.a(mem_manager.o)
pwrsave_flushq                                    /home/stoffer/esp8266/esp-open-sdk/sdk/lib/libnet80211.a(ieee80211_power.o)
                                                  /home/stoffer/esp8266/esp-open-sdk/sdk/lib/libnet80211.a(wl_cnx.o)
                                                  /home/stoffer/esp8266/esp-open-sdk/sdk/lib/libnet80211.a(ieee80211_hostap.o)
r_rand                                            /home/stoffer/esp8266/esp-open-sdk/sdk/lib/libwpa.a(os_xtensa.o)
                                                  /home/stoffer/esp8266/esp-open-sdk/sdk/lib/liblwip.a(igmp.o)
ram_ana_inf_gating_en                             /home/stoffer/esp8266/esp-open-sdk/sdk/lib/libphy.a(phy_chip_v6_ana.o)
                                                  /home/stoffer/esp8266/esp-open-sdk/sdk/lib/libphy.a(phy_chip_v6.o)
ram_cal_tos_v60                                   /home/stoffer/esp8266/esp-open-sdk/sdk/lib/libphy.a(phy_chip_v6_cal.o)
                                                  /home/stoffer/esp8266/esp-open-sdk/sdk/lib/libphy.a(phy_chip_v6.o)
ram_chip_v6_rx_init                               /home/stoffer/esp8266/esp-open-sdk/sdk/lib/libphy.a(phy_chip_v6_ana.o)
                                                  /home/stoffer/esp8266/esp-open-sdk/sdk/lib/libphy.a(phy_chip_v6.o)
ram_get_bb_atten                                  /home/stoffer/esp8266/esp-open-sdk/sdk/lib/libphy.a(phy_chip_v6_cal.o)
ram_get_corr_power                                /home/stoffer/esp8266/esp-open-sdk/sdk/lib/libphy.a(phy_chip_v6.o)
ram_get_fm_sar_dout                               /home/stoffer/esp8266/esp-open-sdk/sdk/lib/libphy.a(phy_chip_v6_cal.o)
                                                  /home/stoffer/esp8266/esp-open-sdk/sdk/lib/libphy.a(phy_chip_v6.o)
ram_get_noisefloor                                /home/stoffer/esp8266/esp-open-sdk/sdk/lib/libphy.a(phy_chip_v6.o)
ram_pbus_debugmode                                /home/stoffer/esp8266/esp-open-sdk/sdk/lib/libphy.a(phy_chip_v6_ana.o)
                                                  /home/stoffer/esp8266/esp-open-sdk/sdk/lib/libphy.a(phy_chip_v6.o)
ram_pbus_set_rxgain                               /home/stoffer/esp8266/esp-open-sdk/sdk/lib/libphy.a(phy_chip_v6_ana.o)
                                                  /home/stoffer/esp8266/esp-open-sdk/sdk/lib/libphy.a(phy_chip_v6.o)
ram_pbus_xpd_tx_on                                /home/stoffer/esp8266/esp-open-sdk/sdk/lib/libphy.a(phy_chip_v6_ana.o)
                                                  /home/stoffer/esp8266/esp-open-sdk/sdk/lib/libphy.a(phy_chip_v6_cal.o)
                                                  /home/stoffer/esp8266/esp-open-sdk/sdk/lib/libphy.a(phy_chip_v6.o)
ram_restart_cal                                   /home/stoffer/esp8266/esp-open-sdk/sdk/lib/libphy.a(phy_chip_v6_ana.o)
                                                  /home/stoffer/esp8266/esp-open-sdk/sdk/lib/libphy.a(phy_chip_v6.o)
ram_rfcal_pwrctrl                                 /home/stoffer/esp8266/esp-open-sdk/sdk/lib/libphy.a(phy_chip_v6_cal.o)
                                                  /home/stoffer/esp8266/esp-open-sdk/sdk/lib/libphy.a(phy_chip_v6.o)
ram_rfcal_rxiq                                    /home/stoffer/esp8266/esp-open-sdk/sdk/lib/libphy.a(phy_chip_v6_cal.o)
                                                  /home/stoffer/esp8266/esp-open-sdk/sdk/lib/libphy.a(phy_chip_v6.o)
ram_rfcal_txcap                                   /home/stoffer/esp8266/esp-open-sdk/sdk/lib/libphy.a(phy_chip_v6_cal.o)
                                                  /home/stoffer/esp8266/esp-open-sdk/sdk/lib/libphy.a(phy_chip_v6.o)
ram_rfcal_txiq                                    /home/stoffer/esp8266/esp-open-sdk/sdk/lib/libphy.a(phy_chip_v6_cal.o)
                                                  /home/stoffer/esp8266/esp-open-sdk/sdk/lib/libphy.a(phy_chip_v6.o)
ram_rfpll_set_freq                                /home/stoffer/esp8266/esp-open-sdk/sdk/lib/libphy.a(phy_chip_v6_ana.o)
ram_rxiq_cover_mg_mp                              /home/stoffer/esp8266/esp-open-sdk/sdk/lib/libphy.a(phy_chip_v6_cal.o)
                                                  /home/stoffer/esp8266/esp-open-sdk/sdk/lib/libphy.a(phy_chip_v6.o)
ram_rxiq_get_mis                                  /home/stoffer/esp8266/esp-open-sdk/sdk/lib/libphy.a(phy_chip_v6_cal.o)
                                                  /home/stoffer/esp8266/esp-open-sdk/sdk/lib/libphy.a(phy_chip_v6.o)
ram_set_channel_freq                              /home/stoffer/esp8266/esp-open-sdk/sdk/lib/libphy.a(phy_chip_v6_ana.o)
ram_set_noise_floor                               /home/stoffer/esp8266/esp-open-sdk/sdk/lib/libphy.a(phy_chip_v6.o)
ram_set_txbb_atten                                /home/stoffer/esp8266/esp-open-sdk/sdk/lib/libphy.a(phy_chip_v6_cal.o)
                                                  /home/stoffer/esp8266/esp-open-sdk/sdk/lib/libphy.a(phy_chip_v6.o)
ram_start_noisefloor                              /home/stoffer/esp8266/esp-open-sdk/sdk/lib/libphy.a(phy_chip_v6.o)
ram_tx_mac_disable                                /home/stoffer/esp8266/esp-open-sdk/sdk/lib/libphy.a(phy_chip_v6.o)
ram_tx_mac_enable                                 /home/stoffer/esp8266/esp-open-sdk/sdk/lib/libphy.a(phy_chip_v6.o)
raw_bind                                          /home/stoffer/esp8266/esp-open-sdk/sdk/lib/liblwip.a(raw.o)
raw_connect                                       /home/stoffer/esp8266/esp-open-sdk/sdk/lib/liblwip.a(raw.o)
raw_input                                         /home/stoffer/esp8266/esp-open-sdk/sdk/lib/liblwip.a(raw.o)
                                                  /home/stoffer/esp8266/esp-open-sdk/sdk/lib/liblwip.a(ip.o)
raw_new                                           /home/stoffer/esp8266/esp-open-sdk/sdk/lib/liblwip.a(raw.o)
raw_recv                                          /home/stoffer/esp8266/esp-open-sdk/sdk/lib/liblwip.a(raw.o)
raw_remove                                        /home/stoffer/esp8266/esp-open-sdk/sdk/lib/liblwip.a(raw.o)
raw_send                                          /home/stoffer/esp8266/esp-open-sdk/sdk/lib/liblwip.a(raw.o)
raw_sendto                                        /home/stoffer/esp8266/esp-open-sdk/sdk/lib/liblwip.a(raw.o)
rc4_skip                                          /home/stoffer/esp8266/esp-open-sdk/sdk/lib/libwpa.a(wpa.o)
                                                  /home/stoffer/esp8266/esp-open-sdk/sdk/lib/libwpa.a(wpa_auth.o)
rcAttach                                          /home/stoffer/esp8266/esp-open-sdk/sdk/lib/libpp.a(trc.o)
                                                  /home/stoffer/esp8266/esp-open-sdk/sdk/lib/libpp.a(lmac.o)
rcGetRate                                         /home/stoffer/esp8266/esp-open-sdk/sdk/lib/libpp.a(trc.o)
                                                  /home/stoffer/esp8266/esp-open-sdk/sdk/lib/libpp.a(lmac.o)
rcGetSched                                        /home/stoffer/esp8266/esp-open-sdk/sdk/lib/libpp.a(trc.o)
                                                  /home/stoffer/esp8266/esp-open-sdk/sdk/lib/libpp.a(pp.o)
rcGetTrc                                          /home/stoffer/esp8266/esp-open-sdk/sdk/lib/libpp.a(trc.o)
rcReachRetryLimit                                 /home/stoffer/esp8266/esp-open-sdk/sdk/lib/libpp.a(trc.o)
                                                  /home/stoffer/esp8266/esp-open-sdk/sdk/lib/libpp.a(lmac.o)
rcUpdateDataRxDone                                /home/stoffer/esp8266/esp-open-sdk/sdk/lib/libpp.a(trc.o)
                                                  /home/stoffer/esp8266/esp-open-sdk/sdk/lib/libpp.a(wdev.o)
rcUpdatePhyMode                                   /home/stoffer/esp8266/esp-open-sdk/sdk/lib/libpp.a(trc.o)
                                                  /home/stoffer/esp8266/esp-open-sdk/sdk/lib/libpp.a(if_hwctrl.o)
rcUpdateRxDone                                    /home/stoffer/esp8266/esp-open-sdk/sdk/lib/libpp.a(trc.o)
                                                  /home/stoffer/esp8266/esp-open-sdk/sdk/lib/libpp.a(pp.o)
rcUpdateTxDone                                    /home/stoffer/esp8266/esp-open-sdk/sdk/lib/libpp.a(trc.o)
                                                  /home/stoffer/esp8266/esp-open-sdk/sdk/lib/libpp.a(lmac.o)
rc_cal                                            /home/stoffer/esp8266/esp-open-sdk/sdk/lib/libphy.a(phy_chip_v6_cal.o)
                                                  /home/stoffer/esp8266/esp-open-sdk/sdk/lib/libphy.a(phy_chip_v6.o)
rc_disable_trc                                    /home/stoffer/esp8266/esp-open-sdk/sdk/lib/libpp.a(trc.o)
                                                  /home/stoffer/esp8266/esp-open-sdk/sdk/lib/libpp.a(if_hwctrl.o)
rc_disable_trc_by_interface                       /home/stoffer/esp8266/esp-open-sdk/sdk/lib/libpp.a(trc.o)
                                                  /home/stoffer/esp8266/esp-open-sdk/sdk/lib/libpp.a(if_hwctrl.o)
rc_enable_trc                                     /home/stoffer/esp8266/esp-open-sdk/sdk/lib/libpp.a(trc.o)
                                                  /home/stoffer/esp8266/esp-open-sdk/sdk/lib/libpp.a(if_hwctrl.o)
rc_get_mask                                       /home/stoffer/esp8266/esp-open-sdk/sdk/lib/libpp.a(trc.o)
                                                  /home/stoffer/esp8266/esp-open-sdk/sdk/lib/libpp.a(pm.o)
rc_get_sta_trc                                    /home/stoffer/esp8266/esp-open-sdk/sdk/lib/libpp.a(trc.o)
                                                  /home/stoffer/esp8266/esp-open-sdk/sdk/lib/libpp.a(pm.o)
rc_get_trc                                        /home/stoffer/esp8266/esp-open-sdk/sdk/lib/libpp.a(trc.o)
                                                  /home/stoffer/esp8266/esp-open-sdk/sdk/lib/libpp.a(pp.o)
                                                  /home/stoffer/esp8266/esp-open-sdk/sdk/lib/libpp.a(pm.o)
                                                  /home/stoffer/esp8266/esp-open-sdk/sdk/lib/libpp.a(if_hwctrl.o)
rc_get_trc_by_index                               /home/stoffer/esp8266/esp-open-sdk/sdk/lib/libpp.a(trc.o)
                                                  /home/stoffer/esp8266/esp-open-sdk/sdk/lib/libnet80211.a(ieee80211_output.o)
                                                  /home/stoffer/esp8266/esp-open-sdk/sdk/lib/libnet80211.a(ieee80211_ht.o)
rc_only_sta_trc                                   /home/stoffer/esp8266/esp-open-sdk/sdk/lib/libpp.a(trc.o)
                                                  /home/stoffer/esp8266/esp-open-sdk/sdk/lib/libpp.a(if_hwctrl.o)
rc_set_rate_limit_id                              /home/stoffer/esp8266/esp-open-sdk/sdk/lib/libpp.a(trc.o)
                                                  /home/stoffer/esp8266/esp-open-sdk/sdk/lib/libmain.a(user_interface.o)
rcons                                             /home/stoffer/esp8266/esp-open-sdk/sdk/lib/libwpa.a(aes-internal.o)
read_hw_noisefloor                                /home/stoffer/esp8266/esp-open-sdk/sdk/lib/libphy.a(phy_chip_v6.o)
                                                  /home/stoffer/esp8266/esp-open-sdk/sdk/lib/libpp.a(pp.o)
read_sar_dout                                     /home/stoffer/esp8266/esp-open-sdk/sdk/lib/libphy.a(phy_chip_v6_cal.o)
                                                  /home/stoffer/esp8266/esp-open-sdk/sdk/lib/libphy.a(phy_chip_v6_ana.o)
readvdd33                                         /home/stoffer/esp8266/esp-open-sdk/sdk/lib/libphy.a(phy_chip_v6_ana.o)
realtime_stamp                                    /home/stoffer/esp8266/esp-open-sdk/sdk/lib/liblwip.a(sntp.o)
reconnect_flag                                    /home/stoffer/esp8266/esp-open-sdk/sdk/lib/libnet80211.a(wl_cnx.o)
                                                  /home/stoffer/esp8266/esp-open-sdk/sdk/lib/libnet80211.a(ieee80211_sta.o)
reconnect_internal                                /home/stoffer/esp8266/esp-open-sdk/sdk/lib/libmain.a(user_interface.o)
reduce_current_init                               /home/stoffer/esp8266/esp-open-sdk/sdk/lib/libphy.a(phy_chip_v6.o)
register_chipv6_phy                               /home/stoffer/esp8266/esp-open-sdk/sdk/lib/libphy.a(phy_chip_v6.o)
                                                  /home/stoffer/esp8266/esp-open-sdk/sdk/lib/libphy.a(phy_sleep.o)
                                                  /home/stoffer/esp8266/esp-open-sdk/sdk/lib/libmain.a(app_main.o)
register_chipv6_phy_init_param                    /home/stoffer/esp8266/esp-open-sdk/sdk/lib/libphy.a(phy_chip_v6.o)
register_get_phy_addr                             /home/stoffer/esp8266/esp-open-sdk/sdk/lib/libphy.a(phy.o)
                                                  /home/stoffer/esp8266/esp-open-sdk/sdk/lib/libphy.a(phy_chip_v6.o)
register_ieee80211_action_vendor_get_key_cb       /home/stoffer/esp8266/esp-open-sdk/sdk/lib/libnet80211.a(ieee80211_action_vendor.o)
register_ieee80211_action_vendor_spec_cb          /home/stoffer/esp8266/esp-open-sdk/sdk/lib/libnet80211.a(ieee80211_action_vendor.o)
register_ieee80211_rfid_locp_recv_cb              /home/stoffer/esp8266/esp-open-sdk/sdk/lib/libnet80211.a(ieee80211_rfid.o)
                                                  /home/stoffer/esp8266/esp-open-sdk/sdk/lib/libmain.a(user_interface.o)
register_phy_ops                                  /home/stoffer/esp8266/esp-open-sdk/sdk/lib/libphy.a(phy.o)
                                                  /home/stoffer/esp8266/esp-open-sdk/sdk/lib/libphy.a(phy_chip_v6.o)
res_buf                                           /home/stoffer/esp8266/esp-open-sdk/sdk/lib/liblwip.a(sntp.o)
reset_noise_timer                                 /home/stoffer/esp8266/esp-open-sdk/sdk/lib/libpp.a(pp.o)
                                                  /home/stoffer/esp8266/esp-open-sdk/sdk/lib/libnet80211.a(ieee80211_hostap.o)
                                                  /home/stoffer/esp8266/esp-open-sdk/sdk/lib/libpp.a(pm_for_bcn_only_mode.o)
                                                  /home/stoffer/esp8266/esp-open-sdk/sdk/lib/libpp.a(pm.o)
reult                                             /home/stoffer/esp8266/esp-open-sdk/sdk/lib/liblwip.a(sntp.o)
rf_init                                           /home/stoffer/esp8266/esp-open-sdk/sdk/lib/libphy.a(phy.o)
rfcal_bb_atten_init                               /home/stoffer/esp8266/esp-open-sdk/sdk/lib/libphy.a(phy_chip_v6_cal.o)
                                                  /home/stoffer/esp8266/esp-open-sdk/sdk/lib/libphy.a(phy_chip_v6.o)
rijndaelEncrypt                                   /home/stoffer/esp8266/esp-open-sdk/sdk/lib/libwpa.a(aes-internal-enc.o)
rijndaelKeySetupEnc                               /home/stoffer/esp8266/esp-open-sdk/sdk/lib/libwpa.a(aes-internal.o)
                                                  /home/stoffer/esp8266/esp-open-sdk/sdk/lib/libwpa.a(aes-internal-enc.o)
rom_chip_v5_disable_cca                           /home/stoffer/esp8266/esp-open-sdk/sdk/lib/libphy.a(phy_chip_v6.o)
rom_chip_v5_enable_cca                            /home/stoffer/esp8266/esp-open-sdk/sdk/lib/libphy.a(phy_chip_v6.o)
roundup2                                          /home/stoffer/esp8266/esp-open-sdk/sdk/lib/libnet80211.a(ieee80211_ets.o)
                                                  /home/stoffer/esp8266/esp-open-sdk/sdk/lib/libpp.a(wdev.o)
rsn_cipher_put_suites                             /home/stoffer/esp8266/esp-open-sdk/sdk/lib/libwpa.a(wpa_common.o)
                                                  /home/stoffer/esp8266/esp-open-sdk/sdk/lib/libwpa.a(wpa_auth_ie.o)
rsn_pmkid                                         /home/stoffer/esp8266/esp-open-sdk/sdk/lib/libwpa.a(wpa_common.o)
                                                  /home/stoffer/esp8266/esp-open-sdk/sdk/lib/libwpa.a(wpa_auth.o)
rst_if                                            /home/stoffer/esp8266/esp-open-sdk/sdk/lib/libmain.a(user_interface.o)
                                                  /home/stoffer/esp8266/esp-open-sdk/sdk/lib/libmain.a(app_main.o)
rtc_get_reset_reason                              /home/stoffer/esp8266/esp-open-sdk/sdk/lib/libmain.a(app_main.o)
rtc_info                                          build/app_app.a(user_main.o)
rtc_mem_backup                                    /home/stoffer/esp8266/esp-open-sdk/sdk/lib/libphy.a(phy_chip_v6.o)
                                                  /home/stoffer/esp8266/esp-open-sdk/sdk/lib/libphy.a(phy_chip_v6_cal.o)
rtc_mem_check                                     /home/stoffer/esp8266/esp-open-sdk/sdk/lib/libphy.a(phy_chip_v6.o)
rtc_mem_recovery                                  /home/stoffer/esp8266/esp-open-sdk/sdk/lib/libphy.a(phy_chip_v6.o)
rx_gain_swp                                       /home/stoffer/esp8266/esp-open-sdk/sdk/lib/libphy.a(phy_chip_v6.o)
rx_table_renew_en                                 /home/stoffer/esp8266/esp-open-sdk/sdk/lib/libphy.a(phy_chip_v6.o)
rxiq_compute_num                                  /home/stoffer/esp8266/esp-open-sdk/sdk/lib/libphy.a(phy_chip_v6.o)
rxiq_cover_fail_num                               /home/stoffer/esp8266/esp-open-sdk/sdk/lib/libphy.a(phy_chip_v6_cal.o)
rxmax_ext_level                                   /home/stoffer/esp8266/esp-open-sdk/sdk/lib/libphy.a(phy_chip_v6.o)
                                                  /home/stoffer/esp8266/esp-open-sdk/sdk/lib/libphy.a(phy_chip_v6_ana.o)
saveFlag                                          build/app_app.a(config.o)
scan_add_bssid                                    /home/stoffer/esp8266/esp-open-sdk/sdk/lib/libnet80211.a(ieee80211_scan.o)
                                                  /home/stoffer/esp8266/esp-open-sdk/sdk/lib/libnet80211.a(wl_cnx.o)
scan_add_probe_ssid                               /home/stoffer/esp8266/esp-open-sdk/sdk/lib/libnet80211.a(ieee80211_scan.o)
                                                  /home/stoffer/esp8266/esp-open-sdk/sdk/lib/libnet80211.a(wl_cnx.o)
scan_cancel                                       /home/stoffer/esp8266/esp-open-sdk/sdk/lib/libnet80211.a(ieee80211_scan.o)
                                                  /home/stoffer/esp8266/esp-open-sdk/sdk/lib/libmain.a(user_interface.o)
scan_check_hidden                                 /home/stoffer/esp8266/esp-open-sdk/sdk/lib/libnet80211.a(ieee80211_scan.o)
scan_clear_channles                               /home/stoffer/esp8266/esp-open-sdk/sdk/lib/libnet80211.a(ieee80211_scan.o)
scan_connect_state                                /home/stoffer/esp8266/esp-open-sdk/sdk/lib/libnet80211.a(ieee80211_scan.o)
                                                  /home/stoffer/esp8266/esp-open-sdk/sdk/lib/libpp.a(pp.o)
scan_get_type                                     /home/stoffer/esp8266/esp-open-sdk/sdk/lib/libnet80211.a(ieee80211_scan.o)
                                                  /home/stoffer/esp8266/esp-open-sdk/sdk/lib/libnet80211.a(wl_cnx.o)
scan_hidden_ssid                                  /home/stoffer/esp8266/esp-open-sdk/sdk/lib/libnet80211.a(ieee80211_scan.o)
                                                  /home/stoffer/esp8266/esp-open-sdk/sdk/lib/libnet80211.a(wl_cnx.o)
scan_parse_beacon                                 /home/stoffer/esp8266/esp-open-sdk/sdk/lib/libnet80211.a(ieee80211_scan.o)
                                                  /home/stoffer/esp8266/esp-open-sdk/sdk/lib/libnet80211.a(ieee80211_sta.o)
scan_pm_channel_op_cb                             /home/stoffer/esp8266/esp-open-sdk/sdk/lib/libnet80211.a(ieee80211_scan.o)
scan_profile_check                                /home/stoffer/esp8266/esp-open-sdk/sdk/lib/libnet80211.a(ieee80211_scan.o)
scan_remove_bssid                                 /home/stoffer/esp8266/esp-open-sdk/sdk/lib/libnet80211.a(ieee80211_scan.o)
                                                  /home/stoffer/esp8266/esp-open-sdk/sdk/lib/libnet80211.a(wl_cnx.o)
scan_remove_probe_ssid                            /home/stoffer/esp8266/esp-open-sdk/sdk/lib/libnet80211.a(ieee80211_scan.o)
                                                  /home/stoffer/esp8266/esp-open-sdk/sdk/lib/libnet80211.a(wl_cnx.o)
scan_set_desChan                                  /home/stoffer/esp8266/esp-open-sdk/sdk/lib/libnet80211.a(ieee80211_scan.o)
                                                  /home/stoffer/esp8266/esp-open-sdk/sdk/lib/libnet80211.a(wl_cnx.o)
scan_start                                        /home/stoffer/esp8266/esp-open-sdk/sdk/lib/libnet80211.a(ieee80211_scan.o)
                                                  /home/stoffer/esp8266/esp-open-sdk/sdk/lib/libnet80211.a(wl_cnx.o)
scannum                                           /home/stoffer/esp8266/esp-open-sdk/sdk/lib/libnet80211.a(ieee80211_scan.o)
                                                  /home/stoffer/esp8266/esp-open-sdk/sdk/lib/libmain.a(user_interface.o)
sdt_on_noise_start                                /home/stoffer/esp8266/esp-open-sdk/sdk/lib/libphy.a(phy_chip_v6.o)
set_cal_rxdc                                      /home/stoffer/esp8266/esp-open-sdk/sdk/lib/libphy.a(phy_chip_v6.o)
set_crystal_uart                                  /home/stoffer/esp8266/esp-open-sdk/sdk/lib/libphy.a(phy_chip_v6.o)
set_dpd_bypass                                    /home/stoffer/esp8266/esp-open-sdk/sdk/lib/libphy.a(phy_chip_v6.o)
set_most_pwr_reg                                  /home/stoffer/esp8266/esp-open-sdk/sdk/lib/libphy.a(phy_chip_v6.o)
set_rf_freq_offset                                /home/stoffer/esp8266/esp-open-sdk/sdk/lib/libphy.a(phy_chip_v6_ana.o)
set_rf_gain_stage10                               /home/stoffer/esp8266/esp-open-sdk/sdk/lib/libphy.a(phy_chip_v6.o)
set_rfanagain_dc_reg                              /home/stoffer/esp8266/esp-open-sdk/sdk/lib/libphy.a(phy_chip_v6_cal.o)
                                                  /home/stoffer/esp8266/esp-open-sdk/sdk/lib/libphy.a(phy_chip_v6.o)
set_rx_gain_cal_iq                                /home/stoffer/esp8266/esp-open-sdk/sdk/lib/libphy.a(phy_chip_v6.o)
set_rx_gain_testchip_50                           /home/stoffer/esp8266/esp-open-sdk/sdk/lib/libphy.a(phy_chip_v6.o)
set_txcap_reg                                     /home/stoffer/esp8266/esp-open-sdk/sdk/lib/libphy.a(phy_chip_v6_ana.o)
                                                  /home/stoffer/esp8266/esp-open-sdk/sdk/lib/libphy.a(phy_chip_v6.o)
set_txdc_pbus                                     /home/stoffer/esp8266/esp-open-sdk/sdk/lib/libphy.a(phy_chip_v6_cal.o)
                                                  /home/stoffer/esp8266/esp-open-sdk/sdk/lib/libphy.a(phy_chip_v6.o)
sha1_prf                                          /home/stoffer/esp8266/esp-open-sdk/sdk/lib/libwpa.a(wpa_common.o)
                                                  /home/stoffer/esp8266/esp-open-sdk/sdk/lib/libwpa.a(wpa_auth.o)
sha256_data                                       build/app_app.a(sha256.o)
sha256_end                                        build/app_app.a(sha256.o)
sha256_final                                      build/app_app.a(sha256.o)
                                                  build/app_app.a(hmac-sha256.o)
sha256_hash                                       build/app_app.a(crypto.o)
sha256_init                                       build/app_app.a(sha256.o)
                                                  build/app_app.a(hmac-sha256.o)
sha256_raw                                        build/app_app.a(sha256.o)
                                                  build/app_app.a(hmac-sha256.o)
                                                  build/app_app.a(crypto.o)
sha256_transform                                  build/app_app.a(sha256.o)
sha256_update                                     build/app_app.a(sha256.o)
                                                  build/app_app.a(hmac-sha256.o)
skip_atoi                                         /home/stoffer/esp8266/esp-open-sdk/sdk/lib/libmain.a(eagle_lib.o)
sleep_mode_flag                                   /home/stoffer/esp8266/esp-open-sdk/sdk/lib/libphy.a(phy_chip_v6_ana.o)
                                                  /home/stoffer/esp8266/esp-open-sdk/sdk/lib/libphy.a(phy_sleep.o)
sleep_opt_8266                                    /home/stoffer/esp8266/esp-open-sdk/sdk/lib/libphy.a(phy_sleep.o)
sleep_opt_bb_on_8266                              /home/stoffer/esp8266/esp-open-sdk/sdk/lib/libphy.a(phy_sleep.o)
sleep_reset_analog_rtcreg_8266                    /home/stoffer/esp8266/esp-open-sdk/sdk/lib/libphy.a(phy_sleep.o)
                                                  /home/stoffer/esp8266/esp-open-sdk/sdk/lib/libmain.a(app_main.o)
sleep_start_wait_time                             /home/stoffer/esp8266/esp-open-sdk/sdk/lib/libpp.a(pp.o)
                                                  /home/stoffer/esp8266/esp-open-sdk/sdk/lib/libpp.a(pm.o)
sntp__tzcalc_limits                               /home/stoffer/esp8266/esp-open-sdk/sdk/lib/liblwip.a(sntp.o)
sntp__tzrule                                      /home/stoffer/esp8266/esp-open-sdk/sdk/lib/liblwip.a(sntp.o)
sntp_asctime                                      /home/stoffer/esp8266/esp-open-sdk/sdk/lib/liblwip.a(sntp.o)
sntp_asctime_r                                    /home/stoffer/esp8266/esp-open-sdk/sdk/lib/liblwip.a(sntp.o)
sntp_get_current_timestamp                        /home/stoffer/esp8266/esp-open-sdk/sdk/lib/liblwip.a(sntp.o)
                                                  build/app_app.a(unix_time.o)
sntp_get_real_time                                /home/stoffer/esp8266/esp-open-sdk/sdk/lib/liblwip.a(sntp.o)
sntp_get_timezone                                 /home/stoffer/esp8266/esp-open-sdk/sdk/lib/liblwip.a(sntp.o)
sntp_getserver                                    /home/stoffer/esp8266/esp-open-sdk/sdk/lib/liblwip.a(sntp.o)
sntp_getservername                                /home/stoffer/esp8266/esp-open-sdk/sdk/lib/liblwip.a(sntp.o)
sntp_init                                         /home/stoffer/esp8266/esp-open-sdk/sdk/lib/liblwip.a(sntp.o)
                                                  build/app_app.a(unix_time.o)
sntp_localtime                                    /home/stoffer/esp8266/esp-open-sdk/sdk/lib/liblwip.a(sntp.o)
sntp_localtime_r                                  /home/stoffer/esp8266/esp-open-sdk/sdk/lib/liblwip.a(sntp.o)
sntp_mktm_r                                       /home/stoffer/esp8266/esp-open-sdk/sdk/lib/liblwip.a(sntp.o)
sntp_set_timezone                                 /home/stoffer/esp8266/esp-open-sdk/sdk/lib/liblwip.a(sntp.o)
                                                  build/app_app.a(unix_time.o)
sntp_setserver                                    /home/stoffer/esp8266/esp-open-sdk/sdk/lib/liblwip.a(sntp.o)
sntp_setservername                                /home/stoffer/esp8266/esp-open-sdk/sdk/lib/liblwip.a(sntp.o)
                                                  build/app_app.a(unix_time.o)
sntp_stop                                         /home/stoffer/esp8266/esp-open-sdk/sdk/lib/liblwip.a(sntp.o)
sntp_time_inc                                     /home/stoffer/esp8266/esp-open-sdk/sdk/lib/liblwip.a(sntp.o)
soft_wdt_interval                                 /home/stoffer/esp8266/esp-open-sdk/sdk/lib/libpp.a(pp.o)
software_slp_reject                               /home/stoffer/esp8266/esp-open-sdk/sdk/lib/libphy.a(phy_sleep.o)
spi_clock                                         build/app_app.a(spi.o)
                                                  build/app_app.a(ext_spi_flash.o)
spi_flash_erase_sector                            /home/stoffer/esp8266/esp-open-sdk/sdk/lib/libmain.a(spi_flash.o)
                                                  /home/stoffer/esp8266/esp-open-sdk/sdk/lib/libmain.a(user_interface.o)
spi_flash_get_id                                  /home/stoffer/esp8266/esp-open-sdk/sdk/lib/libmain.a(spi_flash.o)
                                                  /home/stoffer/esp8266/esp-open-sdk/sdk/lib/libmain.a(app_main.o)
spi_flash_get_unique_id                           /home/stoffer/esp8266/esp-open-sdk/sdk/lib/libmain.a(spi_flash.o)
spi_flash_issi_enable_QIO_mode                    /home/stoffer/esp8266/esp-open-sdk/sdk/lib/libmain.a(spi_flash.o)
                                                  /home/stoffer/esp8266/esp-open-sdk/sdk/lib/libmain.a(app_main.o)
spi_flash_read                                    /home/stoffer/esp8266/esp-open-sdk/sdk/lib/libmain.a(spi_flash.o)
                                                  /home/stoffer/esp8266/esp-open-sdk/sdk/lib/libpp.a(pm_for_bcn_only_mode.o)
                                                  /home/stoffer/esp8266/esp-open-sdk/sdk/lib/libpp.a(pm.o)
                                                  /home/stoffer/esp8266/esp-open-sdk/sdk/lib/libmain.a(user_interface.o)
                                                  /home/stoffer/esp8266/esp-open-sdk/sdk/lib/libmain.a(app_main.o)
spi_flash_read_status                             /home/stoffer/esp8266/esp-open-sdk/sdk/lib/libmain.a(spi_flash.o)
spi_flash_set_read_func                           /home/stoffer/esp8266/esp-open-sdk/sdk/lib/libmain.a(spi_flash.o)
spi_flash_write                                   /home/stoffer/esp8266/esp-open-sdk/sdk/lib/libmain.a(spi_flash.o)
                                                  /home/stoffer/esp8266/esp-open-sdk/sdk/lib/libmain.a(user_interface.o)
spi_flash_write_status                            /home/stoffer/esp8266/esp-open-sdk/sdk/lib/libmain.a(spi_flash.o)
spi_init                                          build/app_app.a(spi.o)
spi_init_gpio                                     build/app_app.a(spi.o)
                                                  build/app_app.a(ext_spi_flash.o)
spi_mode                                          build/app_app.a(spi.o)
spi_rx_byte_order                                 build/app_app.a(spi.o)
                                                  build/app_app.a(ext_spi_flash.o)
spi_transaction                                   build/app_app.a(spi.o)
                                                  build/app_app.a(ext_spi_flash.o)
spi_tx_byte_order                                 build/app_app.a(spi.o)
                                                  build/app_app.a(ext_spi_flash.o)
sta_con_timer                                     /home/stoffer/esp8266/esp-open-sdk/sdk/lib/libnet80211.a(wl_cnx.o)
                                                  /home/stoffer/esp8266/esp-open-sdk/sdk/lib/libmain.a(user_interface.o)
sta_input                                         /home/stoffer/esp8266/esp-open-sdk/sdk/lib/libnet80211.a(ieee80211_sta.o)
                                                  /home/stoffer/esp8266/esp-open-sdk/sdk/lib/libpp.a(pp.o)
sta_status_set                                    /home/stoffer/esp8266/esp-open-sdk/sdk/lib/libnet80211.a(ieee80211_sta.o)
                                                  /home/stoffer/esp8266/esp-open-sdk/sdk/lib/libnet80211.a(wl_cnx.o)
start_dig_rx                                      /home/stoffer/esp8266/esp-open-sdk/sdk/lib/libphy.a(phy_chip_v6.o)
                                                  /home/stoffer/esp8266/esp-open-sdk/sdk/lib/libphy.a(phy_chip_v6_ana.o)
status_led_output_level                           /home/stoffer/esp8266/esp-open-sdk/sdk/lib/libmain.a(user_interface.o)
stop_dig_rx                                       /home/stoffer/esp8266/esp-open-sdk/sdk/lib/libphy.a(phy_chip_v6.o)
                                                  /home/stoffer/esp8266/esp-open-sdk/sdk/lib/libphy.a(phy_chip_v6_ana.o)
strlen                                            /home/stoffer/esp8266/esp-open-sdk/xtensa-lx106-elf/lib/gcc/xtensa-lx106-elf/4.8.5/../../../../xtensa-lx106-elf/lib/libc.a(lib_a-strlen.o)
                                                  build/app_app.a(mqtt_msg.o)
                                                  build/app_app.a(user_main.o)
strtok                                            /home/stoffer/esp8266/esp-open-sdk/xtensa-lx106-elf/lib/gcc/xtensa-lx106-elf/4.8.5/../../../../xtensa-lx106-elf/lib/libc.a(lib_a-strtok.o)
                                                  build/app_app.a(user_main.o)
strtok_r                                          /home/stoffer/esp8266/esp-open-sdk/xtensa-lx106-elf/lib/gcc/xtensa-lx106-elf/4.8.5/../../../../xtensa-lx106-elf/lib/libc.a(lib_a-strtok_r.o)
strtol                                            /home/stoffer/esp8266/esp-open-sdk/xtensa-lx106-elf/lib/gcc/xtensa-lx106-elf/4.8.5/../../../../xtensa-lx106-elf/lib/libc.a(lib_a-strtol.o)
                                                  /home/stoffer/esp8266/esp-open-sdk/xtensa-lx106-elf/lib/gcc/xtensa-lx106-elf/4.8.5/../../../../xtensa-lx106-elf/lib/libc.a(lib_a-atoi.o)
sw_scan_mode                                      /home/stoffer/esp8266/esp-open-sdk/sdk/lib/libphy.a(phy_chip_v6.o)
sys_cfg                                           build/app_app.a(config.o)
                                                  build/app_app.a(cgiwifi.o)
                                                  build/app_app.a(user_main.o)
sys_check_timeouts                                /home/stoffer/esp8266/esp-open-sdk/sdk/lib/liblwip.a(timers.o)
                                                  /home/stoffer/esp8266/esp-open-sdk/sdk/lib/libmain.a(app_main.o)
sys_restart_timeouts                              /home/stoffer/esp8266/esp-open-sdk/sdk/lib/liblwip.a(timers.o)
sys_timeout                                       /home/stoffer/esp8266/esp-open-sdk/sdk/lib/liblwip.a(timers.o)
                                                  /home/stoffer/esp8266/esp-open-sdk/sdk/lib/liblwip.a(sntp.o)
sys_timeouts_init                                 /home/stoffer/esp8266/esp-open-sdk/sdk/lib/liblwip.a(timers.o)
                                                  /home/stoffer/esp8266/esp-open-sdk/sdk/lib/liblwip.a(init.o)
sys_untimeout                                     /home/stoffer/esp8266/esp-open-sdk/sdk/lib/liblwip.a(timers.o)
                                                  /home/stoffer/esp8266/esp-open-sdk/sdk/lib/liblwip.a(sntp.o)
system_adc_read                                   /home/stoffer/esp8266/esp-open-sdk/sdk/lib/libmain.a(user_interface.o)
system_adc_read_fast                              /home/stoffer/esp8266/esp-open-sdk/sdk/lib/libmain.a(user_interface.o)
system_deep_sleep                                 /home/stoffer/esp8266/esp-open-sdk/sdk/lib/libmain.a(user_interface.o)
system_deep_sleep_instant                         /home/stoffer/esp8266/esp-open-sdk/sdk/lib/libmain.a(user_interface.o)
system_deep_sleep_local_2                         /home/stoffer/esp8266/esp-open-sdk/sdk/lib/libmain.a(user_interface.o)
system_deep_sleep_set_option                      /home/stoffer/esp8266/esp-open-sdk/sdk/lib/libmain.a(user_interface.o)
system_get_boot_mode                              /home/stoffer/esp8266/esp-open-sdk/sdk/lib/libmain.a(user_interface.o)
system_get_boot_version                           /home/stoffer/esp8266/esp-open-sdk/sdk/lib/libmain.a(user_interface.o)
system_get_checksum                               /home/stoffer/esp8266/esp-open-sdk/sdk/lib/libmain.a(user_interface.o)
                                                  /home/stoffer/esp8266/esp-open-sdk/sdk/lib/libmain.a(app_main.o)
system_get_chip_id                                /home/stoffer/esp8266/esp-open-sdk/sdk/lib/libmain.a(user_interface.o)
                                                  build/app_app.a(config.o)
system_get_cpu_freq                               /home/stoffer/esp8266/esp-open-sdk/sdk/lib/libmain.a(user_interface.o)
system_get_data_of_array_16                       /home/stoffer/esp8266/esp-open-sdk/sdk/lib/libmain.a(user_interface.o)
system_get_data_of_array_8                        /home/stoffer/esp8266/esp-open-sdk/sdk/lib/libmain.a(user_interface.o)
                                                  /home/stoffer/esp8266/esp-open-sdk/sdk/lib/liblwip.a(tcp.o)
system_get_flash_size_map                         /home/stoffer/esp8266/esp-open-sdk/sdk/lib/libmain.a(user_interface.o)
system_get_free_heap_size                         /home/stoffer/esp8266/esp-open-sdk/sdk/lib/libmain.a(user_interface.o)
                                                  build/app_app.a(user_main.o)
system_get_os_print                               /home/stoffer/esp8266/esp-open-sdk/sdk/lib/libmain.a(user_interface.o)
system_get_rst_info                               /home/stoffer/esp8266/esp-open-sdk/sdk/lib/libmain.a(user_interface.o)
                                                  build/app_app.a(user_main.o)
system_get_rtc_time                               /home/stoffer/esp8266/esp-open-sdk/sdk/lib/libmain.a(user_interface.o)
system_get_sdk_version                            /home/stoffer/esp8266/esp-open-sdk/sdk/lib/libmain.a(user_interface.o)
                                                  build/app_app.a(user_main.o)
system_get_string_from_flash                      /home/stoffer/esp8266/esp-open-sdk/sdk/lib/libmain.a(user_interface.o)
                                                  /home/stoffer/esp8266/esp-open-sdk/sdk/lib/libwpa.a(wpa_common.o)
                                                  /home/stoffer/esp8266/esp-open-sdk/sdk/lib/libwpa.a(wpa.o)
                                                  /home/stoffer/esp8266/esp-open-sdk/sdk/lib/libwpa.a(wpa_auth.o)
                                                  /home/stoffer/esp8266/esp-open-sdk/sdk/lib/libmain.a(mem_manager.o)
system_get_test_result                            /home/stoffer/esp8266/esp-open-sdk/sdk/lib/libmain.a(user_interface.o)
system_get_time                                   /home/stoffer/esp8266/esp-open-sdk/sdk/lib/libmain.a(user_interface.o)
                                                  build/app_app.a(user_main.o)
                                                  /home/stoffer/esp8266/esp-open-sdk/sdk/lib/libmain.a(app_main.o)
system_get_userbin_addr                           /home/stoffer/esp8266/esp-open-sdk/sdk/lib/libmain.a(user_interface.o)
system_get_vdd33                                  /home/stoffer/esp8266/esp-open-sdk/sdk/lib/libmain.a(user_interface.o)
system_init_done                                  build/app_app.a(user_main.o)
system_init_done_cb                               /home/stoffer/esp8266/esp-open-sdk/sdk/lib/libmain.a(user_interface.o)
                                                  build/app_app.a(user_main.o)
system_mktime                                     /home/stoffer/esp8266/esp-open-sdk/sdk/lib/libmain.a(user_interface.o)
system_os_post                                    /home/stoffer/esp8266/esp-open-sdk/sdk/lib/libmain.a(user_interface.o)
                                                  build/app_app.a(mqtt.o)
system_os_task                                    /home/stoffer/esp8266/esp-open-sdk/sdk/lib/libmain.a(user_interface.o)
                                                  build/app_app.a(mqtt.o)
system_overclock                                  /home/stoffer/esp8266/esp-open-sdk/sdk/lib/libmain.a(user_interface.o)
                                                  /home/stoffer/esp8266/esp-open-sdk/sdk/lib/libwpa.a(wpa.o)
system_param_load                                 /home/stoffer/esp8266/esp-open-sdk/sdk/lib/libmain.a(user_interface.o)
system_param_save_with_protect                    /home/stoffer/esp8266/esp-open-sdk/sdk/lib/libmain.a(user_interface.o)
system_phy_set_max_tpw                            /home/stoffer/esp8266/esp-open-sdk/sdk/lib/libmain.a(user_interface.o)
system_phy_set_powerup_option                     /home/stoffer/esp8266/esp-open-sdk/sdk/lib/libmain.a(user_interface.o)
system_phy_set_rfoption                           /home/stoffer/esp8266/esp-open-sdk/sdk/lib/libmain.a(user_interface.o)
system_phy_set_tpw_via_vdd33                      /home/stoffer/esp8266/esp-open-sdk/sdk/lib/libmain.a(user_interface.o)
system_phy_temperature_alert                      /home/stoffer/esp8266/esp-open-sdk/sdk/lib/libmain.a(user_interface.o)
system_pp_recycle_rx_pkt                          /home/stoffer/esp8266/esp-open-sdk/sdk/lib/libmain.a(user_interface.o)
                                                  /home/stoffer/esp8266/esp-open-sdk/sdk/lib/liblwip.a(pbuf.o)
system_print_meminfo                              /home/stoffer/esp8266/esp-open-sdk/sdk/lib/libmain.a(user_interface.o)
system_relative_time                              /home/stoffer/esp8266/esp-open-sdk/sdk/lib/libmain.a(user_interface.o)
system_restart                                    /home/stoffer/esp8266/esp-open-sdk/sdk/lib/libmain.a(user_interface.o)
                                                  build/app_app.a(cgiwifi.o)
system_restart_core                               /home/stoffer/esp8266/esp-open-sdk/sdk/lib/libmain.a(user_interface.o)
system_restart_enhance                            /home/stoffer/esp8266/esp-open-sdk/sdk/lib/libmain.a(user_interface.o)
system_restart_hook                               /home/stoffer/esp8266/esp-open-sdk/sdk/lib/libmain.a(user_interface.o)
system_restart_local                              /home/stoffer/esp8266/esp-open-sdk/sdk/lib/libmain.a(user_interface.o)
                                                  /home/stoffer/esp8266/esp-open-sdk/sdk/lib/libpp.a(pp.o)
                                                  /home/stoffer/esp8266/esp-open-sdk/sdk/lib/libmain.a(app_main.o)
system_restore                                    /home/stoffer/esp8266/esp-open-sdk/sdk/lib/libmain.a(user_interface.o)
system_restoreclock                               /home/stoffer/esp8266/esp-open-sdk/sdk/lib/libmain.a(user_interface.o)
                                                  /home/stoffer/esp8266/esp-open-sdk/sdk/lib/libwpa.a(wpa.o)
system_rtc_clock_cali_proc                        /home/stoffer/esp8266/esp-open-sdk/sdk/lib/libmain.a(user_interface.o)
system_rtc_mem_read                               /home/stoffer/esp8266/esp-open-sdk/sdk/lib/libmain.a(user_interface.o)
                                                  /home/stoffer/esp8266/esp-open-sdk/sdk/lib/libmain.a(app_main.o)
system_rtc_mem_write                              /home/stoffer/esp8266/esp-open-sdk/sdk/lib/libmain.a(user_interface.o)
                                                  /home/stoffer/esp8266/esp-open-sdk/sdk/lib/libpp.a(pp.o)
                                                  /home/stoffer/esp8266/esp-open-sdk/sdk/lib/libmain.a(app_main.o)
system_save_sys_param                             /home/stoffer/esp8266/esp-open-sdk/sdk/lib/libmain.a(user_interface.o)
system_set_os_print                               /home/stoffer/esp8266/esp-open-sdk/sdk/lib/libmain.a(user_interface.o)
                                                  build/app_app.a(user_main.o)
system_show_malloc                                /home/stoffer/esp8266/esp-open-sdk/sdk/lib/libmain.a(mem_manager.o)
system_soft_wdt_feed                              /home/stoffer/esp8266/esp-open-sdk/sdk/lib/libpp.a(pp.o)
system_soft_wdt_restart                           /home/stoffer/esp8266/esp-open-sdk/sdk/lib/libpp.a(pp.o)
system_soft_wdt_stop                              /home/stoffer/esp8266/esp-open-sdk/sdk/lib/libpp.a(pp.o)
system_station_got_ip_set                         /home/stoffer/esp8266/esp-open-sdk/sdk/lib/libmain.a(user_interface.o)
                                                  /home/stoffer/esp8266/esp-open-sdk/sdk/lib/libwpa.a(wpa_main.o)
                                                  /home/stoffer/esp8266/esp-open-sdk/sdk/lib/liblwip.a(dhcp.o)
system_timer_reinit                               /home/stoffer/esp8266/esp-open-sdk/sdk/lib/libmain.a(user_interface.o)
system_uart_de_swap                               /home/stoffer/esp8266/esp-open-sdk/sdk/lib/libmain.a(user_interface.o)
                                                  /home/stoffer/esp8266/esp-open-sdk/sdk/lib/libmain.a(app_main.o)
system_uart_swap                                  /home/stoffer/esp8266/esp-open-sdk/sdk/lib/libmain.a(user_interface.o)
                                                  /home/stoffer/esp8266/esp-open-sdk/sdk/lib/libmain.a(app_main.o)
system_update_cpu_freq                            /home/stoffer/esp8266/esp-open-sdk/sdk/lib/libmain.a(user_interface.o)
system_upgrade_flag_check                         /home/stoffer/esp8266/esp-open-sdk/sdk/lib/libmain.a(user_interface.o)
system_upgrade_flag_set                           /home/stoffer/esp8266/esp-open-sdk/sdk/lib/libmain.a(user_interface.o)
system_upgrade_reboot                             /home/stoffer/esp8266/esp-open-sdk/sdk/lib/libmain.a(user_interface.o)
system_upgrade_userbin_check                      /home/stoffer/esp8266/esp-open-sdk/sdk/lib/libmain.a(user_interface.o)
system_upgrade_userbin_set                        /home/stoffer/esp8266/esp-open-sdk/sdk/lib/libmain.a(user_interface.o)
target_power_add_backoff                          /home/stoffer/esp8266/esp-open-sdk/sdk/lib/libphy.a(phy_chip_v6.o)
target_power_backoff                              /home/stoffer/esp8266/esp-open-sdk/sdk/lib/libphy.a(phy_chip_v6.o)
tcb                                               /home/stoffer/esp8266/esp-open-sdk/sdk/lib/libpp.a(pp.o)
tcp_abandon                                       /home/stoffer/esp8266/esp-open-sdk/sdk/lib/liblwip.a(tcp.o)
                                                  /home/stoffer/esp8266/esp-open-sdk/sdk/lib/liblwip.a(tcp_in.o)
                                                  /home/stoffer/esp8266/esp-open-sdk/sdk/lib/liblwip.a(espconn_tcp.o)
tcp_abort                                         /home/stoffer/esp8266/esp-open-sdk/sdk/lib/liblwip.a(tcp.o)
                                                  /home/stoffer/esp8266/esp-open-sdk/sdk/lib/liblwip.a(tcp_in.o)
                                                  /home/stoffer/esp8266/esp-open-sdk/sdk/lib/liblwip.a(netif.o)
                                                  /home/stoffer/esp8266/esp-open-sdk/sdk/lib/liblwip.a(espconn_tcp.o)
tcp_accept                                        /home/stoffer/esp8266/esp-open-sdk/sdk/lib/liblwip.a(tcp.o)
                                                  /home/stoffer/esp8266/esp-open-sdk/sdk/lib/liblwip.a(espconn_tcp.o)
tcp_active_pcbs                                   /home/stoffer/esp8266/esp-open-sdk/sdk/lib/liblwip.a(tcp.o)
                                                  /home/stoffer/esp8266/esp-open-sdk/sdk/lib/liblwip.a(timers.o)
                                                  /home/stoffer/esp8266/esp-open-sdk/sdk/lib/liblwip.a(tcp_in.o)
                                                  /home/stoffer/esp8266/esp-open-sdk/sdk/lib/liblwip.a(pbuf.o)
                                                  /home/stoffer/esp8266/esp-open-sdk/sdk/lib/liblwip.a(netif.o)
                                                  /home/stoffer/esp8266/esp-open-sdk/sdk/lib/liblwip.a(espconn_tcp.o)
tcp_alloc                                         /home/stoffer/esp8266/esp-open-sdk/sdk/lib/liblwip.a(tcp.o)
                                                  /home/stoffer/esp8266/esp-open-sdk/sdk/lib/liblwip.a(tcp_in.o)
tcp_arg                                           /home/stoffer/esp8266/esp-open-sdk/sdk/lib/liblwip.a(tcp.o)
                                                  /home/stoffer/esp8266/esp-open-sdk/sdk/lib/liblwip.a(espconn_tcp.o)
tcp_backoff                                       /home/stoffer/esp8266/esp-open-sdk/sdk/lib/liblwip.a(tcp.o)
tcp_bind                                          /home/stoffer/esp8266/esp-open-sdk/sdk/lib/liblwip.a(tcp.o)
                                                  /home/stoffer/esp8266/esp-open-sdk/sdk/lib/liblwip.a(espconn_tcp.o)
tcp_bound_pcbs                                    /home/stoffer/esp8266/esp-open-sdk/sdk/lib/liblwip.a(tcp.o)
tcp_close                                         /home/stoffer/esp8266/esp-open-sdk/sdk/lib/liblwip.a(tcp.o)
                                                  /home/stoffer/esp8266/esp-open-sdk/sdk/lib/liblwip.a(espconn_tcp.o)
tcp_connect                                       /home/stoffer/esp8266/esp-open-sdk/sdk/lib/liblwip.a(tcp.o)
                                                  /home/stoffer/esp8266/esp-open-sdk/sdk/lib/liblwip.a(espconn_tcp.o)
tcp_eff_send_mss                                  /home/stoffer/esp8266/esp-open-sdk/sdk/lib/liblwip.a(tcp.o)
                                                  /home/stoffer/esp8266/esp-open-sdk/sdk/lib/liblwip.a(tcp_in.o)
tcp_enqueue_flags                                 /home/stoffer/esp8266/esp-open-sdk/sdk/lib/liblwip.a(tcp_out.o)
                                                  /home/stoffer/esp8266/esp-open-sdk/sdk/lib/liblwip.a(tcp.o)
                                                  /home/stoffer/esp8266/esp-open-sdk/sdk/lib/liblwip.a(tcp_in.o)
tcp_err                                           /home/stoffer/esp8266/esp-open-sdk/sdk/lib/liblwip.a(tcp.o)
                                                  /home/stoffer/esp8266/esp-open-sdk/sdk/lib/liblwip.a(espconn_tcp.o)
tcp_fasttmr                                       /home/stoffer/esp8266/esp-open-sdk/sdk/lib/liblwip.a(tcp.o)
tcp_input                                         /home/stoffer/esp8266/esp-open-sdk/sdk/lib/liblwip.a(tcp_in.o)
                                                  /home/stoffer/esp8266/esp-open-sdk/sdk/lib/liblwip.a(ip.o)
tcp_input_pcb                                     /home/stoffer/esp8266/esp-open-sdk/sdk/lib/liblwip.a(tcp_in.o)
                                                  /home/stoffer/esp8266/esp-open-sdk/sdk/lib/liblwip.a(tcp_out.o)
tcp_keepalive                                     /home/stoffer/esp8266/esp-open-sdk/sdk/lib/liblwip.a(tcp_out.o)
                                                  /home/stoffer/esp8266/esp-open-sdk/sdk/lib/liblwip.a(tcp.o)
tcp_listen_pcbs                                   /home/stoffer/esp8266/esp-open-sdk/sdk/lib/liblwip.a(tcp.o)
                                                  /home/stoffer/esp8266/esp-open-sdk/sdk/lib/liblwip.a(tcp_in.o)
                                                  /home/stoffer/esp8266/esp-open-sdk/sdk/lib/liblwip.a(netif.o)
tcp_listen_with_backlog                           /home/stoffer/esp8266/esp-open-sdk/sdk/lib/liblwip.a(tcp.o)
                                                  /home/stoffer/esp8266/esp-open-sdk/sdk/lib/liblwip.a(espconn_tcp.o)
tcp_new                                           /home/stoffer/esp8266/esp-open-sdk/sdk/lib/liblwip.a(tcp.o)
                                                  /home/stoffer/esp8266/esp-open-sdk/sdk/lib/liblwip.a(espconn_tcp.o)
tcp_next_iss                                      /home/stoffer/esp8266/esp-open-sdk/sdk/lib/liblwip.a(tcp.o)
tcp_output                                        /home/stoffer/esp8266/esp-open-sdk/sdk/lib/liblwip.a(tcp_out.o)
                                                  /home/stoffer/esp8266/esp-open-sdk/sdk/lib/liblwip.a(tcp.o)
                                                  /home/stoffer/esp8266/esp-open-sdk/sdk/lib/liblwip.a(tcp_in.o)
                                                  /home/stoffer/esp8266/esp-open-sdk/sdk/lib/liblwip.a(espconn_tcp.o)
tcp_pcb_lists                                     /home/stoffer/esp8266/esp-open-sdk/sdk/lib/liblwip.a(tcp.o)
                                                  /home/stoffer/esp8266/esp-open-sdk/sdk/lib/liblwip.a(espconn_tcp.o)
tcp_pcb_purge                                     /home/stoffer/esp8266/esp-open-sdk/sdk/lib/liblwip.a(tcp.o)
                                                  /home/stoffer/esp8266/esp-open-sdk/sdk/lib/liblwip.a(tcp_in.o)
                                                  /home/stoffer/esp8266/esp-open-sdk/sdk/lib/liblwip.a(espconn_tcp.o)
tcp_pcb_remove                                    /home/stoffer/esp8266/esp-open-sdk/sdk/lib/liblwip.a(tcp.o)
                                                  /home/stoffer/esp8266/esp-open-sdk/sdk/lib/liblwip.a(tcp_in.o)
                                                  /home/stoffer/esp8266/esp-open-sdk/sdk/lib/liblwip.a(espconn_tcp.o)
tcp_persist_backoff                               /home/stoffer/esp8266/esp-open-sdk/sdk/lib/liblwip.a(tcp.o)
tcp_poll                                          /home/stoffer/esp8266/esp-open-sdk/sdk/lib/liblwip.a(tcp.o)
                                                  /home/stoffer/esp8266/esp-open-sdk/sdk/lib/liblwip.a(espconn_tcp.o)
tcp_recv                                          /home/stoffer/esp8266/esp-open-sdk/sdk/lib/liblwip.a(tcp.o)
                                                  /home/stoffer/esp8266/esp-open-sdk/sdk/lib/liblwip.a(espconn_tcp.o)
tcp_recv_null                                     /home/stoffer/esp8266/esp-open-sdk/sdk/lib/liblwip.a(tcp.o)
                                                  /home/stoffer/esp8266/esp-open-sdk/sdk/lib/liblwip.a(tcp_in.o)
tcp_recved                                        /home/stoffer/esp8266/esp-open-sdk/sdk/lib/liblwip.a(tcp.o)
                                                  /home/stoffer/esp8266/esp-open-sdk/sdk/lib/liblwip.a(espconn_tcp.o)
tcp_rexmit                                        /home/stoffer/esp8266/esp-open-sdk/sdk/lib/liblwip.a(tcp_out.o)
                                                  /home/stoffer/esp8266/esp-open-sdk/sdk/lib/liblwip.a(tcp_in.o)
tcp_rexmit_fast                                   /home/stoffer/esp8266/esp-open-sdk/sdk/lib/liblwip.a(tcp_out.o)
                                                  /home/stoffer/esp8266/esp-open-sdk/sdk/lib/liblwip.a(tcp_in.o)
tcp_rexmit_rto                                    /home/stoffer/esp8266/esp-open-sdk/sdk/lib/liblwip.a(tcp_out.o)
                                                  /home/stoffer/esp8266/esp-open-sdk/sdk/lib/liblwip.a(tcp.o)
tcp_rst                                           /home/stoffer/esp8266/esp-open-sdk/sdk/lib/liblwip.a(tcp_out.o)
                                                  /home/stoffer/esp8266/esp-open-sdk/sdk/lib/liblwip.a(tcp.o)
                                                  /home/stoffer/esp8266/esp-open-sdk/sdk/lib/liblwip.a(tcp_in.o)
tcp_seg_copy                                      /home/stoffer/esp8266/esp-open-sdk/sdk/lib/liblwip.a(tcp.o)
                                                  /home/stoffer/esp8266/esp-open-sdk/sdk/lib/liblwip.a(tcp_in.o)
tcp_seg_free                                      /home/stoffer/esp8266/esp-open-sdk/sdk/lib/liblwip.a(tcp.o)
                                                  /home/stoffer/esp8266/esp-open-sdk/sdk/lib/liblwip.a(tcp_out.o)
                                                  /home/stoffer/esp8266/esp-open-sdk/sdk/lib/liblwip.a(tcp_in.o)
                                                  /home/stoffer/esp8266/esp-open-sdk/sdk/lib/liblwip.a(pbuf.o)
tcp_segs_free                                     /home/stoffer/esp8266/esp-open-sdk/sdk/lib/liblwip.a(tcp.o)
                                                  /home/stoffer/esp8266/esp-open-sdk/sdk/lib/liblwip.a(tcp_out.o)
                                                  /home/stoffer/esp8266/esp-open-sdk/sdk/lib/liblwip.a(tcp_in.o)
tcp_send_empty_ack                                /home/stoffer/esp8266/esp-open-sdk/sdk/lib/liblwip.a(tcp_out.o)
                                                  /home/stoffer/esp8266/esp-open-sdk/sdk/lib/liblwip.a(tcp_in.o)
tcp_send_fin                                      /home/stoffer/esp8266/esp-open-sdk/sdk/lib/liblwip.a(tcp_out.o)
                                                  /home/stoffer/esp8266/esp-open-sdk/sdk/lib/liblwip.a(tcp.o)
tcp_sent                                          /home/stoffer/esp8266/esp-open-sdk/sdk/lib/liblwip.a(tcp.o)
                                                  /home/stoffer/esp8266/esp-open-sdk/sdk/lib/liblwip.a(espconn_tcp.o)
tcp_setprio                                       /home/stoffer/esp8266/esp-open-sdk/sdk/lib/liblwip.a(tcp.o)
tcp_shutdown                                      /home/stoffer/esp8266/esp-open-sdk/sdk/lib/liblwip.a(tcp.o)
tcp_slowtmr                                       /home/stoffer/esp8266/esp-open-sdk/sdk/lib/liblwip.a(tcp.o)
tcp_ticks                                         /home/stoffer/esp8266/esp-open-sdk/sdk/lib/liblwip.a(tcp.o)
                                                  /home/stoffer/esp8266/esp-open-sdk/sdk/lib/liblwip.a(tcp_out.o)
                                                  /home/stoffer/esp8266/esp-open-sdk/sdk/lib/liblwip.a(tcp_in.o)
                                                  /home/stoffer/esp8266/esp-open-sdk/sdk/lib/liblwip.a(espconn_tcp.o)
tcp_timer_needed                                  /home/stoffer/esp8266/esp-open-sdk/sdk/lib/liblwip.a(timers.o)
                                                  /home/stoffer/esp8266/esp-open-sdk/sdk/lib/liblwip.a(tcp.o)
                                                  /home/stoffer/esp8266/esp-open-sdk/sdk/lib/liblwip.a(tcp_in.o)
tcp_tmp_pcb                                       /home/stoffer/esp8266/esp-open-sdk/sdk/lib/liblwip.a(tcp.o)
                                                  /home/stoffer/esp8266/esp-open-sdk/sdk/lib/liblwip.a(tcp_in.o)
tcp_tmr                                           /home/stoffer/esp8266/esp-open-sdk/sdk/lib/liblwip.a(tcp.o)
                                                  /home/stoffer/esp8266/esp-open-sdk/sdk/lib/liblwip.a(timers.o)
tcp_tw_pcbs                                       /home/stoffer/esp8266/esp-open-sdk/sdk/lib/liblwip.a(tcp.o)
                                                  /home/stoffer/esp8266/esp-open-sdk/sdk/lib/liblwip.a(timers.o)
                                                  /home/stoffer/esp8266/esp-open-sdk/sdk/lib/liblwip.a(tcp_in.o)
                                                  /home/stoffer/esp8266/esp-open-sdk/sdk/lib/liblwip.a(espconn_tcp.o)
tcp_update_rcv_ann_wnd                            /home/stoffer/esp8266/esp-open-sdk/sdk/lib/liblwip.a(tcp.o)
                                                  /home/stoffer/esp8266/esp-open-sdk/sdk/lib/liblwip.a(tcp_in.o)
tcp_write                                         /home/stoffer/esp8266/esp-open-sdk/sdk/lib/liblwip.a(tcp_out.o)
                                                  /home/stoffer/esp8266/esp-open-sdk/sdk/lib/liblwip.a(espconn_tcp.o)
tcp_zero_window_probe                             /home/stoffer/esp8266/esp-open-sdk/sdk/lib/liblwip.a(tcp_out.o)
                                                  /home/stoffer/esp8266/esp-open-sdk/sdk/lib/liblwip.a(tcp.o)
test_print_time                                   /home/stoffer/esp8266/esp-open-sdk/sdk/lib/libphy.a(phy_chip_v6.o)
test_rffreq_txcap                                 /home/stoffer/esp8266/esp-open-sdk/sdk/lib/libphy.a(phy_chip_v6.o)
test_tout                                         /home/stoffer/esp8266/esp-open-sdk/sdk/lib/libphy.a(phy_chip_v6_ana.o)
                                                  /home/stoffer/esp8266/esp-open-sdk/sdk/lib/libmain.a(user_interface.o)
tfp_format                                        build/app_app.a(tinyprintf.o)
tfp_printf                                        build/app_app.a(tinyprintf.o)
tfp_snprintf                                      build/app_app.a(tinyprintf.o)
                                                  build/app_app.a(cgi.o)
                                                  build/app_app.a(cgiwifi.o)
                                                  build/app_app.a(wifi.o)
                                                  build/app_app.a(config.o)
                                                  build/app_app.a(utils.o)
                                                  build/app_app.a(httpd.o)
                                                  build/app_app.a(user_main.o)
tfp_sprintf                                       build/app_app.a(tinyprintf.o)
tfp_vsnprintf                                     build/app_app.a(tinyprintf.o)
tfp_vsprintf                                      build/app_app.a(tinyprintf.o)
time_zone                                         /home/stoffer/esp8266/esp-open-sdk/sdk/lib/liblwip.a(sntp.o)
timer2_ms_flag                                    /home/stoffer/esp8266/esp-open-sdk/sdk/lib/libmain.a(user_interface.o)
                                                  /home/stoffer/esp8266/esp-open-sdk/sdk/lib/liblwip.a(timers.o)
                                                  /home/stoffer/esp8266/esp-open-sdk/sdk/lib/libpp.a(pm_for_bcn_only_mode.o)
                                                  /home/stoffer/esp8266/esp-open-sdk/sdk/lib/libpp.a(pm.o)
                                                  /home/stoffer/esp8266/esp-open-sdk/sdk/lib/libmain.a(ets_timer.o)
timer_list                                        /home/stoffer/esp8266/esp-open-sdk/sdk/lib/libmain.a(ets_timer.o)
                                                  /home/stoffer/esp8266/esp-open-sdk/sdk/lib/libpp.a(pm_for_bcn_only_mode.o)
                                                  /home/stoffer/esp8266/esp-open-sdk/sdk/lib/libpp.a(pm.o)
tkip                                              /home/stoffer/esp8266/esp-open-sdk/sdk/lib/libnet80211.a(ieee80211_crypto_tkip.o)
                                                  /home/stoffer/esp8266/esp-open-sdk/sdk/lib/libwpa.a(wpa_main.o)
                                                  /home/stoffer/esp8266/esp-open-sdk/sdk/lib/libwpa.a(wpa_auth.o)
total_buffed_eb_num                               /home/stoffer/esp8266/esp-open-sdk/sdk/lib/libpp.a(pp.o)
                                                  /home/stoffer/esp8266/esp-open-sdk/sdk/lib/libnet80211.a(ieee80211_hostap.o)
tout_dis_txpwr_track                              /home/stoffer/esp8266/esp-open-sdk/sdk/lib/libphy.a(phy_chip_v6_ana.o)
                                                  /home/stoffer/esp8266/esp-open-sdk/sdk/lib/libphy.a(phy_chip_v6_cal.o)
tplCounter                                        build/app_app.a(cgi.o)
                                                  build/app_app.a(httpd_user_init.o)
tplLed                                            build/app_app.a(cgi.o)
                                                  build/app_app.a(httpd_user_init.o)
tplSetup                                          build/app_app.a(cgiwifi.o)
                                                  build/app_app.a(httpd_user_init.o)
trc_NeedRTS                                       /home/stoffer/esp8266/esp-open-sdk/sdk/lib/libpp.a(trc.o)
trc_onDisconnect                                  /home/stoffer/esp8266/esp-open-sdk/sdk/lib/libpp.a(trc.o)
trc_onScanDone                                    /home/stoffer/esp8266/esp-open-sdk/sdk/lib/libpp.a(trc.o)
trc_onScanStart                                   /home/stoffer/esp8266/esp-open-sdk/sdk/lib/libpp.a(trc.o)
tsen_meas                                         /home/stoffer/esp8266/esp-open-sdk/sdk/lib/libphy.a(phy_chip_v6_ana.o)
tx_atten_set_interp                               /home/stoffer/esp8266/esp-open-sdk/sdk/lib/libphy.a(phy_chip_v6.o)
                                                  /home/stoffer/esp8266/esp-open-sdk/sdk/lib/libphy.a(phy_chip_v6_cal.o)
                                                  /home/stoffer/esp8266/esp-open-sdk/sdk/lib/libphy.a(phy_chip_v6_ana.o)
tx_cap_init                                       /home/stoffer/esp8266/esp-open-sdk/sdk/lib/libphy.a(phy_chip_v6.o)
tx_cont_cfg                                       /home/stoffer/esp8266/esp-open-sdk/sdk/lib/libphy.a(phy_chip_v6.o)
tx_cont_dis                                       /home/stoffer/esp8266/esp-open-sdk/sdk/lib/libphy.a(phy_chip_v6.o)
tx_cont_en                                        /home/stoffer/esp8266/esp-open-sdk/sdk/lib/libphy.a(phy_chip_v6.o)
tx_pwctrl_background                              /home/stoffer/esp8266/esp-open-sdk/sdk/lib/libphy.a(phy_chip_v6_cal.o)
                                                  /home/stoffer/esp8266/esp-open-sdk/sdk/lib/libpp.a(pp.o)
tx_pwctrl_bg_init                                 /home/stoffer/esp8266/esp-open-sdk/sdk/lib/libphy.a(phy_chip_v6_cal.o)
                                                  /home/stoffer/esp8266/esp-open-sdk/sdk/lib/libphy.a(phy_chip_v6.o)
tx_pwctrl_cal                                     /home/stoffer/esp8266/esp-open-sdk/sdk/lib/libphy.a(phy_chip_v6_cal.o)
tx_pwctrl_init                                    /home/stoffer/esp8266/esp-open-sdk/sdk/lib/libphy.a(phy_chip_v6.o)
tx_pwctrl_init_cal                                /home/stoffer/esp8266/esp-open-sdk/sdk/lib/libphy.a(phy_chip_v6.o)
tx_pwctrl_pk_num                                  /home/stoffer/esp8266/esp-open-sdk/sdk/lib/libphy.a(phy_chip_v6_cal.o)
tx_pwctrl_track_num                               /home/stoffer/esp8266/esp-open-sdk/sdk/lib/libphy.a(phy_chip_v6_cal.o)
tx_pwr_backoff                                    /home/stoffer/esp8266/esp-open-sdk/sdk/lib/libphy.a(phy_chip_v6_cal.o)
                                                  /home/stoffer/esp8266/esp-open-sdk/sdk/lib/libphy.a(phy_chip_v6.o)
tx_rf_ana_gain                                    /home/stoffer/esp8266/esp-open-sdk/sdk/lib/libphy.a(phy_chip_v6.o)
                                                  /home/stoffer/esp8266/esp-open-sdk/sdk/lib/libphy.a(phy_chip_v6_cal.o)
txbbgain2dcoindex                                 /home/stoffer/esp8266/esp-open-sdk/sdk/lib/libphy.a(phy_chip_v6_cal.o)
txbk_dpdby_flag                                   /home/stoffer/esp8266/esp-open-sdk/sdk/lib/libphy.a(phy_chip_v6.o)
txiq_cover                                        /home/stoffer/esp8266/esp-open-sdk/sdk/lib/libphy.a(phy_chip_v6_cal.o)
txiq_get_mis_pwr                                  /home/stoffer/esp8266/esp-open-sdk/sdk/lib/libphy.a(phy_chip_v6_cal.o)
txpwr_offset                                      /home/stoffer/esp8266/esp-open-sdk/sdk/lib/libphy.a(phy_chip_v6_ana.o)
                                                  /home/stoffer/esp8266/esp-open-sdk/sdk/lib/libphy.a(phy_chip_v6.o)
uart0_sendStr                                     build/app_app.a(uart.o)
uart0_tx_buffer                                   build/app_app.a(uart.o)
uart0_write_char                                  build/app_app.a(uart.o)
uart1_write_char                                  build/app_app.a(uart.o)
uart_buff_switch                                  /home/stoffer/esp8266/esp-open-sdk/sdk/lib/libphy.a(phy_chip_v6.o)
uart_div_modify                                   build/app_app.a(uart.o)
                                                  /home/stoffer/esp8266/esp-open-sdk/sdk/lib/libmain.a(app_main.o)
uart_init                                         build/app_app.a(uart.o)
                                                  build/app_app.a(user_main.o)
uart_reattach                                     build/app_app.a(uart.o)
uart_tx_flush                                     /home/stoffer/esp8266/esp-open-sdk/sdk/lib/libpp.a(pm.o)
                                                  /home/stoffer/esp8266/esp-open-sdk/sdk/lib/libphy.a(phy_chip_v6.o)
uart_tx_one_char                                  build/app_app.a(uart.o)
uart_wait_idle                                    /home/stoffer/esp8266/esp-open-sdk/sdk/lib/libphy.a(phy_chip_v6.o)
udp_bind                                          /home/stoffer/esp8266/esp-open-sdk/sdk/lib/liblwip.a(udp.o)
                                                  /home/stoffer/esp8266/esp-open-sdk/sdk/lib/liblwip.a(espconn_udp.o)
                                                  /home/stoffer/esp8266/esp-open-sdk/sdk/lib/liblwip.a(dns.o)
                                                  /home/stoffer/esp8266/esp-open-sdk/sdk/lib/liblwip.a(dhcpserver.o)
                                                  /home/stoffer/esp8266/esp-open-sdk/sdk/lib/liblwip.a(dhcp.o)
udp_connect                                       /home/stoffer/esp8266/esp-open-sdk/sdk/lib/liblwip.a(udp.o)
                                                  /home/stoffer/esp8266/esp-open-sdk/sdk/lib/liblwip.a(dns.o)
                                                  /home/stoffer/esp8266/esp-open-sdk/sdk/lib/liblwip.a(dhcp.o)
udp_disconnect                                    /home/stoffer/esp8266/esp-open-sdk/sdk/lib/liblwip.a(udp.o)
                                                  /home/stoffer/esp8266/esp-open-sdk/sdk/lib/liblwip.a(espconn_udp.o)
                                                  /home/stoffer/esp8266/esp-open-sdk/sdk/lib/liblwip.a(dhcpserver.o)
udp_input                                         /home/stoffer/esp8266/esp-open-sdk/sdk/lib/liblwip.a(udp.o)
                                                  /home/stoffer/esp8266/esp-open-sdk/sdk/lib/liblwip.a(ip.o)
udp_new                                           /home/stoffer/esp8266/esp-open-sdk/sdk/lib/liblwip.a(udp.o)
                                                  /home/stoffer/esp8266/esp-open-sdk/sdk/lib/liblwip.a(sntp.o)
                                                  /home/stoffer/esp8266/esp-open-sdk/sdk/lib/liblwip.a(espconn_udp.o)
                                                  /home/stoffer/esp8266/esp-open-sdk/sdk/lib/liblwip.a(dns.o)
                                                  /home/stoffer/esp8266/esp-open-sdk/sdk/lib/liblwip.a(dhcpserver.o)
                                                  /home/stoffer/esp8266/esp-open-sdk/sdk/lib/liblwip.a(dhcp.o)
udp_pcbs                                          /home/stoffer/esp8266/esp-open-sdk/sdk/lib/liblwip.a(udp.o)
udp_recv                                          /home/stoffer/esp8266/esp-open-sdk/sdk/lib/liblwip.a(udp.o)
                                                  /home/stoffer/esp8266/esp-open-sdk/sdk/lib/liblwip.a(sntp.o)
                                                  /home/stoffer/esp8266/esp-open-sdk/sdk/lib/liblwip.a(espconn_udp.o)
                                                  /home/stoffer/esp8266/esp-open-sdk/sdk/lib/liblwip.a(dns.o)
                                                  /home/stoffer/esp8266/esp-open-sdk/sdk/lib/liblwip.a(dhcpserver.o)
                                                  /home/stoffer/esp8266/esp-open-sdk/sdk/lib/liblwip.a(dhcp.o)
udp_remove                                        /home/stoffer/esp8266/esp-open-sdk/sdk/lib/liblwip.a(udp.o)
                                                  /home/stoffer/esp8266/esp-open-sdk/sdk/lib/liblwip.a(sntp.o)
                                                  /home/stoffer/esp8266/esp-open-sdk/sdk/lib/liblwip.a(espconn_udp.o)
                                                  /home/stoffer/esp8266/esp-open-sdk/sdk/lib/liblwip.a(dhcpserver.o)
                                                  /home/stoffer/esp8266/esp-open-sdk/sdk/lib/liblwip.a(dhcp.o)
udp_send                                          /home/stoffer/esp8266/esp-open-sdk/sdk/lib/liblwip.a(udp.o)
                                                  /home/stoffer/esp8266/esp-open-sdk/sdk/lib/liblwip.a(espconn_udp.o)
udp_sendto                                        /home/stoffer/esp8266/esp-open-sdk/sdk/lib/liblwip.a(udp.o)
                                                  /home/stoffer/esp8266/esp-open-sdk/sdk/lib/liblwip.a(sntp.o)
                                                  /home/stoffer/esp8266/esp-open-sdk/sdk/lib/liblwip.a(espconn_udp.o)
                                                  /home/stoffer/esp8266/esp-open-sdk/sdk/lib/liblwip.a(dns.o)
                                                  /home/stoffer/esp8266/esp-open-sdk/sdk/lib/liblwip.a(dhcpserver.o)
udp_sendto_if                                     /home/stoffer/esp8266/esp-open-sdk/sdk/lib/liblwip.a(udp.o)
                                                  /home/stoffer/esp8266/esp-open-sdk/sdk/lib/liblwip.a(dhcp.o)
unregister_ieee80211_action_vendor_get_key_cb     /home/stoffer/esp8266/esp-open-sdk/sdk/lib/libnet80211.a(ieee80211_action_vendor.o)
unregister_ieee80211_action_vendor_spec_cb        /home/stoffer/esp8266/esp-open-sdk/sdk/lib/libnet80211.a(ieee80211_action_vendor.o)
unregister_ieee80211_rfid_locp_recv_cb            /home/stoffer/esp8266/esp-open-sdk/sdk/lib/libnet80211.a(ieee80211_rfid.o)
                                                  /home/stoffer/esp8266/esp-open-sdk/sdk/lib/libmain.a(user_interface.o)
unsign_to_sign                                    /home/stoffer/esp8266/esp-open-sdk/sdk/lib/libphy.a(phy_chip_v6_cal.o)
uptime                                            build/app_app.a(unix_time.o)
                                                  build/app_app.a(user_main.o)
user_init                                         build/app_app.a(user_main.o)
                                                  /home/stoffer/esp8266/esp-open-sdk/sdk/lib/libmain.a(app_main.o)
user_init_flag                                    /home/stoffer/esp8266/esp-open-sdk/sdk/lib/libmain.a(app_main.o)
                                                  /home/stoffer/esp8266/esp-open-sdk/sdk/lib/libmain.a(user_interface.o)
user_rf_pre_init                                  /home/stoffer/esp8266/esp-open-sdk/sdk/lib/libmain.a(app_main.o)
user_uart_wait_tx_fifo_empty                      /home/stoffer/esp8266/esp-open-sdk/sdk/lib/libmain.a(app_main.o)
                                                  /home/stoffer/esp8266/esp-open-sdk/sdk/lib/libmain.a(user_interface.o)
vPortFree                                         /home/stoffer/esp8266/esp-open-sdk/sdk/lib/libmain.a(mem_manager.o)
                                                  /home/stoffer/esp8266/esp-open-sdk/sdk/lib/libwpa.a(aes-internal-enc.o)
                                                  /home/stoffer/esp8266/esp-open-sdk/sdk/lib/libwpa.a(wpa_main.o)
                                                  /home/stoffer/esp8266/esp-open-sdk/sdk/lib/libwpa.a(wpa_auth_ie.o)
                                                  /home/stoffer/esp8266/esp-open-sdk/sdk/lib/libwpa.a(wpa_auth.o)
                                                  /home/stoffer/esp8266/esp-open-sdk/sdk/lib/libwpa.a(common.o)
                                                  /home/stoffer/esp8266/esp-open-sdk/sdk/lib/libwpa.a(ap_config.o)
                                                  /home/stoffer/esp8266/esp-open-sdk/sdk/lib/liblwip.a(udp.o)
                                                  /home/stoffer/esp8266/esp-open-sdk/sdk/lib/liblwip.a(timers.o)
                                                  /home/stoffer/esp8266/esp-open-sdk/sdk/lib/liblwip.a(tcp.o)
                                                  /home/stoffer/esp8266/esp-open-sdk/sdk/lib/liblwip.a(tcp_in.o)
                                                  /home/stoffer/esp8266/esp-open-sdk/sdk/lib/liblwip.a(raw.o)
                                                  /home/stoffer/esp8266/esp-open-sdk/sdk/lib/liblwip.a(pbuf.o)
                                                  /home/stoffer/esp8266/esp-open-sdk/sdk/lib/liblwip.a(igmp.o)
                                                  /home/stoffer/esp8266/esp-open-sdk/sdk/lib/liblwip.a(etharp.o)
                                                  /home/stoffer/esp8266/esp-open-sdk/sdk/lib/liblwip.a(espconn_udp.o)
                                                  /home/stoffer/esp8266/esp-open-sdk/sdk/lib/liblwip.a(espconn_tcp.o)
                                                  /home/stoffer/esp8266/esp-open-sdk/sdk/lib/liblwip.a(dns.o)
                                                  /home/stoffer/esp8266/esp-open-sdk/sdk/lib/liblwip.a(dhcpserver.o)
                                                  /home/stoffer/esp8266/esp-open-sdk/sdk/lib/liblwip.a(dhcp.o)
                                                  /home/stoffer/esp8266/esp-open-sdk/sdk/lib/libnet80211.a(wl_cnx.o)
                                                  /home/stoffer/esp8266/esp-open-sdk/sdk/lib/libnet80211.a(ieee80211_sta.o)
                                                  /home/stoffer/esp8266/esp-open-sdk/sdk/lib/libnet80211.a(ieee80211_scan.o)
                                                  /home/stoffer/esp8266/esp-open-sdk/sdk/lib/libnet80211.a(ieee80211_phy.o)
                                                  /home/stoffer/esp8266/esp-open-sdk/sdk/lib/libnet80211.a(ieee80211_mesh_quick.o)
                                                  /home/stoffer/esp8266/esp-open-sdk/sdk/lib/libnet80211.a(ieee80211_hostap.o)
                                                  /home/stoffer/esp8266/esp-open-sdk/sdk/lib/libnet80211.a(ieee80211.o)
                                                  /home/stoffer/esp8266/esp-open-sdk/sdk/lib/libpp.a(esf_buf.o)
                                                  /home/stoffer/esp8266/esp-open-sdk/sdk/lib/libpp.a(wdev.o)
                                                  /home/stoffer/esp8266/esp-open-sdk/sdk/lib/libpp.a(pp.o)
                                                  /home/stoffer/esp8266/esp-open-sdk/sdk/lib/libpp.a(pm_for_bcn_only_mode.o)
                                                  /home/stoffer/esp8266/esp-open-sdk/sdk/lib/libpp.a(pm.o)
                                                  build/app_app.a(heatshrink_decoder.o)
                                                  build/app_app.a(espfs.o)
                                                  build/app_app.a(httpdespfs.o)
                                                  build/app_app.a(cgiwifi.o)
                                                  build/app_app.a(mqtt.o)
                                                  build/app_app.a(httpd.o)
                                                  /home/stoffer/esp8266/esp-open-sdk/sdk/lib/libmain.a(eagle_lwip_if.o)
                                                  /home/stoffer/esp8266/esp-open-sdk/sdk/lib/libmain.a(user_interface.o)
                                                  /home/stoffer/esp8266/esp-open-sdk/sdk/lib/libmain.a(app_main.o)
vPortInitialiseBlocks                             /home/stoffer/esp8266/esp-open-sdk/sdk/lib/libmain.a(mem_manager.o)
wDevCtrl                                          /home/stoffer/esp8266/esp-open-sdk/sdk/lib/libpp.a(wdev.o)
                                                  /home/stoffer/esp8266/esp-open-sdk/sdk/lib/libpp.a(esf_buf.o)
                                                  /home/stoffer/esp8266/esp-open-sdk/sdk/lib/libpp.a(pp.o)
wDevDisableRx                                     /home/stoffer/esp8266/esp-open-sdk/sdk/lib/libpp.a(wdev.o)
                                                  /home/stoffer/esp8266/esp-open-sdk/sdk/lib/libnet80211.a(ieee80211_hostap.o)
                                                  /home/stoffer/esp8266/esp-open-sdk/sdk/lib/libpp.a(if_hwctrl.o)
                                                  /home/stoffer/esp8266/esp-open-sdk/sdk/lib/libmain.a(user_interface.o)
wDevEnableRx                                      /home/stoffer/esp8266/esp-open-sdk/sdk/lib/libpp.a(wdev.o)
                                                  /home/stoffer/esp8266/esp-open-sdk/sdk/lib/libpp.a(if_hwctrl.o)
                                                  /home/stoffer/esp8266/esp-open-sdk/sdk/lib/libmain.a(user_interface.o)
                                                  /home/stoffer/esp8266/esp-open-sdk/sdk/lib/libmain.a(app_main.o)
wDevForceAck6M                                    /home/stoffer/esp8266/esp-open-sdk/sdk/lib/libpp.a(wdev.o)
wDev_AppendRxAmpduLensBlocks                      /home/stoffer/esp8266/esp-open-sdk/sdk/lib/libpp.a(wdev.o)
wDev_AppendRxBlocks                               /home/stoffer/esp8266/esp-open-sdk/sdk/lib/libpp.a(wdev.o)
                                                  /home/stoffer/esp8266/esp-open-sdk/sdk/lib/libpp.a(pp.o)
wDev_ClearBssid                                   /home/stoffer/esp8266/esp-open-sdk/sdk/lib/libpp.a(wdev.o)
wDev_ClearTxqCollisions                           /home/stoffer/esp8266/esp-open-sdk/sdk/lib/libpp.a(wdev.o)
                                                  /home/stoffer/esp8266/esp-open-sdk/sdk/lib/libpp.a(lmac.o)
wDev_ClearWaitingQueue                            /home/stoffer/esp8266/esp-open-sdk/sdk/lib/libpp.a(wdev.o)
                                                  /home/stoffer/esp8266/esp-open-sdk/sdk/lib/libpp.a(lmac.o)
wDev_Crypto_Conf                                  /home/stoffer/esp8266/esp-open-sdk/sdk/lib/libpp.a(wdev.o)
                                                  /home/stoffer/esp8266/esp-open-sdk/sdk/lib/libpp.a(if_hwctrl.o)
wDev_Crypto_Disable                               /home/stoffer/esp8266/esp-open-sdk/sdk/lib/libpp.a(wdev.o)
                                                  /home/stoffer/esp8266/esp-open-sdk/sdk/lib/libpp.a(if_hwctrl.o)
wDev_DisableTransmit                              /home/stoffer/esp8266/esp-open-sdk/sdk/lib/libpp.a(wdev.o)
wDev_Disable_Beacon_Tsf                           /home/stoffer/esp8266/esp-open-sdk/sdk/lib/libpp.a(wdev.o)
wDev_EnableTransmit                               /home/stoffer/esp8266/esp-open-sdk/sdk/lib/libpp.a(wdev.o)
                                                  /home/stoffer/esp8266/esp-open-sdk/sdk/lib/libpp.a(lmac.o)
wDev_Enable_Beacon_Tsf                            /home/stoffer/esp8266/esp-open-sdk/sdk/lib/libpp.a(wdev.o)
wDev_GetBAInfo                                    /home/stoffer/esp8266/esp-open-sdk/sdk/lib/libpp.a(wdev.o)
                                                  /home/stoffer/esp8266/esp-open-sdk/sdk/lib/libpp.a(lmac.o)
wDev_GetTxqCollisions                             /home/stoffer/esp8266/esp-open-sdk/sdk/lib/libpp.a(wdev.o)
                                                  /home/stoffer/esp8266/esp-open-sdk/sdk/lib/libpp.a(lmac.o)
wDev_Get_Next_TBTT                                /home/stoffer/esp8266/esp-open-sdk/sdk/lib/libpp.a(wdev.o)
                                                  /home/stoffer/esp8266/esp-open-sdk/sdk/lib/libnet80211.a(ieee80211_hostap.o)
wDev_Initialize                                   /home/stoffer/esp8266/esp-open-sdk/sdk/lib/libpp.a(wdev.o)
                                                  /home/stoffer/esp8266/esp-open-sdk/sdk/lib/libmain.a(app_main.o)
wDev_Insert_KeyEntry                              /home/stoffer/esp8266/esp-open-sdk/sdk/lib/libpp.a(wdev.o)
                                                  /home/stoffer/esp8266/esp-open-sdk/sdk/lib/libpp.a(if_hwctrl.o)
wDev_MacTim1Arm                                   /home/stoffer/esp8266/esp-open-sdk/sdk/lib/libpp.a(wdev.o)
                                                  /home/stoffer/esp8266/esp-open-sdk/sdk/lib/libpp.a(pp.o)
wDev_MacTim1SetFunc                               /home/stoffer/esp8266/esp-open-sdk/sdk/lib/libpp.a(wdev.o)
                                                  /home/stoffer/esp8266/esp-open-sdk/sdk/lib/libpp.a(pp.o)
wDev_Option_Init                                  /home/stoffer/esp8266/esp-open-sdk/sdk/lib/libpp.a(wdev.o)
wDev_ProcessCollision                             /home/stoffer/esp8266/esp-open-sdk/sdk/lib/libpp.a(wdev.o)
                                                  /home/stoffer/esp8266/esp-open-sdk/sdk/lib/libpp.a(lmac.o)
wDev_ProcessFiq                                   /home/stoffer/esp8266/esp-open-sdk/sdk/lib/libpp.a(wdev.o)
                                                  /home/stoffer/esp8266/esp-open-sdk/sdk/lib/libmain.a(app_main.o)
wDev_Reset_TBTT                                   /home/stoffer/esp8266/esp-open-sdk/sdk/lib/libpp.a(wdev.o)
                                                  /home/stoffer/esp8266/esp-open-sdk/sdk/lib/libnet80211.a(ieee80211_hostap.o)
wDev_SetBssid                                     /home/stoffer/esp8266/esp-open-sdk/sdk/lib/libpp.a(wdev.o)
wDev_SetFrameAckType                              /home/stoffer/esp8266/esp-open-sdk/sdk/lib/libpp.a(wdev.o)
                                                  /home/stoffer/esp8266/esp-open-sdk/sdk/lib/libpp.a(lmac.o)
wDev_SetMacAddress                                /home/stoffer/esp8266/esp-open-sdk/sdk/lib/libpp.a(wdev.o)
                                                  /home/stoffer/esp8266/esp-open-sdk/sdk/lib/libpp.a(if_hwctrl.o)
                                                  /home/stoffer/esp8266/esp-open-sdk/sdk/lib/libmain.a(user_interface.o)
wDev_SetRxPolicy                                  /home/stoffer/esp8266/esp-open-sdk/sdk/lib/libpp.a(wdev.o)
                                                  /home/stoffer/esp8266/esp-open-sdk/sdk/lib/libnet80211.a(wl_cnx.o)
                                                  /home/stoffer/esp8266/esp-open-sdk/sdk/lib/libnet80211.a(ieee80211_scan.o)
                                                  /home/stoffer/esp8266/esp-open-sdk/sdk/lib/libnet80211.a(ieee80211_hostap.o)
                                                  /home/stoffer/esp8266/esp-open-sdk/sdk/lib/libpp.a(if_hwctrl.o)
wDev_SetWaitingQueue                              /home/stoffer/esp8266/esp-open-sdk/sdk/lib/libpp.a(wdev.o)
                                                  /home/stoffer/esp8266/esp-open-sdk/sdk/lib/libpp.a(lmac.o)
wDev_Set_Beacon_Int                               /home/stoffer/esp8266/esp-open-sdk/sdk/lib/libpp.a(wdev.o)
                                                  /home/stoffer/esp8266/esp-open-sdk/sdk/lib/libnet80211.a(ieee80211_hostap.o)
                                                  /home/stoffer/esp8266/esp-open-sdk/sdk/lib/libmain.a(user_interface.o)
                                                  /home/stoffer/esp8266/esp-open-sdk/sdk/lib/libmain.a(app_main.o)
wDev_remove_KeyEntry                              /home/stoffer/esp8266/esp-open-sdk/sdk/lib/libpp.a(wdev.o)
                                                  /home/stoffer/esp8266/esp-open-sdk/sdk/lib/libwpa.a(wpa_main.o)
                                                  /home/stoffer/esp8266/esp-open-sdk/sdk/lib/libnet80211.a(wl_cnx.o)
                                                  /home/stoffer/esp8266/esp-open-sdk/sdk/lib/libpp.a(if_hwctrl.o)
wDev_remove_KeyEntry_all_cnx                      /home/stoffer/esp8266/esp-open-sdk/sdk/lib/libpp.a(wdev.o)
                                                  /home/stoffer/esp8266/esp-open-sdk/sdk/lib/libnet80211.a(wl_cnx.o)
                                                  /home/stoffer/esp8266/esp-open-sdk/sdk/lib/libnet80211.a(ieee80211_hostap.o)
w_to_kw_str                                       build/app_app.a(utils.o)
                                                  build/app_app.a(cgiwifi.o)
wait_rfpll_cal_end                                /home/stoffer/esp8266/esp-open-sdk/sdk/lib/libphy.a(phy_chip_v6_ana.o)
                                                  /home/stoffer/esp8266/esp-open-sdk/sdk/lib/libphy.a(phy_chip_v6.o)
wdev_exit_sniffer                                 /home/stoffer/esp8266/esp-open-sdk/sdk/lib/libpp.a(wdev.o)
                                                  /home/stoffer/esp8266/esp-open-sdk/sdk/lib/libmain.a(user_interface.o)
wdev_go_sniffer                                   /home/stoffer/esp8266/esp-open-sdk/sdk/lib/libpp.a(wdev.o)
                                                  /home/stoffer/esp8266/esp-open-sdk/sdk/lib/libmain.a(user_interface.o)
wdev_set_sniffer_addr                             /home/stoffer/esp8266/esp-open-sdk/sdk/lib/libpp.a(wdev.o)
wdt_feed                                          /home/stoffer/esp8266/esp-open-sdk/sdk/lib/libmain.a(app_main.o)
wdt_init                                          /home/stoffer/esp8266/esp-open-sdk/sdk/lib/libmain.a(app_main.o)
wep                                               /home/stoffer/esp8266/esp-open-sdk/sdk/lib/libnet80211.a(ieee80211_crypto_wep.o)
                                                  /home/stoffer/esp8266/esp-open-sdk/sdk/lib/libwpa.a(wpa_main.o)
                                                  /home/stoffer/esp8266/esp-open-sdk/sdk/lib/libwpa.a(wpa_auth.o)
wifiScanDoneCb                                    build/app_app.a(cgiwifi.o)
wifi_cb                                           build/app_app.a(wifi.o)
wifi_changed_cb                                   build/app_app.a(user_main.o)
wifi_connect                                      build/app_app.a(wifi.o)
                                                  build/app_app.a(user_main.o)
wifi_default                                      build/app_app.a(wifi.o)
wifi_enable_6m_rate                               /home/stoffer/esp8266/esp-open-sdk/sdk/lib/libmain.a(user_interface.o)
wifi_fallback                                     build/app_app.a(wifi.o)
wifi_fallback_last_present                        build/app_app.a(wifi.o)
wifi_fallback_present                             build/app_app.a(wifi.o)
wifi_fpm_auto_sleep_set_in_null_mode              /home/stoffer/esp8266/esp-open-sdk/sdk/lib/libpp.a(pm_for_bcn_only_mode.o)
wifi_fpm_close                                    /home/stoffer/esp8266/esp-open-sdk/sdk/lib/libpp.a(pm_for_bcn_only_mode.o)
wifi_fpm_do_sleep                                 /home/stoffer/esp8266/esp-open-sdk/sdk/lib/libpp.a(pm_for_bcn_only_mode.o)
                                                  /home/stoffer/esp8266/esp-open-sdk/sdk/lib/libmain.a(user_interface.o)
wifi_fpm_do_wakeup                                /home/stoffer/esp8266/esp-open-sdk/sdk/lib/libpp.a(pm_for_bcn_only_mode.o)
wifi_fpm_get_sleep_type                           /home/stoffer/esp8266/esp-open-sdk/sdk/lib/libpp.a(pm_for_bcn_only_mode.o)
wifi_fpm_open                                     /home/stoffer/esp8266/esp-open-sdk/sdk/lib/libpp.a(pm_for_bcn_only_mode.o)
                                                  /home/stoffer/esp8266/esp-open-sdk/sdk/lib/libmain.a(user_interface.o)
wifi_fpm_set_sleep_type                           /home/stoffer/esp8266/esp-open-sdk/sdk/lib/libpp.a(pm_for_bcn_only_mode.o)
                                                  /home/stoffer/esp8266/esp-open-sdk/sdk/lib/libmain.a(user_interface.o)
wifi_fpm_set_wakeup_cb                            /home/stoffer/esp8266/esp-open-sdk/sdk/lib/libpp.a(pm_for_bcn_only_mode.o)
wifi_get_broadcast_if                             /home/stoffer/esp8266/esp-open-sdk/sdk/lib/libmain.a(user_interface.o)
wifi_get_channel                                  /home/stoffer/esp8266/esp-open-sdk/sdk/lib/libmain.a(user_interface.o)
wifi_get_ip_info                                  /home/stoffer/esp8266/esp-open-sdk/sdk/lib/libmain.a(user_interface.o)
                                                  /home/stoffer/esp8266/esp-open-sdk/sdk/lib/liblwip.a(espconn_udp.o)
                                                  /home/stoffer/esp8266/esp-open-sdk/sdk/lib/liblwip.a(espconn.o)
                                                  /home/stoffer/esp8266/esp-open-sdk/sdk/lib/liblwip.a(dhcpserver.o)
                                                  build/app_app.a(wifi.o)
                                                  build/app_app.a(captdns.o)
wifi_get_macaddr                                  /home/stoffer/esp8266/esp-open-sdk/sdk/lib/libmain.a(user_interface.o)
                                                  /home/stoffer/esp8266/esp-open-sdk/sdk/lib/libnet80211.a(ieee80211_output.o)
                                                  /home/stoffer/esp8266/esp-open-sdk/sdk/lib/libnet80211.a(ieee80211_hostap.o)
wifi_get_opmode                                   /home/stoffer/esp8266/esp-open-sdk/sdk/lib/libmain.a(user_interface.o)
                                                  /home/stoffer/esp8266/esp-open-sdk/sdk/lib/liblwip.a(espconn_udp.o)
                                                  /home/stoffer/esp8266/esp-open-sdk/sdk/lib/liblwip.a(espconn.o)
                                                  /home/stoffer/esp8266/esp-open-sdk/sdk/lib/liblwip.a(dhcpserver.o)
                                                  /home/stoffer/esp8266/esp-open-sdk/sdk/lib/libnet80211.a(wl_cnx.o)
                                                  /home/stoffer/esp8266/esp-open-sdk/sdk/lib/libnet80211.a(ieee80211_scan.o)
                                                  /home/stoffer/esp8266/esp-open-sdk/sdk/lib/libnet80211.a(ieee80211_hostap.o)
                                                  /home/stoffer/esp8266/esp-open-sdk/sdk/lib/libpp.a(pm_for_bcn_only_mode.o)
                                                  build/app_app.a(cgiwifi.o)
wifi_get_opmode_default                           /home/stoffer/esp8266/esp-open-sdk/sdk/lib/libmain.a(user_interface.o)
wifi_get_phy_mode                                 /home/stoffer/esp8266/esp-open-sdk/sdk/lib/libmain.a(user_interface.o)
wifi_get_sleep_type                               /home/stoffer/esp8266/esp-open-sdk/sdk/lib/libmain.a(user_interface.o)
wifi_get_user_fixed_rate                          /home/stoffer/esp8266/esp-open-sdk/sdk/lib/libmain.a(user_interface.o)
wifi_get_user_ie                                  /home/stoffer/esp8266/esp-open-sdk/sdk/lib/libmain.a(user_interface.o)
wifi_get_user_limit_rate_mask                     /home/stoffer/esp8266/esp-open-sdk/sdk/lib/libmain.a(user_interface.o)
wifi_handle_event_cb                              build/app_app.a(wifi.o)
wifi_mode_set                                     /home/stoffer/esp8266/esp-open-sdk/sdk/lib/libnet80211.a(ieee80211.o)
                                                  /home/stoffer/esp8266/esp-open-sdk/sdk/lib/libmain.a(user_interface.o)
                                                  /home/stoffer/esp8266/esp-open-sdk/sdk/lib/libmain.a(app_main.o)
wifi_param_save_protect_with_check                /home/stoffer/esp8266/esp-open-sdk/sdk/lib/libmain.a(user_interface.o)
                                                  /home/stoffer/esp8266/esp-open-sdk/sdk/lib/libpp.a(pm_for_bcn_only_mode.o)
                                                  /home/stoffer/esp8266/esp-open-sdk/sdk/lib/libpp.a(pm.o)
                                                  /home/stoffer/esp8266/esp-open-sdk/sdk/lib/libmain.a(app_main.o)
wifi_promiscuous_enable                           /home/stoffer/esp8266/esp-open-sdk/sdk/lib/libmain.a(user_interface.o)
wifi_promiscuous_set_mac                          /home/stoffer/esp8266/esp-open-sdk/sdk/lib/libmain.a(user_interface.o)
wifi_reconnect                                    build/app_app.a(wifi.o)
wifi_register_rfid_locp_recv_cb                   /home/stoffer/esp8266/esp-open-sdk/sdk/lib/libmain.a(user_interface.o)
wifi_register_send_pkt_freedom_cb                 /home/stoffer/esp8266/esp-open-sdk/sdk/lib/libmain.a(user_interface.o)
wifi_register_user_ie_manufacturer_recv_cb        /home/stoffer/esp8266/esp-open-sdk/sdk/lib/libmain.a(user_interface.o)
wifi_rfid_locp_recv_close                         /home/stoffer/esp8266/esp-open-sdk/sdk/lib/libmain.a(user_interface.o)
wifi_rfid_locp_recv_open                          /home/stoffer/esp8266/esp-open-sdk/sdk/lib/libmain.a(user_interface.o)
wifi_scan_done_cb                                 build/app_app.a(wifi.o)
wifi_scan_runnning                                build/app_app.a(wifi.o)
wifi_send_pkt_freedom                             /home/stoffer/esp8266/esp-open-sdk/sdk/lib/libmain.a(user_interface.o)
wifi_set_broadcast_if                             /home/stoffer/esp8266/esp-open-sdk/sdk/lib/libmain.a(user_interface.o)
wifi_set_channel                                  /home/stoffer/esp8266/esp-open-sdk/sdk/lib/libmain.a(user_interface.o)
wifi_set_event_handler_cb                         /home/stoffer/esp8266/esp-open-sdk/sdk/lib/libmain.a(user_interface.o)
                                                  build/app_app.a(wifi.o)
wifi_set_ip_info                                  /home/stoffer/esp8266/esp-open-sdk/sdk/lib/libmain.a(user_interface.o)
wifi_set_macaddr                                  /home/stoffer/esp8266/esp-open-sdk/sdk/lib/libmain.a(user_interface.o)
wifi_set_opmode                                   /home/stoffer/esp8266/esp-open-sdk/sdk/lib/libmain.a(user_interface.o)
                                                  build/app_app.a(cgiwifi.o)
                                                  build/app_app.a(wifi.o)
wifi_set_opmode_current                           /home/stoffer/esp8266/esp-open-sdk/sdk/lib/libmain.a(user_interface.o)
                                                  build/app_app.a(wifi.o)
                                                  build/app_app.a(user_main.o)
wifi_set_phy_mode                                 /home/stoffer/esp8266/esp-open-sdk/sdk/lib/libmain.a(user_interface.o)
wifi_set_promiscuous_rx_cb                        /home/stoffer/esp8266/esp-open-sdk/sdk/lib/libmain.a(user_interface.o)
wifi_set_sleep_type                               /home/stoffer/esp8266/esp-open-sdk/sdk/lib/libmain.a(user_interface.o)
wifi_set_status_led_output_level                  /home/stoffer/esp8266/esp-open-sdk/sdk/lib/libmain.a(user_interface.o)
wifi_set_user_fixed_rate                          /home/stoffer/esp8266/esp-open-sdk/sdk/lib/libmain.a(user_interface.o)
wifi_set_user_ie                                  /home/stoffer/esp8266/esp-open-sdk/sdk/lib/libmain.a(user_interface.o)
wifi_set_user_limit_rate_mask                     /home/stoffer/esp8266/esp-open-sdk/sdk/lib/libmain.a(user_interface.o)
wifi_set_user_rate_limit                          /home/stoffer/esp8266/esp-open-sdk/sdk/lib/libmain.a(user_interface.o)
wifi_set_user_sup_rate                            /home/stoffer/esp8266/esp-open-sdk/sdk/lib/libmain.a(user_interface.o)
wifi_softap_cacl_mac                              /home/stoffer/esp8266/esp-open-sdk/sdk/lib/libmain.a(user_interface.o)
                                                  /home/stoffer/esp8266/esp-open-sdk/sdk/lib/libmain.a(app_main.o)
wifi_softap_deauth                                /home/stoffer/esp8266/esp-open-sdk/sdk/lib/libmain.a(user_interface.o)
                                                  /home/stoffer/esp8266/esp-open-sdk/sdk/lib/libnet80211.a(ieee80211_scan.o)
wifi_softap_dhcps_client_leave                    /home/stoffer/esp8266/esp-open-sdk/sdk/lib/liblwip.a(dhcpserver.o)
wifi_softap_dhcps_client_update                   /home/stoffer/esp8266/esp-open-sdk/sdk/lib/liblwip.a(dhcpserver.o)
wifi_softap_dhcps_start                           /home/stoffer/esp8266/esp-open-sdk/sdk/lib/libmain.a(user_interface.o)
wifi_softap_dhcps_status                          /home/stoffer/esp8266/esp-open-sdk/sdk/lib/libmain.a(user_interface.o)
                                                  /home/stoffer/esp8266/esp-open-sdk/sdk/lib/liblwip.a(dhcpserver.o)
wifi_softap_dhcps_stop                            /home/stoffer/esp8266/esp-open-sdk/sdk/lib/libmain.a(user_interface.o)
wifi_softap_free_station_info                     /home/stoffer/esp8266/esp-open-sdk/sdk/lib/libmain.a(user_interface.o)
wifi_softap_get_beacon_only_mode                  /home/stoffer/esp8266/esp-open-sdk/sdk/lib/libmain.a(user_interface.o)
wifi_softap_get_config                            /home/stoffer/esp8266/esp-open-sdk/sdk/lib/libmain.a(user_interface.o)
                                                  build/app_app.a(user_main.o)
wifi_softap_get_config_default                    /home/stoffer/esp8266/esp-open-sdk/sdk/lib/libmain.a(user_interface.o)
wifi_softap_get_dhcps_lease                       /home/stoffer/esp8266/esp-open-sdk/sdk/lib/liblwip.a(dhcpserver.o)
wifi_softap_get_dhcps_lease_time                  /home/stoffer/esp8266/esp-open-sdk/sdk/lib/liblwip.a(dhcpserver.o)
wifi_softap_get_station_info                      /home/stoffer/esp8266/esp-open-sdk/sdk/lib/libmain.a(user_interface.o)
wifi_softap_get_station_num                       /home/stoffer/esp8266/esp-open-sdk/sdk/lib/libmain.a(user_interface.o)
wifi_softap_reset_dhcps_lease_time                /home/stoffer/esp8266/esp-open-sdk/sdk/lib/liblwip.a(dhcpserver.o)
wifi_softap_set_beacon_only_mode                  /home/stoffer/esp8266/esp-open-sdk/sdk/lib/libmain.a(user_interface.o)
wifi_softap_set_config                            /home/stoffer/esp8266/esp-open-sdk/sdk/lib/libmain.a(user_interface.o)
wifi_softap_set_config_current                    /home/stoffer/esp8266/esp-open-sdk/sdk/lib/libmain.a(user_interface.o)
                                                  build/app_app.a(user_main.o)
wifi_softap_set_default_ssid                      /home/stoffer/esp8266/esp-open-sdk/sdk/lib/libmain.a(user_interface.o)
                                                  /home/stoffer/esp8266/esp-open-sdk/sdk/lib/libmain.a(app_main.o)
wifi_softap_set_dhcps_lease                       /home/stoffer/esp8266/esp-open-sdk/sdk/lib/liblwip.a(dhcpserver.o)
wifi_softap_set_dhcps_lease_time                  /home/stoffer/esp8266/esp-open-sdk/sdk/lib/liblwip.a(dhcpserver.o)
wifi_softap_set_dhcps_offer_option                /home/stoffer/esp8266/esp-open-sdk/sdk/lib/liblwip.a(dhcpserver.o)
wifi_softap_set_station_info                      /home/stoffer/esp8266/esp-open-sdk/sdk/lib/libmain.a(user_interface.o)
                                                  /home/stoffer/esp8266/esp-open-sdk/sdk/lib/liblwip.a(dhcpserver.o)
wifi_softap_staconnected_event_policy             /home/stoffer/esp8266/esp-open-sdk/sdk/lib/libnet80211.a(wl_cnx.o)
wifi_softap_start                                 /home/stoffer/esp8266/esp-open-sdk/sdk/lib/libnet80211.a(ieee80211_hostap.o)
                                                  /home/stoffer/esp8266/esp-open-sdk/sdk/lib/libmain.a(user_interface.o)
                                                  /home/stoffer/esp8266/esp-open-sdk/sdk/lib/libmain.a(app_main.o)
wifi_softap_stop                                  /home/stoffer/esp8266/esp-open-sdk/sdk/lib/libnet80211.a(ieee80211_hostap.o)
                                                  /home/stoffer/esp8266/esp-open-sdk/sdk/lib/libmain.a(user_interface.o)
wifi_softap_toomany_deny                          /home/stoffer/esp8266/esp-open-sdk/sdk/lib/libnet80211.a(wl_cnx.o)
wifi_station_ap_change                            /home/stoffer/esp8266/esp-open-sdk/sdk/lib/libmain.a(user_interface.o)
wifi_station_ap_check                             /home/stoffer/esp8266/esp-open-sdk/sdk/lib/libmain.a(user_interface.o)
wifi_station_ap_number_set                        /home/stoffer/esp8266/esp-open-sdk/sdk/lib/libmain.a(user_interface.o)
wifi_station_connect                              /home/stoffer/esp8266/esp-open-sdk/sdk/lib/libmain.a(user_interface.o)
                                                  build/app_app.a(wifi.o)
                                                  build/app_app.a(user_main.o)
                                                  /home/stoffer/esp8266/esp-open-sdk/sdk/lib/libmain.a(app_main.o)
wifi_station_dhcpc_event                          /home/stoffer/esp8266/esp-open-sdk/sdk/lib/libmain.a(user_interface.o)
                                                  /home/stoffer/esp8266/esp-open-sdk/sdk/lib/libmain.a(eagle_lwip_if.o)
wifi_station_dhcpc_set_maxtry                     /home/stoffer/esp8266/esp-open-sdk/sdk/lib/libmain.a(user_interface.o)
wifi_station_dhcpc_start                          /home/stoffer/esp8266/esp-open-sdk/sdk/lib/libmain.a(user_interface.o)
wifi_station_dhcpc_status                         /home/stoffer/esp8266/esp-open-sdk/sdk/lib/libmain.a(user_interface.o)
                                                  /home/stoffer/esp8266/esp-open-sdk/sdk/lib/libmain.a(eagle_lwip_if.o)
wifi_station_dhcpc_stop                           /home/stoffer/esp8266/esp-open-sdk/sdk/lib/libmain.a(user_interface.o)
wifi_station_disconnect                           /home/stoffer/esp8266/esp-open-sdk/sdk/lib/libmain.a(user_interface.o)
                                                  /home/stoffer/esp8266/esp-open-sdk/sdk/lib/libnet80211.a(ieee80211_sta.o)
                                                  /home/stoffer/esp8266/esp-open-sdk/sdk/lib/libnet80211.a(ieee80211_scan.o)
                                                  build/app_app.a(wifi.o)
                                                  build/app_app.a(user_main.o)
wifi_station_get_ap_info                          /home/stoffer/esp8266/esp-open-sdk/sdk/lib/libmain.a(user_interface.o)
wifi_station_get_auto_connect                     /home/stoffer/esp8266/esp-open-sdk/sdk/lib/libmain.a(user_interface.o)
                                                  /home/stoffer/esp8266/esp-open-sdk/sdk/lib/libmain.a(app_main.o)
wifi_station_get_config                           /home/stoffer/esp8266/esp-open-sdk/sdk/lib/libmain.a(user_interface.o)
                                                  /home/stoffer/esp8266/esp-open-sdk/sdk/lib/libnet80211.a(wl_cnx.o)
                                                  build/app_app.a(wifi.o)
wifi_station_get_config_default                   /home/stoffer/esp8266/esp-open-sdk/sdk/lib/libmain.a(user_interface.o)
wifi_station_get_connect_status                   /home/stoffer/esp8266/esp-open-sdk/sdk/lib/libmain.a(user_interface.o)
                                                  /home/stoffer/esp8266/esp-open-sdk/sdk/lib/liblwip.a(espconn.o)
                                                  build/app_app.a(wifi.o)
wifi_station_get_current_ap_id                    /home/stoffer/esp8266/esp-open-sdk/sdk/lib/libmain.a(user_interface.o)
wifi_station_get_hostname                         /home/stoffer/esp8266/esp-open-sdk/sdk/lib/libmain.a(user_interface.o)
wifi_station_get_reconnect_policy                 /home/stoffer/esp8266/esp-open-sdk/sdk/lib/libmain.a(user_interface.o)
                                                  /home/stoffer/esp8266/esp-open-sdk/sdk/lib/libnet80211.a(wl_cnx.o)
                                                  /home/stoffer/esp8266/esp-open-sdk/sdk/lib/libnet80211.a(ieee80211_sta.o)
                                                  /home/stoffer/esp8266/esp-open-sdk/sdk/lib/libnet80211.a(ieee80211_scan.o)
wifi_station_get_rssi                             /home/stoffer/esp8266/esp-open-sdk/sdk/lib/libmain.a(user_interface.o)
wifi_station_restore_config                       /home/stoffer/esp8266/esp-open-sdk/sdk/lib/libmain.a(user_interface.o)
wifi_station_save_pmk2cache                       /home/stoffer/esp8266/esp-open-sdk/sdk/lib/libmain.a(user_interface.o)
                                                  /home/stoffer/esp8266/esp-open-sdk/sdk/lib/libwpa.a(wpa.o)
wifi_station_scan                                 /home/stoffer/esp8266/esp-open-sdk/sdk/lib/libmain.a(user_interface.o)
                                                  build/app_app.a(cgiwifi.o)
                                                  build/app_app.a(wifi.o)
wifi_station_set_auto_connect                     /home/stoffer/esp8266/esp-open-sdk/sdk/lib/libmain.a(user_interface.o)
                                                  build/app_app.a(wifi.o)
wifi_station_set_config                           /home/stoffer/esp8266/esp-open-sdk/sdk/lib/libmain.a(user_interface.o)
                                                  build/app_app.a(wifi.o)
wifi_station_set_config_current                   /home/stoffer/esp8266/esp-open-sdk/sdk/lib/libmain.a(user_interface.o)
                                                  /home/stoffer/esp8266/esp-open-sdk/sdk/lib/libnet80211.a(wl_cnx.o)
                                                  build/app_app.a(wifi.o)
wifi_station_set_default_hostname                 /home/stoffer/esp8266/esp-open-sdk/sdk/lib/libmain.a(user_interface.o)
                                                  /home/stoffer/esp8266/esp-open-sdk/sdk/lib/libmain.a(eagle_lwip_if.o)
                                                  /home/stoffer/esp8266/esp-open-sdk/sdk/lib/libmain.a(app_main.o)
wifi_station_set_hostname                         /home/stoffer/esp8266/esp-open-sdk/sdk/lib/libmain.a(user_interface.o)
wifi_station_set_reconnect_policy                 /home/stoffer/esp8266/esp-open-sdk/sdk/lib/libmain.a(user_interface.o)
wifi_station_start                                /home/stoffer/esp8266/esp-open-sdk/sdk/lib/libnet80211.a(ieee80211_sta.o)
                                                  /home/stoffer/esp8266/esp-open-sdk/sdk/lib/libmain.a(user_interface.o)
                                                  /home/stoffer/esp8266/esp-open-sdk/sdk/lib/libmain.a(app_main.o)
wifi_station_stop                                 /home/stoffer/esp8266/esp-open-sdk/sdk/lib/libnet80211.a(ieee80211_sta.o)
                                                  /home/stoffer/esp8266/esp-open-sdk/sdk/lib/libmain.a(user_interface.o)
wifi_status_led_install                           /home/stoffer/esp8266/esp-open-sdk/sdk/lib/libmain.a(user_interface.o)
wifi_status_led_uninstall                         /home/stoffer/esp8266/esp-open-sdk/sdk/lib/libmain.a(user_interface.o)
wifi_unregister_rfid_locp_recv_cb                 /home/stoffer/esp8266/esp-open-sdk/sdk/lib/libmain.a(user_interface.o)
wifi_unregister_send_pkt_freedom_cb               /home/stoffer/esp8266/esp-open-sdk/sdk/lib/libmain.a(user_interface.o)
wifi_unregister_user_ie_manufacturer_recv_cb      /home/stoffer/esp8266/esp-open-sdk/sdk/lib/libmain.a(user_interface.o)
wpa_add_kde                                       /home/stoffer/esp8266/esp-open-sdk/sdk/lib/libwpa.a(wpa_auth_ie.o)
                                                  /home/stoffer/esp8266/esp-open-sdk/sdk/lib/libwpa.a(wpa_auth.o)
wpa_attach                                        /home/stoffer/esp8266/esp-open-sdk/sdk/lib/libwpa.a(wpa_main.o)
                                                  /home/stoffer/esp8266/esp-open-sdk/sdk/lib/libnet80211.a(ieee80211_sta.o)
wpa_auth_for_each_sta                             /home/stoffer/esp8266/esp-open-sdk/sdk/lib/libwpa.a(wpa_auth.o)
wpa_auth_gen_wpa_ie                               /home/stoffer/esp8266/esp-open-sdk/sdk/lib/libwpa.a(wpa_auth_ie.o)
                                                  /home/stoffer/esp8266/esp-open-sdk/sdk/lib/libwpa.a(wpa_auth.o)
wpa_auth_sm_event                                 /home/stoffer/esp8266/esp-open-sdk/sdk/lib/libwpa.a(wpa_auth.o)
wpa_auth_sta_associated                           /home/stoffer/esp8266/esp-open-sdk/sdk/lib/libwpa.a(wpa_auth.o)
                                                  /home/stoffer/esp8266/esp-open-sdk/sdk/lib/libnet80211.a(wl_cnx.o)
wpa_auth_sta_deinit                               /home/stoffer/esp8266/esp-open-sdk/sdk/lib/libwpa.a(wpa_auth.o)
                                                  /home/stoffer/esp8266/esp-open-sdk/sdk/lib/libnet80211.a(wl_cnx.o)
wpa_auth_sta_init                                 /home/stoffer/esp8266/esp-open-sdk/sdk/lib/libwpa.a(wpa_auth.o)
                                                  /home/stoffer/esp8266/esp-open-sdk/sdk/lib/libnet80211.a(wl_cnx.o)
wpa_auth_sta_no_wpa                               /home/stoffer/esp8266/esp-open-sdk/sdk/lib/libwpa.a(wpa_auth.o)
wpa_auth_uses_mfp                                 /home/stoffer/esp8266/esp-open-sdk/sdk/lib/libwpa.a(wpa_auth_ie.o)
wpa_cipher_key_len                                /home/stoffer/esp8266/esp-open-sdk/sdk/lib/libwpa.a(wpa_common.o)
                                                  /home/stoffer/esp8266/esp-open-sdk/sdk/lib/libwpa.a(wpa_auth.o)
wpa_cipher_put_suites                             /home/stoffer/esp8266/esp-open-sdk/sdk/lib/libwpa.a(wpa_common.o)
                                                  /home/stoffer/esp8266/esp-open-sdk/sdk/lib/libwpa.a(wpa_auth_ie.o)
wpa_cipher_to_alg                                 /home/stoffer/esp8266/esp-open-sdk/sdk/lib/libwpa.a(wpa_common.o)
                                                  /home/stoffer/esp8266/esp-open-sdk/sdk/lib/libwpa.a(wpa_auth.o)
wpa_cipher_to_suite                               /home/stoffer/esp8266/esp-open-sdk/sdk/lib/libwpa.a(wpa_common.o)
                                                  /home/stoffer/esp8266/esp-open-sdk/sdk/lib/libwpa.a(wpa_auth_ie.o)
wpa_compare_rsn_ie                                /home/stoffer/esp8266/esp-open-sdk/sdk/lib/libwpa.a(wpa_common.o)
                                                  /home/stoffer/esp8266/esp-open-sdk/sdk/lib/libwpa.a(wpa.o)
                                                  /home/stoffer/esp8266/esp-open-sdk/sdk/lib/libwpa.a(wpa_auth.o)
wpa_config_assoc_ie                               /home/stoffer/esp8266/esp-open-sdk/sdk/lib/libwpa.a(wpa_main.o)
wpa_config_bss                                    /home/stoffer/esp8266/esp-open-sdk/sdk/lib/libwpa.a(wpa_main.o)
                                                  /home/stoffer/esp8266/esp-open-sdk/sdk/lib/libnet80211.a(wl_cnx.o)
                                                  /home/stoffer/esp8266/esp-open-sdk/sdk/lib/libnet80211.a(ieee80211_sta.o)
wpa_config_parse_string                           /home/stoffer/esp8266/esp-open-sdk/sdk/lib/libwpa.a(common.o)
                                                  /home/stoffer/esp8266/esp-open-sdk/sdk/lib/libnet80211.a(ieee80211_scan.o)
wpa_config_profile                                /home/stoffer/esp8266/esp-open-sdk/sdk/lib/libwpa.a(wpa_main.o)
                                                  /home/stoffer/esp8266/esp-open-sdk/sdk/lib/libnet80211.a(wl_cnx.o)
wpa_eapol_key_mic                                 /home/stoffer/esp8266/esp-open-sdk/sdk/lib/libwpa.a(wpa_common.o)
                                                  /home/stoffer/esp8266/esp-open-sdk/sdk/lib/libwpa.a(wpa.o)
                                                  /home/stoffer/esp8266/esp-open-sdk/sdk/lib/libwpa.a(wpa_auth.o)
wpa_gen_wpa_ie                                    /home/stoffer/esp8266/esp-open-sdk/sdk/lib/libwpa.a(wpa_ie.o)
                                                  /home/stoffer/esp8266/esp-open-sdk/sdk/lib/libwpa.a(wpa.o)
wpa_get_ntp_timestamp                             /home/stoffer/esp8266/esp-open-sdk/sdk/lib/libwpa.a(common.o)
                                                  /home/stoffer/esp8266/esp-open-sdk/sdk/lib/libwpa.a(wpa_auth.o)
wpa_init                                          /home/stoffer/esp8266/esp-open-sdk/sdk/lib/libwpa.a(wpa_auth.o)
                                                  /home/stoffer/esp8266/esp-open-sdk/sdk/lib/libnet80211.a(ieee80211_hostap.o)
wpa_neg_complete                                  /home/stoffer/esp8266/esp-open-sdk/sdk/lib/libwpa.a(wpa_main.o)
wpa_parse_kde_ies                                 /home/stoffer/esp8266/esp-open-sdk/sdk/lib/libwpa.a(wpa_auth_ie.o)
                                                  /home/stoffer/esp8266/esp-open-sdk/sdk/lib/libwpa.a(wpa_auth.o)
wpa_parse_wpa_ie                                  /home/stoffer/esp8266/esp-open-sdk/sdk/lib/libwpa.a(wpa_ie.o)
                                                  /home/stoffer/esp8266/esp-open-sdk/sdk/lib/libnet80211.a(ieee80211_scan.o)
wpa_parse_wpa_ie_rsn                              /home/stoffer/esp8266/esp-open-sdk/sdk/lib/libwpa.a(wpa_common.o)
                                                  /home/stoffer/esp8266/esp-open-sdk/sdk/lib/libwpa.a(wpa_ie.o)
                                                  /home/stoffer/esp8266/esp-open-sdk/sdk/lib/libwpa.a(wpa_auth_ie.o)
wpa_parse_wpa_ie_wpa                              /home/stoffer/esp8266/esp-open-sdk/sdk/lib/libwpa.a(wpa_common.o)
                                                  /home/stoffer/esp8266/esp-open-sdk/sdk/lib/libwpa.a(wpa_ie.o)
                                                  /home/stoffer/esp8266/esp-open-sdk/sdk/lib/libwpa.a(wpa_auth_ie.o)
wpa_pmk_to_ptk                                    /home/stoffer/esp8266/esp-open-sdk/sdk/lib/libwpa.a(wpa_common.o)
                                                  /home/stoffer/esp8266/esp-open-sdk/sdk/lib/libwpa.a(wpa.o)
                                                  /home/stoffer/esp8266/esp-open-sdk/sdk/lib/libwpa.a(wpa_auth.o)
wpa_receive                                       /home/stoffer/esp8266/esp-open-sdk/sdk/lib/libwpa.a(wpa_auth.o)
                                                  /home/stoffer/esp8266/esp-open-sdk/sdk/lib/libnet80211.a(ieee80211_hostap.o)
wpa_register                                      /home/stoffer/esp8266/esp-open-sdk/sdk/lib/libwpa.a(wpa.o)
                                                  /home/stoffer/esp8266/esp-open-sdk/sdk/lib/libwpa.a(wpa_main.o)
wpa_remove_ptk                                    /home/stoffer/esp8266/esp-open-sdk/sdk/lib/libwpa.a(wpa_auth.o)
wpa_set_bss                                       /home/stoffer/esp8266/esp-open-sdk/sdk/lib/libwpa.a(wpa.o)
                                                  /home/stoffer/esp8266/esp-open-sdk/sdk/lib/libwpa.a(wpa_main.o)
wpa_set_pmk                                       /home/stoffer/esp8266/esp-open-sdk/sdk/lib/libwpa.a(wpa.o)
wpa_set_profile                                   /home/stoffer/esp8266/esp-open-sdk/sdk/lib/libwpa.a(wpa.o)
                                                  /home/stoffer/esp8266/esp-open-sdk/sdk/lib/libwpa.a(wpa_main.o)
wpa_sm_alloc_eapol                                /home/stoffer/esp8266/esp-open-sdk/sdk/lib/libwpa.a(wpas_glue.o)
                                                  /home/stoffer/esp8266/esp-open-sdk/sdk/lib/libwpa.a(wpa.o)
wpa_sm_deauthenticate                             /home/stoffer/esp8266/esp-open-sdk/sdk/lib/libwpa.a(wpas_glue.o)
                                                  /home/stoffer/esp8266/esp-open-sdk/sdk/lib/libwpa.a(wpa.o)
wpa_sm_disassociate                               /home/stoffer/esp8266/esp-open-sdk/sdk/lib/libwpa.a(wpas_glue.o)
                                                  /home/stoffer/esp8266/esp-open-sdk/sdk/lib/libwpa.a(wpa.o)
wpa_sm_get_beacon_ie                              /home/stoffer/esp8266/esp-open-sdk/sdk/lib/libwpa.a(wpas_glue.o)
                                                  /home/stoffer/esp8266/esp-open-sdk/sdk/lib/libwpa.a(wpa.o)
wpa_sm_mlme_setprotection                         /home/stoffer/esp8266/esp-open-sdk/sdk/lib/libwpa.a(wpas_glue.o)
                                                  /home/stoffer/esp8266/esp-open-sdk/sdk/lib/libwpa.a(wpa.o)
wpa_sm_rx_eapol                                   /home/stoffer/esp8266/esp-open-sdk/sdk/lib/libwpa.a(wpa.o)
                                                  /home/stoffer/esp8266/esp-open-sdk/sdk/lib/libnet80211.a(ieee80211_sta.o)
wpa_sm_set_state                                  /home/stoffer/esp8266/esp-open-sdk/sdk/lib/libwpa.a(wpa.o)
wpa_snprintf_hex                                  /home/stoffer/esp8266/esp-open-sdk/sdk/lib/libwpa.a(wpa_debug.o)
wpa_snprintf_hex_uppercase                        /home/stoffer/esp8266/esp-open-sdk/sdk/lib/libwpa.a(wpa_debug.o)
wpa_supplicant_parse_ies                          /home/stoffer/esp8266/esp-open-sdk/sdk/lib/libwpa.a(wpa_ie.o)
                                                  /home/stoffer/esp8266/esp-open-sdk/sdk/lib/libwpa.a(wpa.o)
wpa_validate_wpa_ie                               /home/stoffer/esp8266/esp-open-sdk/sdk/lib/libwpa.a(wpa_auth_ie.o)
                                                  /home/stoffer/esp8266/esp-open-sdk/sdk/lib/libnet80211.a(wl_cnx.o)
wpa_write_rsn_ie                                  /home/stoffer/esp8266/esp-open-sdk/sdk/lib/libwpa.a(wpa_auth_ie.o)
write_data_to_rtc                                 /home/stoffer/esp8266/esp-open-sdk/sdk/lib/libphy.a(phy_chip_v6.o)
xPortGetFreeHeapSize                              /home/stoffer/esp8266/esp-open-sdk/sdk/lib/libmain.a(mem_manager.o)
                                                  /home/stoffer/esp8266/esp-open-sdk/sdk/lib/libmain.a(user_interface.o)
xPortWantedSizeAlign                              /home/stoffer/esp8266/esp-open-sdk/sdk/lib/libmain.a(mem_manager.o)
                                                  /home/stoffer/esp8266/esp-open-sdk/sdk/lib/libmain.a(user_interface.o)
xthal_set_intclear                                /home/stoffer/esp8266/esp-open-sdk/xtensa-lx106-elf/xtensa-lx106-elf/sysroot/usr/lib/libhal.a(int_asm--set_intclear.o)
                                                  /home/stoffer/esp8266/esp-open-sdk/sdk/lib/libmain.a(app_main.o)
