Archive member included because of file (symbol)

/home/stoffer/esp8266/esp-open-sdk/sdk/lib/libmain.a(debug-vector.o)
                              (_DebugExceptionVector)
/home/stoffer/esp8266/esp-open-sdk/sdk/lib/libmain.a(double-vector.o)
                              (_DoubleExceptionVector)
/home/stoffer/esp8266/esp-open-sdk/sdk/lib/libmain.a(kernel-vector.o)
                              (_KernelExceptionVector)
/home/stoffer/esp8266/esp-open-sdk/sdk/lib/libmain.a(nmi-vector.o)
                              (_NMIExceptionVector)
/home/stoffer/esp8266/esp-open-sdk/sdk/lib/libmain.a(user-vector.o)
                              (_UserExceptionVector)
/home/stoffer/esp8266/esp-open-sdk/sdk/lib/libmain.a(vector.o)
                              (call_user_start)
/home/stoffer/esp8266/esp-open-sdk/sdk/lib/libmain.a(app_main.o)
                              /home/stoffer/esp8266/esp-open-sdk/sdk/lib/libmain.a(nmi-vector.o) (NMI_Handler)
/home/stoffer/esp8266/esp-open-sdk/sdk/lib/libmain.a(ets_timer.o)
                              /home/stoffer/esp8266/esp-open-sdk/sdk/lib/libmain.a(app_main.o) (ets_timer_setfn)
/home/stoffer/esp8266/esp-open-sdk/sdk/lib/libmain.a(mem_manager.o)
                              /home/stoffer/esp8266/esp-open-sdk/sdk/lib/libmain.a(app_main.o) (pvPortMalloc)
/home/stoffer/esp8266/esp-open-sdk/sdk/lib/libmain.a(spi_flash.o)
                              /home/stoffer/esp8266/esp-open-sdk/sdk/lib/libmain.a(app_main.o) (spi_flash_read)
/home/stoffer/esp8266/esp-open-sdk/sdk/lib/libmain.a(user_interface.o)
                              /home/stoffer/esp8266/esp-open-sdk/sdk/lib/libmain.a(app_main.o) (done_cb)
/home/stoffer/esp8266/esp-open-sdk/sdk/lib/libmain.a(eagle_lib.o)
                              /home/stoffer/esp8266/esp-open-sdk/sdk/lib/libmain.a(user_interface.o) (ets_sprintf)
/home/stoffer/esp8266/esp-open-sdk/sdk/lib/libmain.a(eagle_lwip_if.o)
                              /home/stoffer/esp8266/esp-open-sdk/sdk/lib/libmain.a(user_interface.o) (hostname)
/home/stoffer/esp8266/esp-open-sdk/xtensa-lx106-elf/bin/../lib/gcc/xtensa-lx106-elf/4.8.2/libgcc.a(_udivsi3.o)
                              /home/stoffer/esp8266/esp-open-sdk/sdk/lib/libmain.a(app_main.o) (__udivsi3)
/home/stoffer/esp8266/esp-open-sdk/xtensa-lx106-elf/bin/../lib/gcc/xtensa-lx106-elf/4.8.2/libgcc.a(_umodsi3.o)
                              /home/stoffer/esp8266/esp-open-sdk/sdk/lib/libmain.a(eagle_lib.o) (__umodsi3)
/home/stoffer/esp8266/esp-open-sdk/xtensa-lx106-elf/bin/../lib/gcc/xtensa-lx106-elf/4.8.2/libgcc.a(_muldi3.o)
                              /home/stoffer/esp8266/esp-open-sdk/sdk/lib/libmain.a(user_interface.o) (__muldi3)
/home/stoffer/esp8266/esp-open-sdk/xtensa-lx106-elf/bin/../lib/gcc/xtensa-lx106-elf/4.8.2/libgcc.a(_umulsidi3.o)
                              /home/stoffer/esp8266/esp-open-sdk/xtensa-lx106-elf/bin/../lib/gcc/xtensa-lx106-elf/4.8.2/libgcc.a(_muldi3.o) (__umulsidi3)
build/app_app.a(user_main.o)  /home/stoffer/esp8266/esp-open-sdk/sdk/lib/libmain.a(app_main.o) (user_init)
build/app_app.a(captdns.o)    build/app_app.a(user_main.o) (captdnsInit)
build/app_app.a(led.o)        build/app_app.a(user_main.o) (led_init)
build/app_app.a(httpd.o)      build/app_app.a(user_main.o) (httpdStop)
build/app_app.a(httpd_user_init.o)
                              build/app_app.a(user_main.o) (httpd_user_init)
build/app_app.a(crypto.o)     build/app_app.a(user_main.o) (init_aes_hmac_combined)
build/app_app.a(hmac-sha256.o)
                              build/app_app.a(crypto.o) (hmac_sha256_init)
build/app_app.a(sha256.o)     build/app_app.a(hmac-sha256.o) (sha256_init)
build/app_app.a(aes.o)        build/app_app.a(crypto.o) (AES128_CBC_encrypt_buffer)
build/app_app.a(kmp_request.o)
                              build/app_app.a(user_main.o) (kmp_request_init)
build/app_app.a(kmp.o)        build/app_app.a(kmp_request.o) (kmp_value_to_string)
build/app_app.a(cron.o)       build/app_app.a(user_main.o) (cron_init)
build/app_app.a(ac_out.o)     build/app_app.a(user_main.o) (ac_out_init)
build/app_app.a(uart.o)       build/app_app.a(kmp_request.o) (uart0_tx_buffer)
build/app_app.a(mqtt.o)       build/app_app.a(user_main.o) (MQTT_Publish)
build/app_app.a(mqtt_msg.o)   build/app_app.a(mqtt.o) (mqtt_msg_init)
build/app_app.a(queue.o)      build/app_app.a(mqtt.o) (QUEUE_Init)
build/app_app.a(mqtt_utils.o)
                              build/app_app.a(mqtt.o) (UTILS_StrToIP)
build/app_app.a(proto.o)      build/app_app.a(queue.o) (PROTO_ParseRb)
build/app_app.a(config.o)     build/app_app.a(user_main.o) (sys_cfg)
build/app_app.a(wifi.o)       build/app_app.a(user_main.o) (wifi_connect)
build/app_app.a(tinyprintf.o)
                              build/app_app.a(user_main.o) (tfp_snprintf)
build/app_app.a(unix_time.o)  build/app_app.a(user_main.o) (init_unix_time)
build/app_app.a(cgi.o)        build/app_app.a(httpd_user_init.o) (cgiLed)
build/app_app.a(httpdespfs.o)
                              build/app_app.a(httpd_user_init.o) (cgiEspFsHook)
build/app_app.a(cgiwifi.o)    build/app_app.a(httpd_user_init.o) (cgiWiFiScan)
build/app_app.a(espfs.o)      build/app_app.a(httpdespfs.o) (espFsOpen)
build/app_app.a(heatshrink_decoder.o)
                              build/app_app.a(espfs.o) (heatshrink_decoder_free)
build/app_app.a(utils.o)      build/app_app.a(kmp.o) (ccit_crc16)
build/app_app.a(ringbuf.o)    build/app_app.a(queue.o) (RINGBUF_Init)
/home/stoffer/esp8266/esp-open-sdk/xtensa-lx106-elf/bin/../lib/gcc/xtensa-lx106-elf/4.8.2/../../../../xtensa-lx106-elf/lib/libc.a(lib_a-atoi.o)
                              build/app_app.a(user_main.o) (atoi)
/home/stoffer/esp8266/esp-open-sdk/xtensa-lx106-elf/bin/../lib/gcc/xtensa-lx106-elf/4.8.2/../../../../xtensa-lx106-elf/lib/libc.a(lib_a-gmtime.o)
                              build/app_app.a(cron.o) (gmtime)
/home/stoffer/esp8266/esp-open-sdk/xtensa-lx106-elf/bin/../lib/gcc/xtensa-lx106-elf/4.8.2/../../../../xtensa-lx106-elf/lib/libc.a(lib_a-gmtime_r.o)
                              /home/stoffer/esp8266/esp-open-sdk/xtensa-lx106-elf/bin/../lib/gcc/xtensa-lx106-elf/4.8.2/../../../../xtensa-lx106-elf/lib/libc.a(lib_a-gmtime.o) (gmtime_r)
/home/stoffer/esp8266/esp-open-sdk/xtensa-lx106-elf/bin/../lib/gcc/xtensa-lx106-elf/4.8.2/../../../../xtensa-lx106-elf/lib/libc.a(lib_a-impure.o)
                              /home/stoffer/esp8266/esp-open-sdk/xtensa-lx106-elf/bin/../lib/gcc/xtensa-lx106-elf/4.8.2/../../../../xtensa-lx106-elf/lib/libc.a(lib_a-gmtime.o) (_impure_ptr)
/home/stoffer/esp8266/esp-open-sdk/xtensa-lx106-elf/bin/../lib/gcc/xtensa-lx106-elf/4.8.2/../../../../xtensa-lx106-elf/lib/libc.a(lib_a-memcpy.o)
                              build/app_app.a(mqtt_msg.o) (memcpy)
/home/stoffer/esp8266/esp-open-sdk/xtensa-lx106-elf/bin/../lib/gcc/xtensa-lx106-elf/4.8.2/../../../../xtensa-lx106-elf/lib/libc.a(lib_a-memset.o)
                              build/app_app.a(mqtt_msg.o) (memset)
/home/stoffer/esp8266/esp-open-sdk/xtensa-lx106-elf/bin/../lib/gcc/xtensa-lx106-elf/4.8.2/../../../../xtensa-lx106-elf/lib/libc.a(lib_a-mktm_r.o)
                              /home/stoffer/esp8266/esp-open-sdk/xtensa-lx106-elf/bin/../lib/gcc/xtensa-lx106-elf/4.8.2/../../../../xtensa-lx106-elf/lib/libc.a(lib_a-gmtime_r.o) (_mktm_r)
/home/stoffer/esp8266/esp-open-sdk/xtensa-lx106-elf/bin/../lib/gcc/xtensa-lx106-elf/4.8.2/../../../../xtensa-lx106-elf/lib/libc.a(lib_a-strcat.o)
                              build/app_app.a(kmp_request.o) (strcat)
/home/stoffer/esp8266/esp-open-sdk/xtensa-lx106-elf/bin/../lib/gcc/xtensa-lx106-elf/4.8.2/../../../../xtensa-lx106-elf/lib/libc.a(lib_a-strlen.o)
                              build/app_app.a(kmp.o) (strlen)
/home/stoffer/esp8266/esp-open-sdk/xtensa-lx106-elf/bin/../lib/gcc/xtensa-lx106-elf/4.8.2/../../../../xtensa-lx106-elf/lib/libc.a(lib_a-strtok.o)
                              build/app_app.a(user_main.o) (strtok)
/home/stoffer/esp8266/esp-open-sdk/xtensa-lx106-elf/bin/../lib/gcc/xtensa-lx106-elf/4.8.2/../../../../xtensa-lx106-elf/lib/libc.a(lib_a-strtok_r.o)
                              /home/stoffer/esp8266/esp-open-sdk/xtensa-lx106-elf/bin/../lib/gcc/xtensa-lx106-elf/4.8.2/../../../../xtensa-lx106-elf/lib/libc.a(lib_a-strtok.o) (__strtok_r)
/home/stoffer/esp8266/esp-open-sdk/xtensa-lx106-elf/bin/../lib/gcc/xtensa-lx106-elf/4.8.2/../../../../xtensa-lx106-elf/lib/libc.a(lib_a-strtol.o)
                              /home/stoffer/esp8266/esp-open-sdk/xtensa-lx106-elf/bin/../lib/gcc/xtensa-lx106-elf/4.8.2/../../../../xtensa-lx106-elf/lib/libc.a(lib_a-atoi.o) (_strtol_r)
/home/stoffer/esp8266/esp-open-sdk/xtensa-lx106-elf/bin/../lib/gcc/xtensa-lx106-elf/4.8.2/../../../../xtensa-lx106-elf/lib/libc.a(lib_a-tzlock.o)
                              /home/stoffer/esp8266/esp-open-sdk/xtensa-lx106-elf/bin/../lib/gcc/xtensa-lx106-elf/4.8.2/../../../../xtensa-lx106-elf/lib/libc.a(lib_a-mktm_r.o) (__tz_lock)
/home/stoffer/esp8266/esp-open-sdk/xtensa-lx106-elf/bin/../lib/gcc/xtensa-lx106-elf/4.8.2/../../../../xtensa-lx106-elf/lib/libc.a(lib_a-tzvars.o)
                              /home/stoffer/esp8266/esp-open-sdk/xtensa-lx106-elf/bin/../lib/gcc/xtensa-lx106-elf/4.8.2/../../../../xtensa-lx106-elf/lib/libc.a(lib_a-mktm_r.o) (_daylight)
/home/stoffer/esp8266/esp-open-sdk/xtensa-lx106-elf/bin/../lib/gcc/xtensa-lx106-elf/4.8.2/../../../../xtensa-lx106-elf/lib/libc.a(lib_a-ctype_.o)
                              /home/stoffer/esp8266/esp-open-sdk/xtensa-lx106-elf/bin/../lib/gcc/xtensa-lx106-elf/4.8.2/../../../../xtensa-lx106-elf/lib/libc.a(lib_a-strtol.o) (__ctype_ptr__)
/home/stoffer/esp8266/esp-open-sdk/xtensa-lx106-elf/bin/../lib/gcc/xtensa-lx106-elf/4.8.2/../../../../xtensa-lx106-elf/lib/libc.a(lib_a-gettzinfo.o)
                              /home/stoffer/esp8266/esp-open-sdk/xtensa-lx106-elf/bin/../lib/gcc/xtensa-lx106-elf/4.8.2/../../../../xtensa-lx106-elf/lib/libc.a(lib_a-mktm_r.o) (__gettzinfo)
/home/stoffer/esp8266/esp-open-sdk/xtensa-lx106-elf/bin/../lib/gcc/xtensa-lx106-elf/4.8.2/libgcc.a(_divsi3.o)
                              build/app_app.a(kmp.o) (__divsi3)
/home/stoffer/esp8266/esp-open-sdk/xtensa-lx106-elf/bin/../lib/gcc/xtensa-lx106-elf/4.8.2/libgcc.a(_modsi3.o)
                              build/app_app.a(cron.o) (__modsi3)
/home/stoffer/esp8266/esp-open-sdk/xtensa-lx106-elf/bin/../lib/gcc/xtensa-lx106-elf/4.8.2/libgcc.a(_muldf3.o)
                              build/app_app.a(kmp.o) (__muldf3)
/home/stoffer/esp8266/esp-open-sdk/xtensa-lx106-elf/bin/../lib/gcc/xtensa-lx106-elf/4.8.2/libgcc.a(_divdf3.o)
                              build/app_app.a(kmp.o) (__divdf3)
/home/stoffer/esp8266/esp-open-sdk/xtensa-lx106-elf/bin/../lib/gcc/xtensa-lx106-elf/4.8.2/libgcc.a(_floatsidf.o)
                              build/app_app.a(kmp.o) (__floatsidf)
/home/stoffer/esp8266/esp-open-sdk/xtensa-lx106-elf/bin/../lib/gcc/xtensa-lx106-elf/4.8.2/libgcc.a(_udivdi3.o)
                              build/app_app.a(tinyprintf.o) (__udivdi3)
/home/stoffer/esp8266/esp-open-sdk/xtensa-lx106-elf/bin/../lib/gcc/xtensa-lx106-elf/4.8.2/libgcc.a(_umoddi3.o)
                              build/app_app.a(tinyprintf.o) (__umoddi3)
/home/stoffer/esp8266/esp-open-sdk/xtensa-lx106-elf/bin/../xtensa-lx106-elf/sysroot/usr/lib/libhal.a(int_asm--set_intclear.o)
                              /home/stoffer/esp8266/esp-open-sdk/sdk/lib/libmain.a(app_main.o) (xthal_set_intclear)
/home/stoffer/esp8266/esp-open-sdk/sdk/lib/libphy.a(phy.o)
                              /home/stoffer/esp8266/esp-open-sdk/sdk/lib/libmain.a(app_main.o) (phy_enable_agc)
/home/stoffer/esp8266/esp-open-sdk/sdk/lib/libphy.a(phy_chip_v6_ana.o)
                              /home/stoffer/esp8266/esp-open-sdk/sdk/lib/libmain.a(app_main.o) (chip_v6_set_chan_offset)
/home/stoffer/esp8266/esp-open-sdk/sdk/lib/libphy.a(phy_chip_v6.o)
                              /home/stoffer/esp8266/esp-open-sdk/sdk/lib/libphy.a(phy_chip_v6_ana.o) (g_phyFuns)
/home/stoffer/esp8266/esp-open-sdk/sdk/lib/libphy.a(phy_chip_v6_cal.o)
                              /home/stoffer/esp8266/esp-open-sdk/sdk/lib/libphy.a(phy_chip_v6.o) (loop_pwctrl_pwdet_error_accum_high_power)
/home/stoffer/esp8266/esp-open-sdk/sdk/lib/libphy.a(phy_chip_v6_unused.o)
                              /home/stoffer/esp8266/esp-open-sdk/sdk/lib/libphy.a(phy_chip_v6.o) (chip_v6_set_sense)
/home/stoffer/esp8266/esp-open-sdk/sdk/lib/libphy.a(phy_sleep.o)
                              /home/stoffer/esp8266/esp-open-sdk/sdk/lib/libphy.a(phy_chip_v6.o) (pm_set_sleep_cycles)
/home/stoffer/esp8266/esp-open-sdk/sdk/lib/libpp.a(if_hwctrl.o)
                              /home/stoffer/esp8266/esp-open-sdk/sdk/lib/libmain.a(user_interface.o) (ic_set_vif)
/home/stoffer/esp8266/esp-open-sdk/sdk/lib/libpp.a(lmac.o)
                              /home/stoffer/esp8266/esp-open-sdk/sdk/lib/libmain.a(app_main.o) (lmacInit)
/home/stoffer/esp8266/esp-open-sdk/sdk/lib/libpp.a(pm.o)
                              /home/stoffer/esp8266/esp-open-sdk/sdk/lib/libmain.a(user_interface.o) (pm_rtc_clock_cali_proc)
/home/stoffer/esp8266/esp-open-sdk/sdk/lib/libpp.a(pm_for_bcn_only_mode.o)
                              /home/stoffer/esp8266/esp-open-sdk/sdk/lib/libpp.a(pm.o) (fpm_is_open)
/home/stoffer/esp8266/esp-open-sdk/sdk/lib/libpp.a(pp.o)
                              /home/stoffer/esp8266/esp-open-sdk/sdk/lib/libpp.a(pm.o) (pend_flag_noise_check)
/home/stoffer/esp8266/esp-open-sdk/sdk/lib/libpp.a(rate_control.o)
                              /home/stoffer/esp8266/esp-open-sdk/sdk/lib/libpp.a(lmac.o) (RC_SetBasicRate)
/home/stoffer/esp8266/esp-open-sdk/sdk/lib/libpp.a(trc.o)
                              /home/stoffer/esp8266/esp-open-sdk/sdk/lib/libmain.a(user_interface.o) (rc_set_rate_limit_id)
/home/stoffer/esp8266/esp-open-sdk/sdk/lib/libpp.a(wdev.o)
                              /home/stoffer/esp8266/esp-open-sdk/sdk/lib/libpp.a(pp.o) (wDevCtrl)
/home/stoffer/esp8266/esp-open-sdk/sdk/lib/libpp.a(esf_buf.o)
                              /home/stoffer/esp8266/esp-open-sdk/sdk/lib/libpp.a(wdev.o) (esf_rx_buf_alloc)
/home/stoffer/esp8266/esp-open-sdk/sdk/lib/libnet80211.a(ieee80211.o)
                              /home/stoffer/esp8266/esp-open-sdk/sdk/lib/libmain.a(app_main.o) (g_ic)
/home/stoffer/esp8266/esp-open-sdk/sdk/lib/libnet80211.a(ieee80211_crypto.o)
                              /home/stoffer/esp8266/esp-open-sdk/sdk/lib/libnet80211.a(ieee80211.o) (ieee80211_crypto_attach)
/home/stoffer/esp8266/esp-open-sdk/sdk/lib/libnet80211.a(ieee80211_ets.o)
                              /home/stoffer/esp8266/esp-open-sdk/sdk/lib/libpp.a(pm.o) (ieee80211_getmgtframe)
/home/stoffer/esp8266/esp-open-sdk/sdk/lib/libnet80211.a(ieee80211_hostap.o)
                              /home/stoffer/esp8266/esp-open-sdk/sdk/lib/libmain.a(user_interface.o) (BcnEb_update)
/home/stoffer/esp8266/esp-open-sdk/sdk/lib/libnet80211.a(ieee80211_ht.o)
                              /home/stoffer/esp8266/esp-open-sdk/sdk/lib/libmain.a(user_interface.o) (ieee80211_ht_attach)
/home/stoffer/esp8266/esp-open-sdk/sdk/lib/libnet80211.a(ieee80211_input.o)
                              /home/stoffer/esp8266/esp-open-sdk/sdk/lib/libnet80211.a(ieee80211_hostap.o) (ieee80211_decap)
/home/stoffer/esp8266/esp-open-sdk/sdk/lib/libnet80211.a(ieee80211_mesh_quick.o)
                              /home/stoffer/esp8266/esp-open-sdk/sdk/lib/libnet80211.a(ieee80211_hostap.o) (ieee80211_mesh_quick_get)
/home/stoffer/esp8266/esp-open-sdk/sdk/lib/libnet80211.a(ieee80211_output.o)
                              /home/stoffer/esp8266/esp-open-sdk/sdk/lib/libmain.a(eagle_lwip_if.o) (ieee80211_output_pbuf)
/home/stoffer/esp8266/esp-open-sdk/sdk/lib/libnet80211.a(ieee80211_phy.o)
                              /home/stoffer/esp8266/esp-open-sdk/sdk/lib/libmain.a(app_main.o) (ieee80211_phy_init)
/home/stoffer/esp8266/esp-open-sdk/sdk/lib/libnet80211.a(ieee80211_power.o)
                              /home/stoffer/esp8266/esp-open-sdk/sdk/lib/libnet80211.a(ieee80211_hostap.o) (ieee80211_psq_init)
/home/stoffer/esp8266/esp-open-sdk/sdk/lib/libnet80211.a(ieee80211_proto.o)
                              /home/stoffer/esp8266/esp-open-sdk/sdk/lib/libnet80211.a(ieee80211.o) (ieee80211_proto_attach)
/home/stoffer/esp8266/esp-open-sdk/sdk/lib/libnet80211.a(ieee80211_rfid.o)
                              /home/stoffer/esp8266/esp-open-sdk/sdk/lib/libmain.a(user_interface.o) (ieee80211_rfid_locp_recv_open)
/home/stoffer/esp8266/esp-open-sdk/sdk/lib/libnet80211.a(ieee80211_scan.o)
                              /home/stoffer/esp8266/esp-open-sdk/sdk/lib/libpp.a(pp.o) (gScanStruct)
/home/stoffer/esp8266/esp-open-sdk/sdk/lib/libnet80211.a(ieee80211_sta.o)
                              /home/stoffer/esp8266/esp-open-sdk/sdk/lib/libmain.a(user_interface.o) (ieee80211_sta_new_state)
/home/stoffer/esp8266/esp-open-sdk/sdk/lib/libnet80211.a(wl_chm.o)
                              /home/stoffer/esp8266/esp-open-sdk/sdk/lib/libnet80211.a(ieee80211.o) (chm_init)
/home/stoffer/esp8266/esp-open-sdk/sdk/lib/libnet80211.a(wl_cnx.o)
                              /home/stoffer/esp8266/esp-open-sdk/sdk/lib/libmain.a(user_interface.o) (sta_con_timer)
/home/stoffer/esp8266/esp-open-sdk/sdk/lib/libnet80211.a(ieee80211_action.o)
                              /home/stoffer/esp8266/esp-open-sdk/sdk/lib/libnet80211.a(ieee80211_ht.o) (ieee80211_send_action_register)
/home/stoffer/esp8266/esp-open-sdk/sdk/lib/libnet80211.a(ieee80211_action_vendor.o)
                              /home/stoffer/esp8266/esp-open-sdk/sdk/lib/libnet80211.a(ieee80211.o) (ieee80211_action_vendor_spec_attach)
/home/stoffer/esp8266/esp-open-sdk/sdk/lib/libnet80211.a(ieee80211_crypto_ccmp.o)
                              /home/stoffer/esp8266/esp-open-sdk/sdk/lib/libnet80211.a(ieee80211_input.o) (ccmp)
/home/stoffer/esp8266/esp-open-sdk/sdk/lib/libnet80211.a(ieee80211_ie_vendor.o)
                              /home/stoffer/esp8266/esp-open-sdk/sdk/lib/libnet80211.a(ieee80211_mesh_quick.o) (ieee80211_add_ie_vendor_esp_mesh_assoc)
/home/stoffer/esp8266/esp-open-sdk/sdk/lib/liblwip.a(dhcp.o)
                              /home/stoffer/esp8266/esp-open-sdk/sdk/lib/libnet80211.a(wl_cnx.o) (dhcp_release)
/home/stoffer/esp8266/esp-open-sdk/sdk/lib/liblwip.a(dhcpserver.o)
                              /home/stoffer/esp8266/esp-open-sdk/sdk/lib/libmain.a(user_interface.o) (dhcps_start)
/home/stoffer/esp8266/esp-open-sdk/sdk/lib/liblwip.a(dns.o)
                              /home/stoffer/esp8266/esp-open-sdk/sdk/lib/liblwip.a(dhcp.o) (dns_setserver)
/home/stoffer/esp8266/esp-open-sdk/sdk/lib/liblwip.a(espconn.o)
                              build/app_app.a(mqtt.o) (espconn_connect)
/home/stoffer/esp8266/esp-open-sdk/sdk/lib/liblwip.a(espconn_tcp.o)
                              /home/stoffer/esp8266/esp-open-sdk/sdk/lib/liblwip.a(espconn.o) (espconn_tcp_disconnect)
/home/stoffer/esp8266/esp-open-sdk/sdk/lib/liblwip.a(espconn_udp.o)
                              /home/stoffer/esp8266/esp-open-sdk/sdk/lib/liblwip.a(espconn.o) (espconn_udp_sent)
/home/stoffer/esp8266/esp-open-sdk/sdk/lib/liblwip.a(etharp.o)
                              /home/stoffer/esp8266/esp-open-sdk/sdk/lib/libmain.a(user_interface.o) (ethbroadcast)
/home/stoffer/esp8266/esp-open-sdk/sdk/lib/liblwip.a(igmp.o)
                              /home/stoffer/esp8266/esp-open-sdk/sdk/lib/liblwip.a(espconn_udp.o) (igmp_joingroup)
/home/stoffer/esp8266/esp-open-sdk/sdk/lib/liblwip.a(inet_chksum.o)
                              /home/stoffer/esp8266/esp-open-sdk/sdk/lib/liblwip.a(igmp.o) (inet_chksum)
/home/stoffer/esp8266/esp-open-sdk/sdk/lib/liblwip.a(init.o)
                              /home/stoffer/esp8266/esp-open-sdk/sdk/lib/libmain.a(app_main.o) (lwip_init)
/home/stoffer/esp8266/esp-open-sdk/sdk/lib/liblwip.a(ip_addr.o)
                              /home/stoffer/esp8266/esp-open-sdk/sdk/lib/liblwip.a(dhcp.o) (ip_addr_any)
/home/stoffer/esp8266/esp-open-sdk/sdk/lib/liblwip.a(ip.o)
                              /home/stoffer/esp8266/esp-open-sdk/sdk/lib/liblwip.a(etharp.o) (ip_input)
/home/stoffer/esp8266/esp-open-sdk/sdk/lib/liblwip.a(memp.o)
                              /home/stoffer/esp8266/esp-open-sdk/sdk/lib/liblwip.a(etharp.o) (memp_sizes)
/home/stoffer/esp8266/esp-open-sdk/sdk/lib/liblwip.a(netif.o)
                              /home/stoffer/esp8266/esp-open-sdk/sdk/lib/liblwip.a(dhcp.o) (netif_list)
/home/stoffer/esp8266/esp-open-sdk/sdk/lib/liblwip.a(pbuf.o)
                              /home/stoffer/esp8266/esp-open-sdk/sdk/lib/libnet80211.a(ieee80211_hostap.o) (pbuf_alloc)
/home/stoffer/esp8266/esp-open-sdk/sdk/lib/liblwip.a(raw.o)
                              /home/stoffer/esp8266/esp-open-sdk/sdk/lib/liblwip.a(ip.o) (raw_input)
/home/stoffer/esp8266/esp-open-sdk/sdk/lib/liblwip.a(sntp.o)
                              build/app_app.a(unix_time.o) (sntp_get_current_timestamp)
/home/stoffer/esp8266/esp-open-sdk/sdk/lib/liblwip.a(tcp_in.o)
                              /home/stoffer/esp8266/esp-open-sdk/sdk/lib/liblwip.a(ip.o) (tcp_input)
/home/stoffer/esp8266/esp-open-sdk/sdk/lib/liblwip.a(tcp.o)
                              /home/stoffer/esp8266/esp-open-sdk/sdk/lib/liblwip.a(espconn_tcp.o) (tcp_active_pcbs)
/home/stoffer/esp8266/esp-open-sdk/sdk/lib/liblwip.a(tcp_out.o)
                              /home/stoffer/esp8266/esp-open-sdk/sdk/lib/liblwip.a(tcp.o) (tcp_send_fin)
/home/stoffer/esp8266/esp-open-sdk/sdk/lib/liblwip.a(timers.o)
                              /home/stoffer/esp8266/esp-open-sdk/sdk/lib/liblwip.a(sntp.o) (sys_timeout)
/home/stoffer/esp8266/esp-open-sdk/sdk/lib/liblwip.a(udp.o)
                              /home/stoffer/esp8266/esp-open-sdk/sdk/lib/liblwip.a(ip.o) (udp_input)
/home/stoffer/esp8266/esp-open-sdk/sdk/lib/liblwip.a(icmp.o)
                              /home/stoffer/esp8266/esp-open-sdk/sdk/lib/liblwip.a(ip.o) (icmp_input)
/home/stoffer/esp8266/esp-open-sdk/sdk/lib/libwpa.a(ap_config.o)
                              /home/stoffer/esp8266/esp-open-sdk/sdk/lib/libnet80211.a(ieee80211_hostap.o) (hostapd_setup_wpa_psk)
/home/stoffer/esp8266/esp-open-sdk/sdk/lib/libwpa.a(common.o)
                              /home/stoffer/esp8266/esp-open-sdk/sdk/lib/libmain.a(user_interface.o) (hexstr2bin)
/home/stoffer/esp8266/esp-open-sdk/sdk/lib/libwpa.a(os_xtensa.o)
                              /home/stoffer/esp8266/esp-open-sdk/sdk/lib/libwpa.a(common.o) (os_get_time)
/home/stoffer/esp8266/esp-open-sdk/sdk/lib/libwpa.a(wpa_auth.o)
                              /home/stoffer/esp8266/esp-open-sdk/sdk/lib/libnet80211.a(ieee80211_hostap.o) (wpa_init)
/home/stoffer/esp8266/esp-open-sdk/sdk/lib/libwpa.a(wpa_auth_ie.o)
                              /home/stoffer/esp8266/esp-open-sdk/sdk/lib/libwpa.a(wpa_auth.o) (wpa_auth_gen_wpa_ie)
/home/stoffer/esp8266/esp-open-sdk/sdk/lib/libwpa.a(wpa.o)
                              /home/stoffer/esp8266/esp-open-sdk/sdk/lib/libnet80211.a(ieee80211_sta.o) (wpa_sm_rx_eapol)
/home/stoffer/esp8266/esp-open-sdk/sdk/lib/libwpa.a(wpa_common.o)
                              /home/stoffer/esp8266/esp-open-sdk/sdk/lib/libwpa.a(wpa_auth_ie.o) (wpa_parse_wpa_ie_rsn)
/home/stoffer/esp8266/esp-open-sdk/sdk/lib/libwpa.a(wpa_debug.o)
                              /home/stoffer/esp8266/esp-open-sdk/sdk/lib/libwpa.a(wpa_auth.o) (eloop_cancel_timeout)
/home/stoffer/esp8266/esp-open-sdk/sdk/lib/libwpa.a(wpa_ie.o)
                              /home/stoffer/esp8266/esp-open-sdk/sdk/lib/libnet80211.a(ieee80211_scan.o) (wpa_parse_wpa_ie)
/home/stoffer/esp8266/esp-open-sdk/sdk/lib/libwpa.a(wpa_main.o)
                              /home/stoffer/esp8266/esp-open-sdk/sdk/lib/libnet80211.a(wl_cnx.o) (ppInstallKey)
/home/stoffer/esp8266/esp-open-sdk/sdk/lib/libwpa.a(wpas_glue.o)
                              /home/stoffer/esp8266/esp-open-sdk/sdk/lib/libwpa.a(wpa.o) (wpa_sm_alloc_eapol)
/home/stoffer/esp8266/esp-open-sdk/sdk/lib/libwpa.a(aes-wrap.o)
                              /home/stoffer/esp8266/esp-open-sdk/sdk/lib/libwpa.a(wpa_auth.o) (aes_wrap)
/home/stoffer/esp8266/esp-open-sdk/sdk/lib/libwpa.a(aes-internal-enc.o)
                              /home/stoffer/esp8266/esp-open-sdk/sdk/lib/libwpa.a(aes-wrap.o) (aes_encrypt_init)
/home/stoffer/esp8266/esp-open-sdk/sdk/lib/libwpa.a(aes-internal.o)
                              /home/stoffer/esp8266/esp-open-sdk/sdk/lib/libwpa.a(aes-internal-enc.o) (rijndaelKeySetupEnc)
/home/stoffer/esp8266/esp-open-sdk/xtensa-lx106-elf/bin/../lib/gcc/xtensa-lx106-elf/4.8.2/libgcc.a(_ashrdi3.o)
                              /home/stoffer/esp8266/esp-open-sdk/sdk/lib/libphy.a(phy_chip_v6.o) (__ashrdi3)
/home/stoffer/esp8266/esp-open-sdk/xtensa-lx106-elf/bin/../lib/gcc/xtensa-lx106-elf/4.8.2/libgcc.a(_addsubsf3.o)
                              /home/stoffer/esp8266/esp-open-sdk/sdk/lib/libphy.a(phy_chip_v6_ana.o) (__addsf3)
/home/stoffer/esp8266/esp-open-sdk/xtensa-lx106-elf/bin/../lib/gcc/xtensa-lx106-elf/4.8.2/libgcc.a(_mulsf3.o)
                              /home/stoffer/esp8266/esp-open-sdk/sdk/lib/libphy.a(phy_chip_v6_ana.o) (__mulsf3)
/home/stoffer/esp8266/esp-open-sdk/xtensa-lx106-elf/bin/../lib/gcc/xtensa-lx106-elf/4.8.2/libgcc.a(_divsf3.o)
                              /home/stoffer/esp8266/esp-open-sdk/sdk/lib/libphy.a(phy_chip_v6_ana.o) (__divsf3)
/home/stoffer/esp8266/esp-open-sdk/xtensa-lx106-elf/bin/../lib/gcc/xtensa-lx106-elf/4.8.2/libgcc.a(_fixsfsi.o)
                              /home/stoffer/esp8266/esp-open-sdk/sdk/lib/libphy.a(phy_chip_v6.o) (__fixsfsi)
/home/stoffer/esp8266/esp-open-sdk/xtensa-lx106-elf/bin/../lib/gcc/xtensa-lx106-elf/4.8.2/libgcc.a(_fixunssfsi.o)
                              /home/stoffer/esp8266/esp-open-sdk/sdk/lib/libphy.a(phy_chip_v6_ana.o) (__fixunssfsi)
/home/stoffer/esp8266/esp-open-sdk/xtensa-lx106-elf/bin/../lib/gcc/xtensa-lx106-elf/4.8.2/libgcc.a(_floatsisf.o)
                              /home/stoffer/esp8266/esp-open-sdk/sdk/lib/libphy.a(phy_chip_v6.o) (__floatunsisf)
/home/stoffer/esp8266/esp-open-sdk/xtensa-lx106-elf/bin/../lib/gcc/xtensa-lx106-elf/4.8.2/libgcc.a(_fixdfsi.o)
                              /home/stoffer/esp8266/esp-open-sdk/sdk/lib/libphy.a(phy_chip_v6.o) (__fixdfsi)
/home/stoffer/esp8266/esp-open-sdk/xtensa-lx106-elf/bin/../lib/gcc/xtensa-lx106-elf/4.8.2/libgcc.a(_truncdfsf2.o)
                              /home/stoffer/esp8266/esp-open-sdk/sdk/lib/libphy.a(phy_chip_v6_ana.o) (__truncdfsf2)
/home/stoffer/esp8266/esp-open-sdk/xtensa-lx106-elf/bin/../lib/gcc/xtensa-lx106-elf/4.8.2/libgcc.a(_divdi3.o)
                              /home/stoffer/esp8266/esp-open-sdk/sdk/lib/libphy.a(phy_chip_v6_cal.o) (__divdi3)
/home/stoffer/esp8266/esp-open-sdk/sdk/lib/libnet80211.a(ieee80211_crypto_tkip.o)
                              /home/stoffer/esp8266/esp-open-sdk/sdk/lib/libwpa.a(wpa_auth.o) (tkip)
/home/stoffer/esp8266/esp-open-sdk/sdk/lib/libnet80211.a(ieee80211_crypto_wep.o)
                              /home/stoffer/esp8266/esp-open-sdk/sdk/lib/libwpa.a(wpa_auth.o) (wep)

Allocating common symbols
Common symbol       size              file

default_private_key
                    0x4               build/app_app.a(mqtt.o)
response            0x6c              build/app_app.a(kmp_request.o)
sys_cfg             0xa38             build/app_app.a(config.o)
fifo_buffer         0x100             build/app_app.a(kmp_request.o)
mqttClient          0xd0              build/app_app.a(user_main.o)
frame_length        0x4               build/app_app.a(kmp_request.o)
current_unix_time   0x4               build/app_app.a(unix_time.o)
default_certificate
                    0x4               build/app_app.a(mqtt.o)
config_ssid         0x4               build/app_app.a(wifi.o)
cgiWifiAps          0xc               build/app_app.a(cgiwifi.o)
hmac_sha256_key     0x10              build/app_app.a(crypto.o)
fifo_head           0x4               build/app_app.a(kmp_request.o)
kmp_requests_sent   0x4               build/app_app.a(kmp_request.o)
fifo_tail           0x4               build/app_app.a(kmp_request.o)
kmp_response        0x4               build/app_app.a(kmp.o)
kmp_data_length     0x4               build/app_app.a(kmp.o)
register_list       0x10              build/app_app.a(kmp_request.o)
kmp_frame_length    0x4               build/app_app.a(kmp.o)
rtc_info            0x4               build/app_app.a(user_main.o)
sec_drift           0x1               build/app_app.a(cron.o)
config_pass         0x4               build/app_app.a(wifi.o)
aes_key             0x10              build/app_app.a(crypto.o)
frame               0x400             build/app_app.a(kmp_request.o)
config_save_timer_running
                    0x1               build/app_app.a(config.o)
kmp_frame           0x4               build/app_app.a(kmp.o)
boot_time           0x8               build/app_app.a(unix_time.o)
kmp_received_task_queue
                    0x200             build/app_app.a(user_main.o)
sha256_hash         0x20              build/app_app.a(crypto.o)
ac_pwm_duty_cycle   0x4               build/app_app.a(ac_out.o)
mqtt_procTaskQueue  0x8               build/app_app.a(mqtt.o)
saveFlag            0x4               build/app_app.a(config.o)

Memory Configuration

Name             Origin             Length             Attributes
dport0_0_seg     0x000000003ff00000 0x0000000000000010
dram0_0_seg      0x000000003ffe8000 0x0000000000014000
iram1_0_seg      0x0000000040100000 0x0000000000008000
irom0_0_seg      0x0000000040240000 0x000000000003c000
*default*        0x0000000000000000 0xffffffffffffffff

Linker script and memory map

START GROUP
LOAD /home/stoffer/esp8266/esp-open-sdk/xtensa-lx106-elf/bin/../lib/gcc/xtensa-lx106-elf/4.8.2/../../../../xtensa-lx106-elf/lib/libc.a
LOAD /home/stoffer/esp8266/esp-open-sdk/xtensa-lx106-elf/bin/../lib/gcc/xtensa-lx106-elf/4.8.2/libgcc.a
LOAD /home/stoffer/esp8266/esp-open-sdk/xtensa-lx106-elf/bin/../xtensa-lx106-elf/sysroot/usr/lib/libhal.a
LOAD /home/stoffer/esp8266/esp-open-sdk/sdk/lib/libphy.a
LOAD /home/stoffer/esp8266/esp-open-sdk/sdk/lib/libpp.a
LOAD /home/stoffer/esp8266/esp-open-sdk/sdk/lib/libnet80211.a
LOAD /home/stoffer/esp8266/esp-open-sdk/sdk/lib/liblwip.a
LOAD /home/stoffer/esp8266/esp-open-sdk/sdk/lib/libwpa.a
LOAD /home/stoffer/esp8266/esp-open-sdk/sdk/lib/libmain.a
LOAD /home/stoffer/esp8266/esp-open-sdk/sdk/lib/libssl.a
LOAD /home/stoffer/esp8266/esp-open-sdk/xtensa-lx106-elf/bin/../lib/gcc/xtensa-lx106-elf/4.8.2/../../../../xtensa-lx106-elf/lib/libc.a
LOAD /home/stoffer/esp8266/esp-open-sdk/xtensa-lx106-elf/bin/../lib/gcc/xtensa-lx106-elf/4.8.2/libgcc.a
LOAD build/app_app.a
END GROUP
                0x0000000040000000                PROVIDE (_memmap_vecbase_reset, 0x40000000)
                0x0000000000000110                _memmap_cacheattr_wb_base = 0x110
                0x0000000000000110                _memmap_cacheattr_wt_base = 0x110
                0x0000000000000220                _memmap_cacheattr_bp_base = 0x220
                0x00000000fffff00f                _memmap_cacheattr_unused_mask = 0xfffff00f
                0x000000002222211f                _memmap_cacheattr_wb_trapnull = 0x2222211f
                0x000000002222211f                _memmap_cacheattr_wba_trapnull = 0x2222211f
                0x000000002222211f                _memmap_cacheattr_wbna_trapnull = 0x2222211f
                0x000000002222211f                _memmap_cacheattr_wt_trapnull = 0x2222211f
                0x000000002222222f                _memmap_cacheattr_bp_trapnull = 0x2222222f
                0x00000000fffff11f                _memmap_cacheattr_wb_strict = 0xfffff11f
                0x00000000fffff11f                _memmap_cacheattr_wt_strict = 0xfffff11f
                0x00000000fffff22f                _memmap_cacheattr_bp_strict = 0xfffff22f
                0x0000000022222112                _memmap_cacheattr_wb_allvalid = 0x22222112
                0x0000000022222112                _memmap_cacheattr_wt_allvalid = 0x22222112
                0x0000000022222222                _memmap_cacheattr_bp_allvalid = 0x22222222
                0x000000002222211f                PROVIDE (_memmap_cacheattr_reset, _memmap_cacheattr_wb_trapnull)

.dport0.rodata  0x000000003ff00000        0x0
                0x000000003ff00000                _dport0_rodata_start = ABSOLUTE (.)
 *(.dport0.rodata)
 *(.dport.rodata)
                0x000000003ff00000                _dport0_rodata_end = ABSOLUTE (.)

.dport0.literal
                0x000000003ff00000        0x0
                0x000000003ff00000                _dport0_literal_start = ABSOLUTE (.)
 *(.dport0.literal)
 *(.dport.literal)
                0x000000003ff00000                _dport0_literal_end = ABSOLUTE (.)

.dport0.data    0x000000003ff00000        0x0
                0x000000003ff00000                _dport0_data_start = ABSOLUTE (.)
 *(.dport0.data)
 *(.dport.data)
                0x000000003ff00000                _dport0_data_end = ABSOLUTE (.)

.data           0x000000003ffe8000      0x898
                0x000000003ffe8000                _data_start = ABSOLUTE (.)
 *(.data)
 .data          0x000000003ffe8000        0x0 /home/stoffer/esp8266/esp-open-sdk/sdk/lib/libmain.a(debug-vector.o)
 .data          0x000000003ffe8000        0x0 /home/stoffer/esp8266/esp-open-sdk/sdk/lib/libmain.a(double-vector.o)
 .data          0x000000003ffe8000        0x0 /home/stoffer/esp8266/esp-open-sdk/sdk/lib/libmain.a(kernel-vector.o)
 .data          0x000000003ffe8000        0x4 /home/stoffer/esp8266/esp-open-sdk/sdk/lib/libmain.a(nmi-vector.o)
                0x000000003ffe8000                _Pri_3_HandlerAddress
 .data          0x000000003ffe8004        0x0 /home/stoffer/esp8266/esp-open-sdk/sdk/lib/libmain.a(user-vector.o)
 .data          0x000000003ffe8004        0x0 /home/stoffer/esp8266/esp-open-sdk/sdk/lib/libmain.a(vector.o)
 .data          0x000000003ffe8004        0x1 /home/stoffer/esp8266/esp-open-sdk/sdk/lib/libmain.a(app_main.o)
 .data          0x000000003ffe8005        0x0 /home/stoffer/esp8266/esp-open-sdk/sdk/lib/libmain.a(ets_timer.o)
 .data          0x000000003ffe8005        0x0 /home/stoffer/esp8266/esp-open-sdk/sdk/lib/libmain.a(mem_manager.o)
 .data          0x000000003ffe8005        0x0 /home/stoffer/esp8266/esp-open-sdk/sdk/lib/libmain.a(spi_flash.o)
 *fill*         0x000000003ffe8005        0x3 
 .data          0x000000003ffe8008        0x6 /home/stoffer/esp8266/esp-open-sdk/sdk/lib/libmain.a(user_interface.o)
                0x000000003ffe8009                timer2_ms_flag
                0x000000003ffe800a                dhcps_flag
                0x000000003ffe800b                dhcpc_flag
                0x000000003ffe800d                reconnect_internal
 .data          0x000000003ffe800e        0x0 /home/stoffer/esp8266/esp-open-sdk/sdk/lib/libmain.a(eagle_lib.o)
 *fill*         0x000000003ffe800e        0x2 
 .data          0x000000003ffe8010        0x1 /home/stoffer/esp8266/esp-open-sdk/sdk/lib/libmain.a(eagle_lwip_if.o)
                0x000000003ffe8010                default_hostname
 .data          0x000000003ffe8011        0x0 /home/stoffer/esp8266/esp-open-sdk/xtensa-lx106-elf/bin/../lib/gcc/xtensa-lx106-elf/4.8.2/libgcc.a(_udivsi3.o)
 .data          0x000000003ffe8011        0x0 /home/stoffer/esp8266/esp-open-sdk/xtensa-lx106-elf/bin/../lib/gcc/xtensa-lx106-elf/4.8.2/libgcc.a(_umodsi3.o)
 .data          0x000000003ffe8011        0x0 /home/stoffer/esp8266/esp-open-sdk/xtensa-lx106-elf/bin/../lib/gcc/xtensa-lx106-elf/4.8.2/libgcc.a(_muldi3.o)
 .data          0x000000003ffe8011        0x0 /home/stoffer/esp8266/esp-open-sdk/xtensa-lx106-elf/bin/../lib/gcc/xtensa-lx106-elf/4.8.2/libgcc.a(_umulsidi3.o)
 .data          0x000000003ffe8011        0x0 build/app_app.a(user_main.o)
 .data          0x000000003ffe8011        0x0 build/app_app.a(captdns.o)
 .data          0x000000003ffe8011        0x0 build/app_app.a(led.o)
 .data          0x000000003ffe8011        0x0 build/app_app.a(httpd.o)
 *fill*         0x000000003ffe8011        0x3 
 .data          0x000000003ffe8014       0x9c build/app_app.a(httpd_user_init.o)
                0x000000003ffe8014                builtInUrls
 .data          0x000000003ffe80b0        0x0 build/app_app.a(crypto.o)
 .data          0x000000003ffe80b0        0x0 build/app_app.a(hmac-sha256.o)
 .data          0x000000003ffe80b0        0x0 build/app_app.a(sha256.o)
 .data          0x000000003ffe80b0        0x0 build/app_app.a(aes.o)
 .data          0x000000003ffe80b0        0x0 build/app_app.a(kmp_request.o)
 .data          0x000000003ffe80b0        0x0 build/app_app.a(kmp.o)
 .data          0x000000003ffe80b0        0x0 build/app_app.a(cron.o)
 .data          0x000000003ffe80b0        0x4 build/app_app.a(ac_out.o)
                0x000000003ffe80b0                ac_pwm_state
 .data          0x000000003ffe80b4        0x0 build/app_app.a(uart.o)
 .data          0x000000003ffe80b4        0x0 build/app_app.a(mqtt.o)
 .data          0x000000003ffe80b4        0x0 build/app_app.a(mqtt_msg.o)
 .data          0x000000003ffe80b4        0x0 build/app_app.a(queue.o)
 .data          0x000000003ffe80b4        0x0 build/app_app.a(mqtt_utils.o)
 .data          0x000000003ffe80b4        0x0 build/app_app.a(proto.o)
 .data          0x000000003ffe80b4        0x0 build/app_app.a(config.o)
 .data          0x000000003ffe80b4        0x0 build/app_app.a(wifi.o)
 .data          0x000000003ffe80b4        0x0 build/app_app.a(tinyprintf.o)
 .data          0x000000003ffe80b4        0x0 build/app_app.a(unix_time.o)
 .data          0x000000003ffe80b4        0x0 build/app_app.a(cgi.o)
 .data          0x000000003ffe80b4        0x0 build/app_app.a(httpdespfs.o)
 .data          0x000000003ffe80b4        0x0 build/app_app.a(cgiwifi.o)
 .data          0x000000003ffe80b4        0x0 build/app_app.a(espfs.o)
 .data          0x000000003ffe80b4        0x0 build/app_app.a(heatshrink_decoder.o)
 .data          0x000000003ffe80b4        0x0 build/app_app.a(utils.o)
 .data          0x000000003ffe80b4        0x0 build/app_app.a(ringbuf.o)
 .data          0x000000003ffe80b4        0x0 /home/stoffer/esp8266/esp-open-sdk/xtensa-lx106-elf/bin/../lib/gcc/xtensa-lx106-elf/4.8.2/../../../../xtensa-lx106-elf/lib/libc.a(lib_a-atoi.o)
 .data          0x000000003ffe80b4        0x0 /home/stoffer/esp8266/esp-open-sdk/xtensa-lx106-elf/bin/../lib/gcc/xtensa-lx106-elf/4.8.2/../../../../xtensa-lx106-elf/lib/libc.a(lib_a-gmtime.o)
 .data          0x000000003ffe80b4        0x0 /home/stoffer/esp8266/esp-open-sdk/xtensa-lx106-elf/bin/../lib/gcc/xtensa-lx106-elf/4.8.2/../../../../xtensa-lx106-elf/lib/libc.a(lib_a-gmtime_r.o)
 *fill*         0x000000003ffe80b4        0x4 
 .data          0x000000003ffe80b8      0x430 /home/stoffer/esp8266/esp-open-sdk/xtensa-lx106-elf/bin/../lib/gcc/xtensa-lx106-elf/4.8.2/../../../../xtensa-lx106-elf/lib/libc.a(lib_a-impure.o)
                0x000000003ffe80b8                _impure_ptr
 .data          0x000000003ffe84e8        0x0 /home/stoffer/esp8266/esp-open-sdk/xtensa-lx106-elf/bin/../lib/gcc/xtensa-lx106-elf/4.8.2/../../../../xtensa-lx106-elf/lib/libc.a(lib_a-memcpy.o)
 .data          0x000000003ffe84e8        0x0 /home/stoffer/esp8266/esp-open-sdk/xtensa-lx106-elf/bin/../lib/gcc/xtensa-lx106-elf/4.8.2/../../../../xtensa-lx106-elf/lib/libc.a(lib_a-memset.o)
 .data          0x000000003ffe84e8        0x0 /home/stoffer/esp8266/esp-open-sdk/xtensa-lx106-elf/bin/../lib/gcc/xtensa-lx106-elf/4.8.2/../../../../xtensa-lx106-elf/lib/libc.a(lib_a-mktm_r.o)
 .data          0x000000003ffe84e8        0x0 /home/stoffer/esp8266/esp-open-sdk/xtensa-lx106-elf/bin/../lib/gcc/xtensa-lx106-elf/4.8.2/../../../../xtensa-lx106-elf/lib/libc.a(lib_a-strcat.o)
 .data          0x000000003ffe84e8        0x0 /home/stoffer/esp8266/esp-open-sdk/xtensa-lx106-elf/bin/../lib/gcc/xtensa-lx106-elf/4.8.2/../../../../xtensa-lx106-elf/lib/libc.a(lib_a-strlen.o)
 .data          0x000000003ffe84e8        0x0 /home/stoffer/esp8266/esp-open-sdk/xtensa-lx106-elf/bin/../lib/gcc/xtensa-lx106-elf/4.8.2/../../../../xtensa-lx106-elf/lib/libc.a(lib_a-strtok.o)
 .data          0x000000003ffe84e8        0x0 /home/stoffer/esp8266/esp-open-sdk/xtensa-lx106-elf/bin/../lib/gcc/xtensa-lx106-elf/4.8.2/../../../../xtensa-lx106-elf/lib/libc.a(lib_a-strtok_r.o)
 .data          0x000000003ffe84e8        0x0 /home/stoffer/esp8266/esp-open-sdk/xtensa-lx106-elf/bin/../lib/gcc/xtensa-lx106-elf/4.8.2/../../../../xtensa-lx106-elf/lib/libc.a(lib_a-strtol.o)
 .data          0x000000003ffe84e8        0x0 /home/stoffer/esp8266/esp-open-sdk/xtensa-lx106-elf/bin/../lib/gcc/xtensa-lx106-elf/4.8.2/../../../../xtensa-lx106-elf/lib/libc.a(lib_a-tzlock.o)
 .data          0x000000003ffe84e8        0x8 /home/stoffer/esp8266/esp-open-sdk/xtensa-lx106-elf/bin/../lib/gcc/xtensa-lx106-elf/4.8.2/../../../../xtensa-lx106-elf/lib/libc.a(lib_a-tzvars.o)
                0x000000003ffe84e8                _tzname
 .data          0x000000003ffe84f0        0x4 /home/stoffer/esp8266/esp-open-sdk/xtensa-lx106-elf/bin/../lib/gcc/xtensa-lx106-elf/4.8.2/../../../../xtensa-lx106-elf/lib/libc.a(lib_a-ctype_.o)
                0x000000003ffe84f0                __ctype_ptr__
 .data          0x000000003ffe84f4       0x40 /home/stoffer/esp8266/esp-open-sdk/xtensa-lx106-elf/bin/../lib/gcc/xtensa-lx106-elf/4.8.2/../../../../xtensa-lx106-elf/lib/libc.a(lib_a-gettzinfo.o)
 .data          0x000000003ffe8534        0x0 /home/stoffer/esp8266/esp-open-sdk/xtensa-lx106-elf/bin/../lib/gcc/xtensa-lx106-elf/4.8.2/libgcc.a(_divsi3.o)
 .data          0x000000003ffe8534        0x0 /home/stoffer/esp8266/esp-open-sdk/xtensa-lx106-elf/bin/../lib/gcc/xtensa-lx106-elf/4.8.2/libgcc.a(_modsi3.o)
 .data          0x000000003ffe8534        0x0 /home/stoffer/esp8266/esp-open-sdk/xtensa-lx106-elf/bin/../lib/gcc/xtensa-lx106-elf/4.8.2/libgcc.a(_muldf3.o)
 .data          0x000000003ffe8534        0x0 /home/stoffer/esp8266/esp-open-sdk/xtensa-lx106-elf/bin/../lib/gcc/xtensa-lx106-elf/4.8.2/libgcc.a(_divdf3.o)
 .data          0x000000003ffe8534        0x0 /home/stoffer/esp8266/esp-open-sdk/xtensa-lx106-elf/bin/../lib/gcc/xtensa-lx106-elf/4.8.2/libgcc.a(_floatsidf.o)
 .data          0x000000003ffe8534        0x0 /home/stoffer/esp8266/esp-open-sdk/xtensa-lx106-elf/bin/../lib/gcc/xtensa-lx106-elf/4.8.2/libgcc.a(_udivdi3.o)
 .data          0x000000003ffe8534        0x0 /home/stoffer/esp8266/esp-open-sdk/xtensa-lx106-elf/bin/../lib/gcc/xtensa-lx106-elf/4.8.2/libgcc.a(_umoddi3.o)
 .data          0x000000003ffe8534        0x0 /home/stoffer/esp8266/esp-open-sdk/xtensa-lx106-elf/bin/../xtensa-lx106-elf/sysroot/usr/lib/libhal.a(int_asm--set_intclear.o)
 .data          0x000000003ffe8534        0x0 /home/stoffer/esp8266/esp-open-sdk/sdk/lib/libphy.a(phy.o)
 .data          0x000000003ffe8534        0x0 /home/stoffer/esp8266/esp-open-sdk/sdk/lib/libphy.a(phy_chip_v6_ana.o)
 *fill*         0x000000003ffe8534        0xc 
 .data          0x000000003ffe8540       0x53 /home/stoffer/esp8266/esp-open-sdk/sdk/lib/libphy.a(phy_chip_v6.o)
                0x000000003ffe8542                tx_rf_ana_gain
                0x000000003ffe8570                rx_gain_swp
                0x000000003ffe8590                test_rffreq_txcap
 .data          0x000000003ffe8593        0x0 /home/stoffer/esp8266/esp-open-sdk/sdk/lib/libphy.a(phy_chip_v6_cal.o)
 .data          0x000000003ffe8593        0x0 /home/stoffer/esp8266/esp-open-sdk/sdk/lib/libphy.a(phy_chip_v6_unused.o)
 *fill*         0x000000003ffe8593        0x1 
 .data          0x000000003ffe8594        0x4 /home/stoffer/esp8266/esp-open-sdk/sdk/lib/libphy.a(phy_sleep.o)
                0x000000003ffe8594                chip_version
 .data          0x000000003ffe8598        0x0 /home/stoffer/esp8266/esp-open-sdk/sdk/lib/libpp.a(if_hwctrl.o)
 .data          0x000000003ffe8598        0x0 /home/stoffer/esp8266/esp-open-sdk/sdk/lib/libpp.a(lmac.o)
 .data          0x000000003ffe8598        0x1 /home/stoffer/esp8266/esp-open-sdk/sdk/lib/libpp.a(pm.o)
 *fill*         0x000000003ffe8599        0x3 
 .data          0x000000003ffe859c        0x1 /home/stoffer/esp8266/esp-open-sdk/sdk/lib/libpp.a(pm_for_bcn_only_mode.o)
 *fill*         0x000000003ffe859d        0x3 
 .data          0x000000003ffe85a0       0x1c /home/stoffer/esp8266/esp-open-sdk/sdk/lib/libpp.a(pp.o)
                0x000000003ffe85a0                soft_wdt_interval
                0x000000003ffe85a4                NoiseTimerInterval
                0x000000003ffe85ac                sleep_start_wait_time
                0x000000003ffe85b4                CanDoFreqCal
                0x000000003ffe85b8                tcb
 *fill*         0x000000003ffe85bc        0x4 
 .data          0x000000003ffe85c0       0x40 /home/stoffer/esp8266/esp-open-sdk/sdk/lib/libpp.a(rate_control.o)
 .data          0x000000003ffe8600      0x24c /home/stoffer/esp8266/esp-open-sdk/sdk/lib/libpp.a(trc.o)
 .data          0x000000003ffe884c        0x8 /home/stoffer/esp8266/esp-open-sdk/sdk/lib/libpp.a(wdev.o)
 .data          0x000000003ffe8854        0x0 /home/stoffer/esp8266/esp-open-sdk/sdk/lib/libpp.a(esf_buf.o)
 .data          0x000000003ffe8854        0x0 /home/stoffer/esp8266/esp-open-sdk/sdk/lib/libnet80211.a(ieee80211.o)
 .data          0x000000003ffe8854        0x0 /home/stoffer/esp8266/esp-open-sdk/sdk/lib/libnet80211.a(ieee80211_crypto.o)
 .data          0x000000003ffe8854        0x0 /home/stoffer/esp8266/esp-open-sdk/sdk/lib/libnet80211.a(ieee80211_ets.o)
 .data          0x000000003ffe8854        0x1 /home/stoffer/esp8266/esp-open-sdk/sdk/lib/libnet80211.a(ieee80211_hostap.o)
                0x000000003ffe8854                TmpSTAAPCloseAP
 .data          0x000000003ffe8855        0x0 /home/stoffer/esp8266/esp-open-sdk/sdk/lib/libnet80211.a(ieee80211_ht.o)
 .data          0x000000003ffe8855        0x0 /home/stoffer/esp8266/esp-open-sdk/sdk/lib/libnet80211.a(ieee80211_input.o)
 .data          0x000000003ffe8855        0x0 /home/stoffer/esp8266/esp-open-sdk/sdk/lib/libnet80211.a(ieee80211_mesh_quick.o)
 .data          0x000000003ffe8855        0x0 /home/stoffer/esp8266/esp-open-sdk/sdk/lib/libnet80211.a(ieee80211_output.o)
 .data          0x000000003ffe8855        0x0 /home/stoffer/esp8266/esp-open-sdk/sdk/lib/libnet80211.a(ieee80211_phy.o)
 .data          0x000000003ffe8855        0x0 /home/stoffer/esp8266/esp-open-sdk/sdk/lib/libnet80211.a(ieee80211_power.o)
 .data          0x000000003ffe8855        0x0 /home/stoffer/esp8266/esp-open-sdk/sdk/lib/libnet80211.a(ieee80211_proto.o)
 .data          0x000000003ffe8855        0x0 /home/stoffer/esp8266/esp-open-sdk/sdk/lib/libnet80211.a(ieee80211_rfid.o)
 .data          0x000000003ffe8855        0x0 /home/stoffer/esp8266/esp-open-sdk/sdk/lib/libnet80211.a(ieee80211_scan.o)
 .data          0x000000003ffe8855        0x0 /home/stoffer/esp8266/esp-open-sdk/sdk/lib/libnet80211.a(ieee80211_sta.o)
 .data          0x000000003ffe8855        0x0 /home/stoffer/esp8266/esp-open-sdk/sdk/lib/libnet80211.a(wl_chm.o)
 *fill*         0x000000003ffe8855        0x3 
 .data          0x000000003ffe8858        0x1 /home/stoffer/esp8266/esp-open-sdk/sdk/lib/libnet80211.a(wl_cnx.o)
 *fill*         0x000000003ffe8859        0x7 
 .data          0x000000003ffe8860       0x1c /home/stoffer/esp8266/esp-open-sdk/sdk/lib/libnet80211.a(ieee80211_action.o)
 .data          0x000000003ffe887c        0x0 /home/stoffer/esp8266/esp-open-sdk/sdk/lib/libnet80211.a(ieee80211_action_vendor.o)
 .data          0x000000003ffe887c        0x0 /home/stoffer/esp8266/esp-open-sdk/sdk/lib/libnet80211.a(ieee80211_crypto_ccmp.o)
 .data          0x000000003ffe887c        0x0 /home/stoffer/esp8266/esp-open-sdk/sdk/lib/libnet80211.a(ieee80211_ie_vendor.o)
 .data          0x000000003ffe887c        0x4 /home/stoffer/esp8266/esp-open-sdk/sdk/lib/liblwip.a(dhcp.o)
 .data          0x000000003ffe8880        0x5 /home/stoffer/esp8266/esp-open-sdk/sdk/lib/liblwip.a(dhcpserver.o)
                0x000000003ffe8880                dhcps_lease_time
 .data          0x000000003ffe8885        0x0 /home/stoffer/esp8266/esp-open-sdk/sdk/lib/liblwip.a(dns.o)
 .data          0x000000003ffe8885        0x0 /home/stoffer/esp8266/esp-open-sdk/sdk/lib/liblwip.a(espconn.o)
 .data          0x000000003ffe8885        0x0 /home/stoffer/esp8266/esp-open-sdk/sdk/lib/liblwip.a(espconn_tcp.o)
 .data          0x000000003ffe8885        0x0 /home/stoffer/esp8266/esp-open-sdk/sdk/lib/liblwip.a(espconn_udp.o)
 .data          0x000000003ffe8885        0x0 /home/stoffer/esp8266/esp-open-sdk/sdk/lib/liblwip.a(etharp.o)
 .data          0x000000003ffe8885        0x0 /home/stoffer/esp8266/esp-open-sdk/sdk/lib/liblwip.a(igmp.o)
 .data          0x000000003ffe8885        0x0 /home/stoffer/esp8266/esp-open-sdk/sdk/lib/liblwip.a(inet_chksum.o)
 .data          0x000000003ffe8885        0x0 /home/stoffer/esp8266/esp-open-sdk/sdk/lib/liblwip.a(init.o)
 .data          0x000000003ffe8885        0x0 /home/stoffer/esp8266/esp-open-sdk/sdk/lib/liblwip.a(ip_addr.o)
 .data          0x000000003ffe8885        0x0 /home/stoffer/esp8266/esp-open-sdk/sdk/lib/liblwip.a(ip.o)
 *fill*         0x000000003ffe8885        0x3 
 .data          0x000000003ffe8888        0x2 /home/stoffer/esp8266/esp-open-sdk/sdk/lib/liblwip.a(memp.o)
                0x000000003ffe8888                memp_sizes_test
 .data          0x000000003ffe888a        0x0 /home/stoffer/esp8266/esp-open-sdk/sdk/lib/liblwip.a(netif.o)
 .data          0x000000003ffe888a        0x0 /home/stoffer/esp8266/esp-open-sdk/sdk/lib/liblwip.a(pbuf.o)
 .data          0x000000003ffe888a        0x0 /home/stoffer/esp8266/esp-open-sdk/sdk/lib/liblwip.a(raw.o)
 *fill*         0x000000003ffe888a        0x2 
 .data          0x000000003ffe888c        0x1 /home/stoffer/esp8266/esp-open-sdk/sdk/lib/liblwip.a(sntp.o)
                0x000000003ffe888c                time_zone
 .data          0x000000003ffe888d        0x0 /home/stoffer/esp8266/esp-open-sdk/sdk/lib/liblwip.a(tcp_in.o)
 *fill*         0x000000003ffe888d        0x3 
 .data          0x000000003ffe8890        0x8 /home/stoffer/esp8266/esp-open-sdk/sdk/lib/liblwip.a(tcp.o)
 .data          0x000000003ffe8898        0x0 /home/stoffer/esp8266/esp-open-sdk/sdk/lib/liblwip.a(tcp_out.o)
 .data          0x000000003ffe8898        0x0 /home/stoffer/esp8266/esp-open-sdk/sdk/lib/liblwip.a(timers.o)
 .data          0x000000003ffe8898        0x0 /home/stoffer/esp8266/esp-open-sdk/sdk/lib/liblwip.a(udp.o)
 .data          0x000000003ffe8898        0x0 /home/stoffer/esp8266/esp-open-sdk/sdk/lib/liblwip.a(icmp.o)
 .data          0x000000003ffe8898        0x0 /home/stoffer/esp8266/esp-open-sdk/sdk/lib/libwpa.a(ap_config.o)
 .data          0x000000003ffe8898        0x0 /home/stoffer/esp8266/esp-open-sdk/sdk/lib/libwpa.a(common.o)
 .data          0x000000003ffe8898        0x0 /home/stoffer/esp8266/esp-open-sdk/sdk/lib/libwpa.a(os_xtensa.o)
 .data          0x000000003ffe8898        0x0 /home/stoffer/esp8266/esp-open-sdk/sdk/lib/libwpa.a(wpa_auth.o)
 .data          0x000000003ffe8898        0x0 /home/stoffer/esp8266/esp-open-sdk/sdk/lib/libwpa.a(wpa_auth_ie.o)
 .data          0x000000003ffe8898        0x0 /home/stoffer/esp8266/esp-open-sdk/sdk/lib/libwpa.a(wpa.o)
 .data          0x000000003ffe8898        0x0 /home/stoffer/esp8266/esp-open-sdk/sdk/lib/libwpa.a(wpa_common.o)
 .data          0x000000003ffe8898        0x0 /home/stoffer/esp8266/esp-open-sdk/sdk/lib/libwpa.a(wpa_debug.o)
 .data          0x000000003ffe8898        0x0 /home/stoffer/esp8266/esp-open-sdk/sdk/lib/libwpa.a(wpa_ie.o)
 .data          0x000000003ffe8898        0x0 /home/stoffer/esp8266/esp-open-sdk/sdk/lib/libwpa.a(wpa_main.o)
 .data          0x000000003ffe8898        0x0 /home/stoffer/esp8266/esp-open-sdk/sdk/lib/libwpa.a(wpas_glue.o)
 .data          0x000000003ffe8898        0x0 /home/stoffer/esp8266/esp-open-sdk/sdk/lib/libwpa.a(aes-wrap.o)
 .data          0x000000003ffe8898        0x0 /home/stoffer/esp8266/esp-open-sdk/sdk/lib/libwpa.a(aes-internal-enc.o)
 .data          0x000000003ffe8898        0x0 /home/stoffer/esp8266/esp-open-sdk/sdk/lib/libwpa.a(aes-internal.o)
 .data          0x000000003ffe8898        0x0 /home/stoffer/esp8266/esp-open-sdk/xtensa-lx106-elf/bin/../lib/gcc/xtensa-lx106-elf/4.8.2/libgcc.a(_ashrdi3.o)
 .data          0x000000003ffe8898        0x0 /home/stoffer/esp8266/esp-open-sdk/xtensa-lx106-elf/bin/../lib/gcc/xtensa-lx106-elf/4.8.2/libgcc.a(_addsubsf3.o)
 .data          0x000000003ffe8898        0x0 /home/stoffer/esp8266/esp-open-sdk/xtensa-lx106-elf/bin/../lib/gcc/xtensa-lx106-elf/4.8.2/libgcc.a(_mulsf3.o)
 .data          0x000000003ffe8898        0x0 /home/stoffer/esp8266/esp-open-sdk/xtensa-lx106-elf/bin/../lib/gcc/xtensa-lx106-elf/4.8.2/libgcc.a(_divsf3.o)
 .data          0x000000003ffe8898        0x0 /home/stoffer/esp8266/esp-open-sdk/xtensa-lx106-elf/bin/../lib/gcc/xtensa-lx106-elf/4.8.2/libgcc.a(_fixsfsi.o)
 .data          0x000000003ffe8898        0x0 /home/stoffer/esp8266/esp-open-sdk/xtensa-lx106-elf/bin/../lib/gcc/xtensa-lx106-elf/4.8.2/libgcc.a(_fixunssfsi.o)
 .data          0x000000003ffe8898        0x0 /home/stoffer/esp8266/esp-open-sdk/xtensa-lx106-elf/bin/../lib/gcc/xtensa-lx106-elf/4.8.2/libgcc.a(_floatsisf.o)
 .data          0x000000003ffe8898        0x0 /home/stoffer/esp8266/esp-open-sdk/xtensa-lx106-elf/bin/../lib/gcc/xtensa-lx106-elf/4.8.2/libgcc.a(_fixdfsi.o)
 .data          0x000000003ffe8898        0x0 /home/stoffer/esp8266/esp-open-sdk/xtensa-lx106-elf/bin/../lib/gcc/xtensa-lx106-elf/4.8.2/libgcc.a(_truncdfsf2.o)
 .data          0x000000003ffe8898        0x0 /home/stoffer/esp8266/esp-open-sdk/xtensa-lx106-elf/bin/../lib/gcc/xtensa-lx106-elf/4.8.2/libgcc.a(_divdi3.o)
 .data          0x000000003ffe8898        0x0 /home/stoffer/esp8266/esp-open-sdk/sdk/lib/libnet80211.a(ieee80211_crypto_tkip.o)
 .data          0x000000003ffe8898        0x0 /home/stoffer/esp8266/esp-open-sdk/sdk/lib/libnet80211.a(ieee80211_crypto_wep.o)
 *(.data.*)
 *(.gnu.linkonce.d.*)
 *(.data1)
 *(.sdata)
 *(.sdata.*)
 *(.gnu.linkonce.s.*)
 *(.sdata2)
 *(.sdata2.*)
 *(.gnu.linkonce.s2.*)
 *(.jcr)
                0x000000003ffe8898                _data_end = ABSOLUTE (.)

.rodata         0x000000003ffe88a0     0x1608
                0x000000003ffe88a0                _rodata_start = ABSOLUTE (.)
 *(.sdk.version)
 .sdk.version   0x000000003ffe88a0       0x10 /home/stoffer/esp8266/esp-open-sdk/sdk/lib/libmain.a(app_main.o)
                0x000000003ffe88a0                SDK_VERSION
 *(.rodata)
 .rodata        0x000000003ffe88b0       0x48 build/app_app.a(httpd.o)
 .rodata        0x000000003ffe88f8      0x120 build/app_app.a(sha256.o)
 .rodata        0x000000003ffe8a18      0x300 build/app_app.a(aes.o)
 .rodata        0x000000003ffe8d18       0xd4 build/app_app.a(kmp.o)
 .rodata        0x000000003ffe8dec       0x48 build/app_app.a(mqtt.o)
 .rodata        0x000000003ffe8e34       0x10 build/app_app.a(config.o)
 .rodata        0x000000003ffe8e44       0x24 build/app_app.a(heatshrink_decoder.o)
 .rodata        0x000000003ffe8e68      0x200 build/app_app.a(utils.o)
                0x000000003ffe8e68                ccit_crc16_table
 .rodata        0x000000003ffe9068        0x4 /home/stoffer/esp8266/esp-open-sdk/xtensa-lx106-elf/bin/../lib/gcc/xtensa-lx106-elf/4.8.2/../../../../xtensa-lx106-elf/lib/libc.a(lib_a-impure.o)
                0x000000003ffe9068                _global_impure_ptr
 .rodata        0x000000003ffe906c       0x68 /home/stoffer/esp8266/esp-open-sdk/xtensa-lx106-elf/bin/../lib/gcc/xtensa-lx106-elf/4.8.2/../../../../xtensa-lx106-elf/lib/libc.a(lib_a-mktm_r.o)
 .rodata        0x000000003ffe90d4      0x101 /home/stoffer/esp8266/esp-open-sdk/xtensa-lx106-elf/bin/../lib/gcc/xtensa-lx106-elf/4.8.2/../../../../xtensa-lx106-elf/lib/libc.a(lib_a-ctype_.o)
                0x000000003ffe90d4                _ctype_
 *fill*         0x000000003ffe91d5        0x3 
 .rodata        0x000000003ffe91d8        0x8 /home/stoffer/esp8266/esp-open-sdk/sdk/lib/libphy.a(phy_chip_v6_ana.o)
 .rodata        0x000000003ffe91e0        0x8 /home/stoffer/esp8266/esp-open-sdk/sdk/lib/libphy.a(phy_chip_v6.o)
 .rodata        0x000000003ffe91e8        0x4 /home/stoffer/esp8266/esp-open-sdk/sdk/lib/libpp.a(pp.o)
 .rodata        0x000000003ffe91ec        0x8 /home/stoffer/esp8266/esp-open-sdk/sdk/lib/libnet80211.a(ieee80211_hostap.o)
 .rodata        0x000000003ffe91f4        0x9 /home/stoffer/esp8266/esp-open-sdk/sdk/lib/libnet80211.a(ieee80211_output.o)
 *fill*         0x000000003ffe91fd        0x3 
 .rodata        0x000000003ffe9200        0x6 /home/stoffer/esp8266/esp-open-sdk/sdk/lib/liblwip.a(etharp.o)
                0x000000003ffe9200                ethbroadcast
 *fill*         0x000000003ffe9206        0xa 
 .rodata        0x000000003ffe9210       0xc0 /home/stoffer/esp8266/esp-open-sdk/sdk/lib/liblwip.a(sntp.o)
 *(.rodata.*)
 .rodata.str1.4
                0x000000003ffe92d0        0xc /home/stoffer/esp8266/esp-open-sdk/sdk/lib/libmain.a(app_main.o)
 .rodata.str1.4
                0x000000003ffe92dc        0x4 /home/stoffer/esp8266/esp-open-sdk/sdk/lib/libmain.a(ets_timer.o)
                                          0xc (size before relaxing)
 .rodata.str1.4
                0x000000003ffe92e0       0x1a /home/stoffer/esp8266/esp-open-sdk/sdk/lib/libmain.a(mem_manager.o)
 *fill*         0x000000003ffe92fa        0x2 
 .rodata.str1.4
                0x000000003ffe92fc      0x247 build/app_app.a(user_main.o)
                                        0x25b (size before relaxing)
 *fill*         0x000000003ffe9543        0x1 
 .rodata.str1.4
                0x000000003ffe9544       0x11 build/app_app.a(captdns.o)
 *fill*         0x000000003ffe9555        0x3 
 .rodata.str1.4
                0x000000003ffe9558      0x176 build/app_app.a(httpd.o)
                                        0x186 (size before relaxing)
 *fill*         0x000000003ffe96ce        0x2 
 .rodata.str1.4
                0x000000003ffe96d0       0xa2 build/app_app.a(httpd_user_init.o)
                                         0xa6 (size before relaxing)
 *fill*         0x000000003ffe9772        0x2 
 .rodata.str1.4
                0x000000003ffe9774       0x36 build/app_app.a(crypto.o)
                                         0x3a (size before relaxing)
 *fill*         0x000000003ffe97aa        0x2 
 .rodata.str1.4
                0x000000003ffe97ac       0x11 build/app_app.a(sha256.o)
 *fill*         0x000000003ffe97bd        0x3 
 .rodata.str1.4
                0x000000003ffe97c0       0xfb build/app_app.a(kmp_request.o)
                                        0x10b (size before relaxing)
 *fill*         0x000000003ffe98bb        0x1 
 .rodata.str1.4
                0x000000003ffe98bc       0x8c build/app_app.a(kmp.o)
                                         0x9c (size before relaxing)
 .rodata.str1.4
                0x000000003ffe9948       0xb9 build/app_app.a(cron.o)
                                         0xe1 (size before relaxing)
 *fill*         0x000000003ffe9a01        0x3 
 .rodata.str1.4
                0x000000003ffe9a04       0x6c build/app_app.a(ac_out.o)
 .rodata.str1.4
                0x0000000000000000        0x1 build/app_app.a(mqtt.o)
 .rodata.str1.4
                0x000000003ffe9a70        0x7 build/app_app.a(mqtt_msg.o)
 .rodata.str1.4
                0x0000000000000000        0x1 build/app_app.a(queue.o)
 *fill*         0x000000003ffe9a77        0x1 
 .rodata.str1.4
                0x000000003ffe9a78       0x83 build/app_app.a(config.o)
                                         0x87 (size before relaxing)
 *fill*         0x000000003ffe9afb        0x1 
 .rodata.str1.4
                0x000000003ffe9afc       0x4f build/app_app.a(wifi.o)
                                         0x5d (size before relaxing)
 *fill*         0x000000003ffe9b4b        0x1 
 .rodata.str1.4
                0x000000003ffe9b4c       0x20 build/app_app.a(unix_time.o)
                                         0x24 (size before relaxing)
 .rodata.str1.4
                0x000000003ffe9b6c       0x4c build/app_app.a(cgi.o)
                                         0x54 (size before relaxing)
 .rodata.str1.4
                0x000000003ffe9bb8       0x32 build/app_app.a(httpdespfs.o)
                                         0x46 (size before relaxing)
 *fill*         0x000000003ffe9bea        0x2 
 .rodata.str1.4
                0x000000003ffe9bec      0x1cd build/app_app.a(cgiwifi.o)
                                        0x1f1 (size before relaxing)
 .rodata.str1.4
                0x0000000000000000        0x1 build/app_app.a(espfs.o)
 .rodata.str1.4
                0x0000000000000000        0x1 build/app_app.a(heatshrink_decoder.o)
 *fill*         0x000000003ffe9db9        0x3 
 .rodata.str1.4
                0x000000003ffe9dbc        0x8 build/app_app.a(utils.o)
                                          0xb (size before relaxing)
 .rodata.str1.1
                0x000000003ffe9dc4        0x2 /home/stoffer/esp8266/esp-open-sdk/xtensa-lx106-elf/bin/../lib/gcc/xtensa-lx106-elf/4.8.2/../../../../xtensa-lx106-elf/lib/libc.a(lib_a-impure.o)
 .rodata.str1.1
                0x000000003ffe9dc6        0x4 /home/stoffer/esp8266/esp-open-sdk/xtensa-lx106-elf/bin/../lib/gcc/xtensa-lx106-elf/4.8.2/../../../../xtensa-lx106-elf/lib/libc.a(lib_a-tzvars.o)
 *fill*         0x000000003ffe9dca        0x2 
 .rodata.str1.4
                0x000000003ffe9dcc        0x4 /home/stoffer/esp8266/esp-open-sdk/sdk/lib/libpp.a(lmac.o)
                                          0xc (size before relaxing)
 .rodata.str1.4
                0x000000003ffe9dd0        0x4 /home/stoffer/esp8266/esp-open-sdk/sdk/lib/libpp.a(pm_for_bcn_only_mode.o)
                                          0xc (size before relaxing)
 .rodata.str1.4
                0x000000003ffe9dd4        0x8 /home/stoffer/esp8266/esp-open-sdk/sdk/lib/libpp.a(pp.o)
                                         0x10 (size before relaxing)
 .rodata.str1.4
                0x000000003ffe9ddc        0x4 /home/stoffer/esp8266/esp-open-sdk/sdk/lib/libpp.a(wdev.o)
                                          0xc (size before relaxing)
 .rodata.str1.4
                0x000000003ffe9de0        0x3 /home/stoffer/esp8266/esp-open-sdk/sdk/lib/libnet80211.a(ieee80211_hostap.o)
                                          0x8 (size before relaxing)
 *fill*         0x000000003ffe9de3        0x1 
 .rodata.str1.4
                0x000000003ffe9de4        0x7 /home/stoffer/esp8266/esp-open-sdk/sdk/lib/libnet80211.a(ieee80211_mesh_quick.o)
 .rodata.str1.4
                0x0000000000000000        0x4 /home/stoffer/esp8266/esp-open-sdk/sdk/lib/libnet80211.a(ieee80211_sta.o)
 .rodata.str1.4
                0x0000000000000000        0x4 /home/stoffer/esp8266/esp-open-sdk/sdk/lib/libnet80211.a(ieee80211_action_vendor.o)
 .rodata.str1.4
                0x0000000000000000        0x4 /home/stoffer/esp8266/esp-open-sdk/sdk/lib/libnet80211.a(ieee80211_ie_vendor.o)
 .rodata.str1.4
                0x0000000000000000        0x1 /home/stoffer/esp8266/esp-open-sdk/sdk/lib/liblwip.a(espconn_tcp.o)
 *fill*         0x000000003ffe9deb        0x1 
 .rodata.str1.4
                0x000000003ffe9dec       0x20 /home/stoffer/esp8266/esp-open-sdk/sdk/lib/liblwip.a(sntp.o)
 .rodata.str1.4
                0x000000003ffe9e0c        0x8 /home/stoffer/esp8266/esp-open-sdk/sdk/lib/libwpa.a(wpa_debug.o)
                                          0xd (size before relaxing)
 *(.gnu.linkonce.r.*)
 *(.rodata1)
                0x000000003ffe9e14                __XT_EXCEPTION_TABLE__ = ABSOLUTE (.)
 *(.xt_except_table)
 *(.gcc_except_table)
 *(.gnu.linkonce.e.*)
 *(.gnu.version_r)
 *(.eh_frame)
 .eh_frame      0x000000003ffe9e14       0x38 /home/stoffer/esp8266/esp-open-sdk/xtensa-lx106-elf/bin/../lib/gcc/xtensa-lx106-elf/4.8.2/libgcc.a(_udivdi3.o)
 .eh_frame      0x000000003ffe9e4c       0x2c /home/stoffer/esp8266/esp-open-sdk/xtensa-lx106-elf/bin/../lib/gcc/xtensa-lx106-elf/4.8.2/libgcc.a(_umoddi3.o)
                                         0x3c (size before relaxing)
 .eh_frame      0x000000003ffe9e78       0x28 /home/stoffer/esp8266/esp-open-sdk/xtensa-lx106-elf/bin/../lib/gcc/xtensa-lx106-elf/4.8.2/libgcc.a(_divdi3.o)
                                         0x38 (size before relaxing)
 *crtbegin.o(.ctors)
 *(EXCLUDE_FILE(*crtend.o) .ctors)
 *(SORT(.ctors.*))
 *(.ctors)
 *crtbegin.o(.dtors)
 *(EXCLUDE_FILE(*crtend.o) .dtors)
 *(SORT(.dtors.*))
 *(.dtors)
                0x000000003ffe9ea0                __XT_EXCEPTION_DESCS__ = ABSOLUTE (.)
 *(.xt_except_desc)
 *(.gnu.linkonce.h.*)
                0x000000003ffe9ea0                __XT_EXCEPTION_DESCS_END__ = ABSOLUTE (.)
 *(.xt_except_desc_end)
 *(.dynamic)
 *(.gnu.version_d)
                0x000000003ffe9ea0                . = ALIGN (0x4)
                0x000000003ffe9ea0                _bss_table_start = ABSOLUTE (.)
                0x000000003ffe9ea0        0x4 LONG 0x3ffe9ea8 _bss_start
                0x000000003ffe9ea4        0x4 LONG 0x3fff3988 _bss_end
                0x000000003ffe9ea8                _bss_table_end = ABSOLUTE (.)
                0x000000003ffe9ea8                _rodata_end = ABSOLUTE (.)

.bss            0x000000003ffe9ea8     0x9ae0
                0x000000003ffe9ea8                . = ALIGN (0x8)
                0x000000003ffe9ea8                _bss_start = ABSOLUTE (.)
 *(.dynsbss)
 *(.sbss)
 *(.sbss.*)
 *(.gnu.linkonce.sb.*)
 *(.scommon)
 *(.sbss2)
 *(.sbss2.*)
 *(.gnu.linkonce.sb2.*)
 *(.dynbss)
 *(.bss)
 .bss           0x000000003ffe9ea8        0x0 /home/stoffer/esp8266/esp-open-sdk/sdk/lib/libmain.a(debug-vector.o)
 .bss           0x000000003ffe9ea8        0x0 /home/stoffer/esp8266/esp-open-sdk/sdk/lib/libmain.a(double-vector.o)
 .bss           0x000000003ffe9ea8        0x0 /home/stoffer/esp8266/esp-open-sdk/sdk/lib/libmain.a(kernel-vector.o)
 *fill*         0x000000003ffe9ea8        0x8 
 .bss           0x000000003ffe9eb0      0x1c0 /home/stoffer/esp8266/esp-open-sdk/sdk/lib/libmain.a(nmi-vector.o)
 .bss           0x000000003ffea070        0x0 /home/stoffer/esp8266/esp-open-sdk/sdk/lib/libmain.a(user-vector.o)
 .bss           0x000000003ffea070        0x0 /home/stoffer/esp8266/esp-open-sdk/sdk/lib/libmain.a(vector.o)
 .bss           0x000000003ffea070       0x41 /home/stoffer/esp8266/esp-open-sdk/sdk/lib/libmain.a(app_main.o)
                0x000000003ffea074                info
                0x000000003ffea098                lwip_timer_interval
                0x000000003ffea09c                check_timeouts_timer
                0x000000003ffea0b0                user_init_flag
 *fill*         0x000000003ffea0b1        0xf 
 .bss           0x000000003ffea0c0       0x30 /home/stoffer/esp8266/esp-open-sdk/sdk/lib/libmain.a(ets_timer.o)
                0x000000003ffea0c0                dbg_timer_flag
                0x000000003ffea0c4                timer_list
                0x000000003ffea0c8                debug_timer
                0x000000003ffea0cc                debug_timerfn
 .bss           0x000000003ffea0f0       0x3c /home/stoffer/esp8266/esp-open-sdk/sdk/lib/libmain.a(mem_manager.o)
 .bss           0x000000003ffea12c        0x4 /home/stoffer/esp8266/esp-open-sdk/sdk/lib/libmain.a(spi_flash.o)
                0x000000003ffea12c                flash_read
 .bss           0x000000003ffea130      0x242 /home/stoffer/esp8266/esp-open-sdk/sdk/lib/libmain.a(user_interface.o)
                0x000000003ffea227                deep_sleep_flag
                0x000000003ffea228                cpu_overclock
                0x000000003ffea22c                event_cb
                0x000000003ffea230                status_led_output_level
                0x000000003ffea234                done_cb
                0x000000003ffea238                rst_if
                0x000000003ffea254                default_interface
                0x000000003ffea255                OpmodChgIsOnGoing
                0x000000003ffea258                promiscuous_cb
                0x000000003ffea270                event_TaskQueue
 .bss           0x000000003ffea372        0x0 /home/stoffer/esp8266/esp-open-sdk/sdk/lib/libmain.a(eagle_lib.o)
 *fill*         0x000000003ffea372        0x2 
 .bss           0x000000003ffea374        0xc /home/stoffer/esp8266/esp-open-sdk/sdk/lib/libmain.a(eagle_lwip_if.o)
                0x000000003ffea374                hostname
 .bss           0x000000003ffea380        0x0 /home/stoffer/esp8266/esp-open-sdk/xtensa-lx106-elf/bin/../lib/gcc/xtensa-lx106-elf/4.8.2/libgcc.a(_udivsi3.o)
 .bss           0x000000003ffea380        0x0 /home/stoffer/esp8266/esp-open-sdk/xtensa-lx106-elf/bin/../lib/gcc/xtensa-lx106-elf/4.8.2/libgcc.a(_umodsi3.o)
 .bss           0x000000003ffea380        0x0 /home/stoffer/esp8266/esp-open-sdk/xtensa-lx106-elf/bin/../lib/gcc/xtensa-lx106-elf/4.8.2/libgcc.a(_muldi3.o)
 .bss           0x000000003ffea380        0x0 /home/stoffer/esp8266/esp-open-sdk/xtensa-lx106-elf/bin/../lib/gcc/xtensa-lx106-elf/4.8.2/libgcc.a(_umulsidi3.o)
 .bss           0x000000003ffea380       0x54 build/app_app.a(user_main.o)
                0x000000003ffea380                counter
 .bss           0x000000003ffea3d4       0x2c build/app_app.a(captdns.o)
 .bss           0x000000003ffea400       0x14 build/app_app.a(led.o)
 .bss           0x000000003ffea414     0x21f4 build/app_app.a(httpd.o)
 .bss           0x000000003ffec608        0x0 build/app_app.a(httpd_user_init.o)
 .bss           0x000000003ffec608        0x0 build/app_app.a(crypto.o)
 .bss           0x000000003ffec608        0x0 build/app_app.a(hmac-sha256.o)
 .bss           0x000000003ffec608        0x0 build/app_app.a(sha256.o)
 .bss           0x000000003ffec608       0xbc build/app_app.a(aes.o)
 .bss           0x000000003ffec6c4       0x44 build/app_app.a(kmp_request.o)
                0x000000003ffec6c4                kmp_serial
 .bss           0x000000003ffec708        0x0 build/app_app.a(kmp.o)
 .bss           0x000000003ffec708       0x14 build/app_app.a(cron.o)
 .bss           0x000000003ffec71c       0x3c build/app_app.a(ac_out.o)
 .bss           0x000000003ffec758        0x0 build/app_app.a(uart.o)
 .bss           0x000000003ffec758        0x8 build/app_app.a(mqtt.o)
                0x000000003ffec758                default_private_key_len
                0x000000003ffec75c                default_certificate_len
 .bss           0x000000003ffec760        0x0 build/app_app.a(mqtt_msg.o)
 .bss           0x000000003ffec760        0x0 build/app_app.a(queue.o)
 .bss           0x000000003ffec760        0x0 build/app_app.a(mqtt_utils.o)
 .bss           0x000000003ffec760        0x0 build/app_app.a(proto.o)
 .bss           0x000000003ffec760       0x14 build/app_app.a(config.o)
 .bss           0x000000003ffec774       0x20 build/app_app.a(wifi.o)
                0x000000003ffec774                wifi_reconnect
                0x000000003ffec775                wifi_scan_runnning
                0x000000003ffec776                wifi_fallback_last_present
                0x000000003ffec777                wifi_fallback_present
                0x000000003ffec778                wifi_cb
 .bss           0x000000003ffec794        0x8 build/app_app.a(tinyprintf.o)
 .bss           0x000000003ffec79c       0x30 build/app_app.a(unix_time.o)
                0x000000003ffec79c                ntp_offline_second_counter
                0x000000003ffec7a0                init_time
 .bss           0x000000003ffec7cc        0x5 build/app_app.a(cgi.o)
 .bss           0x000000003ffec7d1        0x0 build/app_app.a(httpdespfs.o)
 *fill*         0x000000003ffec7d1        0x3 
 .bss           0x000000003ffec7d4       0x14 build/app_app.a(cgiwifi.o)
 .bss           0x000000003ffec7e8        0x0 build/app_app.a(espfs.o)
 .bss           0x000000003ffec7e8        0x0 build/app_app.a(heatshrink_decoder.o)
 .bss           0x000000003ffec7e8        0x0 build/app_app.a(utils.o)
 .bss           0x000000003ffec7e8        0x0 build/app_app.a(ringbuf.o)
 .bss           0x000000003ffec7e8        0x0 /home/stoffer/esp8266/esp-open-sdk/xtensa-lx106-elf/bin/../lib/gcc/xtensa-lx106-elf/4.8.2/../../../../xtensa-lx106-elf/lib/libc.a(lib_a-atoi.o)
 .bss           0x000000003ffec7e8        0x0 /home/stoffer/esp8266/esp-open-sdk/xtensa-lx106-elf/bin/../lib/gcc/xtensa-lx106-elf/4.8.2/../../../../xtensa-lx106-elf/lib/libc.a(lib_a-gmtime.o)
 .bss           0x000000003ffec7e8        0x0 /home/stoffer/esp8266/esp-open-sdk/xtensa-lx106-elf/bin/../lib/gcc/xtensa-lx106-elf/4.8.2/../../../../xtensa-lx106-elf/lib/libc.a(lib_a-gmtime_r.o)
 .bss           0x000000003ffec7e8        0x0 /home/stoffer/esp8266/esp-open-sdk/xtensa-lx106-elf/bin/../lib/gcc/xtensa-lx106-elf/4.8.2/../../../../xtensa-lx106-elf/lib/libc.a(lib_a-impure.o)
 .bss           0x000000003ffec7e8        0x0 /home/stoffer/esp8266/esp-open-sdk/xtensa-lx106-elf/bin/../lib/gcc/xtensa-lx106-elf/4.8.2/../../../../xtensa-lx106-elf/lib/libc.a(lib_a-memcpy.o)
 .bss           0x000000003ffec7e8        0x0 /home/stoffer/esp8266/esp-open-sdk/xtensa-lx106-elf/bin/../lib/gcc/xtensa-lx106-elf/4.8.2/../../../../xtensa-lx106-elf/lib/libc.a(lib_a-memset.o)
 .bss           0x000000003ffec7e8        0x0 /home/stoffer/esp8266/esp-open-sdk/xtensa-lx106-elf/bin/../lib/gcc/xtensa-lx106-elf/4.8.2/../../../../xtensa-lx106-elf/lib/libc.a(lib_a-mktm_r.o)
 .bss           0x000000003ffec7e8        0x0 /home/stoffer/esp8266/esp-open-sdk/xtensa-lx106-elf/bin/../lib/gcc/xtensa-lx106-elf/4.8.2/../../../../xtensa-lx106-elf/lib/libc.a(lib_a-strcat.o)
 .bss           0x000000003ffec7e8        0x0 /home/stoffer/esp8266/esp-open-sdk/xtensa-lx106-elf/bin/../lib/gcc/xtensa-lx106-elf/4.8.2/../../../../xtensa-lx106-elf/lib/libc.a(lib_a-strlen.o)
 .bss           0x000000003ffec7e8        0x0 /home/stoffer/esp8266/esp-open-sdk/xtensa-lx106-elf/bin/../lib/gcc/xtensa-lx106-elf/4.8.2/../../../../xtensa-lx106-elf/lib/libc.a(lib_a-strtok.o)
 .bss           0x000000003ffec7e8        0x0 /home/stoffer/esp8266/esp-open-sdk/xtensa-lx106-elf/bin/../lib/gcc/xtensa-lx106-elf/4.8.2/../../../../xtensa-lx106-elf/lib/libc.a(lib_a-strtok_r.o)
 .bss           0x000000003ffec7e8        0x0 /home/stoffer/esp8266/esp-open-sdk/xtensa-lx106-elf/bin/../lib/gcc/xtensa-lx106-elf/4.8.2/../../../../xtensa-lx106-elf/lib/libc.a(lib_a-strtol.o)
 .bss           0x000000003ffec7e8        0x0 /home/stoffer/esp8266/esp-open-sdk/xtensa-lx106-elf/bin/../lib/gcc/xtensa-lx106-elf/4.8.2/../../../../xtensa-lx106-elf/lib/libc.a(lib_a-tzlock.o)
 .bss           0x000000003ffec7e8        0x8 /home/stoffer/esp8266/esp-open-sdk/xtensa-lx106-elf/bin/../lib/gcc/xtensa-lx106-elf/4.8.2/../../../../xtensa-lx106-elf/lib/libc.a(lib_a-tzvars.o)
                0x000000003ffec7e8                _timezone
                0x000000003ffec7ec                _daylight
 .bss           0x000000003ffec7f0        0x0 /home/stoffer/esp8266/esp-open-sdk/xtensa-lx106-elf/bin/../lib/gcc/xtensa-lx106-elf/4.8.2/../../../../xtensa-lx106-elf/lib/libc.a(lib_a-ctype_.o)
 .bss           0x000000003ffec7f0        0x0 /home/stoffer/esp8266/esp-open-sdk/xtensa-lx106-elf/bin/../lib/gcc/xtensa-lx106-elf/4.8.2/../../../../xtensa-lx106-elf/lib/libc.a(lib_a-gettzinfo.o)
 .bss           0x000000003ffec7f0        0x0 /home/stoffer/esp8266/esp-open-sdk/xtensa-lx106-elf/bin/../lib/gcc/xtensa-lx106-elf/4.8.2/libgcc.a(_divsi3.o)
 .bss           0x000000003ffec7f0        0x0 /home/stoffer/esp8266/esp-open-sdk/xtensa-lx106-elf/bin/../lib/gcc/xtensa-lx106-elf/4.8.2/libgcc.a(_modsi3.o)
 .bss           0x000000003ffec7f0        0x0 /home/stoffer/esp8266/esp-open-sdk/xtensa-lx106-elf/bin/../lib/gcc/xtensa-lx106-elf/4.8.2/libgcc.a(_muldf3.o)
 .bss           0x000000003ffec7f0        0x0 /home/stoffer/esp8266/esp-open-sdk/xtensa-lx106-elf/bin/../lib/gcc/xtensa-lx106-elf/4.8.2/libgcc.a(_divdf3.o)
 .bss           0x000000003ffec7f0        0x0 /home/stoffer/esp8266/esp-open-sdk/xtensa-lx106-elf/bin/../lib/gcc/xtensa-lx106-elf/4.8.2/libgcc.a(_floatsidf.o)
 .bss           0x000000003ffec7f0        0x0 /home/stoffer/esp8266/esp-open-sdk/xtensa-lx106-elf/bin/../lib/gcc/xtensa-lx106-elf/4.8.2/libgcc.a(_udivdi3.o)
 .bss           0x000000003ffec7f0        0x0 /home/stoffer/esp8266/esp-open-sdk/xtensa-lx106-elf/bin/../lib/gcc/xtensa-lx106-elf/4.8.2/libgcc.a(_umoddi3.o)
 .bss           0x000000003ffec7f0        0x0 /home/stoffer/esp8266/esp-open-sdk/xtensa-lx106-elf/bin/../xtensa-lx106-elf/sysroot/usr/lib/libhal.a(int_asm--set_intclear.o)
 .bss           0x000000003ffec7f0        0x4 /home/stoffer/esp8266/esp-open-sdk/sdk/lib/libphy.a(phy.o)
 .bss           0x000000003ffec7f4        0x2 /home/stoffer/esp8266/esp-open-sdk/sdk/lib/libphy.a(phy_chip_v6_ana.o)
                0x000000003ffec7f4                tout_dis_txpwr_track
                0x000000003ffec7f5                sleep_mode_flag
 *fill*         0x000000003ffec7f6        0x2 
 .bss           0x000000003ffec7f8      0x160 /home/stoffer/esp8266/esp-open-sdk/sdk/lib/libphy.a(phy_chip_v6.o)
                0x000000003ffec7f8                g_phyFuns
                0x000000003ffec7fc                rxiq_compute_num
                0x000000003ffec800                rx_table_renew_en
                0x000000003ffec804                check_result
                0x000000003ffec808                chip6_sleep_params
                0x000000003ffec89c                chip6_phy_init_ctrl
                0x000000003ffec910                phy_freq_offset
                0x000000003ffec912                do_pwctrl_flag
                0x000000003ffec913                pwctrl_debug
                0x000000003ffec914                txbk_dpdby_flag
                0x000000003ffec916                sw_scan_mode
                0x000000003ffec917                rxmax_ext_level
                0x000000003ffec918                phy_rx_gain_dc_table
                0x000000003ffec92c                periodic_cal_dc_num
                0x000000003ffec930                periodic_cal_flag
                0x000000003ffec931                bbpll_cal_flag
                0x000000003ffec932                phy_in_most_power
                0x000000003ffec933                init_rf_no_cal
                0x000000003ffec934                test_print_time
                0x000000003ffec938                phy_rx_gain_dc_flag
                0x000000003ffec939                phy_in_vdd33_offset
                0x000000003ffec93a                phy_set_most_tpw_disbg
                0x000000003ffec93b                phy_set_most_tpw_index
                0x000000003ffec93c                adc_rand_noise
                0x000000003ffec940                dpd_bypass_original
                0x000000003ffec948                noise_array
 .bss           0x000000003ffec958        0x8 /home/stoffer/esp8266/esp-open-sdk/sdk/lib/libphy.a(phy_chip_v6_cal.o)
                0x000000003ffec958                phy_tx_power_out
                0x000000003ffec95a                loop_pwctrl_pwdet_error_accum_high_power
                0x000000003ffec95c                tx_pwctrl_pk_num
                0x000000003ffec95d                tx_pwctrl_track_num
                0x000000003ffec95e                loop_pwctrl_correct_atten_high_power
                0x000000003ffec95f                rxiq_cover_fail_num
 .bss           0x000000003ffec960        0x0 /home/stoffer/esp8266/esp-open-sdk/sdk/lib/libphy.a(phy_chip_v6_unused.o)
 .bss           0x000000003ffec960        0x7 /home/stoffer/esp8266/esp-open-sdk/sdk/lib/libphy.a(phy_sleep.o)
                0x000000003ffec960                periodic_cal_sat
                0x000000003ffec962                lslp_mem_opt_8266
                0x000000003ffec964                software_slp_reject
                0x000000003ffec965                SDIO_slp_reject
                0x000000003ffec966                hardware_reject
 *fill*         0x000000003ffec967        0x9 
 .bss           0x000000003ffec970       0x40 /home/stoffer/esp8266/esp-open-sdk/sdk/lib/libpp.a(if_hwctrl.o)
                0x000000003ffec970                interface_mask
                0x000000003ffec990                if_ctrl
 .bss           0x000000003ffec9b0      0x150 /home/stoffer/esp8266/esp-open-sdk/sdk/lib/libpp.a(lmac.o)
                0x000000003ffec9b4                lmacConfMib
                0x000000003ffec9d8                our_tx_eb
 .bss           0x000000003ffecb00      0x11a /home/stoffer/esp8266/esp-open-sdk/sdk/lib/libpp.a(pm.o)
                0x000000003ffecb00                pmc
                0x000000003ffecbe0                flash_tmp
 *fill*         0x000000003ffecc1a        0x2 
 .bss           0x000000003ffecc1c       0x34 /home/stoffer/esp8266/esp-open-sdk/sdk/lib/libpp.a(pm_for_bcn_only_mode.o)
 .bss           0x000000003ffecc50      0x322 /home/stoffer/esp8266/esp-open-sdk/sdk/lib/libpp.a(pp.o)
                0x000000003ffecc68                pend_flag_noise_check
                0x000000003ffecc70                pend_flag_periodic_cal
                0x000000003ffecc88                idle_timer_reopen_flag
                0x000000003ffecc8a                dbg_stop_sw_wdt
                0x000000003ffecc8b                dbg_stop_hw_wdt
                0x000000003ffecc8d                total_buffed_eb_num
                0x000000003ffecc90                HighestFreqOffsetInOneChk
                0x000000003ffecc92                LowestFreqOffsetInOneChk
                0x000000003ffecc94                DefFreqCalTimer
                0x000000003ffecca8                PktNumInOneChk
                0x000000003ffece30                buffed_eb_arr
 *fill*         0x000000003ffecf72        0xe 
 .bss           0x000000003ffecf80      0x100 /home/stoffer/esp8266/esp-open-sdk/sdk/lib/libpp.a(rate_control.o)
 .bss           0x000000003ffed080      0x46c /home/stoffer/esp8266/esp-open-sdk/sdk/lib/libpp.a(trc.o)
 *fill*         0x000000003ffed4ec        0x4 
 .bss           0x000000003ffed4f0     0x2f88 /home/stoffer/esp8266/esp-open-sdk/sdk/lib/libpp.a(wdev.o)
                0x000000003ffed4f0                wDevCtrl
                0x000000003ffed698                WdevTimOffSet
 *fill*         0x000000003fff0478        0x8 
 .bss           0x000000003fff0480      0xaa4 /home/stoffer/esp8266/esp-open-sdk/sdk/lib/libpp.a(esf_buf.o)
 .bss           0x000000003fff0f24      0x67c /home/stoffer/esp8266/esp-open-sdk/sdk/lib/libnet80211.a(ieee80211.o)
                0x000000003fff0f24                g_ic
 .bss           0x000000003fff15a0        0x0 /home/stoffer/esp8266/esp-open-sdk/sdk/lib/libnet80211.a(ieee80211_crypto.o)
 .bss           0x000000003fff15a0        0x0 /home/stoffer/esp8266/esp-open-sdk/sdk/lib/libnet80211.a(ieee80211_ets.o)
 .bss           0x000000003fff15a0       0x56 /home/stoffer/esp8266/esp-open-sdk/sdk/lib/libnet80211.a(ieee80211_hostap.o)
                0x000000003fff15a0                BcnEb_update
                0x000000003fff15ad                BcnWithMcastSendStart
                0x000000003fff15ae                BcnWithMcastSendCnt
                0x000000003fff15c8                PendFreeBcnEb
                0x000000003fff15cc                ApFreqCalTimer
                0x000000003fff15e0                APRecvBcnStartTick
 .bss           0x000000003fff15f6        0x0 /home/stoffer/esp8266/esp-open-sdk/sdk/lib/libnet80211.a(ieee80211_ht.o)
 .bss           0x000000003fff15f6        0x0 /home/stoffer/esp8266/esp-open-sdk/sdk/lib/libnet80211.a(ieee80211_input.o)
 .bss           0x000000003fff15f6        0x0 /home/stoffer/esp8266/esp-open-sdk/sdk/lib/libnet80211.a(ieee80211_mesh_quick.o)
 .bss           0x000000003fff15f6        0x0 /home/stoffer/esp8266/esp-open-sdk/sdk/lib/libnet80211.a(ieee80211_output.o)
 .bss           0x000000003fff15f6        0x0 /home/stoffer/esp8266/esp-open-sdk/sdk/lib/libnet80211.a(ieee80211_phy.o)
 .bss           0x000000003fff15f6        0x0 /home/stoffer/esp8266/esp-open-sdk/sdk/lib/libnet80211.a(ieee80211_power.o)
 .bss           0x000000003fff15f6        0x0 /home/stoffer/esp8266/esp-open-sdk/sdk/lib/libnet80211.a(ieee80211_proto.o)
 .bss           0x000000003fff15f6        0x0 /home/stoffer/esp8266/esp-open-sdk/sdk/lib/libnet80211.a(ieee80211_rfid.o)
 *fill*         0x000000003fff15f6        0x2 
 .bss           0x000000003fff15f8       0xc8 /home/stoffer/esp8266/esp-open-sdk/sdk/lib/libnet80211.a(ieee80211_scan.o)
                0x000000003fff15f8                gScanStruct
                0x000000003fff16a4                connect_scan_flag
                0x000000003fff16a5                FreqCalCntForScan
                0x000000003fff16a6                TestStaFreqCalValInput
                0x000000003fff16a8                auth_type
                0x000000003fff16aa                scannum
 .bss           0x000000003fff16c0       0x10 /home/stoffer/esp8266/esp-open-sdk/sdk/lib/libnet80211.a(ieee80211_sta.o)
 .bss           0x000000003fff16d0       0x3c /home/stoffer/esp8266/esp-open-sdk/sdk/lib/libnet80211.a(wl_chm.o)
 *fill*         0x000000003fff170c        0x4 
 .bss           0x000000003fff1710      0x37a /home/stoffer/esp8266/esp-open-sdk/sdk/lib/libnet80211.a(wl_cnx.o)
                0x000000003fff1a70                sta_con_timer
                0x000000003fff1a84                g_cnx_probe_rc_list_cb
                0x000000003fff1a88                reconnect_flag
                0x000000003fff1a89                no_ap_found_index
 .bss           0x000000003fff1a8a        0x0 /home/stoffer/esp8266/esp-open-sdk/sdk/lib/libnet80211.a(ieee80211_action.o)
 *fill*         0x000000003fff1a8a        0x2 
 .bss           0x000000003fff1a8c       0x10 /home/stoffer/esp8266/esp-open-sdk/sdk/lib/libnet80211.a(ieee80211_action_vendor.o)
 .bss           0x000000003fff1a9c        0x0 /home/stoffer/esp8266/esp-open-sdk/sdk/lib/libnet80211.a(ieee80211_crypto_ccmp.o)
 .bss           0x000000003fff1a9c        0x0 /home/stoffer/esp8266/esp-open-sdk/sdk/lib/libnet80211.a(ieee80211_ie_vendor.o)
 *fill*         0x000000003fff1a9c        0x4 
 .bss           0x000000003fff1aa0       0x38 /home/stoffer/esp8266/esp-open-sdk/sdk/lib/liblwip.a(dhcp.o)
                0x000000003fff1aa0                dhcp_rx_options_given
                0x000000003fff1ab0                dhcp_rx_options_val
 .bss           0x000000003fff1ad8       0x28 /home/stoffer/esp8266/esp-open-sdk/sdk/lib/liblwip.a(dhcpserver.o)
 .bss           0x000000003fff1b00      0x480 /home/stoffer/esp8266/esp-open-sdk/sdk/lib/liblwip.a(dns.o)
 .bss           0x000000003fff1f80      0x104 /home/stoffer/esp8266/esp-open-sdk/sdk/lib/liblwip.a(espconn.o)
                0x000000003fff1f80                plink_active
                0x000000003fff1f84                pserver_list
                0x000000003fff1f90                premot
                0x000000003fff2050                pktinfo
 *fill*         0x000000003fff2084        0xc 
 .bss           0x000000003fff2090       0x78 /home/stoffer/esp8266/esp-open-sdk/sdk/lib/liblwip.a(espconn_tcp.o)
                0x000000003fff2090                espconn_TaskQueue
 .bss           0x000000003fff2108        0x0 /home/stoffer/esp8266/esp-open-sdk/sdk/lib/liblwip.a(espconn_udp.o)
 *fill*         0x000000003fff2108        0x8 
 .bss           0x000000003fff2110      0x100 /home/stoffer/esp8266/esp-open-sdk/sdk/lib/liblwip.a(etharp.o)
                0x000000003fff2114                ethzero
 .bss           0x000000003fff2210        0xc /home/stoffer/esp8266/esp-open-sdk/sdk/lib/liblwip.a(igmp.o)
 .bss           0x000000003fff221c        0x0 /home/stoffer/esp8266/esp-open-sdk/sdk/lib/liblwip.a(inet_chksum.o)
 .bss           0x000000003fff221c        0x0 /home/stoffer/esp8266/esp-open-sdk/sdk/lib/liblwip.a(init.o)
 *fill*         0x000000003fff221c        0x4 
 .bss           0x000000003fff2220       0x10 /home/stoffer/esp8266/esp-open-sdk/sdk/lib/liblwip.a(ip_addr.o)
 .bss           0x000000003fff2230       0x12 /home/stoffer/esp8266/esp-open-sdk/sdk/lib/liblwip.a(ip.o)
                0x000000003fff2230                current_iphdr_dest
                0x000000003fff2234                current_iphdr_src
                0x000000003fff2238                current_netif
                0x000000003fff223c                current_header
 .bss           0x000000003fff2242        0x0 /home/stoffer/esp8266/esp-open-sdk/sdk/lib/liblwip.a(memp.o)
 *fill*         0x000000003fff2242        0x2 
 .bss           0x000000003fff2244        0x9 /home/stoffer/esp8266/esp-open-sdk/sdk/lib/liblwip.a(netif.o)
                0x000000003fff2244                netif_list
                0x000000003fff2248                netif_default
 .bss           0x000000003fff224d        0x0 /home/stoffer/esp8266/esp-open-sdk/sdk/lib/liblwip.a(pbuf.o)
 *fill*         0x000000003fff224d        0x3 
 .bss           0x000000003fff2250        0x4 /home/stoffer/esp8266/esp-open-sdk/sdk/lib/liblwip.a(raw.o)
 *fill*         0x000000003fff2254        0xc 
 .bss           0x000000003fff2260      0x118 /home/stoffer/esp8266/esp-open-sdk/sdk/lib/liblwip.a(sntp.o)
                0x000000003fff2260                res_buf
                0x000000003fff2284                __tzyear
                0x000000003fff2288                __tznorth
                0x000000003fff228c                realtime_stamp
                0x000000003fff22b0                sntp__tzrule
                0x000000003fff22f0                reult
 .bss           0x000000003fff2378       0x34 /home/stoffer/esp8266/esp-open-sdk/sdk/lib/liblwip.a(tcp_in.o)
                0x000000003fff23a8                tcp_input_pcb
 .bss           0x000000003fff23ac       0x1c /home/stoffer/esp8266/esp-open-sdk/sdk/lib/liblwip.a(tcp.o)
                0x000000003fff23b0                tcp_active_pcbs
                0x000000003fff23b4                tcp_tmp_pcb
                0x000000003fff23b8                tcp_tw_pcbs
                0x000000003fff23bc                tcp_bound_pcbs
                0x000000003fff23c0                tcp_listen_pcbs
                0x000000003fff23c4                tcp_ticks
 .bss           0x000000003fff23c8        0x0 /home/stoffer/esp8266/esp-open-sdk/sdk/lib/liblwip.a(tcp_out.o)
 .bss           0x000000003fff23c8        0xc /home/stoffer/esp8266/esp-open-sdk/sdk/lib/liblwip.a(timers.o)
 .bss           0x000000003fff23d4        0x4 /home/stoffer/esp8266/esp-open-sdk/sdk/lib/liblwip.a(udp.o)
                0x000000003fff23d4                udp_pcbs
 .bss           0x000000003fff23d8        0x0 /home/stoffer/esp8266/esp-open-sdk/sdk/lib/liblwip.a(icmp.o)
 .bss           0x000000003fff23d8        0x0 /home/stoffer/esp8266/esp-open-sdk/sdk/lib/libwpa.a(ap_config.o)
 .bss           0x000000003fff23d8        0x0 /home/stoffer/esp8266/esp-open-sdk/sdk/lib/libwpa.a(common.o)
 .bss           0x000000003fff23d8        0x0 /home/stoffer/esp8266/esp-open-sdk/sdk/lib/libwpa.a(os_xtensa.o)
 .bss           0x000000003fff23d8        0x0 /home/stoffer/esp8266/esp-open-sdk/sdk/lib/libwpa.a(wpa_auth.o)
 .bss           0x000000003fff23d8        0x0 /home/stoffer/esp8266/esp-open-sdk/sdk/lib/libwpa.a(wpa_auth_ie.o)
 *fill*         0x000000003fff23d8        0x8 
 .bss           0x000000003fff23e0      0x26a /home/stoffer/esp8266/esp-open-sdk/sdk/lib/libwpa.a(wpa.o)
 .bss           0x000000003fff264a        0x0 /home/stoffer/esp8266/esp-open-sdk/sdk/lib/libwpa.a(wpa_common.o)
 .bss           0x000000003fff264a        0x0 /home/stoffer/esp8266/esp-open-sdk/sdk/lib/libwpa.a(wpa_debug.o)
 .bss           0x000000003fff264a        0x0 /home/stoffer/esp8266/esp-open-sdk/sdk/lib/libwpa.a(wpa_ie.o)
 .bss           0x000000003fff264a        0x0 /home/stoffer/esp8266/esp-open-sdk/sdk/lib/libwpa.a(wpa_main.o)
 .bss           0x000000003fff264a        0x0 /home/stoffer/esp8266/esp-open-sdk/sdk/lib/libwpa.a(wpas_glue.o)
 .bss           0x000000003fff264a        0x0 /home/stoffer/esp8266/esp-open-sdk/sdk/lib/libwpa.a(aes-wrap.o)
 .bss           0x000000003fff264a        0x0 /home/stoffer/esp8266/esp-open-sdk/sdk/lib/libwpa.a(aes-internal-enc.o)
 .bss           0x000000003fff264a        0x0 /home/stoffer/esp8266/esp-open-sdk/sdk/lib/libwpa.a(aes-internal.o)
 .bss           0x000000003fff264a        0x0 /home/stoffer/esp8266/esp-open-sdk/xtensa-lx106-elf/bin/../lib/gcc/xtensa-lx106-elf/4.8.2/libgcc.a(_ashrdi3.o)
 .bss           0x000000003fff264a        0x0 /home/stoffer/esp8266/esp-open-sdk/xtensa-lx106-elf/bin/../lib/gcc/xtensa-lx106-elf/4.8.2/libgcc.a(_addsubsf3.o)
 .bss           0x000000003fff264a        0x0 /home/stoffer/esp8266/esp-open-sdk/xtensa-lx106-elf/bin/../lib/gcc/xtensa-lx106-elf/4.8.2/libgcc.a(_mulsf3.o)
 .bss           0x000000003fff264a        0x0 /home/stoffer/esp8266/esp-open-sdk/xtensa-lx106-elf/bin/../lib/gcc/xtensa-lx106-elf/4.8.2/libgcc.a(_divsf3.o)
 .bss           0x000000003fff264a        0x0 /home/stoffer/esp8266/esp-open-sdk/xtensa-lx106-elf/bin/../lib/gcc/xtensa-lx106-elf/4.8.2/libgcc.a(_fixsfsi.o)
 .bss           0x000000003fff264a        0x0 /home/stoffer/esp8266/esp-open-sdk/xtensa-lx106-elf/bin/../lib/gcc/xtensa-lx106-elf/4.8.2/libgcc.a(_fixunssfsi.o)
 .bss           0x000000003fff264a        0x0 /home/stoffer/esp8266/esp-open-sdk/xtensa-lx106-elf/bin/../lib/gcc/xtensa-lx106-elf/4.8.2/libgcc.a(_floatsisf.o)
 .bss           0x000000003fff264a        0x0 /home/stoffer/esp8266/esp-open-sdk/xtensa-lx106-elf/bin/../lib/gcc/xtensa-lx106-elf/4.8.2/libgcc.a(_fixdfsi.o)
 .bss           0x000000003fff264a        0x0 /home/stoffer/esp8266/esp-open-sdk/xtensa-lx106-elf/bin/../lib/gcc/xtensa-lx106-elf/4.8.2/libgcc.a(_truncdfsf2.o)
 .bss           0x000000003fff264a        0x0 /home/stoffer/esp8266/esp-open-sdk/xtensa-lx106-elf/bin/../lib/gcc/xtensa-lx106-elf/4.8.2/libgcc.a(_divdi3.o)
 *fill*         0x000000003fff264a        0x6 
 .bss           0x000000003fff2650        0x8 /home/stoffer/esp8266/esp-open-sdk/sdk/lib/libnet80211.a(ieee80211_crypto_tkip.o)
 .bss           0x000000003fff2658        0x0 /home/stoffer/esp8266/esp-open-sdk/sdk/lib/libnet80211.a(ieee80211_crypto_wep.o)
 *(.bss.*)
 *(.gnu.linkonce.b.*)
 *(COMMON)
 COMMON         0x000000003fff2658      0x2d4 build/app_app.a(user_main.o)
                0x000000003fff2658                mqttClient
                0x000000003fff2728                rtc_info
                0x000000003fff272c                kmp_received_task_queue
 COMMON         0x000000003fff292c       0x40 build/app_app.a(crypto.o)
                0x000000003fff292c                hmac_sha256_key
                0x000000003fff293c                aes_key
                0x000000003fff294c                sha256_hash
 COMMON         0x000000003fff296c      0x58c build/app_app.a(kmp_request.o)
                0x000000003fff296c                response
                0x000000003fff29d8                fifo_buffer
                0x000000003fff2ad8                frame_length
                0x000000003fff2adc                fifo_head
                0x000000003fff2ae0                kmp_requests_sent
                0x000000003fff2ae4                fifo_tail
                0x000000003fff2ae8                register_list
                0x000000003fff2af8                frame
 COMMON         0x000000003fff2ef8       0x10 build/app_app.a(kmp.o)
                0x000000003fff2ef8                kmp_response
                0x000000003fff2efc                kmp_data_length
                0x000000003fff2f00                kmp_frame_length
                0x000000003fff2f04                kmp_frame
 COMMON         0x000000003fff2f08        0x1 build/app_app.a(cron.o)
                0x000000003fff2f08                sec_drift
 *fill*         0x000000003fff2f09        0x3 
 COMMON         0x000000003fff2f0c        0x4 build/app_app.a(ac_out.o)
                0x000000003fff2f0c                ac_pwm_duty_cycle
 COMMON         0x000000003fff2f10       0x10 build/app_app.a(mqtt.o)
                0x000000003fff2f10                default_private_key
                0x000000003fff2f14                default_certificate
                0x000000003fff2f18                mqtt_procTaskQueue
 COMMON         0x000000003fff2f20      0xa40 build/app_app.a(config.o)
                0x000000003fff2f20                sys_cfg
                0x000000003fff3958                config_save_timer_running
                0x000000003fff395c                saveFlag
 COMMON         0x000000003fff3960        0x8 build/app_app.a(wifi.o)
                0x000000003fff3960                config_ssid
                0x000000003fff3964                config_pass
 COMMON         0x000000003fff3968       0x10 build/app_app.a(unix_time.o)
                0x000000003fff3968                current_unix_time
                0x000000003fff3970                boot_time
 COMMON         0x000000003fff3978        0xc build/app_app.a(cgiwifi.o)
                0x000000003fff3978                cgiWifiAps
                0x000000003fff3988                . = ALIGN (0x8)
 *fill*         0x000000003fff3984        0x4 
                0x000000003fff3988                _bss_end = ABSOLUTE (.)
                0x000000003fff3988                _heap_start = ABSOLUTE (.)

.text           0x0000000040100000     0x7e64
                0x0000000040100000                _stext = .
                0x0000000040100000                _text_start = ABSOLUTE (.)
 *(.UserEnter.text)
 .UserEnter.text
                0x0000000040100000        0xd /home/stoffer/esp8266/esp-open-sdk/sdk/lib/libmain.a(vector.o)
                                         0x14 (size before relaxing)
                0x0000000040100004                call_user_start
                0x0000000040100010                . = ALIGN (0x10)
 *fill*         0x000000004010000d        0x3 
 *(.DebugExceptionVector.text)
 .DebugExceptionVector.text
                0x0000000040100010        0x6 /home/stoffer/esp8266/esp-open-sdk/sdk/lib/libmain.a(debug-vector.o)
                0x0000000040100010                _DebugExceptionVector
                0x0000000040100020                . = ALIGN (0x10)
 *fill*         0x0000000040100016        0xa 
 *(.NMIExceptionVector.text)
 .NMIExceptionVector.text
                0x0000000040100020        0x6 /home/stoffer/esp8266/esp-open-sdk/sdk/lib/libmain.a(nmi-vector.o)
                                          0xd (size before relaxing)
                0x0000000040100020                _NMIExceptionVector
                0x0000000040100030                . = ALIGN (0x10)
 *fill*         0x0000000040100026        0xa 
 *(.KernelExceptionVector.text)
 .KernelExceptionVector.text
                0x0000000040100030        0x6 /home/stoffer/esp8266/esp-open-sdk/sdk/lib/libmain.a(kernel-vector.o)
                0x0000000040100030                _KernelExceptionVector
                0x0000000040100036        0x4 LONG 0x0
                0x000000004010003a        0x4 LONG 0x0
                0x000000004010003e        0x4 LONG 0x0
                0x0000000040100042        0x4 LONG 0x0
                0x0000000040100050                . = ALIGN (0x10)
 *fill*         0x0000000040100046        0xa 
 *(.UserExceptionVector.text)
 .UserExceptionVector.text
                0x0000000040100050        0x6 /home/stoffer/esp8266/esp-open-sdk/sdk/lib/libmain.a(user-vector.o)
                                          0xd (size before relaxing)
                0x0000000040100050                _UserExceptionVector
                0x0000000040100056        0x4 LONG 0x0
                0x000000004010005a        0x4 LONG 0x0
                0x000000004010005e        0x4 LONG 0x0
                0x0000000040100062        0x4 LONG 0x0
                0x0000000040100070                . = ALIGN (0x10)
 *fill*         0x0000000040100066        0xa 
 *(.DoubleExceptionVector.text)
 .DoubleExceptionVector.text
                0x0000000040100070        0x6 /home/stoffer/esp8266/esp-open-sdk/sdk/lib/libmain.a(double-vector.o)
                0x0000000040100070                _DoubleExceptionVector
                0x0000000040100076        0x4 LONG 0x0
                0x000000004010007a        0x4 LONG 0x0
                0x000000004010007e        0x4 LONG 0x0
                0x0000000040100082        0x4 LONG 0x0
                0x0000000040100090                . = ALIGN (0x10)
 *fill*         0x0000000040100086        0xa 
 *(.entry.text)
 *(.init.literal)
 *(.init)
 *(.literal .text .literal.* .text.* .stub .gnu.warning .gnu.linkonce.literal.* .gnu.linkonce.t.*.literal .gnu.linkonce.t.*)
 .text          0x0000000040100090       0xc7 /home/stoffer/esp8266/esp-open-sdk/sdk/lib/libmain.a(nmi-vector.o)
                                         0xcb (size before relaxing)
                0x000000004010009c                _NMILevelVector
 *fill*         0x0000000040100157        0x1 
 .text          0x0000000040100158       0x1e /home/stoffer/esp8266/esp-open-sdk/sdk/lib/libmain.a(user-vector.o)
                0x000000004010015c                _UserExceptionVector_1
 *fill*         0x0000000040100176        0x2 
 .text          0x0000000040100178      0x5b2 /home/stoffer/esp8266/esp-open-sdk/sdk/lib/libmain.a(app_main.o)
                                        0x616 (size before relaxing)
                0x00000000401001b0                Cache_Read_Enable_New
                0x00000000401001ec                NmiTimSetFunc
                0x0000000040100210                NMI_Handler
                0x0000000040100268                call_user_start_local
                0x00000000401003c8                wdt_feed
 *fill*         0x000000004010072a        0x2 
 .text          0x000000004010072c      0x3cc /home/stoffer/esp8266/esp-open-sdk/sdk/lib/libmain.a(ets_timer.o)
                                        0x450 (size before relaxing)
                0x0000000040100800                ets_timer_setfn
                0x00000000401008dc                ets_timer_disarm
                0x000000004010098c                ets_timer_arm_new
 .text          0x0000000040100af8      0x30f /home/stoffer/esp8266/esp-open-sdk/sdk/lib/libmain.a(mem_manager.o)
                                        0x367 (size before relaxing)
                0x0000000040100afc                prvInsertBlockIntoUsedList
                0x0000000040100b2c                system_show_malloc
                0x0000000040100b2c                pvShowMalloc
                0x0000000040100bb8                prvRemoveBlockFromUsedList
                0x0000000040100be4                xPortWantedSizeAlign
                0x0000000040100c0c                pvPortMalloc
                0x0000000040100cd4                vPortFree
                0x0000000040100d2c                pvPortCalloc
                0x0000000040100d5c                pvPortZalloc
                0x0000000040100d78                pvPortRealloc
 *fill*         0x0000000040100e07        0x1 
 .text          0x0000000040100e08      0x269 /home/stoffer/esp8266/esp-open-sdk/sdk/lib/libmain.a(spi_flash.o)
                                        0x2b5 (size before relaxing)
                0x0000000040100e0c                Cache_Read_Disable_2
                0x0000000040100e4c                Cache_Read_Enable_2
                0x0000000040100e84                spi_flash_get_id
                0x0000000040100ee0                spi_flash_read_status
                0x0000000040100f14                spi_flash_write_status
                0x0000000040100f94                spi_flash_erase_sector
                0x0000000040100fc8                spi_flash_write
                0x000000004010101c                spi_flash_read
 *fill*         0x0000000040101071        0x3 
 .text          0x0000000040101074      0x2ee /home/stoffer/esp8266/esp-open-sdk/sdk/lib/libmain.a(user_interface.o)
                                        0x34a (size before relaxing)
                0x0000000040101090                os_printf_plus
                0x00000000401011bc                system_restart_core
                0x00000000401011f4                system_deep_sleep_local_2
                0x0000000040101268                system_get_time
                0x0000000040101280                system_os_post
                0x00000000401012b4                system_rtc_mem_write
                0x000000004010130c                system_rtc_mem_read
 *fill*         0x0000000040101362        0x2 
 .literal       0x0000000040101364        0x0 /home/stoffer/esp8266/esp-open-sdk/xtensa-lx106-elf/bin/../lib/gcc/xtensa-lx106-elf/4.8.2/libgcc.a(_muldi3.o)
                                          0x4 (size before relaxing)
 .literal       0x0000000040101364        0x0 /home/stoffer/esp8266/esp-open-sdk/xtensa-lx106-elf/bin/../lib/gcc/xtensa-lx106-elf/4.8.2/../../../../xtensa-lx106-elf/lib/libc.a(lib_a-atoi.o)
                                          0x8 (size before relaxing)
 .literal       0x0000000040101364        0x4 /home/stoffer/esp8266/esp-open-sdk/xtensa-lx106-elf/bin/../lib/gcc/xtensa-lx106-elf/4.8.2/../../../../xtensa-lx106-elf/lib/libc.a(lib_a-gmtime.o)
                                          0x8 (size before relaxing)
 .literal       0x0000000040101368        0x0 /home/stoffer/esp8266/esp-open-sdk/xtensa-lx106-elf/bin/../lib/gcc/xtensa-lx106-elf/4.8.2/../../../../xtensa-lx106-elf/lib/libc.a(lib_a-gmtime_r.o)
                                          0x4 (size before relaxing)
 .literal       0x0000000040101368       0x18 /home/stoffer/esp8266/esp-open-sdk/xtensa-lx106-elf/bin/../lib/gcc/xtensa-lx106-elf/4.8.2/../../../../xtensa-lx106-elf/lib/libc.a(lib_a-mktm_r.o)
                                         0x88 (size before relaxing)
 .literal       0x0000000040101380        0x8 /home/stoffer/esp8266/esp-open-sdk/xtensa-lx106-elf/bin/../lib/gcc/xtensa-lx106-elf/4.8.2/../../../../xtensa-lx106-elf/lib/libc.a(lib_a-strlen.o)
                                          0xc (size before relaxing)
 .literal       0x0000000040101388        0x0 /home/stoffer/esp8266/esp-open-sdk/xtensa-lx106-elf/bin/../lib/gcc/xtensa-lx106-elf/4.8.2/../../../../xtensa-lx106-elf/lib/libc.a(lib_a-strtok.o)
                                          0x8 (size before relaxing)
 .literal       0x0000000040101388        0xc /home/stoffer/esp8266/esp-open-sdk/xtensa-lx106-elf/bin/../lib/gcc/xtensa-lx106-elf/4.8.2/../../../../xtensa-lx106-elf/lib/libc.a(lib_a-strtol.o)
                                         0x18 (size before relaxing)
 .literal       0x0000000040101394        0x4 /home/stoffer/esp8266/esp-open-sdk/xtensa-lx106-elf/bin/../lib/gcc/xtensa-lx106-elf/4.8.2/../../../../xtensa-lx106-elf/lib/libc.a(lib_a-gettzinfo.o)
 .literal       0x0000000040101398        0x8 /home/stoffer/esp8266/esp-open-sdk/xtensa-lx106-elf/bin/../lib/gcc/xtensa-lx106-elf/4.8.2/libgcc.a(_muldf3.o)
                                         0x10 (size before relaxing)
 .literal       0x00000000401013a0        0x0 /home/stoffer/esp8266/esp-open-sdk/xtensa-lx106-elf/bin/../lib/gcc/xtensa-lx106-elf/4.8.2/libgcc.a(_divdf3.o)
                                         0x10 (size before relaxing)
 .literal       0x00000000401013a0        0x0 /home/stoffer/esp8266/esp-open-sdk/xtensa-lx106-elf/bin/../lib/gcc/xtensa-lx106-elf/4.8.2/libgcc.a(_udivdi3.o)
                                         0x48 (size before relaxing)
 .literal       0x00000000401013a0        0x0 /home/stoffer/esp8266/esp-open-sdk/xtensa-lx106-elf/bin/../lib/gcc/xtensa-lx106-elf/4.8.2/libgcc.a(_umoddi3.o)
                                         0x40 (size before relaxing)
 .literal       0x00000000401013a0        0x4 /home/stoffer/esp8266/esp-open-sdk/xtensa-lx106-elf/bin/../lib/gcc/xtensa-lx106-elf/4.8.2/libgcc.a(_addsubsf3.o)
                                          0xc (size before relaxing)
 .literal       0x00000000401013a4        0x0 /home/stoffer/esp8266/esp-open-sdk/xtensa-lx106-elf/bin/../lib/gcc/xtensa-lx106-elf/4.8.2/libgcc.a(_mulsf3.o)
                                         0x10 (size before relaxing)
 .literal       0x00000000401013a4        0x0 /home/stoffer/esp8266/esp-open-sdk/xtensa-lx106-elf/bin/../lib/gcc/xtensa-lx106-elf/4.8.2/libgcc.a(_divsf3.o)
                                         0x10 (size before relaxing)
 .literal       0x00000000401013a4        0x0 /home/stoffer/esp8266/esp-open-sdk/xtensa-lx106-elf/bin/../lib/gcc/xtensa-lx106-elf/4.8.2/libgcc.a(_fixsfsi.o)
                                          0x4 (size before relaxing)
 .literal       0x00000000401013a4        0x0 /home/stoffer/esp8266/esp-open-sdk/xtensa-lx106-elf/bin/../lib/gcc/xtensa-lx106-elf/4.8.2/libgcc.a(_fixunssfsi.o)
                                          0x4 (size before relaxing)
 .literal       0x00000000401013a4        0x0 /home/stoffer/esp8266/esp-open-sdk/xtensa-lx106-elf/bin/../lib/gcc/xtensa-lx106-elf/4.8.2/libgcc.a(_fixdfsi.o)
                                          0x4 (size before relaxing)
 .literal       0x00000000401013a4        0x4 /home/stoffer/esp8266/esp-open-sdk/xtensa-lx106-elf/bin/../lib/gcc/xtensa-lx106-elf/4.8.2/libgcc.a(_truncdfsf2.o)
                                          0x8 (size before relaxing)
 .literal       0x00000000401013a8        0x0 /home/stoffer/esp8266/esp-open-sdk/xtensa-lx106-elf/bin/../lib/gcc/xtensa-lx106-elf/4.8.2/libgcc.a(_divdi3.o)
                                         0x48 (size before relaxing)
 .text          0x00000000401013a8       0x36 /home/stoffer/esp8266/esp-open-sdk/xtensa-lx106-elf/bin/../lib/gcc/xtensa-lx106-elf/4.8.2/libgcc.a(_muldi3.o)
                0x00000000401013a8                __muldi3
 *fill*         0x00000000401013de        0x2 
 .text          0x00000000401013e0       0x5b build/app_app.a(httpd_user_init.o)
                                         0x5f (size before relaxing)
                0x00000000401013ec                myPassFn
                0x0000000040101424                httpd_user_init
 *fill*         0x000000004010143b        0x1 
 .text          0x000000004010143c       0xeb build/app_app.a(kmp_request.o)
                                        0x10b (size before relaxing)
                0x0000000040101444                kmp_fifo_in_use
                0x0000000040101460                kmp_fifo_put
                0x00000000401014ac                kmp_fifo_get
                0x00000000401014f4                kmp_fifo_snoop
 *fill*         0x0000000040101527        0x1 
 .text          0x0000000040101528      0x15d build/app_app.a(uart.o)
                                        0x175 (size before relaxing)
                0x0000000040101654                uart_tx_one_char
 *fill*         0x0000000040101685        0x3 
 .text          0x0000000040101688       0x85 build/app_app.a(wifi.o)
                                         0x8d (size before relaxing)
                0x00000000401016a4                wifi_handle_event_cb
 *fill*         0x000000004010170d        0x3 
 .text          0x0000000040101710      0x434 build/app_app.a(heatshrink_decoder.o)
                                        0x44c (size before relaxing)
                0x00000000401017ac                heatshrink_decoder_free
                0x00000000401017c4                heatshrink_decoder_reset
                0x0000000040101810                heatshrink_decoder_alloc
                0x0000000040101884                heatshrink_decoder_sink
                0x00000000401018fc                heatshrink_decoder_poll
                0x0000000040101b18                heatshrink_decoder_finish
 .text          0x0000000040101b44       0x27 /home/stoffer/esp8266/esp-open-sdk/xtensa-lx106-elf/bin/../lib/gcc/xtensa-lx106-elf/4.8.2/../../../../xtensa-lx106-elf/lib/libc.a(lib_a-atoi.o)
                                         0x2f (size before relaxing)
                0x0000000040101b44                atoi
                0x0000000040101b58                _atoi_r
 *fill*         0x0000000040101b6b        0x1 
 .text          0x0000000040101b6c       0x17 /home/stoffer/esp8266/esp-open-sdk/xtensa-lx106-elf/bin/../lib/gcc/xtensa-lx106-elf/4.8.2/../../../../xtensa-lx106-elf/lib/libc.a(lib_a-gmtime.o)
                                         0x1b (size before relaxing)
                0x0000000040101b6c                gmtime
 *fill*         0x0000000040101b83        0x1 
 .text          0x0000000040101b84       0x14 /home/stoffer/esp8266/esp-open-sdk/xtensa-lx106-elf/bin/../lib/gcc/xtensa-lx106-elf/4.8.2/../../../../xtensa-lx106-elf/lib/libc.a(lib_a-gmtime_r.o)
                0x0000000040101b84                gmtime_r
 .text          0x0000000040101b98      0x45b /home/stoffer/esp8266/esp-open-sdk/xtensa-lx106-elf/bin/../lib/gcc/xtensa-lx106-elf/4.8.2/../../../../xtensa-lx106-elf/lib/libc.a(lib_a-mktm_r.o)
                                        0x49f (size before relaxing)
                0x0000000040101b98                __tzcalc_limits
                0x0000000040101d10                _mktm_r
 *fill*         0x0000000040101ff3        0x1 
 .text          0x0000000040101ff4       0x5b /home/stoffer/esp8266/esp-open-sdk/xtensa-lx106-elf/bin/../lib/gcc/xtensa-lx106-elf/4.8.2/../../../../xtensa-lx106-elf/lib/libc.a(lib_a-strlen.o)
                0x0000000040101ff4                strlen
 *fill*         0x000000004010204f        0x1 
 .text          0x0000000040102050       0x1c /home/stoffer/esp8266/esp-open-sdk/xtensa-lx106-elf/bin/../lib/gcc/xtensa-lx106-elf/4.8.2/../../../../xtensa-lx106-elf/lib/libc.a(lib_a-strtok.o)
                0x0000000040102050                strtok
 .text          0x000000004010206c      0x15b /home/stoffer/esp8266/esp-open-sdk/xtensa-lx106-elf/bin/../lib/gcc/xtensa-lx106-elf/4.8.2/../../../../xtensa-lx106-elf/lib/libc.a(lib_a-strtol.o)
                                        0x15f (size before relaxing)
                0x000000004010206c                _strtol_r
                0x00000000401021a8                strtol
 *fill*         0x00000000401021c7        0x1 
 .text          0x00000000401021c8        0x5 /home/stoffer/esp8266/esp-open-sdk/xtensa-lx106-elf/bin/../lib/gcc/xtensa-lx106-elf/4.8.2/../../../../xtensa-lx106-elf/lib/libc.a(lib_a-gettzinfo.o)
                0x00000000401021c8                __gettzinfo
 *fill*         0x00000000401021cd        0x3 
 .text          0x00000000401021d0      0x29b /home/stoffer/esp8266/esp-open-sdk/xtensa-lx106-elf/bin/../lib/gcc/xtensa-lx106-elf/4.8.2/libgcc.a(_muldf3.o)
                0x00000000401022b0                __muldf3
 *fill*         0x000000004010246b        0x1 
 .text          0x000000004010246c      0x20b /home/stoffer/esp8266/esp-open-sdk/xtensa-lx106-elf/bin/../lib/gcc/xtensa-lx106-elf/4.8.2/libgcc.a(_divdf3.o)
                0x0000000040102554                __divdf3
 *fill*         0x0000000040102677        0x1 
 .text          0x0000000040102678      0x38d /home/stoffer/esp8266/esp-open-sdk/xtensa-lx106-elf/bin/../lib/gcc/xtensa-lx106-elf/4.8.2/libgcc.a(_udivdi3.o)
                                        0x3b5 (size before relaxing)
                0x0000000040102678                __udivdi3
 *fill*         0x0000000040102a05        0x3 
 .text          0x0000000040102a08      0x33a /home/stoffer/esp8266/esp-open-sdk/xtensa-lx106-elf/bin/../lib/gcc/xtensa-lx106-elf/4.8.2/libgcc.a(_umoddi3.o)
                                        0x366 (size before relaxing)
                0x0000000040102a08                __umoddi3
 *fill*         0x0000000040102d42        0x2 
 .text          0x0000000040102d44       0x53 /home/stoffer/esp8266/esp-open-sdk/sdk/lib/libphy.a(phy.o)
                                         0x5f (size before relaxing)
                0x0000000040102d4c                register_phy_ops
                0x0000000040102d6c                register_get_phy_addr
                0x0000000040102d74                phy_change_channel
                0x0000000040102d8c                phy_get_mactime
 *fill*         0x0000000040102d97        0x1 
 .text          0x0000000040102d98       0xaa /home/stoffer/esp8266/esp-open-sdk/sdk/lib/libphy.a(phy_chip_v6_cal.o)
                                         0xb2 (size before relaxing)
                0x0000000040102d98                unsign_to_sign
                0x0000000040102dd0                phy_get_bb_freqoffset
                0x0000000040102e34                phy_get_bb_evm
 *fill*         0x0000000040102e42        0x2 
 .text          0x0000000040102e44       0xeb /home/stoffer/esp8266/esp-open-sdk/sdk/lib/libphy.a(phy_sleep.o)
                                        0x103 (size before relaxing)
                0x0000000040102e4c                pm_rtc_clock_cali
                0x0000000040102f04                clockgate_watchdog
 *fill*         0x0000000040102f2f        0x1 
 .text          0x0000000040102f30     0x1606 /home/stoffer/esp8266/esp-open-sdk/sdk/lib/libpp.a(lmac.o)
                                       0x1962 (size before relaxing)
                0x0000000040102f34                lmacIsActive
                0x0000000040102f48                lmacIsIdle
                0x00000000401033cc                lmacSetAcParam
                0x0000000040103420                lmacProcessTXStartData
                0x00000000401035a0                lmacProcessTxSuccess
                0x00000000401036e4                GetAccess
                0x00000000401036f0                lmacDiscardAgedMSDU
                0x0000000040103704                lmacRecycleMPDU
                0x0000000040103cc8                lmacProcessTxTimeout
                0x0000000040103d30                lmacProcessAllTxTimeout
                0x0000000040103d44                lmacProcessCollisions
                0x0000000040103da4                lmacProcessCollision
                0x0000000040103e28                lmacMSDUAged
                0x00000000401041b8                lmacProcessCtsTimeout
                0x00000000401041f0                lmacProcessAckTimeout
                0x0000000040104248                lmacProcessRtsStart
                0x0000000040104254                lmacProcessTxRtsError
                0x00000000401042f4                lmacProcessTxError
                0x0000000040104384                lmacTxFrame
                0x0000000040104520                lmacRxDone
 *fill*         0x0000000040104536        0x2 
 .text          0x0000000040104538      0x8e1 /home/stoffer/esp8266/esp-open-sdk/sdk/lib/libpp.a(pp.o)
                                        0x9fd (size before relaxing)
                0x000000004010456c                pp_soft_wdt_feed_local
                0x0000000040104600                ppProcessTxQ
                0x0000000040104674                ppFetchTxQFirstAvail
                0x00000000401046b4                ppDequeueTxQ
                0x00000000401046dc                ppRollBackTxQ
                0x0000000040104700                ppRecordBarRRC
                0x0000000040104710                ppTxqUpdateBitmap
                0x0000000040104738                ppEnqueueTxDone
                0x000000004010476c                ppEnqueueRxq
                0x0000000040104c54                ppDiscardMPDU
                0x0000000040104c78                pp_post
                0x0000000040104d04                pp_post2
                0x0000000040104d2c                ppCalTxop
                0x0000000040104dac                ppCalFrameTimes
 *fill*         0x0000000040104e19        0x3 
 .text          0x0000000040104e1c       0xf5 /home/stoffer/esp8266/esp-open-sdk/sdk/lib/libpp.a(rate_control.o)
                                        0x109 (size before relaxing)
                0x0000000040104e3c                RC_GetAckRate
                0x0000000040104e48                RC_GetRtsRate
                0x0000000040104e58                RC_GetAckTime
                0x0000000040104e6c                RC_GetCtsTime
                0x0000000040104ea4                RC_GetBlockAckTime
 *fill*         0x0000000040104f11        0x3 
 .text          0x0000000040104f14      0x9a1 /home/stoffer/esp8266/esp-open-sdk/sdk/lib/libpp.a(trc.o)
                                        0xa05 (size before relaxing)
                0x00000000401050e8                rcUpdateTxDone
                0x000000004010517c                rcUpdateRxDone
                0x00000000401051d8                rcUpdateDataRxDone
                0x00000000401051f4                rcGetSched
                0x00000000401052d8                rcGetRate
                0x00000000401057e8                rcReachRetryLimit
                0x0000000040105800                trc_NeedRTS
 *fill*         0x00000000401058b5        0x3 
 .text          0x00000000401058b8     0x105f /home/stoffer/esp8266/esp-open-sdk/sdk/lib/libpp.a(wdev.o)
                                       0x1347 (size before relaxing)
                0x0000000040105c5c                wDev_MacTim1SetFunc
                0x0000000040105c7c                wDev_MacTim1Arm
                0x0000000040105d10                wDev_ProcessFiq
                0x0000000040106054                wDev_EnableTransmit
                0x000000004010608c                wDev_DisableTransmit
                0x00000000401060ac                Tx_Copy2Queue
                0x00000000401060f4                wDev_ProcessCollision
                0x0000000040106118                wDev_GetTxqCollisions
                0x0000000040106128                wDev_ClearTxqCollisions
                0x0000000040106144                wDev_SetWaitingQueue
                0x000000004010618c                wDev_ClearWaitingQueue
                0x00000000401061b0                wDev_SetFrameAckType
                0x0000000040106214                wDev_AppendRxBlocks
                0x0000000040106358                wDev_AppendRxAmpduLensBlocks
                0x000000004010642c                wDev_GetBAInfo
                0x0000000040106460                wDevDisableRx
 *fill*         0x0000000040106917        0x1 
 .text          0x0000000040106918       0x4c /home/stoffer/esp8266/esp-open-sdk/sdk/lib/libpp.a(esf_buf.o)
                                         0x5c (size before relaxing)
                0x000000004010691c                esf_rx_buf_alloc
 .text          0x0000000040106964       0x23 /home/stoffer/esp8266/esp-open-sdk/sdk/lib/libnet80211.a(ieee80211_output.o)
                                         0x27 (size before relaxing)
 *fill*         0x0000000040106987        0x1 
 .text          0x0000000040106988        0xb /home/stoffer/esp8266/esp-open-sdk/sdk/lib/libnet80211.a(wl_chm.o)
                0x000000004010698c                chm_get_current_channel
 *fill*         0x0000000040106993        0x1 
 .text          0x0000000040106994       0x43 /home/stoffer/esp8266/esp-open-sdk/sdk/lib/liblwip.a(etharp.o)
                                         0x47 (size before relaxing)
 *fill*         0x00000000401069d7        0x1 
 .text          0x00000000401069d8       0xd6 /home/stoffer/esp8266/esp-open-sdk/sdk/lib/liblwip.a(sntp.o)
                                         0xde (size before relaxing)
                0x00000000401069e0                sntp_get_current_timestamp
                0x0000000040106a08                sntp_get_real_time
 *fill*         0x0000000040106aae        0x2 
 .text          0x0000000040106ab0      0x1fd /home/stoffer/esp8266/esp-open-sdk/sdk/lib/liblwip.a(tcp.o)
                                        0x229 (size before relaxing)
 *fill*         0x0000000040106cad        0x3 
 .text          0x0000000040106cb0      0x159 /home/stoffer/esp8266/esp-open-sdk/sdk/lib/liblwip.a(tcp_out.o)
                                        0x161 (size before relaxing)
 *fill*         0x0000000040106e09        0x3 
 .text          0x0000000040106e0c       0xb4 /home/stoffer/esp8266/esp-open-sdk/sdk/lib/liblwip.a(timers.o)
                                         0xc0 (size before relaxing)
 .text          0x0000000040106ec0      0x1ff /home/stoffer/esp8266/esp-open-sdk/xtensa-lx106-elf/bin/../lib/gcc/xtensa-lx106-elf/4.8.2/libgcc.a(_addsubsf3.o)
                0x0000000040106edc                __addsf3
                0x0000000040106fc4                __subsf3
 *fill*         0x00000000401070bf        0x1 
 .text          0x00000000401070c0      0x15d /home/stoffer/esp8266/esp-open-sdk/xtensa-lx106-elf/bin/../lib/gcc/xtensa-lx106-elf/4.8.2/libgcc.a(_mulsf3.o)
                0x0000000040107138                __mulsf3
 *fill*         0x000000004010721d        0x3 
 .text          0x0000000040107220      0x135 /home/stoffer/esp8266/esp-open-sdk/xtensa-lx106-elf/bin/../lib/gcc/xtensa-lx106-elf/4.8.2/libgcc.a(_divsf3.o)
                0x000000004010729c                __divsf3
 *fill*         0x0000000040107355        0x3 
 .text          0x0000000040107358       0x40 /home/stoffer/esp8266/esp-open-sdk/xtensa-lx106-elf/bin/../lib/gcc/xtensa-lx106-elf/4.8.2/libgcc.a(_fixsfsi.o)
                0x0000000040107358                __fixsfsi
 .text          0x0000000040107398       0x51 /home/stoffer/esp8266/esp-open-sdk/xtensa-lx106-elf/bin/../lib/gcc/xtensa-lx106-elf/4.8.2/libgcc.a(_fixunssfsi.o)
                0x0000000040107398                __fixunssfsi
 *fill*         0x00000000401073e9        0x3 
 .text          0x00000000401073ec       0x48 /home/stoffer/esp8266/esp-open-sdk/xtensa-lx106-elf/bin/../lib/gcc/xtensa-lx106-elf/4.8.2/libgcc.a(_fixdfsi.o)
                0x00000000401073ec                __fixdfsi
 .text          0x0000000040107434       0xa0 /home/stoffer/esp8266/esp-open-sdk/xtensa-lx106-elf/bin/../lib/gcc/xtensa-lx106-elf/4.8.2/libgcc.a(_truncdfsf2.o)
                0x0000000040107434                __truncdfsf2
 .text          0x00000000401074d4      0x3eb /home/stoffer/esp8266/esp-open-sdk/xtensa-lx106-elf/bin/../lib/gcc/xtensa-lx106-elf/4.8.2/libgcc.a(_divdi3.o)
                                        0x41b (size before relaxing)
                0x00000000401074d4                __divdi3
 .text          0x00000000401078bf        0x0 /home/stoffer/esp8266/esp-open-sdk/sdk/lib/libmain.a(debug-vector.o)
 .text          0x00000000401078bf        0x0 /home/stoffer/esp8266/esp-open-sdk/sdk/lib/libmain.a(double-vector.o)
 .text          0x00000000401078bf        0x0 /home/stoffer/esp8266/esp-open-sdk/sdk/lib/libmain.a(kernel-vector.o)
 *fill*         0x00000000401078bf        0x1 
 .literal       0x00000000401078c0        0x0 /home/stoffer/esp8266/esp-open-sdk/sdk/lib/libmain.a(nmi-vector.o)
 *fill*         0x00000000401078c0        0x0 
 .literal       0x00000000401078c0        0x0 /home/stoffer/esp8266/esp-open-sdk/sdk/lib/libmain.a(user-vector.o)
 .text          0x00000000401078c0        0x0 /home/stoffer/esp8266/esp-open-sdk/sdk/lib/libmain.a(vector.o)
 *fill*         0x00000000401078c0        0x0 
 .literal       0x00000000401078c0        0x0 /home/stoffer/esp8266/esp-open-sdk/sdk/lib/libmain.a(app_main.o)
 *fill*         0x00000000401078c0        0x0 
 .literal       0x00000000401078c0        0x0 /home/stoffer/esp8266/esp-open-sdk/sdk/lib/libmain.a(ets_timer.o)
 .literal       0x00000000401078c0        0x0 /home/stoffer/esp8266/esp-open-sdk/sdk/lib/libmain.a(mem_manager.o)
 *fill*         0x00000000401078c0        0x0 
 .literal       0x00000000401078c0        0x0 /home/stoffer/esp8266/esp-open-sdk/sdk/lib/libmain.a(spi_flash.o)
 *fill*         0x00000000401078c0        0x0 
 .literal       0x00000000401078c0        0x0 /home/stoffer/esp8266/esp-open-sdk/sdk/lib/libmain.a(user_interface.o)
 .text          0x00000000401078c0        0x0 /home/stoffer/esp8266/esp-open-sdk/sdk/lib/libmain.a(eagle_lib.o)
 .text          0x00000000401078c0        0x0 /home/stoffer/esp8266/esp-open-sdk/sdk/lib/libmain.a(eagle_lwip_if.o)
 *fill*         0x00000000401078c0        0x0 
 .text          0x00000000401078c0       0x4c /home/stoffer/esp8266/esp-open-sdk/xtensa-lx106-elf/bin/../lib/gcc/xtensa-lx106-elf/4.8.2/libgcc.a(_udivsi3.o)
                0x00000000401078c0                __udivsi3
 .text          0x000000004010790c       0x39 /home/stoffer/esp8266/esp-open-sdk/xtensa-lx106-elf/bin/../lib/gcc/xtensa-lx106-elf/4.8.2/libgcc.a(_umodsi3.o)
                0x000000004010790c                __umodsi3
 *fill*         0x0000000040107945        0x0 
 *fill*         0x0000000040107945        0x3 
 .text          0x0000000040107948       0x48 /home/stoffer/esp8266/esp-open-sdk/xtensa-lx106-elf/bin/../lib/gcc/xtensa-lx106-elf/4.8.2/libgcc.a(_umulsidi3.o)
                0x0000000040107948                __umulsidi3
 .text          0x0000000040107990        0x0 build/app_app.a(user_main.o)
 .text          0x0000000040107990        0x0 build/app_app.a(captdns.o)
 .text          0x0000000040107990        0x0 build/app_app.a(led.o)
 .literal       0x0000000040107990        0x0 build/app_app.a(httpd.o)
 .text          0x0000000040107990       0xe9 build/app_app.a(httpd.o)
                0x00000000401079bc                httpdUrlDecode
 *fill*         0x0000000040107a79        0x3 
 .literal       0x0000000040107a7c        0x0 build/app_app.a(httpd_user_init.o)
 .text          0x0000000040107a7c        0x0 build/app_app.a(crypto.o)
 .text          0x0000000040107a7c        0x0 build/app_app.a(hmac-sha256.o)
 .text          0x0000000040107a7c        0x0 build/app_app.a(sha256.o)
 .text          0x0000000040107a7c        0x0 build/app_app.a(aes.o)
 *fill*         0x0000000040107a7c        0x0 
 .literal       0x0000000040107a7c        0x0 build/app_app.a(kmp_request.o)
 .text          0x0000000040107a7c        0x0 build/app_app.a(kmp.o)
 .text          0x0000000040107a7c        0x0 build/app_app.a(cron.o)
 .text          0x0000000040107a7c        0x0 build/app_app.a(ac_out.o)
 *fill*         0x0000000040107a7c        0x0 
 .literal       0x0000000040107a7c        0x0 build/app_app.a(uart.o)
 .text          0x0000000040107a7c        0x0 build/app_app.a(mqtt.o)
 .text          0x0000000040107a7c        0x0 build/app_app.a(mqtt_msg.o)
 .text          0x0000000040107a7c        0x0 build/app_app.a(queue.o)
 .text          0x0000000040107a7c        0x0 build/app_app.a(mqtt_utils.o)
 .text          0x0000000040107a7c        0x0 build/app_app.a(proto.o)
 .text          0x0000000040107a7c        0x0 build/app_app.a(config.o)
 *fill*         0x0000000040107a7c        0x0 
 .literal       0x0000000040107a7c        0x0 build/app_app.a(wifi.o)
 .text          0x0000000040107a7c        0x0 build/app_app.a(tinyprintf.o)
 .text          0x0000000040107a7c        0x0 build/app_app.a(unix_time.o)
 .text          0x0000000040107a7c        0x0 build/app_app.a(cgi.o)
 .text          0x0000000040107a7c        0x0 build/app_app.a(httpdespfs.o)
 .text          0x0000000040107a7c        0x0 build/app_app.a(cgiwifi.o)
 .text          0x0000000040107a7c        0x0 build/app_app.a(espfs.o)
 *fill*         0x0000000040107a7c        0x0 
 .literal       0x0000000040107a7c        0x0 build/app_app.a(heatshrink_decoder.o)
 .text          0x0000000040107a7c        0x0 build/app_app.a(utils.o)
 .text          0x0000000040107a7c        0x0 build/app_app.a(ringbuf.o)
 *fill*         0x0000000040107a7c        0x0 
 *fill*         0x0000000040107a7c        0x0 
 .text          0x0000000040107a7c        0x0 /home/stoffer/esp8266/esp-open-sdk/xtensa-lx106-elf/bin/../lib/gcc/xtensa-lx106-elf/4.8.2/../../../../xtensa-lx106-elf/lib/libc.a(lib_a-impure.o)
 .text          0x0000000040107a7c      0x145 /home/stoffer/esp8266/esp-open-sdk/xtensa-lx106-elf/bin/../lib/gcc/xtensa-lx106-elf/4.8.2/../../../../xtensa-lx106-elf/lib/libc.a(lib_a-memcpy.o)
                0x0000000040107ac0                memcpy
 *fill*         0x0000000040107bc1        0x3 
 .text          0x0000000040107bc4       0x7c /home/stoffer/esp8266/esp-open-sdk/xtensa-lx106-elf/bin/../lib/gcc/xtensa-lx106-elf/4.8.2/../../../../xtensa-lx106-elf/lib/libc.a(lib_a-memset.o)
                0x0000000040107bf0                memset
 *fill*         0x0000000040107c40        0x0 
 .text          0x0000000040107c40       0x1e /home/stoffer/esp8266/esp-open-sdk/xtensa-lx106-elf/bin/../lib/gcc/xtensa-lx106-elf/4.8.2/../../../../xtensa-lx106-elf/lib/libc.a(lib_a-strcat.o)
                0x0000000040107c40                strcat
 *fill*         0x0000000040107c5e        0x0 
 *fill*         0x0000000040107c5e        0x2 
 .literal       0x0000000040107c60        0x0 /home/stoffer/esp8266/esp-open-sdk/xtensa-lx106-elf/bin/../lib/gcc/xtensa-lx106-elf/4.8.2/../../../../xtensa-lx106-elf/lib/libc.a(lib_a-strtok_r.o)
 .text          0x0000000040107c60       0x71 /home/stoffer/esp8266/esp-open-sdk/xtensa-lx106-elf/bin/../lib/gcc/xtensa-lx106-elf/4.8.2/../../../../xtensa-lx106-elf/lib/libc.a(lib_a-strtok_r.o)
                0x0000000040107c60                __strtok_r
                0x0000000040107cc0                strtok_r
 *fill*         0x0000000040107cd1        0x0 
 *fill*         0x0000000040107cd1        0x3 
 .text          0x0000000040107cd4        0x6 /home/stoffer/esp8266/esp-open-sdk/xtensa-lx106-elf/bin/../lib/gcc/xtensa-lx106-elf/4.8.2/../../../../xtensa-lx106-elf/lib/libc.a(lib_a-tzlock.o)
                0x0000000040107cd4                __tz_lock
                0x0000000040107cd8                __tz_unlock
 .text          0x0000000040107cda        0x0 /home/stoffer/esp8266/esp-open-sdk/xtensa-lx106-elf/bin/../lib/gcc/xtensa-lx106-elf/4.8.2/../../../../xtensa-lx106-elf/lib/libc.a(lib_a-tzvars.o)
 .text          0x0000000040107cda        0x0 /home/stoffer/esp8266/esp-open-sdk/xtensa-lx106-elf/bin/../lib/gcc/xtensa-lx106-elf/4.8.2/../../../../xtensa-lx106-elf/lib/libc.a(lib_a-ctype_.o)
 *fill*         0x0000000040107cda        0x0 
 *fill*         0x0000000040107cda        0x2 
 .text          0x0000000040107cdc       0x64 /home/stoffer/esp8266/esp-open-sdk/xtensa-lx106-elf/bin/../lib/gcc/xtensa-lx106-elf/4.8.2/libgcc.a(_divsi3.o)
                0x0000000040107cdc                __divsi3
 .text          0x0000000040107d40       0x49 /home/stoffer/esp8266/esp-open-sdk/xtensa-lx106-elf/bin/../lib/gcc/xtensa-lx106-elf/4.8.2/libgcc.a(_modsi3.o)
                0x0000000040107d40                __modsi3
 *fill*         0x0000000040107d89        0x0 
 *fill*         0x0000000040107d89        0x0 
 *fill*         0x0000000040107d89        0x3 
 .text          0x0000000040107d8c       0x36 /home/stoffer/esp8266/esp-open-sdk/xtensa-lx106-elf/bin/../lib/gcc/xtensa-lx106-elf/4.8.2/libgcc.a(_floatsidf.o)
                0x0000000040107d8c                __floatunsidf
                0x0000000040107d94                __floatsidf
 *fill*         0x0000000040107dc2        0x0 
 *fill*         0x0000000040107dc2        0x0 
 *fill*         0x0000000040107dc2        0x2 
 .text          0x0000000040107dc4        0x5 /home/stoffer/esp8266/esp-open-sdk/xtensa-lx106-elf/bin/../xtensa-lx106-elf/sysroot/usr/lib/libhal.a(int_asm--set_intclear.o)
                0x0000000040107dc4                xthal_set_intclear
 *fill*         0x0000000040107dc9        0x3 
 .literal       0x0000000040107dcc        0x0 /home/stoffer/esp8266/esp-open-sdk/sdk/lib/libphy.a(phy.o)
 .text          0x0000000040107dcc        0x0 /home/stoffer/esp8266/esp-open-sdk/sdk/lib/libphy.a(phy_chip_v6_ana.o)
 .text          0x0000000040107dcc        0x0 /home/stoffer/esp8266/esp-open-sdk/sdk/lib/libphy.a(phy_chip_v6.o)
 *fill*         0x0000000040107dcc        0x0 
 .literal       0x0000000040107dcc        0x0 /home/stoffer/esp8266/esp-open-sdk/sdk/lib/libphy.a(phy_chip_v6_cal.o)
 .text          0x0000000040107dcc        0x0 /home/stoffer/esp8266/esp-open-sdk/sdk/lib/libphy.a(phy_chip_v6_unused.o)
 *fill*         0x0000000040107dcc        0x0 
 .literal       0x0000000040107dcc        0x0 /home/stoffer/esp8266/esp-open-sdk/sdk/lib/libphy.a(phy_sleep.o)
 .text          0x0000000040107dcc        0x0 /home/stoffer/esp8266/esp-open-sdk/sdk/lib/libpp.a(if_hwctrl.o)
 *fill*         0x0000000040107dcc        0x0 
 .literal       0x0000000040107dcc        0x0 /home/stoffer/esp8266/esp-open-sdk/sdk/lib/libpp.a(lmac.o)
 .text          0x0000000040107dcc        0x0 /home/stoffer/esp8266/esp-open-sdk/sdk/lib/libpp.a(pm.o)
 .text          0x0000000040107dcc        0x0 /home/stoffer/esp8266/esp-open-sdk/sdk/lib/libpp.a(pm_for_bcn_only_mode.o)
 *fill*         0x0000000040107dcc        0x0 
 .literal       0x0000000040107dcc        0x0 /home/stoffer/esp8266/esp-open-sdk/sdk/lib/libpp.a(pp.o)
 *fill*         0x0000000040107dcc        0x0 
 .literal       0x0000000040107dcc        0x0 /home/stoffer/esp8266/esp-open-sdk/sdk/lib/libpp.a(rate_control.o)
 *fill*         0x0000000040107dcc        0x0 
 .literal       0x0000000040107dcc        0x0 /home/stoffer/esp8266/esp-open-sdk/sdk/lib/libpp.a(trc.o)
 *fill*         0x0000000040107dcc        0x0 
 .literal       0x0000000040107dcc        0x0 /home/stoffer/esp8266/esp-open-sdk/sdk/lib/libpp.a(wdev.o)
 *fill*         0x0000000040107dcc        0x0 
 .literal       0x0000000040107dcc        0x0 /home/stoffer/esp8266/esp-open-sdk/sdk/lib/libpp.a(esf_buf.o)
 .text          0x0000000040107dcc        0x0 /home/stoffer/esp8266/esp-open-sdk/sdk/lib/libnet80211.a(ieee80211.o)
 .text          0x0000000040107dcc        0x0 /home/stoffer/esp8266/esp-open-sdk/sdk/lib/libnet80211.a(ieee80211_crypto.o)
 .text          0x0000000040107dcc        0x0 /home/stoffer/esp8266/esp-open-sdk/sdk/lib/libnet80211.a(ieee80211_ets.o)
 .literal       0x0000000040107dcc        0x0 /home/stoffer/esp8266/esp-open-sdk/sdk/lib/libnet80211.a(ieee80211_hostap.o)
 .text          0x0000000040107dcc       0x25 /home/stoffer/esp8266/esp-open-sdk/sdk/lib/libnet80211.a(ieee80211_hostap.o)
 .text          0x0000000040107df1        0x0 /home/stoffer/esp8266/esp-open-sdk/sdk/lib/libnet80211.a(ieee80211_ht.o)
 .text          0x0000000040107df1        0x0 /home/stoffer/esp8266/esp-open-sdk/sdk/lib/libnet80211.a(ieee80211_input.o)
 .text          0x0000000040107df1        0x0 /home/stoffer/esp8266/esp-open-sdk/sdk/lib/libnet80211.a(ieee80211_mesh_quick.o)
 *fill*         0x0000000040107df1        0x3 
 .literal       0x0000000040107df4        0x0 /home/stoffer/esp8266/esp-open-sdk/sdk/lib/libnet80211.a(ieee80211_output.o)
 .text          0x0000000040107df4        0x0 /home/stoffer/esp8266/esp-open-sdk/sdk/lib/libnet80211.a(ieee80211_phy.o)
 .text          0x0000000040107df4        0x0 /home/stoffer/esp8266/esp-open-sdk/sdk/lib/libnet80211.a(ieee80211_power.o)
 .text          0x0000000040107df4        0x0 /home/stoffer/esp8266/esp-open-sdk/sdk/lib/libnet80211.a(ieee80211_proto.o)
 .text          0x0000000040107df4        0x0 /home/stoffer/esp8266/esp-open-sdk/sdk/lib/libnet80211.a(ieee80211_rfid.o)
 .text          0x0000000040107df4        0x0 /home/stoffer/esp8266/esp-open-sdk/sdk/lib/libnet80211.a(ieee80211_scan.o)
 .text          0x0000000040107df4        0x0 /home/stoffer/esp8266/esp-open-sdk/sdk/lib/libnet80211.a(ieee80211_sta.o)
 *fill*         0x0000000040107df4        0x0 
 .literal       0x0000000040107df4        0x0 /home/stoffer/esp8266/esp-open-sdk/sdk/lib/libnet80211.a(wl_chm.o)
 .text          0x0000000040107df4        0x0 /home/stoffer/esp8266/esp-open-sdk/sdk/lib/libnet80211.a(wl_cnx.o)
 .text          0x0000000040107df4        0x0 /home/stoffer/esp8266/esp-open-sdk/sdk/lib/libnet80211.a(ieee80211_action.o)
 .text          0x0000000040107df4        0x0 /home/stoffer/esp8266/esp-open-sdk/sdk/lib/libnet80211.a(ieee80211_action_vendor.o)
 .text          0x0000000040107df4        0x0 /home/stoffer/esp8266/esp-open-sdk/sdk/lib/libnet80211.a(ieee80211_crypto_ccmp.o)
 .text          0x0000000040107df4        0x0 /home/stoffer/esp8266/esp-open-sdk/sdk/lib/libnet80211.a(ieee80211_ie_vendor.o)
 .text          0x0000000040107df4        0x0 /home/stoffer/esp8266/esp-open-sdk/sdk/lib/liblwip.a(dhcp.o)
 .text          0x0000000040107df4        0x0 /home/stoffer/esp8266/esp-open-sdk/sdk/lib/liblwip.a(dhcpserver.o)
 .text          0x0000000040107df4        0x0 /home/stoffer/esp8266/esp-open-sdk/sdk/lib/liblwip.a(dns.o)
 .text          0x0000000040107df4        0x0 /home/stoffer/esp8266/esp-open-sdk/sdk/lib/liblwip.a(espconn.o)
 .text          0x0000000040107df4        0x0 /home/stoffer/esp8266/esp-open-sdk/sdk/lib/liblwip.a(espconn_tcp.o)
 .text          0x0000000040107df4        0x0 /home/stoffer/esp8266/esp-open-sdk/sdk/lib/liblwip.a(espconn_udp.o)
 *fill*         0x0000000040107df4        0x0 
 .literal       0x0000000040107df4        0x0 /home/stoffer/esp8266/esp-open-sdk/sdk/lib/liblwip.a(etharp.o)
 .text          0x0000000040107df4        0x0 /home/stoffer/esp8266/esp-open-sdk/sdk/lib/liblwip.a(igmp.o)
 .text          0x0000000040107df4        0x0 /home/stoffer/esp8266/esp-open-sdk/sdk/lib/liblwip.a(inet_chksum.o)
 .text          0x0000000040107df4        0x0 /home/stoffer/esp8266/esp-open-sdk/sdk/lib/liblwip.a(init.o)
 .text          0x0000000040107df4        0x0 /home/stoffer/esp8266/esp-open-sdk/sdk/lib/liblwip.a(ip_addr.o)
 .text          0x0000000040107df4        0x0 /home/stoffer/esp8266/esp-open-sdk/sdk/lib/liblwip.a(ip.o)
 .text          0x0000000040107df4        0x0 /home/stoffer/esp8266/esp-open-sdk/sdk/lib/liblwip.a(memp.o)
 .text          0x0000000040107df4        0x0 /home/stoffer/esp8266/esp-open-sdk/sdk/lib/liblwip.a(netif.o)
 .text          0x0000000040107df4        0x0 /home/stoffer/esp8266/esp-open-sdk/sdk/lib/liblwip.a(pbuf.o)
 .text          0x0000000040107df4        0x0 /home/stoffer/esp8266/esp-open-sdk/sdk/lib/liblwip.a(raw.o)
 *fill*         0x0000000040107df4        0x0 
 .literal       0x0000000040107df4        0x0 /home/stoffer/esp8266/esp-open-sdk/sdk/lib/liblwip.a(sntp.o)
 .text          0x0000000040107df4        0x0 /home/stoffer/esp8266/esp-open-sdk/sdk/lib/liblwip.a(tcp_in.o)
 *fill*         0x0000000040107df4        0x0 
 .literal       0x0000000040107df4        0x0 /home/stoffer/esp8266/esp-open-sdk/sdk/lib/liblwip.a(tcp.o)
 *fill*         0x0000000040107df4        0x0 
 .literal       0x0000000040107df4        0x0 /home/stoffer/esp8266/esp-open-sdk/sdk/lib/liblwip.a(tcp_out.o)
 *fill*         0x0000000040107df4        0x0 
 .literal       0x0000000040107df4        0x0 /home/stoffer/esp8266/esp-open-sdk/sdk/lib/liblwip.a(timers.o)
 .text          0x0000000040107df4        0x0 /home/stoffer/esp8266/esp-open-sdk/sdk/lib/liblwip.a(udp.o)
 .text          0x0000000040107df4        0x0 /home/stoffer/esp8266/esp-open-sdk/sdk/lib/liblwip.a(icmp.o)
 .text          0x0000000040107df4        0x0 /home/stoffer/esp8266/esp-open-sdk/sdk/lib/libwpa.a(ap_config.o)
 .text          0x0000000040107df4        0x0 /home/stoffer/esp8266/esp-open-sdk/sdk/lib/libwpa.a(common.o)
 .text          0x0000000040107df4        0x0 /home/stoffer/esp8266/esp-open-sdk/sdk/lib/libwpa.a(os_xtensa.o)
 .literal       0x0000000040107df4        0x0 /home/stoffer/esp8266/esp-open-sdk/sdk/lib/libwpa.a(wpa_auth.o)
 .text          0x0000000040107df4       0x11 /home/stoffer/esp8266/esp-open-sdk/sdk/lib/libwpa.a(wpa_auth.o)
 .text          0x0000000040107e05        0x0 /home/stoffer/esp8266/esp-open-sdk/sdk/lib/libwpa.a(wpa_auth_ie.o)
 .text          0x0000000040107e05        0x0 /home/stoffer/esp8266/esp-open-sdk/sdk/lib/libwpa.a(wpa.o)
 .text          0x0000000040107e05        0x0 /home/stoffer/esp8266/esp-open-sdk/sdk/lib/libwpa.a(wpa_common.o)
 .text          0x0000000040107e05        0x0 /home/stoffer/esp8266/esp-open-sdk/sdk/lib/libwpa.a(wpa_debug.o)
 .text          0x0000000040107e05        0x0 /home/stoffer/esp8266/esp-open-sdk/sdk/lib/libwpa.a(wpa_ie.o)
 .text          0x0000000040107e05        0x0 /home/stoffer/esp8266/esp-open-sdk/sdk/lib/libwpa.a(wpa_main.o)
 .text          0x0000000040107e05        0x0 /home/stoffer/esp8266/esp-open-sdk/sdk/lib/libwpa.a(wpas_glue.o)
 .text          0x0000000040107e05        0x0 /home/stoffer/esp8266/esp-open-sdk/sdk/lib/libwpa.a(aes-wrap.o)
 .text          0x0000000040107e05        0x0 /home/stoffer/esp8266/esp-open-sdk/sdk/lib/libwpa.a(aes-internal-enc.o)
 .text          0x0000000040107e05        0x0 /home/stoffer/esp8266/esp-open-sdk/sdk/lib/libwpa.a(aes-internal.o)
 *fill*         0x0000000040107e05        0x3 
 .text          0x0000000040107e08       0x18 /home/stoffer/esp8266/esp-open-sdk/xtensa-lx106-elf/bin/../lib/gcc/xtensa-lx106-elf/4.8.2/libgcc.a(_ashrdi3.o)
                0x0000000040107e08                __ashrdi3
 *fill*         0x0000000040107e20        0x0 
 *fill*         0x0000000040107e20        0x0 
 *fill*         0x0000000040107e20        0x0 
 *fill*         0x0000000040107e20        0x0 
 .text          0x0000000040107e20       0x44 /home/stoffer/esp8266/esp-open-sdk/xtensa-lx106-elf/bin/../lib/gcc/xtensa-lx106-elf/4.8.2/libgcc.a(_floatsisf.o)
                0x0000000040107e20                __floatunsisf
                0x0000000040107e28                __floatsisf
 .text          0x0000000040107e64        0x0 /home/stoffer/esp8266/esp-open-sdk/sdk/lib/libnet80211.a(ieee80211_crypto_tkip.o)
 .text          0x0000000040107e64        0x0 /home/stoffer/esp8266/esp-open-sdk/sdk/lib/libnet80211.a(ieee80211_crypto_wep.o)
 *(.fini.literal)
 *(.fini)
 *(.gnu.version)
                0x0000000040107e64                _text_end = ABSOLUTE (.)
                0x0000000040107e64                _etext = .

.NMIExceptionVector.literal
                0x0000000040107e64        0x0
 .NMIExceptionVector.literal
                0x0000000040107e64        0x0 /home/stoffer/esp8266/esp-open-sdk/sdk/lib/libmain.a(nmi-vector.o)

.UserExceptionVector.literal
                0x0000000040107e64        0x0
 .UserExceptionVector.literal
                0x0000000040107e64        0x0 /home/stoffer/esp8266/esp-open-sdk/sdk/lib/libmain.a(user-vector.o)

.UserEnter.literal
                0x0000000040107e64        0x0
 .UserEnter.literal
                0x0000000040107e64        0x0 /home/stoffer/esp8266/esp-open-sdk/sdk/lib/libmain.a(vector.o)

.lit4           0x0000000040107e64        0x0
                0x0000000040107e64                _lit4_start = ABSOLUTE (.)
 *(*.lit4)
 *(.lit4.*)
 *(.gnu.linkonce.lit4.*)
                0x0000000040107e64                _lit4_end = ABSOLUTE (.)

.irom0.text     0x0000000040240000    0x35ac4
                0x0000000040240000                _irom0_text_start = ABSOLUTE (.)
 *(.irom0.literal .irom.literal .irom.text.literal .irom0.text .irom.text)
 .irom0.text    0x0000000040240000      0xa1d /home/stoffer/esp8266/esp-open-sdk/sdk/lib/libmain.a(app_main.o)
                                        0xc31 (size before relaxing)
                0x00000000402401e8                wdt_init
                0x0000000040240290                user_uart_wait_tx_fifo_empty
                0x0000000040240544                user_rf_pre_init
 *fill*         0x0000000040240a1d        0x3 
 .irom0.text    0x0000000040240a20      0x186 /home/stoffer/esp8266/esp-open-sdk/sdk/lib/libmain.a(ets_timer.o)
                                        0x1b2 (size before relaxing)
                0x0000000040240a28                ets_timer_done
                0x0000000040240a74                ets_timer_handler_isr
                0x0000000040240b44                ets_timer_init
 *fill*         0x0000000040240ba6        0x2 
 .irom0.text    0x0000000040240ba8       0xec /home/stoffer/esp8266/esp-open-sdk/sdk/lib/libmain.a(mem_manager.o)
                                         0xf8 (size before relaxing)
                0x0000000040240ba8                check_memleak_debug_enable
                0x0000000040240c14                xPortGetFreeHeapSize
                0x0000000040240c1c                vPortInitialiseBlocks
 .irom0.text    0x0000000040240c94        0xb /home/stoffer/esp8266/esp-open-sdk/sdk/lib/libmain.a(spi_flash.o)
                0x0000000040240c98                spi_flash_set_read_func
 *fill*         0x0000000040240c9f        0x1 
 .irom0.text    0x0000000040240ca0     0x3459 /home/stoffer/esp8266/esp-open-sdk/sdk/lib/libmain.a(user_interface.o)
                                       0x3e71 (size before relaxing)
                0x0000000040240ca4                system_set_os_print
                0x0000000040240cb4                system_get_os_print
                0x0000000040240e7c                system_pp_recycle_rx_pkt
                0x0000000040240e90                system_adc_read
                0x0000000040240ea8                system_get_vdd33
                0x0000000040240ec0                system_restart_hook
                0x0000000040240ed8                system_restart_local
                0x0000000040240fb8                system_restart
                0x0000000040241014                system_restore
                0x000000004024107c                system_get_flash_size_map
                0x000000004024109c                system_get_boot_version
                0x00000000402410d4                system_get_test_result
                0x00000000402410fc                system_get_userbin_addr
                0x0000000040241194                system_get_boot_mode
                0x00000000402411c4                system_restart_enhance
                0x00000000402412f4                system_upgrade_userbin_set
                0x0000000040241340                system_upgrade_userbin_check
                0x0000000040241380                system_upgrade_flag_set
                0x0000000040241394                system_upgrade_flag_check
                0x00000000402413bc                system_upgrade_reboot
                0x00000000402414f0                system_deep_sleep_instant
                0x0000000040241688                system_deep_sleep
                0x00000000402416e8                system_deep_sleep_set_option
                0x0000000040241704                system_phy_temperature_alert
                0x0000000040241718                system_phy_set_max_tpw
                0x000000004024172c                system_phy_set_tpw_via_vdd33
                0x0000000040241740                system_phy_set_rfoption
                0x0000000040241754                system_phy_set_powerup_option
                0x000000004024176c                system_update_cpu_freq
                0x00000000402417c8                system_get_cpu_freq
                0x00000000402417e0                system_overclock
                0x000000004024180c                system_restoreclock
                0x000000004024183c                system_timer_reinit
                0x0000000040241854                system_relative_time
                0x0000000040241878                system_station_got_ip_set
                0x00000000402419a4                system_print_meminfo
                0x0000000040241a04                system_get_free_heap_size
                0x0000000040241a1c                system_get_chip_id
                0x0000000040241a40                system_rtc_clock_cali_proc
                0x0000000040241a54                system_get_rtc_time
                0x0000000040241a68                system_mktime
                0x0000000040241b38                system_init_done_cb
                0x0000000040241b40                system_get_rst_info
                0x0000000040241b48                system_get_data_of_array_8
                0x0000000040241b6c                system_get_data_of_array_16
                0x0000000040241b94                system_get_string_from_flash
                0x0000000040241c00                wifi_softap_dhcps_start
                0x0000000040241c48                wifi_softap_dhcps_stop
                0x0000000040241c88                wifi_softap_dhcps_status
                0x0000000040241c90                wifi_station_dhcpc_start
                0x0000000040241ce8                wifi_station_dhcpc_stop
                0x0000000040241d28                wifi_station_dhcpc_event
                0x0000000040241d9c                wifi_station_dhcpc_set_maxtry
                0x0000000040241dac                wifi_station_dhcpc_status
                0x0000000040241e24                wifi_get_opmode
                0x0000000040241e38                wifi_get_opmode_default
                0x0000000040241eb4                wifi_get_broadcast_if
                0x0000000040241ef0                wifi_set_broadcast_if
                0x0000000040242050                wifi_set_opmode
                0x0000000040242064                wifi_set_opmode_current
                0x0000000040242078                system_get_checksum
                0x00000000402420c0                wifi_param_save_protect_with_check
                0x000000004024217c                system_param_save_with_protect
                0x0000000040242224                system_save_sys_param
                0x0000000040242250                system_param_load
                0x0000000040242388                wifi_station_get_config
                0x000000004024239c                wifi_station_get_config_default
                0x00000000402423bc                wifi_station_get_ap_info
                0x0000000040242474                wifi_station_ap_number_set
                0x00000000402427d8                wifi_station_set_config
                0x00000000402427f0                wifi_station_set_config_current
                0x0000000040242808                wifi_station_restore_config
                0x0000000040242820                wifi_station_get_current_ap_id
                0x0000000040242834                wifi_station_ap_check
                0x000000004024287c                wifi_station_ap_change
                0x00000000402429a8                wifi_station_scan
                0x00000000402429f4                wifi_station_get_auto_connect
                0x0000000040242a08                wifi_station_set_auto_connect
                0x0000000040242a58                wifi_station_save_pmk2cache
                0x0000000040242b0c                wifi_station_connect
                0x0000000040242ba0                wifi_station_disconnect
                0x0000000040242c60                wifi_station_get_connect_status
                0x0000000040242c90                wifi_station_set_reconnect_policy
                0x0000000040242ca8                wifi_station_get_reconnect_policy
                0x0000000040242cb0                wifi_station_get_rssi
                0x0000000040242d00                wifi_station_set_default_hostname
                0x0000000040242d68                wifi_station_get_hostname
                0x0000000040242d98                wifi_station_set_hostname
                0x0000000040242e38                wifi_softap_cacl_mac
                0x0000000040242ea8                wifi_softap_set_default_ssid
                0x0000000040243088                wifi_softap_get_config
                0x000000004024309c                wifi_softap_get_config_default
                0x00000000402433f0                wifi_softap_set_config
                0x0000000040243404                wifi_softap_set_config_current
                0x0000000040243418                wifi_softap_set_station_info
                0x0000000040243484                wifi_softap_get_station_info
                0x0000000040243534                wifi_softap_free_station_info
                0x000000004024357c                wifi_softap_get_station_num
                0x00000000402435d0                wifi_softap_deauth
                0x0000000040243680                wifi_softap_get_beacon_only_mode
                0x0000000040243694                wifi_softap_set_beacon_only_mode
                0x00000000402436f8                wifi_register_user_ie_manufacturer_recv_cb
                0x000000004024370c                wifi_unregister_user_ie_manufacturer_recv_cb
                0x0000000040243740                wifi_set_user_ie
                0x0000000040243850                wifi_get_user_ie
                0x0000000040243884                wifi_get_phy_mode
                0x000000004024388c                wifi_set_phy_mode
                0x0000000040243954                wifi_set_sleep_type
                0x0000000040243970                wifi_get_sleep_type
                0x0000000040243988                wifi_get_channel
                0x00000000402439a0                wifi_set_channel
                0x00000000402439e4                wifi_promiscuous_set_mac
                0x0000000040243a44                wifi_promiscuous_enable
                0x0000000040243b28                wifi_set_promiscuous_rx_cb
                0x0000000040243b38                wifi_get_ip_info
                0x0000000040243bb8                wifi_set_ip_info
                0x0000000040243c2c                wifi_get_macaddr
                0x0000000040243c8c                wifi_set_macaddr
                0x0000000040243da8                wifi_enable_6m_rate
                0x0000000040243db0                wifi_get_user_fixed_rate
                0x0000000040243dd0                wifi_set_user_fixed_rate
                0x0000000040243df0                wifi_set_user_sup_rate
                0x0000000040243e2c                wifi_set_user_rate_limit
                0x0000000040243e50                wifi_get_user_limit_rate_mask
                0x0000000040243e58                wifi_set_user_limit_rate_mask
                0x0000000040243e70                wifi_register_send_pkt_freedom_cb
                0x0000000040243e84                wifi_unregister_send_pkt_freedom_cb
                0x0000000040243e90                wifi_send_pkt_freedom
                0x0000000040243edc                wifi_rfid_locp_recv_open
                0x0000000040243ef0                wifi_rfid_locp_recv_close
                0x0000000040243f04                wifi_register_rfid_locp_recv_cb
                0x0000000040243f18                wifi_unregister_rfid_locp_recv_cb
                0x0000000040243f30                wifi_status_led_install
                0x0000000040243f64                wifi_status_led_uninstall
                0x0000000040243f88                wifi_set_status_led_output_level
                0x0000000040243fdc                wifi_set_event_handler_cb
                0x0000000040244024                system_os_task
                0x0000000040244060                system_uart_swap
                0x00000000402440c0                system_uart_de_swap
                0x00000000402440f4                system_get_sdk_version
 *fill*         0x00000000402440f9        0x3 
 .irom0.text    0x00000000402440fc      0x610 /home/stoffer/esp8266/esp-open-sdk/sdk/lib/libmain.a(eagle_lib.o)
                                        0x620 (size before relaxing)
                0x0000000040244100                divide
                0x000000004024413c                skip_atoi
                0x00000000402442bc                ets_vsnprintf
                0x000000004024461c                ets_vsprintf
                0x0000000040244640                ets_sprintf
                0x0000000040244668                ets_strcat
                0x0000000040244688                ets_strrchr
                0x00000000402446b4                ets_strchr
                0x00000000402446cc                bit_popcount
                0x00000000402446e8                ets_snprintf
 .irom0.text    0x000000004024470c      0x2f6 /home/stoffer/esp8266/esp-open-sdk/sdk/lib/libmain.a(eagle_lwip_if.o)
                                        0x3b2 (size before relaxing)
                0x00000000402447c4                eagle_lwip_if_alloc
                0x0000000040244974                eagle_lwip_if_free
                0x00000000402449e0                eagle_lwip_getif
 *fill*         0x0000000040244a02        0x2 
 .irom0.text    0x0000000040244a04      0x9da build/app_app.a(user_main.o)
                                        0xd76 (size before relaxing)
                0x0000000040244a04                mqttPublishedCb
                0x0000000040244a0c                wifi_changed_cb
                0x0000000040244a28                mqttDisconnectedCb
                0x0000000040244a58                mqttConnectedCb
                0x0000000040244b68                mqttDataCb
                0x00000000402450d4                system_init_done
                0x000000004024534c                user_init
 *fill*         0x00000000402453de        0x2 
 .irom0.text    0x00000000402453e0      0x4a3 build/app_app.a(captdns.o)
                                        0x4d3 (size before relaxing)
                0x0000000040245854                captdnsInit
 *fill*         0x0000000040245883        0x1 
 .irom0.text    0x0000000040245884      0x14b build/app_app.a(led.o)
                                        0x18b (size before relaxing)
                0x00000000402458c4                led_init
                0x00000000402458f4                led_on
                0x0000000040245910                led_off
                0x0000000040245934                led_pattern_a
                0x0000000040245970                led_pattern_b
                0x00000000402459ac                led_stop_pattern
 *fill*         0x00000000402459cf        0x1 
 .irom0.text    0x00000000402459d0      0x97f build/app_app.a(httpd.o)
                                        0xa93 (size before relaxing)
                0x0000000040245b94                httpdGetMimetype
                0x0000000040245c18                httpdFindArg
                0x0000000040245cd0                httpdGetHeader
                0x0000000040245dd4                httpdSend
                0x0000000040245e2c                httpdStartResponse
                0x0000000040245e6c                httpdHeader
                0x0000000040245eb0                httpdEndHeaders
                0x0000000040245ec8                httpdRedirect
                0x0000000040245f08                cgiRedirect
                0x0000000040246288                httpdInit
                0x00000000402462e0                httpdStop
 *fill*         0x000000004024634f        0x1 
 .irom0.text    0x0000000040246350      0x23c build/app_app.a(crypto.o)
                                        0x300 (size before relaxing)
                0x0000000040246374                init_aes_hmac_combined
                0x0000000040246454                encrypt_aes_hmac_combined
                0x00000000402464f8                decrypt_aes_hmac_combined
 .irom0.text    0x000000004024658c      0x158 build/app_app.a(hmac-sha256.o)
                                        0x1ac (size before relaxing)
                0x000000004024658c                hmac_sha256_init
                0x0000000040246620                hmac_sha256_update
                0x0000000040246638                hmac_sha256_final
                0x0000000040246698                hmac_sha256
 .irom0.text    0x00000000402466e4      0x58f build/app_app.a(sha256.o)
                                        0x5c7 (size before relaxing)
                0x00000000402466e8                sha256_init
                0x000000004024672c                sha256_transform
                0x0000000040246a28                sha256_update
                0x0000000040246a3c                sha256_final
                0x0000000040246b84                sha256_end
                0x0000000040246bf4                sha256_raw
                0x0000000040246c34                sha256_data
 *fill*         0x0000000040246c73        0x1 
 .irom0.text    0x0000000040246c74      0x793 build/app_app.a(aes.o)
                                        0x7c7 (size before relaxing)
                0x000000004024723c                AES128_CBC_encrypt_buffer
                0x0000000040247324                AES128_CBC_decrypt_buffer
 *fill*         0x0000000040247407        0x1 
 .irom0.text    0x0000000040247408      0x617 build/app_app.a(kmp_request.o)
                                        0x7f3 (size before relaxing)
                0x0000000040247870                kmp_request_init
                0x00000000402478a4                kmp_set_mqtt_client
                0x00000000402478ac                kmp_get_received_serial
                0x00000000402478d8                kmp_request_send
 *fill*         0x0000000040247a1f        0x1 
 .irom0.text    0x0000000040247a20      0x8ae build/app_app.a(kmp.o)
                                        0xa12 (size before relaxing)
                0x0000000040247a20                kmp_set_clock
                0x0000000040247a2c                kmp_crc16
                0x0000000040247a58                kmp_value_to_double
                0x0000000040247b30                kmp_value_to_string
                0x0000000040247ccc                kmp_unit_to_string
                0x0000000040247dfc                kmp_byte_stuff
                0x0000000040247ee8                kmp_get_type
                0x0000000040247f78                kmp_get_serial
                0x0000000040248008                kmp_get_register
                0x00000000402480ec                kmp_byte_unstuff
                0x0000000040248178                kmp_decode_frame
 *fill*         0x00000000402482ce        0x2 
 .irom0.text    0x00000000402482d0      0x683 build/app_app.a(cron.o)
                                        0x79f (size before relaxing)
                0x00000000402486d8                cron_init
                0x000000004024874c                add_cron_job_from_query
                0x000000004024892c                clear_cron_jobs
 *fill*         0x0000000040248953        0x1 
 .irom0.text    0x0000000040248954      0x3e9 build/app_app.a(ac_out.o)
                                        0x50d (size before relaxing)
                0x0000000040248ad4                ac_out_init
                0x0000000040248b10                ac_test
                0x0000000040248b78                ac_thermo_open
                0x0000000040248bb4                ac_thermo_close
                0x0000000040248bf0                ac_thermo_pwm
                0x0000000040248c44                ac_off
                0x0000000040248c8c                ac_motor_valve_open
                0x0000000040248ce8                ac_motor_valve_close
 *fill*         0x0000000040248d3d        0x3 
 .irom0.text    0x0000000040248d40      0x31c build/app_app.a(uart.o)
                                        0x348 (size before relaxing)
                0x0000000040248ecc                uart0_write_char
                0x0000000040248f28                uart1_write_char
                0x0000000040248f84                uart0_tx_buffer
                0x0000000040248fb8                uart0_sendStr
                0x0000000040248fe8                uart_init
                0x0000000040249048                uart_reattach
 .irom0.text    0x000000004024905c      0xb41 build/app_app.a(mqtt.o)
                                        0xd81 (size before relaxing)
                0x0000000040249060                mqtt_tcpclient_sent_cb
                0x000000004024909c                mqtt_timer
                0x0000000040249114                mqtt_tcpclient_discon_cb
                0x0000000040249160                mqtt_tcpclient_recon_cb
                0x0000000040249180                mqtt_tcpclient_recv
                0x0000000040249344                mqtt_tcpclient_connect_cb
                0x000000004024941c                mqtt_send_keepalive
                0x00000000402494ac                mqtt_tcpclient_delete
                0x00000000402494f4                mqtt_client_delete
                0x00000000402495c8                MQTT_Publish
                0x0000000040249644                MQTT_Subscribe
                0x00000000402496b4                MQTT_Ping
                0x0000000040249720                MQTT_InitConnection
                0x0000000040249794                MQTT_InitClient
                0x00000000402498c4                MQTT_InitLWT
                0x0000000040249968                MQTT_Connect
                0x0000000040249a40                MQTT_Task
                0x0000000040249b10                MQTT_Disconnect
                0x0000000040249b44                MQTT_DeleteClient
                0x0000000040249b78                MQTT_OnConnected
                0x0000000040249b80                MQTT_OnDisconnected
                0x0000000040249b88                MQTT_OnData
                0x0000000040249b90                MQTT_OnPublished
                0x0000000040249b98                MQTT_OnTimeout
 *fill*         0x0000000040249b9d        0x3 
 .irom0.text    0x0000000040249ba0      0x78f build/app_app.a(mqtt_msg.o)
                                        0x7b7 (size before relaxing)
                0x0000000040249cb0                mqtt_msg_init
                0x0000000040249ce0                mqtt_get_total_length
                0x0000000040249d2c                mqtt_get_publish_topic
                0x0000000040249d84                mqtt_get_publish_data
                0x0000000040249e1c                mqtt_get_id
                0x0000000040249ed8                mqtt_msg_connect
                0x000000004024a038                mqtt_msg_publish
                0x000000004024a0ec                mqtt_msg_puback
                0x000000004024a128                mqtt_msg_pubrec
                0x000000004024a164                mqtt_msg_pubrel
                0x000000004024a1a0                mqtt_msg_pubcomp
                0x000000004024a1dc                mqtt_msg_subscribe
                0x000000004024a26c                mqtt_msg_unsubscribe
                0x000000004024a2dc                mqtt_msg_pingreq
                0x000000004024a2f8                mqtt_msg_pingresp
                0x000000004024a314                mqtt_msg_disconnect
 *fill*         0x000000004024a32f        0x1 
 .irom0.text    0x000000004024a330       0x77 build/app_app.a(queue.o)
                                         0x8b (size before relaxing)
                0x000000004024a334                QUEUE_Init
                0x000000004024a368                QUEUE_Puts
                0x000000004024a380                QUEUE_Gets
                0x000000004024a398                QUEUE_IsEmpty
 *fill*         0x000000004024a3a7        0x1 
 .irom0.text    0x000000004024a3a8      0x26d build/app_app.a(proto.o)
                                        0x289 (size before relaxing)
                0x000000004024a3a8                PROTO_Init
                0x000000004024a3bc                PROTO_ParseByte
                0x000000004024a440                PROTO_Parse
                0x000000004024a47c                PROTO_ParseRb
                0x000000004024a4cc                PROTO_Add
                0x000000004024a56c                PROTO_AddRb
 *fill*         0x000000004024a615        0x3 
 .irom0.text    0x000000004024a618      0x289 build/app_app.a(config.o)
                                        0x36d (size before relaxing)
                0x000000004024a630                cfg_save
                0x000000004024a6cc                config_save_timer_func
                0x000000004024a74c                cfg_load
                0x000000004024a868                cfg_save_defered
 *fill*         0x000000004024a8a1        0x3 
 .irom0.text    0x000000004024a8a4      0x2cb build/app_app.a(wifi.o)
                                        0x3db (size before relaxing)
                0x000000004024a8e8                wifi_default
                0x000000004024a964                wifi_fallback
                0x000000004024a9e4                wifi_scan_done_cb
                0x000000004024aabc                wifi_connect
 *fill*         0x000000004024ab6f        0x1 
 .irom0.text    0x000000004024ab70      0xa67 build/app_app.a(tinyprintf.o)
                                        0xa9b (size before relaxing)
                0x000000004024af90                tfp_format
                0x000000004024b4ac                init_printf
                0x000000004024b4b8                tfp_printf
                0x000000004024b4f8                tfp_vsnprintf
                0x000000004024b544                tfp_snprintf
                0x000000004024b574                tfp_vsprintf
                0x000000004024b5ac                tfp_sprintf
 *fill*         0x000000004024b5d7        0x1 
 .irom0.text    0x000000004024b5d8      0x185 build/app_app.a(unix_time.o)
                                        0x1f5 (size before relaxing)
                0x000000004024b670                init_unix_time
                0x000000004024b710                get_unix_time
                0x000000004024b72c                uptime
 *fill*         0x000000004024b75d        0x3 
 .irom0.text    0x000000004024b760      0x1a5 build/app_app.a(cgi.o)
                                        0x1f9 (size before relaxing)
                0x000000004024b76c                cgiLed
                0x000000004024b7c8                tplLed
                0x000000004024b840                tplCounter
                0x000000004024b8a0                cgiReadFlash
 *fill*         0x000000004024b905        0x3 
 .irom0.text    0x000000004024b908      0x310 build/app_app.a(httpdespfs.o)
                                        0x39c (size before relaxing)
                0x000000004024b914                cgiEspFsHook
                0x000000004024b9b8                cgiEspFsTemplate
 .irom0.text    0x000000004024bc18      0x4a0 build/app_app.a(cgiwifi.o)
                                        0x5e4 (size before relaxing)
                0x000000004024bc40                wifiScanDoneCb
                0x000000004024bd58                cgiWiFiScan
                0x000000004024be8c                cgiSetup
                0x000000004024bf54                cgiWifiSetMode
                0x000000004024bfcc                tplSetup
 .irom0.text    0x000000004024c0b8      0x28b build/app_app.a(espfs.o)
                                        0x2a3 (size before relaxing)
                0x000000004024c0b8                memcpyAligned
                0x000000004024c104                espFsOpen
                0x000000004024c214                espFsRead
                0x000000004024c314                espFsClose
 *fill*         0x000000004024c343        0x1 
 .irom0.text    0x000000004024c344      0x178 build/app_app.a(utils.o)
                                        0x19c (size before relaxing)
                0x000000004024c348                ccit_crc16
                0x000000004024c37c                w_to_kw_str
                0x000000004024c3c8                kw_to_w_str
                0x000000004024c478                decimal_number_length
                0x000000004024c49c                int_pow
 .irom0.text    0x000000004024c4bc       0xfa /home/stoffer/esp8266/esp-open-sdk/sdk/lib/libphy.a(phy.o)
                                        0x11e (size before relaxing)
                0x000000004024c4c0                rf_init
                0x000000004024c4dc                bb_init
                0x000000004024c4f4                phy_init
                0x000000004024c524                RFChannelSel
                0x000000004024c540                phy_delete_channel
                0x000000004024c558                phy_enable_agc
                0x000000004024c570                phy_disable_agc
                0x000000004024c588                phy_initialize_bb
                0x000000004024c5a0                phy_set_sense
 *fill*         0x000000004024c5b6        0x2 
 .irom0.text    0x000000004024c5b8     0x16e7 /home/stoffer/esp8266/esp-open-sdk/sdk/lib/libphy.a(phy_chip_v6_ana.o)
                                       0x18e3 (size before relaxing)
                0x000000004024c5bc                ram_pbus_set_rxgain
                0x000000004024c694                ram_pbus_debugmode
                0x000000004024c748                ram_pbus_xpd_tx_on
                0x000000004024c7b4                set_rf_freq_offset
                0x000000004024c824                chip_v6_rxmax_ext_ana
                0x000000004024c978                ram_chip_v6_rx_init
                0x000000004024c9ac                tsen_meas
                0x000000004024ca5c                readvdd33
                0x000000004024cc28                txpwr_offset
                0x000000004024cce4                set_txcap_reg
                0x000000004024cd64                ram_ana_inf_gating_en
                0x000000004024cec4                ram_restart_cal
                0x000000004024cf30                wait_rfpll_cal_end
                0x000000004024cfc4                ram_rfpll_set_freq
                0x000000004024d0c8                ram_set_channel_freq
                0x000000004024d3c8                chip_60_set_channel
                0x000000004024d558                chip_v6_set_chan_offset
                0x000000004024d594                chip_v6_set_chan
                0x000000004024d628                chip_v6_set_chan_wakeup
                0x000000004024d6ac                chip_v6_rf_init
                0x000000004024d8d0                low_power_set
                0x000000004024d920                test_tout
                0x000000004024da98                check_data_flag
                0x000000004024dab8                phy_get_check_flag
                0x000000004024dbec                phy_get_vdd33
 *fill*         0x000000004024dc9f        0x1 
 .irom0.text    0x000000004024dca0     0x3c23 /home/stoffer/esp8266/esp-open-sdk/sdk/lib/libphy.a(phy_chip_v6.o)
                                       0x4293 (size before relaxing)
                0x000000004024dca0                ram_tx_mac_enable
                0x000000004024dca4                ram_tx_mac_disable
                0x000000004024dca8                rtc_mem_backup
                0x000000004024dcd8                rtc_mem_recovery
                0x000000004024dd08                set_cal_rxdc
                0x000000004024ddbc                set_rx_gain_cal_iq
                0x000000004024e114                gen_rx_gain_table
                0x000000004024e26c                pbus_set_rxbbgain
                0x000000004024e2ec                set_rx_gain_testchip_50
                0x000000004024e620                ram_get_corr_power
                0x000000004024e710                check_data_func
                0x000000004024e730                do_noisefloor_lsleep_v50
                0x000000004024e764                do_noisefloor
                0x000000004024e7d4                start_dig_rx
                0x000000004024e818                stop_dig_rx
                0x000000004024e844                chip_v6_set_chanfreq
                0x000000004024e870                tx_cap_init
                0x000000004024ea24                target_power_add_backoff
                0x000000004024ea74                tx_pwctrl_init_cal
                0x000000004024ebdc                tx_atten_set_interp
                0x000000004024ee4c                tx_pwctrl_init
                0x000000004024ef40                ram_get_noisefloor
                0x000000004024ef5c                get_noisefloor_sat
                0x000000004024ef8c                ram_set_noise_floor
                0x000000004024efe8                ram_start_noisefloor
                0x000000004024f034                read_hw_noisefloor
                0x000000004024f060                noise_check_loop
                0x000000004024f1bc                noise_init
                0x000000004024f3bc                target_power_backoff
                0x000000004024f410                sdt_on_noise_start
                0x000000004024f490                chip_v6_set_chan_rx_cmp
                0x000000004024f61c                chip_v6_set_chan_misc
                0x000000004024f6a8                phy_dig_spur_set
                0x000000004024fa00                phy_dig_spur_prot
                0x000000004024fc38                chip_v6_rxmax_ext_dig
                0x000000004024fc84                chip_v6_rxmax_ext
                0x000000004024fd38                phy_bb_rx_cfg
                0x0000000040250140                uart_wait_idle
                0x0000000040250178                phy_pbus_soc_cfg
                0x0000000040250238                phy_gpio_cfg
                0x0000000040250580                tx_cont_en
                0x0000000040250624                tx_cont_dis
                0x0000000040250678                tx_cont_cfg
                0x000000004025069c                chip_v6_initialize_bb
                0x0000000040250804                periodic_cal
                0x00000000402508e4                bbpll_cal
                0x000000004025097c                periodic_cal_top
                0x00000000402509dc                register_chipv6_phy_init_param
                0x0000000040250c80                change_bbpll160_sleep
                0x0000000040250dac                change_bbpll160
                0x0000000040250de4                set_crystal_uart
                0x0000000040250e78                ant_switch_init
                0x0000000040250f24                reduce_current_init
                0x0000000040250f8c                rtc_mem_check
                0x0000000040250fc8                phy_afterwake_set_rfoption
                0x0000000040250fe8                deep_sleep_set_option
                0x0000000040251014                write_data_to_rtc
                0x000000004025104c                get_data_from_rtc
                0x00000000402510d4                register_chipv6_phy
                0x00000000402514e4                set_dpd_bypass
                0x000000004025150c                set_rf_gain_stage10
                0x000000004025153c                get_vdd33_offset
                0x00000000402515b0                get_phy_target_power
                0x0000000040251664                set_most_pwr_reg
                0x0000000040251738                phy_set_most_tpw
                0x0000000040251758                phy_vdd33_set_tpw
                0x0000000040251770                get_adc_rand
                0x00000000402517a4                phy_get_rand
                0x00000000402517bc                phy_tx_pwctrl_cali
                0x00000000402517e4                phy_check_data_table
                0x0000000040251820                phy_after_init_enrx
                0x0000000040251884                phy_set_rx11b_reg
                0x00000000402518b8                phy_set_powerup_option
 *fill*         0x00000000402518c3        0x1 
 .irom0.text    0x00000000402518c4     0x21a8 /home/stoffer/esp8266/esp-open-sdk/sdk/lib/libphy.a(phy_chip_v6_cal.o)
                                       0x23ec (size before relaxing)
                0x00000000402518c4                txbbgain2dcoindex
                0x00000000402518e4                dcoindex2txbbgain
                0x0000000040251908                init_cal_dcoffset
                0x00000000402519cc                set_rfanagain_dc_reg
                0x0000000040251a68                set_txdc_pbus
                0x0000000040251ad4                get_rf_gain_qdb
                0x0000000040251afc                correct_rf_ana_gain
                0x0000000040251c04                get_sar_dout
                0x0000000040251c9c                cal_rf_ana_gain
                0x0000000040251d74                meas_tone_pwr_db
                0x0000000040251de4                tx_pwr_backoff
                0x0000000040251f30                get_fcc_1m2m_pwr_offset
                0x0000000040251f6c                ram_set_txbb_atten
                0x0000000040252000                txiq_get_mis_pwr
                0x00000000402520a4                txiq_cover
                0x00000000402522c0                ram_rfcal_txiq
                0x0000000040252530                rc_cal
                0x00000000402526f0                get_target_power_offset
                0x00000000402527f8                get_pwctrl_correct
                0x0000000040252854                tx_pwctrl_cal
                0x0000000040252be4                tx_pwctrl_bg_init
                0x0000000040252c5c                tx_pwctrl_background
                0x0000000040252d34                read_sar_dout
                0x0000000040252d98                ram_get_fm_sar_dout
                0x0000000040252e3c                ram_cal_tos_v60
                0x000000004025301c                ram_get_bb_atten
                0x000000004025304c                ram_rfcal_txcap
                0x0000000040253210                ram_rfcal_pwrctrl
                0x000000004025342c                ram_rxiq_get_mis
                0x00000000402535f8                ram_rxiq_cover_mg_mp
                0x000000004025379c                ram_rfcal_rxiq
                0x00000000402539a8                dpd_scale_set
                0x00000000402539f0                dpd_mem_write
 .irom0.text    0x0000000040253a6c      0xd7e /home/stoffer/esp8266/esp-open-sdk/sdk/lib/libphy.a(phy_sleep.o)
                                        0xfaa (size before relaxing)
                0x0000000040253a6c                pm_usec2rtc
                0x0000000040253aa0                pm_rtc2usec
                0x0000000040253aac                pm_set_sleep_cycles
                0x0000000040253ad4                pm_sleep_opt
                0x0000000040253bec                pm_wakeup_opt
                0x0000000040253c24                get_chip_version
                0x0000000040253c64                pm_sleep_opt_bb_off
                0x0000000040253ca4                pm_sleep_opt_bb_on
                0x0000000040253cf0                pm_set_pll_xtal_wait_time
                0x0000000040253d38                pm_prepare_to_sleep
                0x0000000040253d5c                pm_sdio_nidle
                0x0000000040253dd0                chg_lslp_mem_opt_8266
                0x0000000040253e00                pm_goto_sleep
                0x0000000040253f4c                pm_wait4wakeup
                0x0000000040253f88                pm_open_rf
                0x0000000040253fcc                pm_sleep_set_mac
                0x0000000040254050                pm_set_wakeup_mac
                0x00000000402540ec                pm_check_mac_idle
                0x0000000040254144                pm_set_sleep_btco
                0x00000000402541e4                pm_set_wakeup_btco
                0x00000000402542fc                pm_set_sleep_mode
                0x0000000040254418                pm_unmask_bt
                0x0000000040254480                pm_wakeup_init
                0x0000000040254690                sleep_opt_8266
                0x00000000402546b0                sleep_opt_bb_on_8266
                0x00000000402546e8                sleep_reset_analog_rtcreg_8266
 *fill*         0x00000000402547ea        0x2 
 .irom0.text    0x00000000402547ec      0x465 /home/stoffer/esp8266/esp-open-sdk/sdk/lib/libpp.a(if_hwctrl.o)
                                        0x581 (size before relaxing)
                0x000000004025480c                ic_get_addr
                0x0000000040254818                ic_set_opmode
                0x000000004025482c                ic_enable_interface
                0x000000004025487c                ic_interface_enabled
                0x0000000040254890                ic_disable_interface
                0x00000000402548d8                ic_is_pure_sta
                0x00000000402548f4                ic_get_ptk_alg
                0x0000000040254904                ic_get_gtk_alg
                0x0000000040254914                ic_set_ptk_alg
                0x0000000040254924                ic_set_gtk_alg
                0x0000000040254934                ic_interface_is_p2p
                0x00000000402549cc                ic_set_vif
                0x0000000040254a88                ic_set_sta
                0x0000000040254b60                ic_bss_info_update
                0x0000000040254bbc                ic_set_key
                0x0000000040254c18                ic_remove_key
                0x0000000040254c2c                ic_get_rssi
 *fill*         0x0000000040254c51        0x3 
 .irom0.text    0x0000000040254c54      0x100 /home/stoffer/esp8266/esp-open-sdk/sdk/lib/libpp.a(lmac.o)
                                        0x118 (size before relaxing)
                0x0000000040254c58                lmacInitAc
                0x0000000040254c8c                lmacInit
                0x0000000040254d38                lmacSetRetryLimit
 .irom0.text    0x0000000040254d54     0x1849 /home/stoffer/esp8266/esp-open-sdk/sdk/lib/libpp.a(pm.o)
                                       0x1d31 (size before relaxing)
                0x0000000040254d5c                pm_rtc_clock_cali_proc
                0x0000000040254d94                pm_get_ck170_period
                0x0000000040254db8                pm_set_sleep_time
                0x0000000040255118                pm_rf_is_closed
                0x0000000040255148                pm_set_sleep_type_from_upper
                0x0000000040255238                pm_get_sleep_type
                0x00000000402553b8                uart_tx_flush
                0x00000000402553bc                pm_suspend
                0x00000000402555dc                pm_shutdown
                0x00000000402556a4                pm_reset_idle_sleep
                0x00000000402556e4                pm_idle_sleep
                0x00000000402556f0                pm_open
                0x00000000402557b4                pm_onBcnRx
                0x0000000040255b1c                StopLightSleepSetFunc
                0x0000000040255b24                LightSleepWakedCbSetFunc
                0x0000000040256024                pm_enable_gpio_wakeup
                0x000000004025605c                pm_attach
                0x000000004025614c                pm_send_nullfunc
                0x00000000402562d4                pm_is_waked
                0x00000000402562ec                pm_is_open
                0x0000000040256304                pm_scan_lock
                0x000000004025632c                pm_try_scan_unlock
                0x0000000040256344                pm_force_scan_unlock
                0x00000000402563c0                pm_scan_unlocked
                0x00000000402563d4                pm_allow_tx
                0x00000000402563f0                pm_assoc_parse
                0x0000000040256408                pm_set_addr
                0x0000000040256428                pm_sleep_for
                0x0000000040256458                pm_post
                0x000000004025655c                pm_get_idle_wait_time
 *fill*         0x000000004025659d        0x3 
 .irom0.text    0x00000000402565a0      0xa91 /home/stoffer/esp8266/esp-open-sdk/sdk/lib/libpp.a(pm_for_bcn_only_mode.o)
                                        0xe19 (size before relaxing)
                0x00000000402565b4                wifi_fpm_set_sleep_type
                0x00000000402565b4                fpm_set_type_from_upper
                0x0000000040256670                wifi_fpm_get_sleep_type
                0x0000000040256670                fpm_get_slp_type
                0x0000000040256678                fpm_rf_is_closed
                0x000000004025668c                fpm_is_open
                0x0000000040256698                fpm_allow_tx
                0x00000000402566bc                wifi_fpm_close
                0x00000000402566bc                fpm_close
                0x0000000040256738                wifi_fpm_open
                0x0000000040256738                fpm_open
                0x00000000402567a0                fpm_attach
                0x0000000040256984                wifi_fpm_set_wakeup_cb
                0x0000000040256984                fpm_set_wakeup_cb
                0x0000000040256af4                wifi_fpm_do_wakeup
                0x0000000040256af4                fpm_do_wakeup
                0x0000000040256fb8                fpm_do_sleep
                0x0000000040256fb8                wifi_fpm_do_sleep
 *fill*         0x0000000040257031        0x3 
 .irom0.text    0x0000000040257034     0x15b2 /home/stoffer/esp8266/esp-open-sdk/sdk/lib/libpp.a(pp.o)
                                       0x1992 (size before relaxing)
                0x0000000040257040                PPWdtReset
                0x0000000040257074                pp_soft_wdt_init
                0x0000000040257094                system_soft_wdt_feed
                0x0000000040257094                pp_soft_wdt_feed
                0x00000000402570b0                pp_soft_wdt_stop
                0x00000000402570b0                system_soft_wdt_stop
                0x00000000402570dc                pp_soft_wdt_restart
                0x00000000402570dc                system_soft_wdt_restart
                0x0000000040257114                RxNodeNum
                0x000000004025712c                TxNodeNum
                0x0000000040257150                pp_disable_noise_timer
                0x0000000040257170                pp_enable_noise_timer
                0x0000000040257280                pp_noise_test
                0x0000000040257290                reset_noise_timer
                0x00000000402572c8                pp_disable_idle_timer
                0x00000000402572ec                pp_enable_idle_timer
                0x0000000040257314                pp_try_enable_idle_timer
                0x0000000040257350                ppPeocessRxPktHdr
                0x0000000040257684                HdlAllBuffedEb
                0x000000004025770c                ppTxPkt
                0x0000000040257884                ppProcessWaitQ
                0x0000000040257894                ppRegisterTxCallback
                0x00000000402578bc                ppUnregisterTxCallback
                0x00000000402578f0                ppRecycleRxPkt
                0x0000000040257950                ppCheckTxIdle
                0x0000000040257bc8                pp_tx_idle_timeout
                0x0000000040257d84                DefFreqCalTimerCB
                0x0000000040258104                ppGetTxQFirstAvail_Locked
                0x00000000402581e4                pp_attach
 *fill*         0x00000000402585e6        0x2 
 .irom0.text    0x00000000402585e8      0x296 /home/stoffer/esp8266/esp-open-sdk/sdk/lib/libpp.a(rate_control.o)
                                        0x2a2 (size before relaxing)
                0x0000000040258834                RC_SetBasicRate
 *fill*         0x000000004025887e        0x2 
 .irom0.text    0x0000000040258880      0x5e9 /home/stoffer/esp8266/esp-open-sdk/sdk/lib/libpp.a(trc.o)
                                        0x64d (size before relaxing)
                0x0000000040258880                phytype2mode
                0x000000004025889c                rc_set_rate_limit_id
                0x00000000402589b8                rcUpdatePhyMode
                0x0000000040258b84                rcAttach
                0x0000000040258bd0                rcGetTrc
                0x0000000040258bd8                trc_onDisconnect
                0x0000000040258bdc                trc_onScanStart
                0x0000000040258bf0                trc_onScanDone
                0x0000000040258c0c                rc_enable_trc
                0x0000000040258ce4                rc_get_mask
                0x0000000040258cf8                rc_disable_trc
                0x0000000040258d4c                rc_disable_trc_by_interface
                0x0000000040258d68                rc_get_sta_trc
                0x0000000040258dac                rc_get_trc
                0x0000000040258e1c                rc_get_trc_by_index
                0x0000000040258e3c                rc_only_sta_trc
 *fill*         0x0000000040258e69        0x3 
 .irom0.text    0x0000000040258e6c      0xaf7 /home/stoffer/esp8266/esp-open-sdk/sdk/lib/libpp.a(wdev.o)
                                        0xc53 (size before relaxing)
                0x0000000040258e78                wDev_Option_Init
                0x0000000040258f6c                wDev_Enable_Beacon_Tsf
                0x0000000040258f88                wDev_Disable_Beacon_Tsf
                0x0000000040258fa4                wDev_Set_Beacon_Int
                0x0000000040258fac                wDev_Reset_TBTT
                0x0000000040258fdc                wDev_Get_Next_TBTT
                0x0000000040259258                wDev_Initialize
                0x00000000402592c8                wDevForceAck6M
                0x00000000402592e4                wDev_SetMacAddress
                0x0000000040259380                wDev_SetRxPolicy
                0x00000000402593d4                wDev_SetBssid
                0x00000000402594ac                wDev_ClearBssid
                0x00000000402594e4                wDev_Insert_KeyEntry
                0x00000000402595d8                wDev_remove_KeyEntry
                0x0000000040259614                wDev_remove_KeyEntry_all_cnx
                0x0000000040259664                wDev_Crypto_Conf
                0x0000000040259700                wDev_Crypto_Disable
                0x0000000040259738                wDevEnableRx
                0x0000000040259760                wdev_go_sniffer
                0x000000004025983c                wdev_set_sniffer_addr
                0x0000000040259894                wdev_exit_sniffer
 *fill*         0x0000000040259963        0x1 
 .irom0.text    0x0000000040259964      0x3ed /home/stoffer/esp8266/esp-open-sdk/sdk/lib/libpp.a(esf_buf.o)
                                        0x4c1 (size before relaxing)
                0x000000004025996c                esf_buf_alloc
                0x0000000040259b54                esf_buf_recycle
                0x0000000040259c94                esf_buf_setup
 *fill*         0x0000000040259d51        0x3 
 .irom0.text    0x0000000040259d54      0x475 /home/stoffer/esp8266/esp-open-sdk/sdk/lib/libnet80211.a(ieee80211.o)
                                        0x545 (size before relaxing)
                0x0000000040259dd8                ieee80211_rate_ref_init
                0x0000000040259dec                ieee80211_freedom_inside_cb
                0x0000000040259e1c                ieee80211_freedom_init
                0x0000000040259e40                ieee80211_user_ie_init
                0x0000000040259e5c                ieee80211_ifattach
                0x0000000040259ec0                ieee80211_mhz2ieee
                0x0000000040259f1c                ieee80211_chan2ieee
                0x0000000040259f38                ieee80211_ieee2mhz
                0x0000000040259f78                ieee80211_find_channel
                0x0000000040259fa4                ieee80211_find_channel_byieee
                0x0000000040259ff4                wifi_mode_set
 *fill*         0x000000004025a1c9        0x3 
 .irom0.text    0x000000004025a1cc       0xcf /home/stoffer/esp8266/esp-open-sdk/sdk/lib/libnet80211.a(ieee80211_crypto.o)
                                         0xd7 (size before relaxing)
                0x000000004025a1cc                ieee80211_crypto_attach
                0x000000004025a1d0                ieee80211_crypto_available
                0x000000004025a1d4                ieee80211_crypto_setkey
                0x000000004025a1d8                ieee80211_crypto_encap
                0x000000004025a230                ieee80211_crypto_decap
 *fill*         0x000000004025a29b        0x1 
 .irom0.text    0x000000004025a29c       0x4c /home/stoffer/esp8266/esp-open-sdk/sdk/lib/libnet80211.a(ieee80211_ets.o)
                                         0x50 (size before relaxing)
                0x000000004025a2a0                ieee80211_getmgtframe
 .irom0.text    0x000000004025a2e8     0x1a08 /home/stoffer/esp8266/esp-open-sdk/sdk/lib/libnet80211.a(ieee80211_hostap.o)
                                       0x1f77 (size before relaxing)
                0x000000004025a90c                ieee80211_hostap_attach
                0x000000004025aa08                hostap_handle_timer
                0x000000004025aaa0                hostap_input
                0x000000004025b9ec                wifi_softap_start
                0x000000004025bb58                wifi_softap_stop
 *fill*         0x000000004025bcf0        0x0 
 .irom0.text    0x000000004025bcf0      0xa7e /home/stoffer/esp8266/esp-open-sdk/sdk/lib/libnet80211.a(ieee80211_ht.o)
                                        0xb4e (size before relaxing)
                0x000000004025bd00                ieee80211_ht_attach
                0x000000004025bd54                ieee80211_ht_node_init
                0x000000004025bd94                ieee80211_ht_node_cleanup
                0x000000004025bdcc                ieee80211_parse_htcap
                0x000000004025beac                ieee80211_ht_updateparams
                0x000000004025bfc0                ieee80211_setup_htrates
                0x000000004025c08c                ieee80211_setup_basic_htrates
                0x000000004025c3d8                ieee80211_add_htcap
                0x000000004025c3f4                ieee80211_add_htcap_vendor
                0x000000004025c518                ieee80211_add_htinfo
                0x000000004025c534                ieee80211_add_htinfo_vendor
 *fill*         0x000000004025c76e        0x2 
 .irom0.text    0x000000004025c770      0xa8c /home/stoffer/esp8266/esp-open-sdk/sdk/lib/libnet80211.a(ieee80211_input.o)
                                        0xb1c (size before relaxing)
                0x000000004025c770                ieee80211_deliver_data
                0x000000004025c7c4                ieee80211_decap
                0x000000004025c8c8                ieee80211_setup_rates
                0x000000004025c938                ieee80211_alloc_challenge
                0x000000004025c974                ieee80211_parse_beacon
                0x000000004025cf48                ieee80211_parse_wpa
                0x000000004025d05c                ieee80211_parse_rsn
                0x000000004025d15c                ieee80211_parse_action
                0x000000004025d1f8                ieee80211_setup_rateset
 .irom0.text    0x000000004025d1fc      0x2a6 /home/stoffer/esp8266/esp-open-sdk/sdk/lib/libnet80211.a(ieee80211_mesh_quick.o)
                                        0x302 (size before relaxing)
                0x000000004025d208                ieee80211_mesh_quick_init
                0x000000004025d278                ieee80211_mesh_quick_deinit
                0x000000004025d2a8                ieee80211_mesh_quick_set
                0x000000004025d3a4                ieee80211_mesh_quick_get
                0x000000004025d470                ieee80211_mesh_quick_ie_add
 *fill*         0x000000004025d4a2        0x2 
 .irom0.text    0x000000004025d4a4     0x1c42 /home/stoffer/esp8266/esp-open-sdk/sdk/lib/libnet80211.a(ieee80211_output.o)
                                       0x1fe2 (size before relaxing)
                0x000000004025d4a8                ieee80211_output_pbuf
                0x000000004025d718                ieee80211_send_setup
                0x000000004025d84c                ieee80211_mgmt_output
                0x000000004025d930                ieee80211_tx_mgt_cb
                0x000000004025d934                ieee80211_send_nulldata
                0x000000004025dda4                ieee80211_add_rates
                0x000000004025ddf4                ieee80211_add_xrates
                0x000000004025dec4                ieee80211_send_probereq
                0x000000004025e0d8                ieee80211_getcapinfo
                0x000000004025e134                ieee80211_send_mgmt
                0x000000004025e6d0                ieee80211_alloc_proberesp
                0x000000004025e8a8                ieee80211_send_proberesp
                0x000000004025e9f0                ieee80211_alloc_deauth
                0x000000004025ea30                ieee80211_send_deauth
                0x000000004025eb6c                ieee80211_freedom_output
                0x000000004025ef50                ieee80211_beacon_alloc
 *fill*         0x000000004025f0e6        0x2 
 .irom0.text    0x000000004025f0e8       0xe0 /home/stoffer/esp8266/esp-open-sdk/sdk/lib/libnet80211.a(ieee80211_phy.o)
                                        0x108 (size before relaxing)
                0x000000004025f0e8                ieee80211_phy_init
                0x000000004025f11c                ieee80211_phy_type_get
                0x000000004025f138                ieee80211_setup_ratetable
 .irom0.text    0x000000004025f1c8      0x1b6 /home/stoffer/esp8266/esp-open-sdk/sdk/lib/libnet80211.a(ieee80211_power.o)
                                        0x1f2 (size before relaxing)
                0x000000004025f1c8                ieee80211_psq_init
                0x000000004025f1e8                ieee80211_psq_cleanup
                0x000000004025f1f0                ieee80211_set_tim
                0x000000004025f230                ieee80211_pwrsave
                0x000000004025f298                pwrsave_flushq
                0x000000004025f348                ieee80211_node_pwrsave
 *fill*         0x000000004025f37e        0x2 
 .irom0.text    0x000000004025f380      0x101 /home/stoffer/esp8266/esp-open-sdk/sdk/lib/libnet80211.a(ieee80211_proto.o)
                                        0x129 (size before relaxing)
                0x000000004025f384                ieee80211_proto_attach
                0x000000004025f3ac                ieee80211_set_shortslottime
                0x000000004025f3c8                ieee80211_iserp_rateset
                0x000000004025f3fc                ieee80211_wme_initparams
                0x000000004025f400                ieee80211_wme_updateparams
                0x000000004025f408                ieee80211_mlme_connect_bss
 *fill*         0x000000004025f481        0x3 
 .irom0.text    0x000000004025f484       0xaa /home/stoffer/esp8266/esp-open-sdk/sdk/lib/libnet80211.a(ieee80211_rfid.o)
                                         0xd6 (size before relaxing)
                0x000000004025f484                ieee80211_rfid_locp_recv_open
                0x000000004025f4bc                ieee80211_rfid_locp_recv_close
                0x000000004025f4d4                ieee80211_rfid_locp_recv_reset
                0x000000004025f4f4                ieee80211_rfid_locp_recv
                0x000000004025f510                register_ieee80211_rfid_locp_recv_cb
                0x000000004025f524                unregister_ieee80211_rfid_locp_recv_cb
 *fill*         0x000000004025f52e        0x2 
 .irom0.text    0x000000004025f530      0xf51 /home/stoffer/esp8266/esp-open-sdk/sdk/lib/libnet80211.a(ieee80211_scan.o)
                                       0x12a1 (size before relaxing)
                0x000000004025f53c                ieee80211_scan_attach
                0x000000004025f5d0                scan_start
                0x000000004025f794                scan_pm_channel_op_cb
                0x000000004025f934                scan_cancel
                0x000000004025fa90                scan_add_bssid
                0x000000004025fab4                scan_remove_bssid
                0x000000004025fac0                scan_hidden_ssid
                0x000000004025fac8                scan_add_probe_ssid
                0x000000004025fb1c                scan_remove_probe_ssid
                0x000000004025fc58                scan_clear_channles
                0x000000004025fccc                scan_set_desChan
                0x000000004025fcd8                scan_get_type
                0x000000004025fce0                cannel_scan_connect_state
                0x000000004025fcf8                scan_connect_state
                0x000000004025fd40                scan_check_hidden
                0x000000004025fd6c                scan_profile_check
                0x0000000040260110                scan_parse_beacon
 *fill*         0x0000000040260481        0x3 
 .irom0.text    0x0000000040260484     0x1026 /home/stoffer/esp8266/esp-open-sdk/sdk/lib/libnet80211.a(ieee80211_sta.o)
                                       0x12b1 (size before relaxing)
                0x00000000402604e0                sta_status_set
                0x000000004026054c                ieee80211_sta_new_state
                0x00000000402608c4                sta_input
                0x0000000040260e10                ieee80211_parse_wmeparams
                0x0000000040261400                wifi_station_start
                0x0000000040261470                wifi_station_stop
 *fill*         0x00000000402614aa        0x2 
 .irom0.text    0x00000000402614ac      0x29e /home/stoffer/esp8266/esp-open-sdk/sdk/lib/libnet80211.a(wl_chm.o)
                                        0x31e (size before relaxing)
                0x00000000402614b8                chm_init
                0x000000004026151c                chm_acquire_lock
                0x0000000040261560                chm_release_lock
                0x0000000040261574                chm_start_op
                0x0000000040261618                chm_end_op
                0x0000000040261660                chm_cancel_op
                0x0000000040261694                chm_return_home_channel
                0x00000000402616c4                chm_set_current_channel
                0x00000000402616f4                chm_freq2index
                0x000000004026171c                chm_check_same_channel
 *fill*         0x000000004026174a        0x2 
 .irom0.text    0x000000004026174c     0x17bd /home/stoffer/esp8266/esp-open-sdk/sdk/lib/libnet80211.a(wl_cnx.o)
                                       0x1d31 (size before relaxing)
                0x0000000040261758                cnx_attach
                0x0000000040261798                cnx_sta_connect_led_timer_cb
                0x00000000402617ec                cnx_sta_connect_cmd
                0x00000000402618a8                cnx_sta_scan_cmd
                0x0000000040261b04                cnx_connect_timeout
                0x0000000040261b80                cnx_auth_timeout
                0x0000000040261ba4                cnx_assoc_timeout
                0x0000000040261bc8                cnx_handshake_timeout
                0x0000000040261c08                cnx_start_handoff_cb
                0x0000000040262068                cnx_bss_alloc
                0x0000000040262108                cnx_rc_search
                0x0000000040262188                cnx_add_rc
                0x00000000402621f4                cnx_remove_all_rc
                0x0000000040262240                cnx_remove_rc
                0x0000000040262310                cnx_rc_update_rssi
                0x0000000040262398                cnx_rc_update_state_metric
                0x0000000040262404                cnx_rc_update_age
                0x0000000040262428                cnx_update_bss
                0x000000004026245c                cnx_update_bss_more
                0x0000000040262638                cnx_sta_leave
                0x00000000402628cc                cnx_sta_associated
                0x00000000402629d4                cnx_node_alloc
                0x0000000040262a48                cnx_node_remove
                0x0000000040262ad4                cnx_node_search
                0x0000000040262b50                cnx_node_leave
                0x0000000040262c50                wifi_softap_staconnected_event_policy
                0x0000000040262c78                wifi_softap_toomany_deny
                0x0000000040262cb4                cnx_node_join
 *fill*         0x0000000040262f09        0x3 
 .irom0.text    0x0000000040262f0c      0x16f /home/stoffer/esp8266/esp-open-sdk/sdk/lib/libnet80211.a(ieee80211_action.o)
                                        0x193 (size before relaxing)
                0x0000000040262f1c                ieee80211_send_action_register
                0x0000000040262f50                ieee80211_send_action_unregister
                0x0000000040262f64                ieee80211_send_action
                0x0000000040262fd0                ieee80211_recv_action_register
                0x0000000040263004                ieee80211_recv_action_unregister
                0x0000000040263018                ieee80211_recv_action
 *fill*         0x000000004026307b        0x1 
 .irom0.text    0x000000004026307c      0x479 /home/stoffer/esp8266/esp-open-sdk/sdk/lib/libnet80211.a(ieee80211_action_vendor.o)
                                        0x505 (size before relaxing)
                0x0000000040263080                get_iav_key
                0x00000000402630a0                register_ieee80211_action_vendor_get_key_cb
                0x00000000402630b4                unregister_ieee80211_action_vendor_get_key_cb
                0x00000000402630c8                ieee80211_add_action_vendor_spec_esp
                0x0000000040263110                ieee80211_alloc_action_vendor_spec
                0x00000000402631fc                ieee80211_send_action_vendor_spec
                0x0000000040263390                ieee80211_recv_action_vendor_spec
                0x0000000040263498                ieee80211_action_vendor_spec_attach
                0x00000000402634d8                register_ieee80211_action_vendor_spec_cb
                0x00000000402634ec                unregister_ieee80211_action_vendor_spec_cb
 *fill*         0x00000000402634f5        0x3 
 .irom0.text    0x00000000402634f8      0x15d /home/stoffer/esp8266/esp-open-sdk/sdk/lib/libnet80211.a(ieee80211_crypto_ccmp.o)
                                        0x165 (size before relaxing)
 *fill*         0x0000000040263655        0x3 
 .irom0.text    0x0000000040263658      0x23d /home/stoffer/esp8266/esp-open-sdk/sdk/lib/libnet80211.a(ieee80211_ie_vendor.o)
                                        0x25d (size before relaxing)
                0x000000004026365c                ieee80211_add_ie_vendor_esp_head
                0x0000000040263694                ieee80211_add_ie_vendor_esp_mesh_assoc
                0x0000000040263718                ieee80211_add_ie_vendor_esp_mesh_group
                0x0000000040263748                ieee80211_add_ie_vendor_esp_simple_pair
                0x0000000040263798                ieee80211_add_ie_vendor_esp_freq_annon
                0x00000000402637d0                ieee80211_add_ie_vendor_esp_now
                0x0000000040263808                ieee80211_add_ie_vendor_esp_ssid
                0x0000000040263848                ieee80211_add_ie_vendor_esp_manufacturer
 *fill*         0x0000000040263895        0x3 
 .irom0.text    0x0000000040263898     0x13b2 /home/stoffer/esp8266/esp-open-sdk/sdk/lib/liblwip.a(dhcp.o)
                                       0x159e (size before relaxing)
                0x0000000040263b14                dhcp_coarse_tmr
                0x0000000040263b60                dhcp_fine_tmr
                0x0000000040263db8                dhcp_set_struct
                0x0000000040263de0                dhcp_cleanup
                0x0000000040263e0c                dhcp_start
                0x0000000040263ec4                dhcp_inform
                0x0000000040263f70                dhcp_network_changed
                0x0000000040263fb8                dhcp_arp_reply
                0x00000000402642b4                dhcp_renew
                0x0000000040264528                dhcp_release
                0x00000000402645e8                dhcp_stop
 *fill*         0x0000000040264c4a        0x2 
 .irom0.text    0x0000000040264c4c      0xcd7 /home/stoffer/esp8266/esp-open-sdk/sdk/lib/liblwip.a(dhcpserver.o)
                                        0xebf (size before relaxing)
                0x0000000040264c4c                node_insert_to_list
                0x0000000040264c84                node_remove_from_list
                0x00000000402655ac                dhcps_start
                0x0000000040265614                dhcps_stop
                0x0000000040265680                wifi_softap_set_dhcps_lease
                0x000000004026576c                wifi_softap_get_dhcps_lease
                0x0000000040265804                dhcps_coarse_tmr
                0x000000004026587c                wifi_softap_set_dhcps_offer_option
                0x00000000402658c0                wifi_softap_set_dhcps_lease_time
                0x00000000402658f0                wifi_softap_reset_dhcps_lease_time
                0x000000004026591c                wifi_softap_get_dhcps_lease_time
 *fill*         0x0000000040265923        0x1 
 .irom0.text    0x0000000040265924      0x5c3 /home/stoffer/esp8266/esp-open-sdk/sdk/lib/liblwip.a(dns.o)
                                        0x677 (size before relaxing)
                0x0000000040265930                dns_init
                0x0000000040265970                dns_setserver
                0x0000000040265990                dns_getserver
                0x00000000402659a4                dns_tmr
                0x0000000040265e90                dns_gethostbyname
 *fill*         0x0000000040265ee7        0x1 
 .irom0.text    0x0000000040265ee8      0xa76 /home/stoffer/esp8266/esp-open-sdk/sdk/lib/liblwip.a(espconn.o)
                                        0xb6e (size before relaxing)
                0x0000000040265ee8                espconn_copy_partial
                0x0000000040265f78                espconn_list_creat
                0x0000000040265f98                espconn_list_delete
                0x0000000040265fc0                espconn_pbuf_create
                0x0000000040265fdc                espconn_pbuf_delete
                0x0000000040266004                espconn_find_connection
                0x00000000402660c0                espconn_connect
                0x00000000402661a4                espconn_create
                0x00000000402661ec                espconn_sent
                0x00000000402661ec                espconn_send
                0x00000000402662b0                espconn_sendto
                0x00000000402662f8                espconn_tcp_get_wnd
                0x000000004026631c                espconn_tcp_set_wnd
                0x0000000040266338                espconn_tcp_get_mss
                0x0000000040266340                espconn_tcp_get_max_con
                0x0000000040266350                espconn_tcp_set_max_con
                0x0000000040266368                espconn_tcp_get_max_retran
                0x0000000040266378                espconn_tcp_set_max_retran
                0x0000000040266390                espconn_tcp_get_max_syn
                0x00000000402663a0                espconn_tcp_set_max_syn
                0x00000000402663b8                espconn_tcp_get_max_con_allow
                0x00000000402663e0                espconn_tcp_set_max_con_allow
                0x0000000040266410                espconn_tcp_set_buf_count
                0x0000000040266454                espconn_regist_sentcb
                0x0000000040266460                espconn_regist_write_finish
                0x0000000040266478                espconn_regist_connectcb
                0x0000000040266488                espconn_regist_recvcb
                0x0000000040266494                espconn_regist_reconcb
                0x00000000402664a4                espconn_regist_disconcb
                0x00000000402664b8                espconn_get_connection_info
                0x0000000040266580                espconn_accept
                0x00000000402665c4                espconn_regist_time
                0x0000000040266604                espconn_disconnect
                0x0000000040266644                espconn_abort
                0x000000004026668c                espconn_get_packet_info
                0x000000004026671c                espconn_set_opt
                0x0000000040266774                espconn_clear_opt
                0x00000000402667d4                espconn_set_keepalive
                0x0000000040266840                espconn_get_keepalive
                0x00000000402668b0                espconn_delete
                0x00000000402668f8                espconn_port
                0x0000000040266930                espconn_gethostbyname
                0x000000004026694c                espconn_dns_setserver
 *fill*         0x000000004026695e        0x2 
 .irom0.text    0x0000000040266960      0xfdc /home/stoffer/esp8266/esp-open-sdk/sdk/lib/liblwip.a(espconn_tcp.o)
                                       0x130c (size before relaxing)
                0x0000000040266a48                espconn_kill_oldest_pcb
                0x0000000040266acc                espconn_kill_pcb
                0x0000000040266b48                espconn_find_current_pcb
                0x0000000040266e50                espconn_tcp_sent
                0x0000000040266f08                espconn_tcp_disconnect
                0x0000000040266fb0                espconn_recv_hold
                0x0000000040266ff4                espconn_recv_unhold
                0x0000000040267100                espconn_tcp_write
                0x0000000040267330                espconn_tcp_client
                0x00000000402677d8                espconn_tcp_server
                0x0000000040267894                espconn_tcp_delete
                0x0000000040267920                espconn_init
 .irom0.text    0x000000004026793c      0x4e7 /home/stoffer/esp8266/esp-open-sdk/sdk/lib/liblwip.a(espconn_udp.o)
                                        0x63f (size before relaxing)
                0x000000004026798c                espconn_udp_sent
                0x0000000040267af4                espconn_udp_sendto
                0x0000000040267d48                espconn_udp_disconnect
                0x0000000040267d84                espconn_udp_server
                0x0000000040267dec                espconn_igmp_leave
                0x0000000040267e08                espconn_igmp_join
 *fill*         0x0000000040267e23        0x1 
 .irom0.text    0x0000000040267e24      0x8cf /home/stoffer/esp8266/esp-open-sdk/sdk/lib/liblwip.a(etharp.o)
                                        0x9b7 (size before relaxing)
                0x0000000040267e58                etharp_tmr
                0x0000000040268084                etharp_cleanup_netif
                0x00000000402680c0                etharp_find_addr
                0x0000000040268314                etharp_output
                0x0000000040268428                etharp_query
                0x0000000040268658                etharp_request
                0x000000004026867c                ethernet_input
 *fill*         0x00000000402686f3        0x1 
 .irom0.text    0x00000000402686f4      0x5e6 /home/stoffer/esp8266/esp-open-sdk/sdk/lib/liblwip.a(igmp.o)
                                        0x67a (size before relaxing)
                0x0000000040268700                igmp_init
                0x0000000040268710                igmp_start
                0x0000000040268754                igmp_stop
                0x00000000402687b8                igmp_report_groups
                0x00000000402687e8                igmp_lookfor_group
                0x00000000402688b0                igmp_input
                0x00000000402689f8                igmp_joingroup
                0x0000000040268aa0                igmp_leavegroup
                0x0000000040268b44                igmp_tmr
 *fill*         0x0000000040268cda        0x2 
 .irom0.text    0x0000000040268cdc       0x40 /home/stoffer/esp8266/esp-open-sdk/sdk/lib/liblwip.a(init.o)
                                         0x60 (size before relaxing)
                0x0000000040268ce0                lwip_init
 .irom0.text    0x0000000040268d1c      0x37a /home/stoffer/esp8266/esp-open-sdk/sdk/lib/liblwip.a(ip_addr.o)
                                        0x3a2 (size before relaxing)
                0x0000000040268d1c                ip4_addr_isbroadcast
                0x0000000040268d48                ip4_addr_netmask_valid
                0x0000000040268d88                ipaddr_addr
                0x0000000040268da4                ipaddr_aton
                0x0000000040268fc0                ipaddr_ntoa
                0x0000000040268fd4                ipaddr_ntoa_r
 *fill*         0x0000000040269096        0x2 
 .irom0.text    0x0000000040269098      0x581 /home/stoffer/esp8266/esp-open-sdk/sdk/lib/liblwip.a(ip.o)
                                        0x62d (size before relaxing)
                0x0000000040269098                ip_route
                0x0000000040269114                ip_router
                0x0000000040269190                ip_input
                0x00000000402693e8                ip_output_if
                0x0000000040269404                ip_output_if_opt
                0x00000000402695e0                ip_output
 *fill*         0x0000000040269619        0x3 
 .irom0.text    0x000000004026961c      0x27d /home/stoffer/esp8266/esp-open-sdk/sdk/lib/liblwip.a(netif.o)
                                        0x2bd (size before relaxing)
                0x000000004026961c                netif_init
                0x0000000040269624                netif_add
                0x000000004026968c                netif_set_addr
                0x00000000402696b4                netif_remove
                0x0000000040269710                netif_find
                0x000000004026974c                netif_set_ipaddr
                0x00000000402697b4                netif_set_gw
                0x00000000402697c4                netif_set_netmask
                0x00000000402697d4                netif_set_default
                0x00000000402697dc                netif_set_up
                0x0000000040269818                netif_set_down
                0x000000004026983c                netif_set_link_up
                0x0000000040269888                netif_set_link_down
 *fill*         0x0000000040269899        0x3 
 .irom0.text    0x000000004026989c      0x68e /home/stoffer/esp8266/esp-open-sdk/sdk/lib/liblwip.a(pbuf.o)
                                        0x6f6 (size before relaxing)
                0x000000004026989c                pbuf_free_ooseq_new
                0x00000000402698f4                pbuf_alloc
                0x0000000040269a54                pbuf_realloc
                0x0000000040269a9c                pbuf_header
                0x0000000040269b08                pbuf_free
                0x0000000040269b94                pbuf_clen
                0x0000000040269bac                pbuf_ref
                0x0000000040269bb8                pbuf_cat
                0x0000000040269be4                pbuf_chain
                0x0000000040269c00                pbuf_dechain
                0x0000000040269c3c                pbuf_copy
                0x0000000040269ce0                pbuf_copy_partial
                0x0000000040269d60                pbuf_take
                0x0000000040269dc0                pbuf_coalesce
                0x0000000040269df4                pbuf_get_at
                0x0000000040269e1c                pbuf_memcmp
                0x0000000040269e88                pbuf_memfind
                0x0000000040269ee0                pbuf_strstr
 *fill*         0x0000000040269f2a        0x2 
 .irom0.text    0x0000000040269f2c      0x1f0 /home/stoffer/esp8266/esp-open-sdk/sdk/lib/liblwip.a(raw.o)
                                        0x248 (size before relaxing)
                0x0000000040269f34                raw_input
                0x0000000040269fbc                raw_bind
                0x0000000040269fcc                raw_connect
                0x0000000040269fdc                raw_recv
                0x0000000040269fe4                raw_sendto
                0x000000004026a080                raw_send
                0x000000004026a098                raw_remove
                0x000000004026a0d4                raw_new
 .irom0.text    0x000000004026a11c      0x875 /home/stoffer/esp8266/esp-open-sdk/sdk/lib/liblwip.a(sntp.o)
                                        0xa35 (size before relaxing)
                0x000000004026a134                sntp_mktm_r
                0x000000004026a3e0                sntp_localtime_r
                0x000000004026a3f4                sntp_localtime
                0x000000004026a410                sntp__tzcalc_limits
                0x000000004026a5bc                sntp_asctime_r
                0x000000004026a608                sntp_asctime
                0x000000004026a620                sntp_get_timezone
                0x000000004026a630                sntp_set_timezone
                0x000000004026a63c                sntp_time_inc
                0x000000004026a8c8                sntp_init
                0x000000004026a900                sntp_stop
                0x000000004026a940                sntp_setserver
                0x000000004026a95c                sntp_getserver
                0x000000004026a970                sntp_setservername
                0x000000004026a980                sntp_getservername
 *fill*         0x000000004026a991        0x3 
 .irom0.text    0x000000004026a994     0x157c /home/stoffer/esp8266/esp-open-sdk/sdk/lib/liblwip.a(tcp_in.o)
                                       0x17c0 (size before relaxing)
                0x000000004026a99c                tcp_input
 .irom0.text    0x000000004026bf10      0xae3 /home/stoffer/esp8266/esp-open-sdk/sdk/lib/liblwip.a(tcp.o)
                                        0xc1f (size before relaxing)
                0x000000004026bf14                tcp_tmr
                0x000000004026bf38                tcp_close
                0x000000004026bf5c                tcp_shutdown
                0x000000004026bfbc                tcp_abandon
                0x000000004026c064                tcp_abort
                0x000000004026c07c                tcp_bind
                0x000000004026c0f8                tcp_listen_with_backlog
                0x000000004026c1b8                tcp_update_rcv_ann_wnd
                0x000000004026c1fc                tcp_recved
                0x000000004026c258                tcp_connect
                0x000000004026c364                tcp_slowtmr
                0x000000004026c60c                tcp_fasttmr
                0x000000004026c688                tcp_segs_free
                0x000000004026c6a4                tcp_seg_free
                0x000000004026c6d0                tcp_setprio
                0x000000004026c6d8                tcp_seg_copy
                0x000000004026c71c                tcp_recv_null
                0x000000004026c7d0                tcp_alloc
                0x000000004026c8b4                tcp_new
                0x000000004026c8c8                tcp_arg
                0x000000004026c8cc                tcp_recv
                0x000000004026c8d4                tcp_sent
                0x000000004026c8dc                tcp_err
                0x000000004026c8e4                tcp_accept
                0x000000004026c8e8                tcp_poll
                0x000000004026c8f0                tcp_pcb_purge
                0x000000004026c944                tcp_pcb_remove
                0x000000004026c9ac                tcp_next_iss
                0x000000004026c9c0                tcp_eff_send_mss
 *fill*         0x000000004026c9f3        0x1 
 .irom0.text    0x000000004026c9f4      0xf14 /home/stoffer/esp8266/esp-open-sdk/sdk/lib/liblwip.a(tcp_out.o)
                                       0x1018 (size before relaxing)
                0x000000004026caec                tcp_send_fin
                0x000000004026ccd4                tcp_write
                0x000000004026d010                tcp_enqueue_flags
                0x000000004026d0f4                tcp_send_empty_ack
                0x000000004026d188                tcp_output
                0x000000004026d48c                tcp_rst
                0x000000004026d5cc                tcp_rexmit_rto
                0x000000004026d640                tcp_rexmit
                0x000000004026d6ec                tcp_rexmit_fast
                0x000000004026d744                tcp_keepalive
                0x000000004026d7c4                tcp_zero_window_probe
 .irom0.text    0x000000004026d908      0x2c7 /home/stoffer/esp8266/esp-open-sdk/sdk/lib/liblwip.a(timers.o)
                                        0x357 (size before relaxing)
                0x000000004026d948                tcp_timer_needed
                0x000000004026d9d0                sys_timeouts_init
                0x000000004026da38                sys_timeout
                0x000000004026dab4                sys_untimeout
                0x000000004026db04                sys_check_timeouts
                0x000000004026dbc0                sys_restart_timeouts
 *fill*         0x000000004026dbcf        0x1 
 .irom0.text    0x000000004026dbd0      0x572 /home/stoffer/esp8266/esp-open-sdk/sdk/lib/liblwip.a(udp.o)
                                        0x62a (size before relaxing)
                0x000000004026dbd4                udp_input
                0x000000004026de2c                udp_send
                0x000000004026de40                udp_sendto
                0x000000004026de8c                udp_sendto_if
                0x000000004026dfd4                udp_bind
                0x000000004026e050                udp_connect
                0x000000004026e0ac                udp_disconnect
                0x000000004026e0c4                udp_recv
                0x000000004026e0d0                udp_remove
                0x000000004026e10c                udp_new
 *fill*         0x000000004026e142        0x2 
 .irom0.text    0x000000004026e144      0x26e /home/stoffer/esp8266/esp-open-sdk/sdk/lib/liblwip.a(icmp.o)
                                        0x312 (size before relaxing)
                0x000000004026e148                icmp_input
                0x000000004026e2f4                icmp_dest_unreach
 *fill*         0x000000004026e3b2        0x2 
 .irom0.text    0x000000004026e3b4      0x2a6 /home/stoffer/esp8266/esp-open-sdk/sdk/lib/libwpa.a(ap_config.o)
                                        0x2ee (size before relaxing)
                0x000000004026e3b4                hostapd_config_defaults_bss
                0x000000004026e400                hostapd_config_defaults
                0x000000004026e484                hostapd_mac_comp
                0x000000004026e498                hostapd_mac_comp_empty
                0x000000004026e504                hostapd_setup_wpa_psk
                0x000000004026e534                hostapd_wep_key_cmp
                0x000000004026e584                hostapd_maclist_found
                0x000000004026e5ec                hostapd_rate_found
                0x000000004026e608                hostapd_get_psk
 *fill*         0x000000004026e65a        0x2 
 .irom0.text    0x000000004026e65c      0x2b6 /home/stoffer/esp8266/esp-open-sdk/sdk/lib/libwpa.a(common.o)
                                        0x302 (size before relaxing)
                0x000000004026e65c                inc_byte_array
                0x000000004026e6b0                hex2byte
                0x000000004026e6e4                hexstr2bin
                0x000000004026e730                wpa_get_ntp_timestamp
                0x000000004026e7c8                wpa_config_parse_string
                0x000000004026e8cc                dup_binstr
 *fill*         0x000000004026e912        0x2 
 .irom0.text    0x000000004026e914       0xcc /home/stoffer/esp8266/esp-open-sdk/sdk/lib/libwpa.a(os_xtensa.o)
                                         0xdc (size before relaxing)
                0x000000004026e918                ets_strdup
                0x000000004026e95c                os_get_time
                0x000000004026e960                r_rand
                0x000000004026e974                os_random
                0x000000004026e984                os_get_random
 .irom0.text    0x000000004026e9e0     0x1c7e /home/stoffer/esp8266/esp-open-sdk/sdk/lib/libwpa.a(wpa_auth.o)
                                       0x1f66 (size before relaxing)
                0x000000004026eb2c                wpa_auth_for_each_sta
                0x000000004026ecac                wpa_init
                0x000000004026ed3c                wpa_auth_sta_init
                0x000000004026ed84                wpa_auth_sta_associated
                0x000000004026edf0                wpa_auth_sta_no_wpa
                0x000000004026ee4c                wpa_auth_sta_deinit
                0x000000004026ef18                wpa_receive
                0x000000004026f37c                __wpa_send_eapol
                0x000000004026f8a0                wpa_remove_ptk
                0x000000004026f8ec                wpa_auth_sm_event
 *fill*         0x000000004027065e        0x2 
 .irom0.text    0x0000000040270660      0x582 /home/stoffer/esp8266/esp-open-sdk/sdk/lib/libwpa.a(wpa_auth_ie.o)
                                        0x5f6 (size before relaxing)
                0x0000000040270724                wpa_write_rsn_ie
                0x0000000040270830                wpa_auth_gen_wpa_ie
                0x00000000402708c0                wpa_add_kde
                0x000000004027092c                wpa_validate_wpa_ie
                0x0000000040270b38                wpa_parse_kde_ies
                0x0000000040270bd4                wpa_auth_uses_mfp
 *fill*         0x0000000040270be2        0x2 
 .irom0.text    0x0000000040270be4     0x14d0 /home/stoffer/esp8266/esp-open-sdk/sdk/lib/libwpa.a(wpa.o)
                                       0x1708 (size before relaxing)
                0x0000000040271b70                wpa_sm_rx_eapol
                0x0000000040271ce8                wpa_register
                0x0000000040271d14                wpa_set_profile
                0x0000000040271d2c                wpa_set_pmk
                0x0000000040271d58                wpa_set_bss
                0x0000000040271f5c                pp_michael_mic_failure
                0x0000000040272000                eapol_txcb
                0x000000004027208c                wpa_sm_set_state
 .irom0.text    0x00000000402720b4      0x76a /home/stoffer/esp8266/esp-open-sdk/sdk/lib/libwpa.a(wpa_common.o)
                                        0x7fa (size before relaxing)
                0x00000000402721fc                wpa_parse_wpa_ie_rsn
                0x0000000040272390                wpa_parse_wpa_ie_wpa
                0x0000000040272520                wpa_eapol_key_mic
                0x0000000040272560                wpa_compare_rsn_ie
                0x0000000040272588                wpa_pmk_to_ptk
                0x0000000040272678                rsn_pmkid
                0x00000000402726d4                wpa_cipher_key_len
                0x00000000402726f8                wpa_cipher_to_alg
                0x0000000040272720                wpa_cipher_to_suite
                0x0000000040272774                rsn_cipher_put_suites
                0x00000000402727d4                wpa_cipher_put_suites
 *fill*         0x000000004027281e        0x2 
 .irom0.text    0x0000000040272820       0xa8 /home/stoffer/esp8266/esp-open-sdk/sdk/lib/libwpa.a(wpa_debug.o)
                                         0xac (size before relaxing)
                0x0000000040272898                wpa_snprintf_hex_uppercase
                0x00000000402728ac                wpa_snprintf_hex
                0x00000000402728c0                eloop_cancel_timeout
                0x00000000402728c4                eloop_register_timeout
 .irom0.text    0x00000000402728c8      0x325 /home/stoffer/esp8266/esp-open-sdk/sdk/lib/libwpa.a(wpa_ie.o)
                                        0x341 (size before relaxing)
                0x00000000402728c8                wpa_parse_wpa_ie
                0x00000000402729bc                wpa_supplicant_parse_ies
                0x0000000040272bbc                wpa_gen_wpa_ie
 *fill*         0x0000000040272bed        0x3 
 .irom0.text    0x0000000040272bf0      0x418 /home/stoffer/esp8266/esp-open-sdk/sdk/lib/libwpa.a(wpa_main.o)
                                        0x52c (size before relaxing)
                0x0000000040272bf4                ppInstallKey
                0x0000000040272d84                wpa_config_profile
                0x0000000040272db8                wpa_config_bss
                0x0000000040272de4                wpa_config_assoc_ie
                0x0000000040272df8                dhcp_bind_check
                0x0000000040272e2c                eagle_auth_done
                0x0000000040272fa8                wpa_neg_complete
                0x0000000040272fd0                wpa_attach
 .irom0.text    0x0000000040273008       0xd6 /home/stoffer/esp8266/esp-open-sdk/sdk/lib/libwpa.a(wpas_glue.o)
                                         0xe2 (size before relaxing)
                0x0000000040273078                wpa_sm_alloc_eapol
                0x00000000402730b8                wpa_sm_deauthenticate
                0x00000000402730d4                wpa_sm_mlme_setprotection
                0x00000000402730d8                wpa_sm_get_beacon_ie
                0x00000000402730dc                wpa_sm_disassociate
 *fill*         0x00000000402730de        0x2 
 .irom0.text    0x00000000402730e0       0xdf /home/stoffer/esp8266/esp-open-sdk/sdk/lib/libwpa.a(aes-wrap.o)
                                        0x103 (size before relaxing)
                0x00000000402730e0                aes_wrap
 *fill*         0x00000000402731bf        0x1 
 .irom0.text    0x00000000402731c0      0x4b7 /home/stoffer/esp8266/esp-open-sdk/sdk/lib/libwpa.a(aes-internal-enc.o)
                                        0x4df (size before relaxing)
                0x00000000402731c4                rijndaelEncrypt
                0x00000000402735e0                aes_encrypt_init
                0x0000000040273634                aes_encrypt
                0x000000004027364c                aes_encrypt_deinit
 *fill*         0x0000000040273677        0x1 
 .irom0.text    0x0000000040273678      0x304 /home/stoffer/esp8266/esp-open-sdk/sdk/lib/libwpa.a(aes-internal.o)
                                        0x31c (size before relaxing)
                0x000000004027367c                rijndaelKeySetupEnc
 .irom0.text    0x000000004027397c      0x187 /home/stoffer/esp8266/esp-open-sdk/sdk/lib/libnet80211.a(ieee80211_crypto_tkip.o)
                                        0x197 (size before relaxing)
 *fill*         0x0000000040273b03        0x1 
 .irom0.text    0x0000000040273b04       0x78 /home/stoffer/esp8266/esp-open-sdk/sdk/lib/libnet80211.a(ieee80211_crypto_wep.o)
                                         0x7c (size before relaxing)
 .irom0.literal
                0x0000000040273b7c        0x0 /home/stoffer/esp8266/esp-open-sdk/sdk/lib/libmain.a(app_main.o)
 *fill*         0x0000000040273b7c        0x4 
 .irom.text     0x0000000040273b80      0x490 /home/stoffer/esp8266/esp-open-sdk/sdk/lib/libmain.a(app_main.o)
 .irom0.literal
                0x0000000040274010        0x0 /home/stoffer/esp8266/esp-open-sdk/sdk/lib/libmain.a(ets_timer.o)
 *fill*         0x0000000040274010        0x0 
 .irom.text     0x0000000040274010      0x14c /home/stoffer/esp8266/esp-open-sdk/sdk/lib/libmain.a(ets_timer.o)
 .irom0.literal
                0x000000004027415c        0x0 /home/stoffer/esp8266/esp-open-sdk/sdk/lib/libmain.a(mem_manager.o)
 *fill*         0x000000004027415c        0x4 
 .irom.text     0x0000000040274160       0x11 /home/stoffer/esp8266/esp-open-sdk/sdk/lib/libmain.a(mem_manager.o)
 *fill*         0x0000000040274171        0x3 
 .irom0.literal
                0x0000000040274174        0x0 /home/stoffer/esp8266/esp-open-sdk/sdk/lib/libmain.a(spi_flash.o)
 *fill*         0x0000000040274174        0x0 
 .irom0.literal
                0x0000000040274174        0x0 /home/stoffer/esp8266/esp-open-sdk/sdk/lib/libmain.a(user_interface.o)
 *fill*         0x0000000040274174        0xc 
 .irom.text     0x0000000040274180      0x2d5 /home/stoffer/esp8266/esp-open-sdk/sdk/lib/libmain.a(user_interface.o)
                0x00000000402741a0                default_ssid
 *fill*         0x0000000040274455        0x3 
 .irom0.literal
                0x0000000040274458        0x0 /home/stoffer/esp8266/esp-open-sdk/sdk/lib/libmain.a(eagle_lib.o)
 .irom0.literal
                0x0000000040274458        0x0 /home/stoffer/esp8266/esp-open-sdk/sdk/lib/libmain.a(eagle_lwip_if.o)
 *fill*         0x0000000040274458        0x8 
 .irom.text     0x0000000040274460       0x63 /home/stoffer/esp8266/esp-open-sdk/sdk/lib/libmain.a(eagle_lwip_if.o)
 *fill*         0x00000000402744c3        0x1 
 .irom0.literal
                0x00000000402744c4        0x0 build/app_app.a(user_main.o)
 *fill*         0x00000000402744c4        0x0 
 .irom0.literal
                0x00000000402744c4        0x0 build/app_app.a(captdns.o)
 *fill*         0x00000000402744c4        0x0 
 .irom0.literal
                0x00000000402744c4        0x0 build/app_app.a(led.o)
 *fill*         0x00000000402744c4        0x0 
 .irom0.literal
                0x00000000402744c4        0x0 build/app_app.a(httpd.o)
 *fill*         0x00000000402744c4        0x0 
 .irom0.literal
                0x00000000402744c4        0x0 build/app_app.a(crypto.o)
 .irom0.literal
                0x00000000402744c4        0x0 build/app_app.a(hmac-sha256.o)
 .irom0.literal
                0x00000000402744c4        0x0 build/app_app.a(sha256.o)
 *fill*         0x00000000402744c4        0x0 
 .irom0.literal
                0x00000000402744c4        0x0 build/app_app.a(aes.o)
 *fill*         0x00000000402744c4        0x0 
 .irom0.literal
                0x00000000402744c4        0x0 build/app_app.a(kmp_request.o)
 *fill*         0x00000000402744c4        0x0 
 .irom0.literal
                0x00000000402744c4        0x0 build/app_app.a(kmp.o)
 *fill*         0x00000000402744c4        0x0 
 .irom0.literal
                0x00000000402744c4        0x0 build/app_app.a(cron.o)
 *fill*         0x00000000402744c4        0x0 
 .irom0.literal
                0x00000000402744c4        0x0 build/app_app.a(ac_out.o)
 *fill*         0x00000000402744c4        0x0 
 .irom0.literal
                0x00000000402744c4        0x0 build/app_app.a(uart.o)
 .irom0.literal
                0x00000000402744c4        0x0 build/app_app.a(mqtt.o)
 *fill*         0x00000000402744c4        0x0 
 .irom0.literal
                0x00000000402744c4        0x0 build/app_app.a(mqtt_msg.o)
 *fill*         0x00000000402744c4        0x0 
 .irom0.literal
                0x00000000402744c4        0x0 build/app_app.a(queue.o)
 *fill*         0x00000000402744c4        0x0 
 .irom0.literal
                0x00000000402744c4        0x0 build/app_app.a(mqtt_utils.o)
 .irom0.text    0x00000000402744c4      0x107 build/app_app.a(mqtt_utils.o)
                0x00000000402744c4                UTILS_IsIPV4
                0x0000000040274518                UTILS_StrToIP
                0x0000000040274574                UTILS_Atoh
 *fill*         0x00000000402745cb        0x1 
 .irom0.literal
                0x00000000402745cc        0x0 build/app_app.a(proto.o)
 *fill*         0x00000000402745cc        0x0 
 .irom0.literal
                0x00000000402745cc        0x0 build/app_app.a(config.o)
 *fill*         0x00000000402745cc        0x0 
 .irom0.literal
                0x00000000402745cc        0x0 build/app_app.a(wifi.o)
 *fill*         0x00000000402745cc        0x0 
 .irom0.literal
                0x00000000402745cc        0x0 build/app_app.a(tinyprintf.o)
 *fill*         0x00000000402745cc        0x0 
 .irom0.literal
                0x00000000402745cc        0x0 build/app_app.a(unix_time.o)
 *fill*         0x00000000402745cc        0x0 
 .irom0.literal
                0x00000000402745cc        0x0 build/app_app.a(cgi.o)
 *fill*         0x00000000402745cc        0x0 
 .irom0.literal
                0x00000000402745cc        0x0 build/app_app.a(httpdespfs.o)
 .irom0.literal
                0x00000000402745cc        0x0 build/app_app.a(cgiwifi.o)
 .irom0.literal
                0x00000000402745cc        0x0 build/app_app.a(espfs.o)
 *fill*         0x00000000402745cc        0x0 
 .irom0.literal
                0x00000000402745cc        0x0 build/app_app.a(utils.o)
 .irom0.literal
                0x00000000402745cc        0x0 build/app_app.a(ringbuf.o)
 .irom0.text    0x00000000402745cc       0xbc build/app_app.a(ringbuf.o)
                0x00000000402745cc                RINGBUF_Init
                0x00000000402745fc                RINGBUF_Put
                0x0000000040274644                RINGBUF_Get
 .irom0.literal
                0x0000000040274688        0x0 /home/stoffer/esp8266/esp-open-sdk/sdk/lib/libphy.a(phy.o)
 *fill*         0x0000000040274688        0x0 
 .irom0.literal
                0x0000000040274688        0x0 /home/stoffer/esp8266/esp-open-sdk/sdk/lib/libphy.a(phy_chip_v6_ana.o)
 *fill*         0x0000000040274688        0x8 
 .irom.text     0x0000000040274690       0x65 /home/stoffer/esp8266/esp-open-sdk/sdk/lib/libphy.a(phy_chip_v6_ana.o)
 *fill*         0x00000000402746f5        0x3 
 .irom0.literal
                0x00000000402746f8        0x0 /home/stoffer/esp8266/esp-open-sdk/sdk/lib/libphy.a(phy_chip_v6.o)
 *fill*         0x00000000402746f8        0x8 
 .irom.text     0x0000000040274700      0x148 /home/stoffer/esp8266/esp-open-sdk/sdk/lib/libphy.a(phy_chip_v6.o)
 .irom0.literal
                0x0000000040274848        0x0 /home/stoffer/esp8266/esp-open-sdk/sdk/lib/libphy.a(phy_chip_v6_cal.o)
 *fill*         0x0000000040274848        0x8 
 .irom.text     0x0000000040274850      0x174 /home/stoffer/esp8266/esp-open-sdk/sdk/lib/libphy.a(phy_chip_v6_cal.o)
 .irom0.literal
                0x00000000402749c4        0x0 /home/stoffer/esp8266/esp-open-sdk/sdk/lib/libphy.a(phy_chip_v6_unused.o)
 .irom0.text    0x00000000402749c4        0xc /home/stoffer/esp8266/esp-open-sdk/sdk/lib/libphy.a(phy_chip_v6_unused.o)
                0x00000000402749c4                chip_v6_set_sense
                0x00000000402749c8                chip_v6_get_sense
                0x00000000402749cc                chip_v6_unset_chanfreq
 .irom0.literal
                0x00000000402749d0        0x0 /home/stoffer/esp8266/esp-open-sdk/sdk/lib/libphy.a(phy_sleep.o)
 *fill*         0x00000000402749d0        0x0 
 .irom0.literal
                0x00000000402749d0        0x0 /home/stoffer/esp8266/esp-open-sdk/sdk/lib/libpp.a(if_hwctrl.o)
 *fill*         0x00000000402749d0        0x0 
 .irom.text     0x00000000402749d0       0x50 /home/stoffer/esp8266/esp-open-sdk/sdk/lib/libpp.a(if_hwctrl.o)
 .irom0.literal
                0x0000000040274a20        0x0 /home/stoffer/esp8266/esp-open-sdk/sdk/lib/libpp.a(lmac.o)
 *fill*         0x0000000040274a20        0x0 
 .irom.text     0x0000000040274a20       0x2f /home/stoffer/esp8266/esp-open-sdk/sdk/lib/libpp.a(lmac.o)
 *fill*         0x0000000040274a4f        0x1 
 .irom0.literal
                0x0000000040274a50        0x0 /home/stoffer/esp8266/esp-open-sdk/sdk/lib/libpp.a(pm.o)
 *fill*         0x0000000040274a50        0x0 
 .irom.text     0x0000000040274a50      0x10d /home/stoffer/esp8266/esp-open-sdk/sdk/lib/libpp.a(pm.o)
 *fill*         0x0000000040274b5d        0x3 
 .irom0.literal
                0x0000000040274b60        0x0 /home/stoffer/esp8266/esp-open-sdk/sdk/lib/libpp.a(pm_for_bcn_only_mode.o)
 *fill*         0x0000000040274b60        0x0 
 .irom.text     0x0000000040274b60      0x145 /home/stoffer/esp8266/esp-open-sdk/sdk/lib/libpp.a(pm_for_bcn_only_mode.o)
 *fill*         0x0000000040274ca5        0x3 
 .irom0.literal
                0x0000000040274ca8        0x0 /home/stoffer/esp8266/esp-open-sdk/sdk/lib/libpp.a(pp.o)
 *fill*         0x0000000040274ca8        0x8 
 .irom.text     0x0000000040274cb0       0x5b /home/stoffer/esp8266/esp-open-sdk/sdk/lib/libpp.a(pp.o)
 *fill*         0x0000000040274d0b        0x1 
 .irom0.literal
                0x0000000040274d0c        0x0 /home/stoffer/esp8266/esp-open-sdk/sdk/lib/libpp.a(rate_control.o)
 *fill*         0x0000000040274d0c        0x0 
 .irom0.literal
                0x0000000040274d0c        0x0 /home/stoffer/esp8266/esp-open-sdk/sdk/lib/libpp.a(trc.o)
 *fill*         0x0000000040274d0c        0x4 
 .irom.text     0x0000000040274d10       0x38 /home/stoffer/esp8266/esp-open-sdk/sdk/lib/libpp.a(trc.o)
 .irom0.literal
                0x0000000040274d48        0x0 /home/stoffer/esp8266/esp-open-sdk/sdk/lib/libpp.a(wdev.o)
 *fill*         0x0000000040274d48        0x0 
 .irom.text     0x0000000040274d48        0x7 /home/stoffer/esp8266/esp-open-sdk/sdk/lib/libpp.a(wdev.o)
 *fill*         0x0000000040274d4f        0x1 
 .irom0.literal
                0x0000000040274d50        0x0 /home/stoffer/esp8266/esp-open-sdk/sdk/lib/libpp.a(esf_buf.o)
 *fill*         0x0000000040274d50        0x0 
 .irom.text     0x0000000040274d50        0xa /home/stoffer/esp8266/esp-open-sdk/sdk/lib/libpp.a(esf_buf.o)
 *fill*         0x0000000040274d5a        0x2 
 .irom0.literal
                0x0000000040274d5c        0x0 /home/stoffer/esp8266/esp-open-sdk/sdk/lib/libnet80211.a(ieee80211.o)
 *fill*         0x0000000040274d5c        0x4 
 .irom.text     0x0000000040274d60       0x82 /home/stoffer/esp8266/esp-open-sdk/sdk/lib/libnet80211.a(ieee80211.o)
                0x0000000040274d70                ieee80211_opcap
 *fill*         0x0000000040274de2        0x2 
 .irom0.literal
                0x0000000040274de4        0x0 /home/stoffer/esp8266/esp-open-sdk/sdk/lib/libnet80211.a(ieee80211_crypto.o)
 *fill*         0x0000000040274de4        0x0 
 .irom0.literal
                0x0000000040274de4        0x0 /home/stoffer/esp8266/esp-open-sdk/sdk/lib/libnet80211.a(ieee80211_ets.o)
 .irom0.literal
                0x0000000040274de4        0x0 /home/stoffer/esp8266/esp-open-sdk/sdk/lib/libnet80211.a(ieee80211_hostap.o)
 *fill*         0x0000000040274de4        0xc 
 .irom.text     0x0000000040274df0       0x5b /home/stoffer/esp8266/esp-open-sdk/sdk/lib/libnet80211.a(ieee80211_hostap.o)
 *fill*         0x0000000040274e4b        0x1 
 .irom0.literal
                0x0000000040274e4c        0x0 /home/stoffer/esp8266/esp-open-sdk/sdk/lib/libnet80211.a(ieee80211_ht.o)
 *fill*         0x0000000040274e4c        0x4 
 .irom.text     0x0000000040274e50       0x19 /home/stoffer/esp8266/esp-open-sdk/sdk/lib/libnet80211.a(ieee80211_ht.o)
 *fill*         0x0000000040274e69        0x3 
 .irom0.literal
                0x0000000040274e6c        0x0 /home/stoffer/esp8266/esp-open-sdk/sdk/lib/libnet80211.a(ieee80211_input.o)
 *fill*         0x0000000040274e6c        0x4 
 .irom.text     0x0000000040274e70       0x12 /home/stoffer/esp8266/esp-open-sdk/sdk/lib/libnet80211.a(ieee80211_input.o)
 *fill*         0x0000000040274e82        0x2 
 .irom0.literal
                0x0000000040274e84        0x0 /home/stoffer/esp8266/esp-open-sdk/sdk/lib/libnet80211.a(ieee80211_mesh_quick.o)
 *fill*         0x0000000040274e84        0xc 
 .irom.text     0x0000000040274e90       0x43 /home/stoffer/esp8266/esp-open-sdk/sdk/lib/libnet80211.a(ieee80211_mesh_quick.o)
 *fill*         0x0000000040274ed3        0x1 
 .irom0.literal
                0x0000000040274ed4        0x0 /home/stoffer/esp8266/esp-open-sdk/sdk/lib/libnet80211.a(ieee80211_output.o)
 *fill*         0x0000000040274ed4        0xc 
 .irom.text     0x0000000040274ee0       0x1d /home/stoffer/esp8266/esp-open-sdk/sdk/lib/libnet80211.a(ieee80211_output.o)
 *fill*         0x0000000040274efd        0x3 
 .irom0.literal
                0x0000000040274f00        0x0 /home/stoffer/esp8266/esp-open-sdk/sdk/lib/libnet80211.a(ieee80211_phy.o)
 *fill*         0x0000000040274f00        0x0 
 .irom.text     0x0000000040274f00      0x1b8 /home/stoffer/esp8266/esp-open-sdk/sdk/lib/libnet80211.a(ieee80211_phy.o)
 .irom0.literal
                0x00000000402750b8        0x0 /home/stoffer/esp8266/esp-open-sdk/sdk/lib/libnet80211.a(ieee80211_power.o)
 *fill*         0x00000000402750b8        0x0 
 .irom0.literal
                0x00000000402750b8        0x0 /home/stoffer/esp8266/esp-open-sdk/sdk/lib/libnet80211.a(ieee80211_proto.o)
 *fill*         0x00000000402750b8        0x8 
 .irom.text     0x00000000402750c0       0x1c /home/stoffer/esp8266/esp-open-sdk/sdk/lib/libnet80211.a(ieee80211_proto.o)
 .irom0.literal
                0x00000000402750dc        0x0 /home/stoffer/esp8266/esp-open-sdk/sdk/lib/libnet80211.a(ieee80211_rfid.o)
 *fill*         0x00000000402750dc        0x0 
 .irom0.literal
                0x00000000402750dc        0x0 /home/stoffer/esp8266/esp-open-sdk/sdk/lib/libnet80211.a(ieee80211_scan.o)
 *fill*         0x00000000402750dc        0x4 
 .irom.text     0x00000000402750e0       0x99 /home/stoffer/esp8266/esp-open-sdk/sdk/lib/libnet80211.a(ieee80211_scan.o)
 *fill*         0x0000000040275179        0x3 
 .irom0.literal
                0x000000004027517c        0x0 /home/stoffer/esp8266/esp-open-sdk/sdk/lib/libnet80211.a(ieee80211_sta.o)
 *fill*         0x000000004027517c        0x4 
 .irom.text     0x0000000040275180       0x26 /home/stoffer/esp8266/esp-open-sdk/sdk/lib/libnet80211.a(ieee80211_sta.o)
 *fill*         0x00000000402751a6        0x2 
 .irom0.literal
                0x00000000402751a8        0x0 /home/stoffer/esp8266/esp-open-sdk/sdk/lib/libnet80211.a(wl_chm.o)
 *fill*         0x00000000402751a8        0x0 
 .irom0.literal
                0x00000000402751a8        0x0 /home/stoffer/esp8266/esp-open-sdk/sdk/lib/libnet80211.a(wl_cnx.o)
 *fill*         0x00000000402751a8        0x8 
 .irom.text     0x00000000402751b0      0x187 /home/stoffer/esp8266/esp-open-sdk/sdk/lib/libnet80211.a(wl_cnx.o)
 *fill*         0x0000000040275337        0x1 
 .irom0.literal
                0x0000000040275338        0x0 /home/stoffer/esp8266/esp-open-sdk/sdk/lib/libnet80211.a(ieee80211_action.o)
 *fill*         0x0000000040275338        0x0 
 .irom0.literal
                0x0000000040275338        0x0 /home/stoffer/esp8266/esp-open-sdk/sdk/lib/libnet80211.a(ieee80211_action_vendor.o)
 *fill*         0x0000000040275338        0x8 
 .irom.text     0x0000000040275340       0x83 /home/stoffer/esp8266/esp-open-sdk/sdk/lib/libnet80211.a(ieee80211_action_vendor.o)
 *fill*         0x00000000402753c3        0x1 
 .irom0.literal
                0x00000000402753c4        0x0 /home/stoffer/esp8266/esp-open-sdk/sdk/lib/libnet80211.a(ieee80211_crypto_ccmp.o)
 *fill*         0x00000000402753c4        0x0 
 .irom.text     0x00000000402753c4       0x18 /home/stoffer/esp8266/esp-open-sdk/sdk/lib/libnet80211.a(ieee80211_crypto_ccmp.o)
                0x00000000402753c4                ccmp
 .irom0.literal
                0x00000000402753dc        0x0 /home/stoffer/esp8266/esp-open-sdk/sdk/lib/libnet80211.a(ieee80211_ie_vendor.o)
 *fill*         0x00000000402753dc        0x0 
 .irom0.literal
                0x00000000402753dc        0x0 /home/stoffer/esp8266/esp-open-sdk/sdk/lib/liblwip.a(dhcp.o)
 *fill*         0x00000000402753dc        0x4 
 .irom.text     0x00000000402753e0       0x1e /home/stoffer/esp8266/esp-open-sdk/sdk/lib/liblwip.a(dhcp.o)
 *fill*         0x00000000402753fe        0x2 
 .irom0.literal
                0x0000000040275400        0x0 /home/stoffer/esp8266/esp-open-sdk/sdk/lib/liblwip.a(dhcpserver.o)
 *fill*         0x0000000040275400        0x0 
 .irom.text     0x0000000040275400       0x65 /home/stoffer/esp8266/esp-open-sdk/sdk/lib/liblwip.a(dhcpserver.o)
 *fill*         0x0000000040275465        0x3 
 .irom0.literal
                0x0000000040275468        0x0 /home/stoffer/esp8266/esp-open-sdk/sdk/lib/liblwip.a(dns.o)
 *fill*         0x0000000040275468        0x0 
 .irom.text     0x0000000040275468        0x6 /home/stoffer/esp8266/esp-open-sdk/sdk/lib/liblwip.a(dns.o)
 *fill*         0x000000004027546e        0x2 
 .irom0.literal
                0x0000000040275470        0x0 /home/stoffer/esp8266/esp-open-sdk/sdk/lib/liblwip.a(espconn.o)
 *fill*         0x0000000040275470        0x0 
 .irom.text     0x0000000040275470        0xa /home/stoffer/esp8266/esp-open-sdk/sdk/lib/liblwip.a(espconn.o)
 *fill*         0x000000004027547a        0x2 
 .irom0.literal
                0x000000004027547c        0x0 /home/stoffer/esp8266/esp-open-sdk/sdk/lib/liblwip.a(espconn_tcp.o)
 *fill*         0x000000004027547c        0x4 
 .irom.text     0x0000000040275480       0xab /home/stoffer/esp8266/esp-open-sdk/sdk/lib/liblwip.a(espconn_tcp.o)
 *fill*         0x000000004027552b        0x1 
 .irom0.literal
                0x000000004027552c        0x0 /home/stoffer/esp8266/esp-open-sdk/sdk/lib/liblwip.a(espconn_udp.o)
 *fill*         0x000000004027552c        0x4 
 .irom.text     0x0000000040275530        0xe /home/stoffer/esp8266/esp-open-sdk/sdk/lib/liblwip.a(espconn_udp.o)
 *fill*         0x000000004027553e        0x2 
 .irom0.literal
                0x0000000040275540        0x0 /home/stoffer/esp8266/esp-open-sdk/sdk/lib/liblwip.a(etharp.o)
 *fill*         0x0000000040275540        0x0 
 .irom.text     0x0000000040275540        0x9 /home/stoffer/esp8266/esp-open-sdk/sdk/lib/liblwip.a(etharp.o)
 *fill*         0x0000000040275549        0x3 
 .irom0.literal
                0x000000004027554c        0x0 /home/stoffer/esp8266/esp-open-sdk/sdk/lib/liblwip.a(igmp.o)
 *fill*         0x000000004027554c        0x4 
 .irom.text     0x0000000040275550        0x7 /home/stoffer/esp8266/esp-open-sdk/sdk/lib/liblwip.a(igmp.o)
 *fill*         0x0000000040275557        0x1 
 .irom0.literal
                0x0000000040275558        0x0 /home/stoffer/esp8266/esp-open-sdk/sdk/lib/liblwip.a(inet_chksum.o)
 .irom0.text    0x0000000040275558      0x298 /home/stoffer/esp8266/esp-open-sdk/sdk/lib/liblwip.a(inet_chksum.o)
                0x00000000402755d0                inet_chksum_pseudo
                0x0000000040275690                inet_chksum_pseudo_partial
                0x000000004027576c                inet_chksum
                0x0000000040275784                inet_chksum_pbuf
 .irom0.literal
                0x00000000402757f0        0x0 /home/stoffer/esp8266/esp-open-sdk/sdk/lib/liblwip.a(init.o)
 .irom0.literal
                0x00000000402757f0        0x0 /home/stoffer/esp8266/esp-open-sdk/sdk/lib/liblwip.a(ip_addr.o)
 *fill*         0x00000000402757f0        0x0 
 .irom.text     0x00000000402757f0        0x8 /home/stoffer/esp8266/esp-open-sdk/sdk/lib/liblwip.a(ip_addr.o)
                0x00000000402757f0                ip_addr_any
                0x00000000402757f4                ip_addr_broadcast
 .irom0.literal
                0x00000000402757f8        0x0 /home/stoffer/esp8266/esp-open-sdk/sdk/lib/liblwip.a(ip.o)
 *fill*         0x00000000402757f8        0x8 
 .irom.text     0x0000000040275800       0x11 /home/stoffer/esp8266/esp-open-sdk/sdk/lib/liblwip.a(ip.o)
 *fill*         0x0000000040275811        0xf 
 .irom.text     0x0000000040275820       0x28 /home/stoffer/esp8266/esp-open-sdk/sdk/lib/liblwip.a(memp.o)
                0x0000000040275820                memp_sizes
 .irom0.literal
                0x0000000040275848        0x0 /home/stoffer/esp8266/esp-open-sdk/sdk/lib/liblwip.a(netif.o)
 *fill*         0x0000000040275848        0x0 
 .irom0.literal
                0x0000000040275848        0x0 /home/stoffer/esp8266/esp-open-sdk/sdk/lib/liblwip.a(pbuf.o)
 *fill*         0x0000000040275848        0x0 
 .irom.text     0x0000000040275848        0x7 /home/stoffer/esp8266/esp-open-sdk/sdk/lib/liblwip.a(pbuf.o)
 *fill*         0x000000004027584f        0x1 
 .irom0.literal
                0x0000000040275850        0x0 /home/stoffer/esp8266/esp-open-sdk/sdk/lib/liblwip.a(raw.o)
 .irom.text     0x0000000040275850        0x6 /home/stoffer/esp8266/esp-open-sdk/sdk/lib/liblwip.a(raw.o)
 *fill*         0x0000000040275856        0x2 
 .irom0.literal
                0x0000000040275858        0x0 /home/stoffer/esp8266/esp-open-sdk/sdk/lib/liblwip.a(sntp.o)
 *fill*         0x0000000040275858        0x8 
 .irom.text     0x0000000040275860       0x24 /home/stoffer/esp8266/esp-open-sdk/sdk/lib/liblwip.a(sntp.o)
 .irom0.literal
                0x0000000040275884        0x0 /home/stoffer/esp8266/esp-open-sdk/sdk/lib/liblwip.a(tcp_in.o)
 *fill*         0x0000000040275884        0xc 
 .irom.text     0x0000000040275890        0x9 /home/stoffer/esp8266/esp-open-sdk/sdk/lib/liblwip.a(tcp_in.o)
 *fill*         0x0000000040275899        0x3 
 .irom0.literal
                0x000000004027589c        0x0 /home/stoffer/esp8266/esp-open-sdk/sdk/lib/liblwip.a(tcp.o)
 *fill*         0x000000004027589c        0x4 
 .irom.text     0x00000000402758a0       0x3d /home/stoffer/esp8266/esp-open-sdk/sdk/lib/liblwip.a(tcp.o)
                0x00000000402758b0                tcp_pcb_lists
                0x00000000402758c0                tcp_persist_backoff
                0x00000000402758d0                tcp_backoff
 *fill*         0x00000000402758dd        0x3 
 .irom0.literal
                0x00000000402758e0        0x0 /home/stoffer/esp8266/esp-open-sdk/sdk/lib/liblwip.a(tcp_out.o)
 *fill*         0x00000000402758e0        0x0 
 .irom.text     0x00000000402758e0        0xa /home/stoffer/esp8266/esp-open-sdk/sdk/lib/liblwip.a(tcp_out.o)
 *fill*         0x00000000402758ea        0x2 
 .irom0.literal
                0x00000000402758ec        0x0 /home/stoffer/esp8266/esp-open-sdk/sdk/lib/liblwip.a(timers.o)
 *fill*         0x00000000402758ec        0x4 
 .irom.text     0x00000000402758f0        0x9 /home/stoffer/esp8266/esp-open-sdk/sdk/lib/liblwip.a(timers.o)
 *fill*         0x00000000402758f9        0x3 
 .irom0.literal
                0x00000000402758fc        0x0 /home/stoffer/esp8266/esp-open-sdk/sdk/lib/liblwip.a(udp.o)
 *fill*         0x00000000402758fc        0x4 
 .irom.text     0x0000000040275900        0x6 /home/stoffer/esp8266/esp-open-sdk/sdk/lib/liblwip.a(udp.o)
 *fill*         0x0000000040275906        0x2 
 .irom0.literal
                0x0000000040275908        0x0 /home/stoffer/esp8266/esp-open-sdk/sdk/lib/liblwip.a(icmp.o)
 *fill*         0x0000000040275908        0x0 
 .irom0.literal
                0x0000000040275908        0x0 /home/stoffer/esp8266/esp-open-sdk/sdk/lib/libwpa.a(ap_config.o)
 *fill*         0x0000000040275908        0x8 
 .irom.text     0x0000000040275910        0xc /home/stoffer/esp8266/esp-open-sdk/sdk/lib/libwpa.a(ap_config.o)
 .irom0.literal
                0x000000004027591c        0x0 /home/stoffer/esp8266/esp-open-sdk/sdk/lib/libwpa.a(common.o)
 *fill*         0x000000004027591c        0x4 
 .irom.text     0x0000000040275920        0x9 /home/stoffer/esp8266/esp-open-sdk/sdk/lib/libwpa.a(common.o)
 *fill*         0x0000000040275929        0x3 
 .irom0.literal
                0x000000004027592c        0x0 /home/stoffer/esp8266/esp-open-sdk/sdk/lib/libwpa.a(os_xtensa.o)
 *fill*         0x000000004027592c        0x4 
 .irom.text     0x0000000040275930        0xc /home/stoffer/esp8266/esp-open-sdk/sdk/lib/libwpa.a(os_xtensa.o)
 .irom0.literal
                0x000000004027593c        0x0 /home/stoffer/esp8266/esp-open-sdk/sdk/lib/libwpa.a(wpa_auth.o)
 *fill*         0x000000004027593c        0x4 
 .irom.text     0x0000000040275940       0x74 /home/stoffer/esp8266/esp-open-sdk/sdk/lib/libwpa.a(wpa_auth.o)
 .irom0.literal
                0x00000000402759b4        0x0 /home/stoffer/esp8266/esp-open-sdk/sdk/lib/libwpa.a(wpa_auth_ie.o)
 *fill*         0x00000000402759b4        0xc 
 .irom.text     0x00000000402759c0        0xe /home/stoffer/esp8266/esp-open-sdk/sdk/lib/libwpa.a(wpa_auth_ie.o)
 *fill*         0x00000000402759ce        0x2 
 .irom0.literal
                0x00000000402759d0        0x0 /home/stoffer/esp8266/esp-open-sdk/sdk/lib/libwpa.a(wpa.o)
 *fill*         0x00000000402759d0        0x0 
 .irom.text     0x00000000402759d0       0x17 /home/stoffer/esp8266/esp-open-sdk/sdk/lib/libwpa.a(wpa.o)
 *fill*         0x00000000402759e7        0x1 
 .irom0.literal
                0x00000000402759e8        0x0 /home/stoffer/esp8266/esp-open-sdk/sdk/lib/libwpa.a(wpa_common.o)
 *fill*         0x00000000402759e8        0x8 
 .irom.text     0x00000000402759f0       0x1c /home/stoffer/esp8266/esp-open-sdk/sdk/lib/libwpa.a(wpa_common.o)
 .irom0.literal
                0x0000000040275a0c        0x0 /home/stoffer/esp8266/esp-open-sdk/sdk/lib/libwpa.a(wpa_debug.o)
 .irom0.literal
                0x0000000040275a0c        0x0 /home/stoffer/esp8266/esp-open-sdk/sdk/lib/libwpa.a(wpa_ie.o)
 *fill*         0x0000000040275a0c        0x0 
 .irom0.literal
                0x0000000040275a0c        0x0 /home/stoffer/esp8266/esp-open-sdk/sdk/lib/libwpa.a(wpa_main.o)
 *fill*         0x0000000040275a0c        0x4 
 .irom.text     0x0000000040275a10       0x67 /home/stoffer/esp8266/esp-open-sdk/sdk/lib/libwpa.a(wpa_main.o)
 *fill*         0x0000000040275a77        0x1 
 .irom0.literal
                0x0000000040275a78        0x0 /home/stoffer/esp8266/esp-open-sdk/sdk/lib/libwpa.a(wpas_glue.o)
 *fill*         0x0000000040275a78        0x0 
 .irom0.literal
                0x0000000040275a78        0x0 /home/stoffer/esp8266/esp-open-sdk/sdk/lib/libwpa.a(aes-wrap.o)
 *fill*         0x0000000040275a78        0x0 
 .irom0.literal
                0x0000000040275a78        0x0 /home/stoffer/esp8266/esp-open-sdk/sdk/lib/libwpa.a(aes-internal-enc.o)
 *fill*         0x0000000040275a78        0x8 
 .irom.text     0x0000000040275a80       0x13 /home/stoffer/esp8266/esp-open-sdk/sdk/lib/libwpa.a(aes-internal-enc.o)
 *fill*         0x0000000040275a93        0x1 
 .irom0.literal
                0x0000000040275a94        0x0 /home/stoffer/esp8266/esp-open-sdk/sdk/lib/libwpa.a(aes-internal.o)
 .irom0.literal
                0x0000000040275a94        0x0 /home/stoffer/esp8266/esp-open-sdk/sdk/lib/libnet80211.a(ieee80211_crypto_tkip.o)
 *fill*         0x0000000040275a94        0x0 
 .irom.text     0x0000000040275a94       0x18 /home/stoffer/esp8266/esp-open-sdk/sdk/lib/libnet80211.a(ieee80211_crypto_tkip.o)
                0x0000000040275a94                tkip
 .irom0.literal
                0x0000000040275aac        0x0 /home/stoffer/esp8266/esp-open-sdk/sdk/lib/libnet80211.a(ieee80211_crypto_wep.o)
 .irom.text     0x0000000040275aac       0x18 /home/stoffer/esp8266/esp-open-sdk/sdk/lib/libnet80211.a(ieee80211_crypto_wep.o)
                0x0000000040275aac                wep
                0x0000000040275ac4                _irom0_text_end = ABSOLUTE (.)
                0x00000000400047f0                PROVIDE (Cache_Read_Disable, 0x400047f0)
                0x0000000040004678                PROVIDE (Cache_Read_Enable, 0x40004678)
                0x00000000400035a0                PROVIDE (FilePacketSendReqMsgProc, 0x400035a0)
                0x000000004000368c                PROVIDE (FlashDwnLdParamCfgMsgProc, 0x4000368c)
                0x0000000040003538                PROVIDE (FlashDwnLdStartMsgProc, 0x40003538)
                0x0000000040003658                PROVIDE (FlashDwnLdStopReqMsgProc, 0x40003658)
                0x0000000040003f4c                PROVIDE (GetUartDevice, 0x40003f4c)
                0x0000000040009900                PROVIDE (MD5Final, 0x40009900)
                0x0000000040009818                PROVIDE (MD5Init, 0x40009818)
                0x0000000040009834                PROVIDE (MD5Update, 0x40009834)
                0x00000000400036c4                PROVIDE (MemDwnLdStartMsgProc, 0x400036c4)
                0x000000004000377c                PROVIDE (MemDwnLdStopReqMsgProc, 0x4000377c)
                0x00000000400036f0                PROVIDE (MemPacketSendReqMsgProc, 0x400036f0)
                0x0000000040003eac                PROVIDE (RcvMsg, 0x40003eac)
                0x000000004000b648                PROVIDE (SHA1Final, 0x4000b648)
                0x000000004000b584                PROVIDE (SHA1Init, 0x4000b584)
                0x000000004000a364                PROVIDE (SHA1Transform, 0x4000a364)
                0x000000004000b5a8                PROVIDE (SHA1Update, 0x4000b5a8)
                0x00000000400043c8                PROVIDE (SPI_read_status, 0x400043c8)
                0x0000000040004400                PROVIDE (SPI_write_status, 0x40004400)
                0x000000004000443c                PROVIDE (SPI_write_enable, 0x4000443c)
                0x000000004000448c                PROVIDE (Wait_SPI_Idle, 0x4000448c)
                0x0000000040004b44                PROVIDE (SPIEraseArea, 0x40004b44)
                0x00000000400049b4                PROVIDE (SPIEraseBlock, 0x400049b4)
                0x0000000040004984                PROVIDE (SPIEraseChip, 0x40004984)
                0x0000000040004a00                PROVIDE (SPIEraseSector, 0x40004a00)
                0x00000000400048a8                PROVIDE (SPILock, 0x400048a8)
                0x0000000040004c2c                PROVIDE (SPIParamCfg, 0x40004c2c)
                0x0000000040004b1c                PROVIDE (SPIRead, 0x40004b1c)
                0x00000000400048ec                PROVIDE (SPIReadModeCnfig, 0x400048ec)
                0x0000000040004878                PROVIDE (SPIUnlock, 0x40004878)
                0x0000000040004a4c                PROVIDE (SPIWrite, 0x40004a4c)
                0x0000000040003f58                PROVIDE (SelectSpiFunction, 0x40003f58)
                0x0000000040003cf4                PROVIDE (SendMsg, 0x40003cf4)
                0x0000000040003230                PROVIDE (UartConnCheck, 0x40003230)
                0x00000000400037a0                PROVIDE (UartConnectProc, 0x400037a0)
                0x0000000040003368                PROVIDE (UartDwnLdProc, 0x40003368)
                0x0000000040003ef4                PROVIDE (UartGetCmdLn, 0x40003ef4)
                0x000000004000381c                PROVIDE (UartRegReadProc, 0x4000381c)
                0x00000000400037ac                PROVIDE (UartRegWriteProc, 0x400037ac)
                0x0000000040003c30                PROVIDE (UartRxString, 0x40003c30)
                0x0000000040003a14                PROVIDE (Uart_Init, 0x40003a14)
                0x0000000040000010                PROVIDE (_DebugExceptionVector, 0x40000010)
                0x0000000040000070                PROVIDE (_DoubleExceptionVector, 0x40000070)
                0x0000000040000030                PROVIDE (_KernelExceptionVector, 0x40000030)
                0x0000000040000020                PROVIDE (_NMIExceptionVector, 0x40000020)
                0x00000000400000a4                PROVIDE (_ResetHandler, 0x400000a4)
                0x0000000040000080                PROVIDE (_ResetVector, 0x40000080)
                0x0000000040000050                PROVIDE (_UserExceptionVector, 0x40000050)
                0x000000004000c538                PROVIDE (__adddf3, 0x4000c538)
                0x000000004000c180                PROVIDE (__addsf3, 0x4000c180)
                0x000000004000cb94                PROVIDE (__divdf3, 0x4000cb94)
                0x000000004000ce60                PROVIDE (__divdi3, 0x4000ce60)
                0x000000004000dc88                PROVIDE (__divsi3, 0x4000dc88)
                0x000000004000cdfc                PROVIDE (__extendsfdf2, 0x4000cdfc)
                0x000000004000ccb8                PROVIDE (__fixdfsi, 0x4000ccb8)
                0x000000004000cd00                PROVIDE (__fixunsdfsi, 0x4000cd00)
                0x000000004000c4c4                PROVIDE (__fixunssfsi, 0x4000c4c4)
                0x000000004000e2f0                PROVIDE (__floatsidf, 0x4000e2f0)
                0x000000004000e2ac                PROVIDE (__floatsisf, 0x4000e2ac)
                0x000000004000e2e8                PROVIDE (__floatunsidf, 0x4000e2e8)
                0x000000004000e2a4                PROVIDE (__floatunsisf, 0x4000e2a4)
                0x000000004000c8f0                PROVIDE (__muldf3, 0x4000c8f0)
                0x0000000040000650                PROVIDE (__muldi3, 0x40000650)
                0x000000004000c3dc                PROVIDE (__mulsf3, 0x4000c3dc)
                0x000000004000c688                PROVIDE (__subdf3, 0x4000c688)
                0x000000004000c268                PROVIDE (__subsf3, 0x4000c268)
                0x000000004000cd5c                PROVIDE (__truncdfsf2, 0x4000cd5c)
                0x000000004000d310                PROVIDE (__udivdi3, 0x4000d310)
                0x000000004000e21c                PROVIDE (__udivsi3, 0x4000e21c)
                0x000000004000d770                PROVIDE (__umoddi3, 0x4000d770)
                0x000000004000e268                PROVIDE (__umodsi3, 0x4000e268)
                0x000000004000dcf0                PROVIDE (__umulsidi3, 0x4000dcf0)
                0x000000004000e388                PROVIDE (_rom_store, 0x4000e388)
                0x000000004000e328                PROVIDE (_rom_store_table, 0x4000e328)
                0x000000004000042c                PROVIDE (_start, 0x4000042c)
                0x000000004000dbe0                PROVIDE (_xtos_alloca_handler, 0x4000dbe0)
                0x0000000040000598                PROVIDE (_xtos_c_wrapper_handler, 0x40000598)
                0x0000000040000590                PROVIDE (_xtos_cause3_handler, 0x40000590)
                0x000000004000bda4                PROVIDE (_xtos_ints_off, 0x4000bda4)
                0x000000004000bd84                PROVIDE (_xtos_ints_on, 0x4000bd84)
                0x000000004000048c                PROVIDE (_xtos_l1int_handler, 0x4000048c)
                0x000000004000dbf8                PROVIDE (_xtos_p_none, 0x4000dbf8)
                0x000000004000056c                PROVIDE (_xtos_restore_intlevel, 0x4000056c)
                0x000000004000dc54                PROVIDE (_xtos_return_from_exc, 0x4000dc54)
                0x0000000040000454                PROVIDE (_xtos_set_exception_handler, 0x40000454)
                0x000000004000bd70                PROVIDE (_xtos_set_interrupt_handler, 0x4000bd70)
                0x000000004000bd28                PROVIDE (_xtos_set_interrupt_handler_arg, 0x4000bd28)
                0x000000004000dbfc                PROVIDE (_xtos_set_intlevel, 0x4000dbfc)
                0x000000004000dc18                PROVIDE (_xtos_set_min_intlevel, 0x4000dc18)
                0x0000000040000574                PROVIDE (_xtos_set_vpri, 0x40000574)
                0x000000004000dbe4                PROVIDE (_xtos_syscall_handler, 0x4000dbe4)
                0x000000004000dc44                PROVIDE (_xtos_unhandled_exception, 0x4000dc44)
                0x000000004000dc3c                PROVIDE (_xtos_unhandled_interrupt, 0x4000dc3c)
                0x00000000400092d4                PROVIDE (aes_decrypt, 0x400092d4)
                0x00000000400092e4                PROVIDE (aes_decrypt_deinit, 0x400092e4)
                0x0000000040008ea4                PROVIDE (aes_decrypt_init, 0x40008ea4)
                0x0000000040009410                PROVIDE (aes_unwrap, 0x40009410)
                0x0000000040009648                PROVIDE (base64_decode, 0x40009648)
                0x00000000400094fc                PROVIDE (base64_encode, 0x400094fc)
                0x000000004000de84                PROVIDE (bzero, 0x4000de84)
                0x0000000040000814                PROVIDE (cmd_parse, 0x40000814)
                0x0000000040000b24                PROVIDE (conv_str_decimal, 0x40000b24)
                0x0000000040000cb8                PROVIDE (conv_str_hex, 0x40000cb8)
                0x0000000040000a60                PROVIDE (convert_para_str, 0x40000a60)
                0x00000000400026d0                PROVIDE (dtm_get_intr_mask, 0x400026d0)
                0x000000004000269c                PROVIDE (dtm_params_init, 0x4000269c)
                0x00000000400026c8                PROVIDE (dtm_set_intr_mask, 0x400026c8)
                0x00000000400026dc                PROVIDE (dtm_set_params, 0x400026dc)
                0x0000000040001d14                PROVIDE (eprintf, 0x40001d14)
                0x0000000040001cb8                PROVIDE (eprintf_init_buf, 0x40001cb8)
                0x0000000040001d48                PROVIDE (eprintf_to_host, 0x40001d48)
                0x0000000040002494                PROVIDE (est_get_printf_buf_remain_len, 0x40002494)
                0x000000004000249c                PROVIDE (est_reset_printf_buf_len, 0x4000249c)
                0x0000000040002ae8                PROVIDE (ets_bzero, 0x40002ae8)
                0x0000000040002b74                PROVIDE (ets_char2xdigit, 0x40002b74)
                0x0000000040002ecc                PROVIDE (ets_delay_us, 0x40002ecc)
                0x00000000400027b8                PROVIDE (ets_enter_sleep, 0x400027b8)
                0x0000000040002578                PROVIDE (ets_external_printf, 0x40002578)
                0x0000000040002f0c                PROVIDE (ets_get_cpu_frequency, 0x40002f0c)
                0x0000000040002bcc                PROVIDE (ets_getc, 0x40002bcc)
                0x0000000040002450                PROVIDE (ets_install_external_printf, 0x40002450)
                0x000000004000242c                PROVIDE (ets_install_putc1, 0x4000242c)
                0x000000004000248c                PROVIDE (ets_install_putc2, 0x4000248c)
                0x0000000040002438                PROVIDE (ets_install_uart_printf, 0x40002438)
                0x0000000040000f74                PROVIDE (ets_intr_lock, 0x40000f74)
                0x0000000040000f80                PROVIDE (ets_intr_unlock, 0x40000f80)
                0x0000000040000f88                PROVIDE (ets_isr_attach, 0x40000f88)
                0x0000000040000f98                PROVIDE (ets_isr_mask, 0x40000f98)
                0x0000000040000fa8                PROVIDE (ets_isr_unmask, 0x40000fa8)
                0x00000000400018d4                PROVIDE (ets_memcmp, 0x400018d4)
                0x00000000400018b4                PROVIDE (ets_memcpy, 0x400018b4)
                0x00000000400018c4                PROVIDE (ets_memmove, 0x400018c4)
                0x00000000400018a4                PROVIDE (ets_memset, 0x400018a4)
                0x0000000040000e24                PROVIDE (ets_post, 0x40000e24)
                0x00000000400024cc                PROVIDE (ets_printf, 0x400024cc)
                0x0000000040002be8                PROVIDE (ets_putc, 0x40002be8)
                0x0000000040002a40                PROVIDE (ets_rtc_int_register, 0x40002a40)
                0x0000000040000e04                PROVIDE (ets_run, 0x40000e04)
                0x0000000040000dc0                PROVIDE (ets_set_idle_cb, 0x40000dc0)
                0x0000000040000fbc                PROVIDE (ets_set_user_start, 0x40000fbc)
                0x0000000040002af8                PROVIDE (ets_str2macaddr, 0x40002af8)
                0x0000000040002aa8                PROVIDE (ets_strcmp, 0x40002aa8)
                0x0000000040002a88                PROVIDE (ets_strcpy, 0x40002a88)
                0x0000000040002ac8                PROVIDE (ets_strlen, 0x40002ac8)
                0x0000000040002ab8                PROVIDE (ets_strncmp, 0x40002ab8)
                0x0000000040002a98                PROVIDE (ets_strncpy, 0x40002a98)
                0x0000000040002ad8                PROVIDE (ets_strstr, 0x40002ad8)
                0x0000000040000dd0                PROVIDE (ets_task, 0x40000dd0)
                0x0000000040002cc4                PROVIDE (ets_timer_arm, 0x40002cc4)
                0x0000000040002d40                PROVIDE (ets_timer_disarm, 0x40002d40)
                0x0000000040002d80                PROVIDE (ets_timer_done, 0x40002d80)
                0x0000000040002da8                PROVIDE (ets_timer_handler_isr, 0x40002da8)
                0x0000000040002e68                PROVIDE (ets_timer_init, 0x40002e68)
                0x0000000040002c48                PROVIDE (ets_timer_setfn, 0x40002c48)
                0x0000000040002544                PROVIDE (ets_uart_printf, 0x40002544)
                0x0000000040002f04                PROVIDE (ets_update_cpu_frequency, 0x40002f04)
                0x0000000040001f00                PROVIDE (ets_vprintf, 0x40001f00)
                0x00000000400030f0                PROVIDE (ets_wdt_disable, 0x400030f0)
                0x0000000040002fa0                PROVIDE (ets_wdt_enable, 0x40002fa0)
                0x0000000040002f34                PROVIDE (ets_wdt_get_mode, 0x40002f34)
                0x0000000040003170                PROVIDE (ets_wdt_init, 0x40003170)
                0x0000000040003158                PROVIDE (ets_wdt_restore, 0x40003158)
                0x0000000040001da0                PROVIDE (ets_write_char, 0x40001da0)
                0x000000004000091c                PROVIDE (get_first_seg, 0x4000091c)
                0x0000000040004c50                PROVIDE (gpio_init, 0x40004c50)
                0x0000000040004cf0                PROVIDE (gpio_input_get, 0x40004cf0)
                0x0000000040004dcc                PROVIDE (gpio_intr_ack, 0x40004dcc)
                0x0000000040004e28                PROVIDE (gpio_intr_handler_register, 0x40004e28)
                0x0000000040004d88                PROVIDE (gpio_intr_pending, 0x40004d88)
                0x0000000040004efc                PROVIDE (gpio_intr_test, 0x40004efc)
                0x0000000040004cd0                PROVIDE (gpio_output_set, 0x40004cd0)
                0x0000000040004d90                PROVIDE (gpio_pin_intr_state_set, 0x40004d90)
                0x0000000040004ed4                PROVIDE (gpio_pin_wakeup_disable, 0x40004ed4)
                0x0000000040004e90                PROVIDE (gpio_pin_wakeup_enable, 0x40004e90)
                0x0000000040004d5c                PROVIDE (gpio_register_get, 0x40004d5c)
                0x0000000040004d04                PROVIDE (gpio_register_set, 0x40004d04)
                0x000000004000a2cc                PROVIDE (hmac_md5, 0x4000a2cc)
                0x000000004000a160                PROVIDE (hmac_md5_vector, 0x4000a160)
                0x000000004000ba28                PROVIDE (hmac_sha1, 0x4000ba28)
                0x000000004000b8b4                PROVIDE (hmac_sha1_vector, 0x4000b8b4)
                0x0000000040004f40                PROVIDE (lldesc_build_chain, 0x40004f40)
                0x0000000040005050                PROVIDE (lldesc_num2link, 0x40005050)
                0x000000004000507c                PROVIDE (lldesc_set_owner, 0x4000507c)
                0x0000000040000fec                PROVIDE (main, 0x40000fec)
                0x00000000400097ac                PROVIDE (md5_vector, 0x400097ac)
                0x0000000040001c2c                PROVIDE (mem_calloc, 0x40001c2c)
                0x00000000400019e0                PROVIDE (mem_free, 0x400019e0)
                0x0000000040001998                PROVIDE (mem_init, 0x40001998)
                0x0000000040001b40                PROVIDE (mem_malloc, 0x40001b40)
                0x0000000040001c6c                PROVIDE (mem_realloc, 0x40001c6c)
                0x0000000040001a14                PROVIDE (mem_trim, 0x40001a14)
                0x0000000040001c58                PROVIDE (mem_zalloc, 0x40001c58)
                0x000000004000dea8                PROVIDE (memcmp, 0x4000dea8)
                0x000000004000df48                PROVIDE (memcpy, 0x4000df48)
                0x000000004000e04c                PROVIDE (memmove, 0x4000e04c)
                0x000000004000e190                PROVIDE (memset, 0x4000e190)
                0x00000000400031c0                PROVIDE (multofup, 0x400031c0)
                0x000000004000b840                PROVIDE (pbkdf2_sha1, 0x4000b840)
                0x0000000040006b08                PROVIDE (phy_get_romfuncs, 0x40006b08)
                0x0000000040000600                PROVIDE (rand, 0x40000600)
                0x000000004000dd68                PROVIDE (rc4_skip, 0x4000dd68)
                0x0000000040003d08                PROVIDE (recv_packet, 0x40003d08)
                0x0000000040000a04                PROVIDE (remove_head_space, 0x40000a04)
                0x0000000040008dd0                PROVIDE (rijndaelKeySetupDec, 0x40008dd0)
                0x0000000040009300                PROVIDE (rijndaelKeySetupEnc, 0x40009300)
                0x00000000400060c0                PROVIDE (rom_abs_temp, 0x400060c0)
                0x0000000040006b10                PROVIDE (rom_ana_inf_gating_en, 0x40006b10)
                0x0000000040007a28                PROVIDE (rom_cal_tos_v50, 0x40007a28)
                0x0000000040006f84                PROVIDE (rom_chip_50_set_channel, 0x40006f84)
                0x00000000400060d0                PROVIDE (rom_chip_v5_disable_cca, 0x400060d0)
                0x00000000400060ec                PROVIDE (rom_chip_v5_enable_cca, 0x400060ec)
                0x000000004000711c                PROVIDE (rom_chip_v5_rx_init, 0x4000711c)
                0x000000004000610c                PROVIDE (rom_chip_v5_sense_backoff, 0x4000610c)
                0x000000004000718c                PROVIDE (rom_chip_v5_tx_init, 0x4000718c)
                0x000000004000615c                PROVIDE (rom_dc_iq_est, 0x4000615c)
                0x00000000400061b8                PROVIDE (rom_en_pwdet, 0x400061b8)
                0x0000000040006238                PROVIDE (rom_get_bb_atten, 0x40006238)
                0x0000000040006260                PROVIDE (rom_get_corr_power, 0x40006260)
                0x00000000400062dc                PROVIDE (rom_get_fm_sar_dout, 0x400062dc)
                0x0000000040006394                PROVIDE (rom_get_noisefloor, 0x40006394)
                0x00000000400063b0                PROVIDE (rom_get_power_db, 0x400063b0)
                0x0000000040007268                PROVIDE (rom_i2c_readReg, 0x40007268)
                0x000000004000729c                PROVIDE (rom_i2c_readReg_Mask, 0x4000729c)
                0x00000000400072d8                PROVIDE (rom_i2c_writeReg, 0x400072d8)
                0x000000004000730c                PROVIDE (rom_i2c_writeReg_Mask, 0x4000730c)
                0x0000000040006400                PROVIDE (rom_iq_est_disable, 0x40006400)
                0x0000000040006430                PROVIDE (rom_iq_est_enable, 0x40006430)
                0x0000000040006484                PROVIDE (rom_linear_to_db, 0x40006484)
                0x00000000400065a4                PROVIDE (rom_mhz2ieee, 0x400065a4)
                0x0000000040007bf0                PROVIDE (rom_pbus_dco___SA2, 0x40007bf0)
                0x000000004000737c                PROVIDE (rom_pbus_debugmode, 0x4000737c)
                0x0000000040007410                PROVIDE (rom_pbus_enter_debugmode, 0x40007410)
                0x0000000040007448                PROVIDE (rom_pbus_exit_debugmode, 0x40007448)
                0x000000004000747c                PROVIDE (rom_pbus_force_test, 0x4000747c)
                0x00000000400074d8                PROVIDE (rom_pbus_rd, 0x400074d8)
                0x000000004000754c                PROVIDE (rom_pbus_set_rxgain, 0x4000754c)
                0x0000000040007610                PROVIDE (rom_pbus_set_txgain, 0x40007610)
                0x0000000040007648                PROVIDE (rom_pbus_workmode, 0x40007648)
                0x0000000040007688                PROVIDE (rom_pbus_xpd_rx_off, 0x40007688)
                0x00000000400076cc                PROVIDE (rom_pbus_xpd_rx_on, 0x400076cc)
                0x00000000400076fc                PROVIDE (rom_pbus_xpd_tx_off, 0x400076fc)
                0x0000000040007740                PROVIDE (rom_pbus_xpd_tx_on, 0x40007740)
                0x00000000400077a0                PROVIDE (rom_pbus_xpd_tx_on__low_gain, 0x400077a0)
                0x0000000040007804                PROVIDE (rom_phy_reset_req, 0x40007804)
                0x000000004000781c                PROVIDE (rom_restart_cal, 0x4000781c)
                0x0000000040007eb4                PROVIDE (rom_rfcal_pwrctrl, 0x40007eb4)
                0x000000004000804c                PROVIDE (rom_rfcal_rxiq, 0x4000804c)
                0x0000000040008264                PROVIDE (rom_rfcal_rxiq_set_reg, 0x40008264)
                0x0000000040008388                PROVIDE (rom_rfcal_txcap, 0x40008388)
                0x0000000040008610                PROVIDE (rom_rfcal_txiq, 0x40008610)
                0x00000000400088b8                PROVIDE (rom_rfcal_txiq_cover, 0x400088b8)
                0x0000000040008a70                PROVIDE (rom_rfcal_txiq_set_reg, 0x40008a70)
                0x0000000040007868                PROVIDE (rom_rfpll_reset, 0x40007868)
                0x0000000040007968                PROVIDE (rom_rfpll_set_freq, 0x40007968)
                0x0000000040008b6c                PROVIDE (rom_rxiq_cover_mg_mp, 0x40008b6c)
                0x0000000040006628                PROVIDE (rom_rxiq_get_mis, 0x40006628)
                0x0000000040006738                PROVIDE (rom_sar_init, 0x40006738)
                0x000000004000678c                PROVIDE (rom_set_ana_inf_tx_scale, 0x4000678c)
                0x0000000040006c50                PROVIDE (rom_set_channel_freq, 0x40006c50)
                0x00000000400067c8                PROVIDE (rom_set_loopback_gain, 0x400067c8)
                0x0000000040006830                PROVIDE (rom_set_noise_floor, 0x40006830)
                0x0000000040006550                PROVIDE (rom_set_rxclk_en, 0x40006550)
                0x0000000040008c6c                PROVIDE (rom_set_txbb_atten, 0x40008c6c)
                0x000000004000650c                PROVIDE (rom_set_txclk_en, 0x4000650c)
                0x0000000040008d34                PROVIDE (rom_set_txiq_cal, 0x40008d34)
                0x0000000040006874                PROVIDE (rom_start_noisefloor, 0x40006874)
                0x00000000400068b4                PROVIDE (rom_start_tx_tone, 0x400068b4)
                0x000000004000698c                PROVIDE (rom_stop_tx_tone, 0x4000698c)
                0x0000000040006a98                PROVIDE (rom_tx_mac_disable, 0x40006a98)
                0x0000000040006ad4                PROVIDE (rom_tx_mac_enable, 0x40006ad4)
                0x0000000040006a1c                PROVIDE (rom_txtone_linear_pwr, 0x40006a1c)
                0x00000000400078dc                PROVIDE (rom_write_rfpll_sdm, 0x400078dc)
                0x00000000400031b4                PROVIDE (roundup2, 0x400031b4)
                0x0000000040002870                PROVIDE (rtc_enter_sleep, 0x40002870)
                0x00000000400025e0                PROVIDE (rtc_get_reset_reason, 0x400025e0)
                0x00000000400029ec                PROVIDE (rtc_intr_handler, 0x400029ec)
                0x0000000040002668                PROVIDE (rtc_set_sleep_mode, 0x40002668)
                0x00000000400027a4                PROVIDE (save_rxbcn_mactime, 0x400027a4)
                0x00000000400027ac                PROVIDE (save_tsf_us, 0x400027ac)
                0x0000000040003c80                PROVIDE (send_packet, 0x40003c80)
                0x000000004000ba48                PROVIDE (sha1_prf, 0x4000ba48)
                0x000000004000a2ec                PROVIDE (sha1_vector, 0x4000a2ec)
                0x0000000040005180                PROVIDE (sip_alloc_to_host_evt, 0x40005180)
                0x00000000400058a8                PROVIDE (sip_get_ptr, 0x400058a8)
                0x0000000040005668                PROVIDE (sip_get_state, 0x40005668)
                0x000000004000567c                PROVIDE (sip_init_attach, 0x4000567c)
                0x000000004000544c                PROVIDE (sip_install_rx_ctrl_cb, 0x4000544c)
                0x000000004000545c                PROVIDE (sip_install_rx_data_cb, 0x4000545c)
                0x00000000400050fc                PROVIDE (sip_post, 0x400050fc)
                0x00000000400056c4                PROVIDE (sip_post_init, 0x400056c4)
                0x000000004000534c                PROVIDE (sip_reclaim_from_host_cmd, 0x4000534c)
                0x00000000400052c0                PROVIDE (sip_reclaim_tx_data_pkt, 0x400052c0)
                0x0000000040005808                PROVIDE (sip_send, 0x40005808)
                0x0000000040005864                PROVIDE (sip_to_host_chain_append, 0x40005864)
                0x0000000040005234                PROVIDE (sip_to_host_evt_send_done, 0x40005234)
                0x00000000400060ac                PROVIDE (slc_add_credits, 0x400060ac)
                0x0000000040005d90                PROVIDE (slc_enable, 0x40005d90)
                0x0000000040005f24                PROVIDE (slc_from_host_chain_fetch, 0x40005f24)
                0x0000000040005e94                PROVIDE (slc_from_host_chain_recycle, 0x40005e94)
                0x0000000040005c50                PROVIDE (slc_init_attach, 0x40005c50)
                0x000000004000608c                PROVIDE (slc_init_credit, 0x4000608c)
                0x0000000040006014                PROVIDE (slc_pause_from_host, 0x40006014)
                0x0000000040005c1c                PROVIDE (slc_reattach, 0x40005c1c)
                0x000000004000603c                PROVIDE (slc_resume_from_host, 0x4000603c)
                0x0000000040005dc0                PROVIDE (slc_select_tohost_gpio, 0x40005dc0)
                0x0000000040005db8                PROVIDE (slc_select_tohost_gpio_mode, 0x40005db8)
                0x0000000040005de4                PROVIDE (slc_send_to_host_chain, 0x40005de4)
                0x0000000040006068                PROVIDE (slc_set_host_io_max_window, 0x40006068)
                0x0000000040005f10                PROVIDE (slc_to_host_chain_recycle, 0x40005f10)
                0x000000004000264c                PROVIDE (software_reset, 0x4000264c)
                0x0000000040004644                PROVIDE (spi_flash_attach, 0x40004644)
                0x00000000400005f0                PROVIDE (srand, 0x400005f0)
                0x000000004000bdc8                PROVIDE (strcmp, 0x4000bdc8)
                0x000000004000bec8                PROVIDE (strcpy, 0x4000bec8)
                0x000000004000bf4c                PROVIDE (strlen, 0x4000bf4c)
                0x000000004000bfa8                PROVIDE (strncmp, 0x4000bfa8)
                0x000000004000c0a0                PROVIDE (strncpy, 0x4000c0a0)
                0x000000004000e1e0                PROVIDE (strstr, 0x4000e1e0)
                0x0000000040002c64                PROVIDE (timer_insert, 0x40002c64)
                0x000000004000383c                PROVIDE (uartAttach, 0x4000383c)
                0x0000000040003924                PROVIDE (uart_baudrate_detect, 0x40003924)
                0x00000000400038a4                PROVIDE (uart_buff_switch, 0x400038a4)
                0x00000000400039d8                PROVIDE (uart_div_modify, 0x400039d8)
                0x0000000040003bbc                PROVIDE (uart_rx_intr_handler, 0x40003bbc)
                0x0000000040003b8c                PROVIDE (uart_rx_one_char, 0x40003b8c)
                0x0000000040003b64                PROVIDE (uart_rx_one_char_block, 0x40003b64)
                0x0000000040003ec8                PROVIDE (uart_rx_readbuff, 0x40003ec8)
                0x0000000040003b30                PROVIDE (uart_tx_one_char, 0x40003b30)
                0x000000004000bc40                PROVIDE (wepkey_128, 0x4000bc40)
                0x000000004000bb3c                PROVIDE (wepkey_64, 0x4000bb3c)
                0x0000000040000688                PROVIDE (xthal_bcopy, 0x40000688)
                0x000000004000074c                PROVIDE (xthal_copy123, 0x4000074c)
                0x000000004000dd4c                PROVIDE (xthal_get_ccompare, 0x4000dd4c)
                0x000000004000dd38                PROVIDE (xthal_get_ccount, 0x4000dd38)
                0x000000004000dd58                PROVIDE (xthal_get_interrupt, 0x4000dd58)
                0x000000004000dd58                PROVIDE (xthal_get_intread, 0x4000dd58)
                0x00000000400006c4                PROVIDE (xthal_memcpy, 0x400006c4)
                0x000000004000dd40                PROVIDE (xthal_set_ccompare, 0x4000dd40)
                0x000000004000dd60                PROVIDE (xthal_set_intclear, 0x4000dd60)
                0x000000004000e320                PROVIDE (xthal_spill_registers_into_stack_nw, 0x4000e320)
                0x000000004000e324                PROVIDE (xthal_window_spill, 0x4000e324)
                0x000000004000e320                PROVIDE (xthal_window_spill_nw, 0x4000e320)
                0x000000003fffccf0                PROVIDE (Te0, 0x3fffccf0)
                0x000000003fffd100                PROVIDE (Td0, 0x3fffd100)
                0x000000003fffd500                PROVIDE (Td4s, 0x3fffd500)
                0x000000003fffd0f0                PROVIDE (rcons, 0x3fffd0f0)
                0x000000003fffde10                PROVIDE (UartDev, 0x3fffde10)
                0x000000003fffc714                PROVIDE (flashchip, 0x3fffc714)
OUTPUT(build/app.out elf32-xtensa-le)

.xtensa.info    0x0000000000000000       0x38
 .xtensa.info   0x0000000000000000       0x38 /home/stoffer/esp8266/esp-open-sdk/sdk/lib/libmain.a(debug-vector.o)
 .xtensa.info   0x0000000000000000        0x0 /home/stoffer/esp8266/esp-open-sdk/sdk/lib/libmain.a(double-vector.o)
 .xtensa.info   0x0000000000000000        0x0 /home/stoffer/esp8266/esp-open-sdk/sdk/lib/libmain.a(kernel-vector.o)
 .xtensa.info   0x0000000000000000        0x0 /home/stoffer/esp8266/esp-open-sdk/sdk/lib/libmain.a(nmi-vector.o)
 .xtensa.info   0x0000000000000000        0x0 /home/stoffer/esp8266/esp-open-sdk/sdk/lib/libmain.a(user-vector.o)
 .xtensa.info   0x0000000000000000        0x0 /home/stoffer/esp8266/esp-open-sdk/sdk/lib/libmain.a(vector.o)
 .xtensa.info   0x0000000000000000        0x0 /home/stoffer/esp8266/esp-open-sdk/sdk/lib/libmain.a(app_main.o)
 .xtensa.info   0x0000000000000000        0x0 /home/stoffer/esp8266/esp-open-sdk/sdk/lib/libmain.a(ets_timer.o)
 .xtensa.info   0x0000000000000000        0x0 /home/stoffer/esp8266/esp-open-sdk/sdk/lib/libmain.a(mem_manager.o)
 .xtensa.info   0x0000000000000000        0x0 /home/stoffer/esp8266/esp-open-sdk/sdk/lib/libmain.a(spi_flash.o)
 .xtensa.info   0x0000000000000000        0x0 /home/stoffer/esp8266/esp-open-sdk/sdk/lib/libmain.a(user_interface.o)
 .xtensa.info   0x0000000000000000        0x0 /home/stoffer/esp8266/esp-open-sdk/sdk/lib/libmain.a(eagle_lib.o)
 .xtensa.info   0x0000000000000000        0x0 /home/stoffer/esp8266/esp-open-sdk/sdk/lib/libmain.a(eagle_lwip_if.o)
 .xtensa.info   0x0000000000000000        0x0 /home/stoffer/esp8266/esp-open-sdk/xtensa-lx106-elf/bin/../lib/gcc/xtensa-lx106-elf/4.8.2/libgcc.a(_udivsi3.o)
 .xtensa.info   0x0000000000000000        0x0 /home/stoffer/esp8266/esp-open-sdk/xtensa-lx106-elf/bin/../lib/gcc/xtensa-lx106-elf/4.8.2/libgcc.a(_umodsi3.o)
 .xtensa.info   0x0000000000000000        0x0 /home/stoffer/esp8266/esp-open-sdk/xtensa-lx106-elf/bin/../lib/gcc/xtensa-lx106-elf/4.8.2/libgcc.a(_muldi3.o)
 .xtensa.info   0x0000000000000000        0x0 /home/stoffer/esp8266/esp-open-sdk/xtensa-lx106-elf/bin/../lib/gcc/xtensa-lx106-elf/4.8.2/libgcc.a(_umulsidi3.o)
 .xtensa.info   0x0000000000000000        0x0 build/app_app.a(user_main.o)
 .xtensa.info   0x0000000000000000        0x0 build/app_app.a(captdns.o)
 .xtensa.info   0x0000000000000000        0x0 build/app_app.a(led.o)
 .xtensa.info   0x0000000000000000        0x0 build/app_app.a(httpd.o)
 .xtensa.info   0x0000000000000000        0x0 build/app_app.a(httpd_user_init.o)
 .xtensa.info   0x0000000000000000        0x0 build/app_app.a(crypto.o)
 .xtensa.info   0x0000000000000000        0x0 build/app_app.a(hmac-sha256.o)
 .xtensa.info   0x0000000000000000        0x0 build/app_app.a(sha256.o)
 .xtensa.info   0x0000000000000000        0x0 build/app_app.a(aes.o)
 .xtensa.info   0x0000000000000000        0x0 build/app_app.a(kmp_request.o)
 .xtensa.info   0x0000000000000000        0x0 build/app_app.a(kmp.o)
 .xtensa.info   0x0000000000000000        0x0 build/app_app.a(cron.o)
 .xtensa.info   0x0000000000000000        0x0 build/app_app.a(ac_out.o)
 .xtensa.info   0x0000000000000000        0x0 build/app_app.a(uart.o)
 .xtensa.info   0x0000000000000000        0x0 build/app_app.a(mqtt.o)
 .xtensa.info   0x0000000000000000        0x0 build/app_app.a(mqtt_msg.o)
 .xtensa.info   0x0000000000000000        0x0 build/app_app.a(queue.o)
 .xtensa.info   0x0000000000000000        0x0 build/app_app.a(mqtt_utils.o)
 .xtensa.info   0x0000000000000000        0x0 build/app_app.a(proto.o)
 .xtensa.info   0x0000000000000000        0x0 build/app_app.a(config.o)
 .xtensa.info   0x0000000000000000        0x0 build/app_app.a(wifi.o)
 .xtensa.info   0x0000000000000000        0x0 build/app_app.a(tinyprintf.o)
 .xtensa.info   0x0000000000000000        0x0 build/app_app.a(unix_time.o)
 .xtensa.info   0x0000000000000000        0x0 build/app_app.a(cgi.o)
 .xtensa.info   0x0000000000000000        0x0 build/app_app.a(httpdespfs.o)
 .xtensa.info   0x0000000000000000        0x0 build/app_app.a(cgiwifi.o)
 .xtensa.info   0x0000000000000000        0x0 build/app_app.a(espfs.o)
 .xtensa.info   0x0000000000000000        0x0 build/app_app.a(heatshrink_decoder.o)
 .xtensa.info   0x0000000000000000        0x0 build/app_app.a(utils.o)
 .xtensa.info   0x0000000000000000        0x0 build/app_app.a(ringbuf.o)
 .xtensa.info   0x0000000000000000        0x0 /home/stoffer/esp8266/esp-open-sdk/xtensa-lx106-elf/bin/../lib/gcc/xtensa-lx106-elf/4.8.2/../../../../xtensa-lx106-elf/lib/libc.a(lib_a-atoi.o)
 .xtensa.info   0x0000000000000000        0x0 /home/stoffer/esp8266/esp-open-sdk/xtensa-lx106-elf/bin/../lib/gcc/xtensa-lx106-elf/4.8.2/../../../../xtensa-lx106-elf/lib/libc.a(lib_a-gmtime.o)
 .xtensa.info   0x0000000000000000        0x0 /home/stoffer/esp8266/esp-open-sdk/xtensa-lx106-elf/bin/../lib/gcc/xtensa-lx106-elf/4.8.2/../../../../xtensa-lx106-elf/lib/libc.a(lib_a-gmtime_r.o)
 .xtensa.info   0x0000000000000000        0x0 /home/stoffer/esp8266/esp-open-sdk/xtensa-lx106-elf/bin/../lib/gcc/xtensa-lx106-elf/4.8.2/../../../../xtensa-lx106-elf/lib/libc.a(lib_a-impure.o)
 .xtensa.info   0x0000000000000000        0x0 /home/stoffer/esp8266/esp-open-sdk/xtensa-lx106-elf/bin/../lib/gcc/xtensa-lx106-elf/4.8.2/../../../../xtensa-lx106-elf/lib/libc.a(lib_a-memcpy.o)
 .xtensa.info   0x0000000000000000        0x0 /home/stoffer/esp8266/esp-open-sdk/xtensa-lx106-elf/bin/../lib/gcc/xtensa-lx106-elf/4.8.2/../../../../xtensa-lx106-elf/lib/libc.a(lib_a-memset.o)
 .xtensa.info   0x0000000000000000        0x0 /home/stoffer/esp8266/esp-open-sdk/xtensa-lx106-elf/bin/../lib/gcc/xtensa-lx106-elf/4.8.2/../../../../xtensa-lx106-elf/lib/libc.a(lib_a-mktm_r.o)
 .xtensa.info   0x0000000000000000        0x0 /home/stoffer/esp8266/esp-open-sdk/xtensa-lx106-elf/bin/../lib/gcc/xtensa-lx106-elf/4.8.2/../../../../xtensa-lx106-elf/lib/libc.a(lib_a-strcat.o)
 .xtensa.info   0x0000000000000000        0x0 /home/stoffer/esp8266/esp-open-sdk/xtensa-lx106-elf/bin/../lib/gcc/xtensa-lx106-elf/4.8.2/../../../../xtensa-lx106-elf/lib/libc.a(lib_a-strlen.o)
 .xtensa.info   0x0000000000000000        0x0 /home/stoffer/esp8266/esp-open-sdk/xtensa-lx106-elf/bin/../lib/gcc/xtensa-lx106-elf/4.8.2/../../../../xtensa-lx106-elf/lib/libc.a(lib_a-strtok.o)
 .xtensa.info   0x0000000000000000        0x0 /home/stoffer/esp8266/esp-open-sdk/xtensa-lx106-elf/bin/../lib/gcc/xtensa-lx106-elf/4.8.2/../../../../xtensa-lx106-elf/lib/libc.a(lib_a-strtok_r.o)
 .xtensa.info   0x0000000000000000        0x0 /home/stoffer/esp8266/esp-open-sdk/xtensa-lx106-elf/bin/../lib/gcc/xtensa-lx106-elf/4.8.2/../../../../xtensa-lx106-elf/lib/libc.a(lib_a-strtol.o)
 .xtensa.info   0x0000000000000000        0x0 /home/stoffer/esp8266/esp-open-sdk/xtensa-lx106-elf/bin/../lib/gcc/xtensa-lx106-elf/4.8.2/../../../../xtensa-lx106-elf/lib/libc.a(lib_a-tzlock.o)
 .xtensa.info   0x0000000000000000        0x0 /home/stoffer/esp8266/esp-open-sdk/xtensa-lx106-elf/bin/../lib/gcc/xtensa-lx106-elf/4.8.2/../../../../xtensa-lx106-elf/lib/libc.a(lib_a-tzvars.o)
 .xtensa.info   0x0000000000000000        0x0 /home/stoffer/esp8266/esp-open-sdk/xtensa-lx106-elf/bin/../lib/gcc/xtensa-lx106-elf/4.8.2/../../../../xtensa-lx106-elf/lib/libc.a(lib_a-ctype_.o)
 .xtensa.info   0x0000000000000000        0x0 /home/stoffer/esp8266/esp-open-sdk/xtensa-lx106-elf/bin/../lib/gcc/xtensa-lx106-elf/4.8.2/../../../../xtensa-lx106-elf/lib/libc.a(lib_a-gettzinfo.o)
 .xtensa.info   0x0000000000000000        0x0 /home/stoffer/esp8266/esp-open-sdk/xtensa-lx106-elf/bin/../lib/gcc/xtensa-lx106-elf/4.8.2/libgcc.a(_divsi3.o)
 .xtensa.info   0x0000000000000000        0x0 /home/stoffer/esp8266/esp-open-sdk/xtensa-lx106-elf/bin/../lib/gcc/xtensa-lx106-elf/4.8.2/libgcc.a(_modsi3.o)
 .xtensa.info   0x0000000000000000        0x0 /home/stoffer/esp8266/esp-open-sdk/xtensa-lx106-elf/bin/../lib/gcc/xtensa-lx106-elf/4.8.2/libgcc.a(_muldf3.o)
 .xtensa.info   0x0000000000000000        0x0 /home/stoffer/esp8266/esp-open-sdk/xtensa-lx106-elf/bin/../lib/gcc/xtensa-lx106-elf/4.8.2/libgcc.a(_divdf3.o)
 .xtensa.info   0x0000000000000000        0x0 /home/stoffer/esp8266/esp-open-sdk/xtensa-lx106-elf/bin/../lib/gcc/xtensa-lx106-elf/4.8.2/libgcc.a(_floatsidf.o)
 .xtensa.info   0x0000000000000000        0x0 /home/stoffer/esp8266/esp-open-sdk/xtensa-lx106-elf/bin/../lib/gcc/xtensa-lx106-elf/4.8.2/libgcc.a(_udivdi3.o)
 .xtensa.info   0x0000000000000000        0x0 /home/stoffer/esp8266/esp-open-sdk/xtensa-lx106-elf/bin/../lib/gcc/xtensa-lx106-elf/4.8.2/libgcc.a(_umoddi3.o)
 .xtensa.info   0x0000000000000000        0x0 /home/stoffer/esp8266/esp-open-sdk/xtensa-lx106-elf/bin/../xtensa-lx106-elf/sysroot/usr/lib/libhal.a(int_asm--set_intclear.o)
 .xtensa.info   0x0000000000000000        0x0 /home/stoffer/esp8266/esp-open-sdk/sdk/lib/libphy.a(phy.o)
 .xtensa.info   0x0000000000000000        0x0 /home/stoffer/esp8266/esp-open-sdk/sdk/lib/libphy.a(phy_chip_v6_ana.o)
 .xtensa.info   0x0000000000000000        0x0 /home/stoffer/esp8266/esp-open-sdk/sdk/lib/libphy.a(phy_chip_v6.o)
 .xtensa.info   0x0000000000000000        0x0 /home/stoffer/esp8266/esp-open-sdk/sdk/lib/libphy.a(phy_chip_v6_cal.o)
 .xtensa.info   0x0000000000000000        0x0 /home/stoffer/esp8266/esp-open-sdk/sdk/lib/libphy.a(phy_chip_v6_unused.o)
 .xtensa.info   0x0000000000000000        0x0 /home/stoffer/esp8266/esp-open-sdk/sdk/lib/libphy.a(phy_sleep.o)
 .xtensa.info   0x0000000000000000        0x0 /home/stoffer/esp8266/esp-open-sdk/sdk/lib/libpp.a(if_hwctrl.o)
 .xtensa.info   0x0000000000000000        0x0 /home/stoffer/esp8266/esp-open-sdk/sdk/lib/libpp.a(lmac.o)
 .xtensa.info   0x0000000000000000        0x0 /home/stoffer/esp8266/esp-open-sdk/sdk/lib/libpp.a(pm.o)
 .xtensa.info   0x0000000000000000        0x0 /home/stoffer/esp8266/esp-open-sdk/sdk/lib/libpp.a(pm_for_bcn_only_mode.o)
 .xtensa.info   0x0000000000000000        0x0 /home/stoffer/esp8266/esp-open-sdk/sdk/lib/libpp.a(pp.o)
 .xtensa.info   0x0000000000000000        0x0 /home/stoffer/esp8266/esp-open-sdk/sdk/lib/libpp.a(rate_control.o)
 .xtensa.info   0x0000000000000000        0x0 /home/stoffer/esp8266/esp-open-sdk/sdk/lib/libpp.a(trc.o)
 .xtensa.info   0x0000000000000000        0x0 /home/stoffer/esp8266/esp-open-sdk/sdk/lib/libpp.a(wdev.o)
 .xtensa.info   0x0000000000000000        0x0 /home/stoffer/esp8266/esp-open-sdk/sdk/lib/libpp.a(esf_buf.o)
 .xtensa.info   0x0000000000000000        0x0 /home/stoffer/esp8266/esp-open-sdk/sdk/lib/libnet80211.a(ieee80211.o)
 .xtensa.info   0x0000000000000000        0x0 /home/stoffer/esp8266/esp-open-sdk/sdk/lib/libnet80211.a(ieee80211_crypto.o)
 .xtensa.info   0x0000000000000000        0x0 /home/stoffer/esp8266/esp-open-sdk/sdk/lib/libnet80211.a(ieee80211_ets.o)
 .xtensa.info   0x0000000000000000        0x0 /home/stoffer/esp8266/esp-open-sdk/sdk/lib/libnet80211.a(ieee80211_hostap.o)
 .xtensa.info   0x0000000000000000        0x0 /home/stoffer/esp8266/esp-open-sdk/sdk/lib/libnet80211.a(ieee80211_ht.o)
 .xtensa.info   0x0000000000000000        0x0 /home/stoffer/esp8266/esp-open-sdk/sdk/lib/libnet80211.a(ieee80211_input.o)
 .xtensa.info   0x0000000000000000        0x0 /home/stoffer/esp8266/esp-open-sdk/sdk/lib/libnet80211.a(ieee80211_mesh_quick.o)
 .xtensa.info   0x0000000000000000        0x0 /home/stoffer/esp8266/esp-open-sdk/sdk/lib/libnet80211.a(ieee80211_output.o)
 .xtensa.info   0x0000000000000000        0x0 /home/stoffer/esp8266/esp-open-sdk/sdk/lib/libnet80211.a(ieee80211_phy.o)
 .xtensa.info   0x0000000000000000        0x0 /home/stoffer/esp8266/esp-open-sdk/sdk/lib/libnet80211.a(ieee80211_power.o)
 .xtensa.info   0x0000000000000000        0x0 /home/stoffer/esp8266/esp-open-sdk/sdk/lib/libnet80211.a(ieee80211_proto.o)
 .xtensa.info   0x0000000000000000        0x0 /home/stoffer/esp8266/esp-open-sdk/sdk/lib/libnet80211.a(ieee80211_rfid.o)
 .xtensa.info   0x0000000000000000        0x0 /home/stoffer/esp8266/esp-open-sdk/sdk/lib/libnet80211.a(ieee80211_scan.o)
 .xtensa.info   0x0000000000000000        0x0 /home/stoffer/esp8266/esp-open-sdk/sdk/lib/libnet80211.a(ieee80211_sta.o)
 .xtensa.info   0x0000000000000000        0x0 /home/stoffer/esp8266/esp-open-sdk/sdk/lib/libnet80211.a(wl_chm.o)
 .xtensa.info   0x0000000000000000        0x0 /home/stoffer/esp8266/esp-open-sdk/sdk/lib/libnet80211.a(wl_cnx.o)
 .xtensa.info   0x0000000000000000        0x0 /home/stoffer/esp8266/esp-open-sdk/sdk/lib/libnet80211.a(ieee80211_action.o)
 .xtensa.info   0x0000000000000000        0x0 /home/stoffer/esp8266/esp-open-sdk/sdk/lib/libnet80211.a(ieee80211_action_vendor.o)
 .xtensa.info   0x0000000000000000        0x0 /home/stoffer/esp8266/esp-open-sdk/sdk/lib/libnet80211.a(ieee80211_crypto_ccmp.o)
 .xtensa.info   0x0000000000000000        0x0 /home/stoffer/esp8266/esp-open-sdk/sdk/lib/libnet80211.a(ieee80211_ie_vendor.o)
 .xtensa.info   0x0000000000000000        0x0 /home/stoffer/esp8266/esp-open-sdk/sdk/lib/liblwip.a(dhcp.o)
 .xtensa.info   0x0000000000000000        0x0 /home/stoffer/esp8266/esp-open-sdk/sdk/lib/liblwip.a(dhcpserver.o)
 .xtensa.info   0x0000000000000000        0x0 /home/stoffer/esp8266/esp-open-sdk/sdk/lib/liblwip.a(dns.o)
 .xtensa.info   0x0000000000000000        0x0 /home/stoffer/esp8266/esp-open-sdk/sdk/lib/liblwip.a(espconn.o)
 .xtensa.info   0x0000000000000000        0x0 /home/stoffer/esp8266/esp-open-sdk/sdk/lib/liblwip.a(espconn_tcp.o)
 .xtensa.info   0x0000000000000000        0x0 /home/stoffer/esp8266/esp-open-sdk/sdk/lib/liblwip.a(espconn_udp.o)
 .xtensa.info   0x0000000000000000        0x0 /home/stoffer/esp8266/esp-open-sdk/sdk/lib/liblwip.a(etharp.o)
 .xtensa.info   0x0000000000000000        0x0 /home/stoffer/esp8266/esp-open-sdk/sdk/lib/liblwip.a(igmp.o)
 .xtensa.info   0x0000000000000000        0x0 /home/stoffer/esp8266/esp-open-sdk/sdk/lib/liblwip.a(inet_chksum.o)
 .xtensa.info   0x0000000000000000        0x0 /home/stoffer/esp8266/esp-open-sdk/sdk/lib/liblwip.a(init.o)
 .xtensa.info   0x0000000000000000        0x0 /home/stoffer/esp8266/esp-open-sdk/sdk/lib/liblwip.a(ip_addr.o)
 .xtensa.info   0x0000000000000000        0x0 /home/stoffer/esp8266/esp-open-sdk/sdk/lib/liblwip.a(ip.o)
 .xtensa.info   0x0000000000000000        0x0 /home/stoffer/esp8266/esp-open-sdk/sdk/lib/liblwip.a(memp.o)
 .xtensa.info   0x0000000000000000        0x0 /home/stoffer/esp8266/esp-open-sdk/sdk/lib/liblwip.a(netif.o)
 .xtensa.info   0x0000000000000000        0x0 /home/stoffer/esp8266/esp-open-sdk/sdk/lib/liblwip.a(pbuf.o)
 .xtensa.info   0x0000000000000000        0x0 /home/stoffer/esp8266/esp-open-sdk/sdk/lib/liblwip.a(raw.o)
 .xtensa.info   0x0000000000000000        0x0 /home/stoffer/esp8266/esp-open-sdk/sdk/lib/liblwip.a(sntp.o)
 .xtensa.info   0x0000000000000000        0x0 /home/stoffer/esp8266/esp-open-sdk/sdk/lib/liblwip.a(tcp_in.o)
 .xtensa.info   0x0000000000000000        0x0 /home/stoffer/esp8266/esp-open-sdk/sdk/lib/liblwip.a(tcp.o)
 .xtensa.info   0x0000000000000000        0x0 /home/stoffer/esp8266/esp-open-sdk/sdk/lib/liblwip.a(tcp_out.o)
 .xtensa.info   0x0000000000000000        0x0 /home/stoffer/esp8266/esp-open-sdk/sdk/lib/liblwip.a(timers.o)
 .xtensa.info   0x0000000000000000        0x0 /home/stoffer/esp8266/esp-open-sdk/sdk/lib/liblwip.a(udp.o)
 .xtensa.info   0x0000000000000000        0x0 /home/stoffer/esp8266/esp-open-sdk/sdk/lib/liblwip.a(icmp.o)
 .xtensa.info   0x0000000000000000        0x0 /home/stoffer/esp8266/esp-open-sdk/sdk/lib/libwpa.a(ap_config.o)
 .xtensa.info   0x0000000000000000        0x0 /home/stoffer/esp8266/esp-open-sdk/sdk/lib/libwpa.a(common.o)
 .xtensa.info   0x0000000000000000        0x0 /home/stoffer/esp8266/esp-open-sdk/sdk/lib/libwpa.a(os_xtensa.o)
 .xtensa.info   0x0000000000000000        0x0 /home/stoffer/esp8266/esp-open-sdk/sdk/lib/libwpa.a(wpa_auth.o)
 .xtensa.info   0x0000000000000000        0x0 /home/stoffer/esp8266/esp-open-sdk/sdk/lib/libwpa.a(wpa_auth_ie.o)
 .xtensa.info   0x0000000000000000        0x0 /home/stoffer/esp8266/esp-open-sdk/sdk/lib/libwpa.a(wpa.o)
 .xtensa.info   0x0000000000000000        0x0 /home/stoffer/esp8266/esp-open-sdk/sdk/lib/libwpa.a(wpa_common.o)
 .xtensa.info   0x0000000000000000        0x0 /home/stoffer/esp8266/esp-open-sdk/sdk/lib/libwpa.a(wpa_debug.o)
 .xtensa.info   0x0000000000000000        0x0 /home/stoffer/esp8266/esp-open-sdk/sdk/lib/libwpa.a(wpa_ie.o)
 .xtensa.info   0x0000000000000000        0x0 /home/stoffer/esp8266/esp-open-sdk/sdk/lib/libwpa.a(wpa_main.o)
 .xtensa.info   0x0000000000000000        0x0 /home/stoffer/esp8266/esp-open-sdk/sdk/lib/libwpa.a(wpas_glue.o)
 .xtensa.info   0x0000000000000000        0x0 /home/stoffer/esp8266/esp-open-sdk/sdk/lib/libwpa.a(aes-wrap.o)
 .xtensa.info   0x0000000000000000        0x0 /home/stoffer/esp8266/esp-open-sdk/sdk/lib/libwpa.a(aes-internal-enc.o)
 .xtensa.info   0x0000000000000000        0x0 /home/stoffer/esp8266/esp-open-sdk/sdk/lib/libwpa.a(aes-internal.o)
 .xtensa.info   0x0000000000000000        0x0 /home/stoffer/esp8266/esp-open-sdk/xtensa-lx106-elf/bin/../lib/gcc/xtensa-lx106-elf/4.8.2/libgcc.a(_ashrdi3.o)
 .xtensa.info   0x0000000000000000        0x0 /home/stoffer/esp8266/esp-open-sdk/xtensa-lx106-elf/bin/../lib/gcc/xtensa-lx106-elf/4.8.2/libgcc.a(_addsubsf3.o)
 .xtensa.info   0x0000000000000000        0x0 /home/stoffer/esp8266/esp-open-sdk/xtensa-lx106-elf/bin/../lib/gcc/xtensa-lx106-elf/4.8.2/libgcc.a(_mulsf3.o)
 .xtensa.info   0x0000000000000000        0x0 /home/stoffer/esp8266/esp-open-sdk/xtensa-lx106-elf/bin/../lib/gcc/xtensa-lx106-elf/4.8.2/libgcc.a(_divsf3.o)
 .xtensa.info   0x0000000000000000        0x0 /home/stoffer/esp8266/esp-open-sdk/xtensa-lx106-elf/bin/../lib/gcc/xtensa-lx106-elf/4.8.2/libgcc.a(_fixsfsi.o)
 .xtensa.info   0x0000000000000000        0x0 /home/stoffer/esp8266/esp-open-sdk/xtensa-lx106-elf/bin/../lib/gcc/xtensa-lx106-elf/4.8.2/libgcc.a(_fixunssfsi.o)
 .xtensa.info   0x0000000000000000        0x0 /home/stoffer/esp8266/esp-open-sdk/xtensa-lx106-elf/bin/../lib/gcc/xtensa-lx106-elf/4.8.2/libgcc.a(_floatsisf.o)
 .xtensa.info   0x0000000000000000        0x0 /home/stoffer/esp8266/esp-open-sdk/xtensa-lx106-elf/bin/../lib/gcc/xtensa-lx106-elf/4.8.2/libgcc.a(_fixdfsi.o)
 .xtensa.info   0x0000000000000000        0x0 /home/stoffer/esp8266/esp-open-sdk/xtensa-lx106-elf/bin/../lib/gcc/xtensa-lx106-elf/4.8.2/libgcc.a(_truncdfsf2.o)
 .xtensa.info   0x0000000000000000        0x0 /home/stoffer/esp8266/esp-open-sdk/xtensa-lx106-elf/bin/../lib/gcc/xtensa-lx106-elf/4.8.2/libgcc.a(_divdi3.o)
 .xtensa.info   0x0000000000000000        0x0 /home/stoffer/esp8266/esp-open-sdk/sdk/lib/libnet80211.a(ieee80211_crypto_tkip.o)
 .xtensa.info   0x0000000000000000        0x0 /home/stoffer/esp8266/esp-open-sdk/sdk/lib/libnet80211.a(ieee80211_crypto_wep.o)

.xt.prop        0x0000000000000000    0x2d4d4
 .xt.prop       0x0000000000000000       0x18 /home/stoffer/esp8266/esp-open-sdk/sdk/lib/libmain.a(debug-vector.o)
 .xt.prop       0x0000000000000018       0x18 /home/stoffer/esp8266/esp-open-sdk/sdk/lib/libmain.a(double-vector.o)
 .xt.prop       0x0000000000000030       0x18 /home/stoffer/esp8266/esp-open-sdk/sdk/lib/libmain.a(kernel-vector.o)
 .xt.prop       0x0000000000000048       0x30 /home/stoffer/esp8266/esp-open-sdk/sdk/lib/libmain.a(nmi-vector.o)
                                         0x3c (size before relaxing)
 .xt.prop       0x0000000000000078       0x30 /home/stoffer/esp8266/esp-open-sdk/sdk/lib/libmain.a(user-vector.o)
                                         0x3c (size before relaxing)
 .xt.prop       0x00000000000000a8       0x18 /home/stoffer/esp8266/esp-open-sdk/sdk/lib/libmain.a(vector.o)
 .xt.prop       0x00000000000000c0      0xda4 /home/stoffer/esp8266/esp-open-sdk/sdk/lib/libmain.a(app_main.o)
                                        0xe10 (size before relaxing)
 .xt.prop       0x0000000000000e64      0x5e8 /home/stoffer/esp8266/esp-open-sdk/sdk/lib/libmain.a(ets_timer.o)
                                        0x630 (size before relaxing)
 .xt.prop       0x000000000000144c      0x3e4 /home/stoffer/esp8266/esp-open-sdk/sdk/lib/libmain.a(mem_manager.o)
                                        0x474 (size before relaxing)
 .xt.prop       0x0000000000001830      0x270 /home/stoffer/esp8266/esp-open-sdk/sdk/lib/libmain.a(spi_flash.o)
                                        0x27c (size before relaxing)
 .xt.prop       0x0000000000001aa0     0x3558 /home/stoffer/esp8266/esp-open-sdk/sdk/lib/libmain.a(user_interface.o)
                                       0x36e4 (size before relaxing)
 .xt.prop       0x0000000000004ff8      0x858 /home/stoffer/esp8266/esp-open-sdk/sdk/lib/libmain.a(eagle_lib.o)
 .xt.prop       0x0000000000005850      0x264 /home/stoffer/esp8266/esp-open-sdk/sdk/lib/libmain.a(eagle_lwip_if.o)
                                        0x294 (size before relaxing)
 .xt.prop       0x0000000000005ab4       0x9c /home/stoffer/esp8266/esp-open-sdk/xtensa-lx106-elf/bin/../lib/gcc/xtensa-lx106-elf/4.8.2/libgcc.a(_udivsi3.o)
 .xt.prop       0x0000000000005b50       0x78 /home/stoffer/esp8266/esp-open-sdk/xtensa-lx106-elf/bin/../lib/gcc/xtensa-lx106-elf/4.8.2/libgcc.a(_umodsi3.o)
 .xt.prop       0x0000000000005bc8       0x24 /home/stoffer/esp8266/esp-open-sdk/xtensa-lx106-elf/bin/../lib/gcc/xtensa-lx106-elf/4.8.2/libgcc.a(_muldi3.o)
                                         0x30 (size before relaxing)
 .xt.prop       0x0000000000005bec       0x3c /home/stoffer/esp8266/esp-open-sdk/xtensa-lx106-elf/bin/../lib/gcc/xtensa-lx106-elf/4.8.2/libgcc.a(_umulsidi3.o)
 .xt.prop       0x0000000000005c28      0x39c build/app_app.a(user_main.o)
                                        0x3e4 (size before relaxing)
 .xt.prop       0x0000000000005fc4      0x180 build/app_app.a(captdns.o)
                                        0x198 (size before relaxing)
 .xt.prop       0x0000000000006144      0x114 build/app_app.a(led.o)
                                        0x120 (size before relaxing)
 .xt.prop       0x0000000000006258      0x81c build/app_app.a(httpd.o)
                                        0x864 (size before relaxing)
 .xt.prop       0x0000000000006a74       0x60 build/app_app.a(httpd_user_init.o)
 .xt.prop       0x0000000000006ad4       0xa8 build/app_app.a(crypto.o)
 .xt.prop       0x0000000000006b7c       0xb4 build/app_app.a(hmac-sha256.o)
 .xt.prop       0x0000000000006c30      0x258 build/app_app.a(sha256.o)
                                        0x264 (size before relaxing)
 .xt.prop       0x0000000000006e88      0x3d8 build/app_app.a(aes.o)
                                        0x414 (size before relaxing)
 .xt.prop       0x0000000000007260      0x2ac build/app_app.a(kmp_request.o)
                                        0x2e8 (size before relaxing)
 .xt.prop       0x000000000000750c      0x5dc build/app_app.a(kmp.o)
 .xt.prop       0x0000000000007ae8      0x2b8 build/app_app.a(cron.o)
                                        0x2c4 (size before relaxing)
 .xt.prop       0x0000000000007da0      0x21c build/app_app.a(ac_out.o)
                                        0x240 (size before relaxing)
 .xt.prop       0x0000000000007fbc      0x30c build/app_app.a(uart.o)
 .xt.prop       0x00000000000082c8      0x7b0 build/app_app.a(mqtt.o)
 .xt.prop       0x0000000000008a78      0x684 build/app_app.a(mqtt_msg.o)
 .xt.prop       0x00000000000090fc       0x90 build/app_app.a(queue.o)
 .xt.prop       0x000000000000918c      0x174 build/app_app.a(mqtt_utils.o)
 .xt.prop       0x0000000000009300      0x228 build/app_app.a(proto.o)
 .xt.prop       0x0000000000009528       0xfc build/app_app.a(config.o)
                                        0x108 (size before relaxing)
 .xt.prop       0x0000000000009624      0x1b0 build/app_app.a(wifi.o)
                                        0x210 (size before relaxing)
 .xt.prop       0x00000000000097d4      0x9d8 build/app_app.a(tinyprintf.o)
                                        0x9f0 (size before relaxing)
 .xt.prop       0x000000000000a1ac       0xe4 build/app_app.a(unix_time.o)
                                        0x114 (size before relaxing)
 .xt.prop       0x000000000000a290      0x12c build/app_app.a(cgi.o)
                                        0x144 (size before relaxing)
 .xt.prop       0x000000000000a3bc      0x150 build/app_app.a(httpdespfs.o)
 .xt.prop       0x000000000000a50c      0x2ac build/app_app.a(cgiwifi.o)
                                        0x2b8 (size before relaxing)
 .xt.prop       0x000000000000a7b8      0x204 build/app_app.a(espfs.o)
 .xt.prop       0x000000000000a9bc      0x438 build/app_app.a(heatshrink_decoder.o)
 .xt.prop       0x000000000000adf4      0x1f8 build/app_app.a(utils.o)
 .xt.prop       0x000000000000afec       0xc0 build/app_app.a(ringbuf.o)
 .xt.prop       0x000000000000b0ac       0x3c /home/stoffer/esp8266/esp-open-sdk/xtensa-lx106-elf/bin/../lib/gcc/xtensa-lx106-elf/4.8.2/../../../../xtensa-lx106-elf/lib/libc.a(lib_a-atoi.o)
                                         0x48 (size before relaxing)
 .xt.prop       0x000000000000b0e8       0x30 /home/stoffer/esp8266/esp-open-sdk/xtensa-lx106-elf/bin/../lib/gcc/xtensa-lx106-elf/4.8.2/../../../../xtensa-lx106-elf/lib/libc.a(lib_a-gmtime.o)
 .xt.prop       0x000000000000b118       0x24 /home/stoffer/esp8266/esp-open-sdk/xtensa-lx106-elf/bin/../lib/gcc/xtensa-lx106-elf/4.8.2/../../../../xtensa-lx106-elf/lib/libc.a(lib_a-gmtime_r.o)
                                         0x30 (size before relaxing)
 .xt.prop       0x000000000000b13c       0x24 /home/stoffer/esp8266/esp-open-sdk/xtensa-lx106-elf/bin/../lib/gcc/xtensa-lx106-elf/4.8.2/../../../../xtensa-lx106-elf/lib/libc.a(lib_a-impure.o)
 .xt.prop       0x000000000000b160      0x174 /home/stoffer/esp8266/esp-open-sdk/xtensa-lx106-elf/bin/../lib/gcc/xtensa-lx106-elf/4.8.2/../../../../xtensa-lx106-elf/lib/libc.a(lib_a-memcpy.o)
 .xt.prop       0x000000000000b2d4       0xe4 /home/stoffer/esp8266/esp-open-sdk/xtensa-lx106-elf/bin/../lib/gcc/xtensa-lx106-elf/4.8.2/../../../../xtensa-lx106-elf/lib/libc.a(lib_a-memset.o)
 .xt.prop       0x000000000000b3b8      0x318 /home/stoffer/esp8266/esp-open-sdk/xtensa-lx106-elf/bin/../lib/gcc/xtensa-lx106-elf/4.8.2/../../../../xtensa-lx106-elf/lib/libc.a(lib_a-mktm_r.o)
                                        0x324 (size before relaxing)
 .xt.prop       0x000000000000b6d0       0x48 /home/stoffer/esp8266/esp-open-sdk/xtensa-lx106-elf/bin/../lib/gcc/xtensa-lx106-elf/4.8.2/../../../../xtensa-lx106-elf/lib/libc.a(lib_a-strcat.o)
 .xt.prop       0x000000000000b718       0xb4 /home/stoffer/esp8266/esp-open-sdk/xtensa-lx106-elf/bin/../lib/gcc/xtensa-lx106-elf/4.8.2/../../../../xtensa-lx106-elf/lib/libc.a(lib_a-strlen.o)
 .xt.prop       0x000000000000b7cc       0x24 /home/stoffer/esp8266/esp-open-sdk/xtensa-lx106-elf/bin/../lib/gcc/xtensa-lx106-elf/4.8.2/../../../../xtensa-lx106-elf/lib/libc.a(lib_a-strtok.o)
                                         0x30 (size before relaxing)
 .xt.prop       0x000000000000b7f0       0xfc /home/stoffer/esp8266/esp-open-sdk/xtensa-lx106-elf/bin/../lib/gcc/xtensa-lx106-elf/4.8.2/../../../../xtensa-lx106-elf/lib/libc.a(lib_a-strtok_r.o)
                                        0x108 (size before relaxing)
 .xt.prop       0x000000000000b8ec      0x15c /home/stoffer/esp8266/esp-open-sdk/xtensa-lx106-elf/bin/../lib/gcc/xtensa-lx106-elf/4.8.2/../../../../xtensa-lx106-elf/lib/libc.a(lib_a-strtol.o)
 .xt.prop       0x000000000000ba48       0x3c /home/stoffer/esp8266/esp-open-sdk/xtensa-lx106-elf/bin/../lib/gcc/xtensa-lx106-elf/4.8.2/../../../../xtensa-lx106-elf/lib/libc.a(lib_a-tzlock.o)
 .xt.prop       0x000000000000ba84        0xc /home/stoffer/esp8266/esp-open-sdk/xtensa-lx106-elf/bin/../lib/gcc/xtensa-lx106-elf/4.8.2/../../../../xtensa-lx106-elf/lib/libc.a(lib_a-tzvars.o)
 .xt.prop       0x000000000000ba90        0xc /home/stoffer/esp8266/esp-open-sdk/xtensa-lx106-elf/bin/../lib/gcc/xtensa-lx106-elf/4.8.2/../../../../xtensa-lx106-elf/lib/libc.a(lib_a-ctype_.o)
 .xt.prop       0x000000000000ba9c       0x3c /home/stoffer/esp8266/esp-open-sdk/xtensa-lx106-elf/bin/../lib/gcc/xtensa-lx106-elf/4.8.2/../../../../xtensa-lx106-elf/lib/libc.a(lib_a-gettzinfo.o)
 .xt.prop       0x000000000000bad8       0x9c /home/stoffer/esp8266/esp-open-sdk/xtensa-lx106-elf/bin/../lib/gcc/xtensa-lx106-elf/4.8.2/libgcc.a(_divsi3.o)
 .xt.prop       0x000000000000bb74       0x84 /home/stoffer/esp8266/esp-open-sdk/xtensa-lx106-elf/bin/../lib/gcc/xtensa-lx106-elf/4.8.2/libgcc.a(_modsi3.o)
 .xt.prop       0x000000000000bbf8      0x294 /home/stoffer/esp8266/esp-open-sdk/xtensa-lx106-elf/bin/../lib/gcc/xtensa-lx106-elf/4.8.2/libgcc.a(_muldf3.o)
 .xt.prop       0x000000000000be8c      0x258 /home/stoffer/esp8266/esp-open-sdk/xtensa-lx106-elf/bin/../lib/gcc/xtensa-lx106-elf/4.8.2/libgcc.a(_divdf3.o)
                                        0x264 (size before relaxing)
 .xt.prop       0x000000000000c0e4       0x54 /home/stoffer/esp8266/esp-open-sdk/xtensa-lx106-elf/bin/../lib/gcc/xtensa-lx106-elf/4.8.2/libgcc.a(_floatsidf.o)
 .xt.prop       0x000000000000c138      0x1d4 /home/stoffer/esp8266/esp-open-sdk/xtensa-lx106-elf/bin/../lib/gcc/xtensa-lx106-elf/4.8.2/libgcc.a(_udivdi3.o)
                                        0x1e0 (size before relaxing)
 .xt.prop       0x000000000000c30c      0x144 /home/stoffer/esp8266/esp-open-sdk/xtensa-lx106-elf/bin/../lib/gcc/xtensa-lx106-elf/4.8.2/libgcc.a(_umoddi3.o)
                                        0x150 (size before relaxing)
 .xt.prop       0x000000000000c450       0x24 /home/stoffer/esp8266/esp-open-sdk/xtensa-lx106-elf/bin/../xtensa-lx106-elf/sysroot/usr/lib/libhal.a(int_asm--set_intclear.o)
 .xt.prop       0x000000000000c474      0x1d4 /home/stoffer/esp8266/esp-open-sdk/sdk/lib/libphy.a(phy.o)
                                        0x1e0 (size before relaxing)
 .xt.prop       0x000000000000c648      0xcd8 /home/stoffer/esp8266/esp-open-sdk/sdk/lib/libphy.a(phy_chip_v6_ana.o)
                                        0xcf0 (size before relaxing)
 .xt.prop       0x000000000000d320     0x1fa4 /home/stoffer/esp8266/esp-open-sdk/sdk/lib/libphy.a(phy_chip_v6.o)
                                       0x216c (size before relaxing)
 .xt.prop       0x000000000000f2c4      0xfb4 /home/stoffer/esp8266/esp-open-sdk/sdk/lib/libphy.a(phy_chip_v6_cal.o)
                                       0x1014 (size before relaxing)
 .xt.prop       0x0000000000010278       0x60 /home/stoffer/esp8266/esp-open-sdk/sdk/lib/libphy.a(phy_chip_v6_unused.o)
                                         0x6c (size before relaxing)
 .xt.prop       0x00000000000102d8      0x87c /home/stoffer/esp8266/esp-open-sdk/sdk/lib/libphy.a(phy_sleep.o)
                                        0x8d0 (size before relaxing)
 .xt.prop       0x0000000000010b54      0x4ec /home/stoffer/esp8266/esp-open-sdk/sdk/lib/libpp.a(if_hwctrl.o)
                                        0x51c (size before relaxing)
 .xt.prop       0x0000000000011040     0x14f4 /home/stoffer/esp8266/esp-open-sdk/sdk/lib/libpp.a(lmac.o)
                                       0x1548 (size before relaxing)
 .xt.prop       0x0000000000012534     0x1338 /home/stoffer/esp8266/esp-open-sdk/sdk/lib/libpp.a(pm.o)
                                       0x1410 (size before relaxing)
 .xt.prop       0x000000000001386c      0x954 /home/stoffer/esp8266/esp-open-sdk/sdk/lib/libpp.a(pm_for_bcn_only_mode.o)
                                        0x978 (size before relaxing)
 .xt.prop       0x00000000000141c0     0x1950 /home/stoffer/esp8266/esp-open-sdk/sdk/lib/libpp.a(pp.o)
                                       0x1b00 (size before relaxing)
 .xt.prop       0x0000000000015b10      0x1bc /home/stoffer/esp8266/esp-open-sdk/sdk/lib/libpp.a(rate_control.o)
                                        0x1d4 (size before relaxing)
 .xt.prop       0x0000000000015ccc     0x1140 /home/stoffer/esp8266/esp-open-sdk/sdk/lib/libpp.a(trc.o)
                                       0x11a0 (size before relaxing)
 .xt.prop       0x0000000000016e0c     0x1284 /home/stoffer/esp8266/esp-open-sdk/sdk/lib/libpp.a(wdev.o)
                                       0x135c (size before relaxing)
 .xt.prop       0x0000000000018090      0x264 /home/stoffer/esp8266/esp-open-sdk/sdk/lib/libpp.a(esf_buf.o)
                                        0x2e8 (size before relaxing)
 .xt.prop       0x00000000000182f4      0x4a4 /home/stoffer/esp8266/esp-open-sdk/sdk/lib/libnet80211.a(ieee80211.o)
                                        0x4c8 (size before relaxing)
 .xt.prop       0x0000000000018798      0x15c /home/stoffer/esp8266/esp-open-sdk/sdk/lib/libnet80211.a(ieee80211_crypto.o)
 .xt.prop       0x00000000000188f4       0x48 /home/stoffer/esp8266/esp-open-sdk/sdk/lib/libnet80211.a(ieee80211_ets.o)
 .xt.prop       0x000000000001893c      0xe7c /home/stoffer/esp8266/esp-open-sdk/sdk/lib/libnet80211.a(ieee80211_hostap.o)
                                        0xf84 (size before relaxing)
 .xt.prop       0x00000000000197b8      0x684 /home/stoffer/esp8266/esp-open-sdk/sdk/lib/libnet80211.a(ieee80211_ht.o)
                                        0x690 (size before relaxing)
 .xt.prop       0x0000000000019e3c      0x8d0 /home/stoffer/esp8266/esp-open-sdk/sdk/lib/libnet80211.a(ieee80211_input.o)
                                        0x8dc (size before relaxing)
 .xt.prop       0x000000000001a70c      0x468 /home/stoffer/esp8266/esp-open-sdk/sdk/lib/libnet80211.a(ieee80211_mesh_quick.o)
 .xt.prop       0x000000000001ab74     0x1188 /home/stoffer/esp8266/esp-open-sdk/sdk/lib/libnet80211.a(ieee80211_output.o)
                                       0x11a0 (size before relaxing)
 .xt.prop       0x000000000001bcfc      0x108 /home/stoffer/esp8266/esp-open-sdk/sdk/lib/libnet80211.a(ieee80211_phy.o)
 .xt.prop       0x000000000001be04      0x1bc /home/stoffer/esp8266/esp-open-sdk/sdk/lib/libnet80211.a(ieee80211_power.o)
 .xt.prop       0x000000000001bfc0      0x114 /home/stoffer/esp8266/esp-open-sdk/sdk/lib/libnet80211.a(ieee80211_proto.o)
                                        0x120 (size before relaxing)
 .xt.prop       0x000000000001c0d4      0x12c /home/stoffer/esp8266/esp-open-sdk/sdk/lib/libnet80211.a(ieee80211_rfid.o)
 .xt.prop       0x000000000001c200      0xc60 /home/stoffer/esp8266/esp-open-sdk/sdk/lib/libnet80211.a(ieee80211_scan.o)
                                        0xcfc (size before relaxing)
 .xt.prop       0x000000000001ce60      0xa8c /home/stoffer/esp8266/esp-open-sdk/sdk/lib/libnet80211.a(ieee80211_sta.o)
                                        0xab0 (size before relaxing)
 .xt.prop       0x000000000001d8ec      0x2d0 /home/stoffer/esp8266/esp-open-sdk/sdk/lib/libnet80211.a(wl_chm.o)
                                        0x2dc (size before relaxing)
 .xt.prop       0x000000000001dbbc     0x11ac /home/stoffer/esp8266/esp-open-sdk/sdk/lib/libnet80211.a(wl_cnx.o)
                                       0x1200 (size before relaxing)
 .xt.prop       0x000000000001ed68      0x33c /home/stoffer/esp8266/esp-open-sdk/sdk/lib/libnet80211.a(ieee80211_action.o)
 .xt.prop       0x000000000001f0a4      0x354 /home/stoffer/esp8266/esp-open-sdk/sdk/lib/libnet80211.a(ieee80211_action_vendor.o)
                                        0x384 (size before relaxing)
 .xt.prop       0x000000000001f3f8       0xcc /home/stoffer/esp8266/esp-open-sdk/sdk/lib/libnet80211.a(ieee80211_crypto_ccmp.o)
                                         0xd8 (size before relaxing)
 .xt.prop       0x000000000001f4c4      0x114 /home/stoffer/esp8266/esp-open-sdk/sdk/lib/libnet80211.a(ieee80211_ie_vendor.o)
 .xt.prop       0x000000000001f5d8      0xd98 /home/stoffer/esp8266/esp-open-sdk/sdk/lib/liblwip.a(dhcp.o)
                                        0xdbc (size before relaxing)
 .xt.prop       0x0000000000020370      0x8f4 /home/stoffer/esp8266/esp-open-sdk/sdk/lib/liblwip.a(dhcpserver.o)
                                        0x96c (size before relaxing)
 .xt.prop       0x0000000000020c64      0x414 /home/stoffer/esp8266/esp-open-sdk/sdk/lib/liblwip.a(dns.o)
                                        0x480 (size before relaxing)
 .xt.prop       0x0000000000021078      0xf24 /home/stoffer/esp8266/esp-open-sdk/sdk/lib/liblwip.a(espconn.o)
                                        0xf84 (size before relaxing)
 .xt.prop       0x0000000000021f9c      0xd68 /home/stoffer/esp8266/esp-open-sdk/sdk/lib/liblwip.a(espconn_tcp.o)
                                        0xd74 (size before relaxing)
 .xt.prop       0x0000000000022d04      0x330 /home/stoffer/esp8266/esp-open-sdk/sdk/lib/liblwip.a(espconn_udp.o)
                                        0x33c (size before relaxing)
 .xt.prop       0x0000000000023034      0x708 /home/stoffer/esp8266/esp-open-sdk/sdk/lib/liblwip.a(etharp.o)
                                        0x750 (size before relaxing)
 .xt.prop       0x000000000002373c      0x618 /home/stoffer/esp8266/esp-open-sdk/sdk/lib/liblwip.a(igmp.o)
                                        0x648 (size before relaxing)
 .xt.prop       0x0000000000023d54      0x168 /home/stoffer/esp8266/esp-open-sdk/sdk/lib/liblwip.a(inet_chksum.o)
 .xt.prop       0x0000000000023ebc       0x24 /home/stoffer/esp8266/esp-open-sdk/sdk/lib/liblwip.a(init.o)
 .xt.prop       0x0000000000023ee0      0x324 /home/stoffer/esp8266/esp-open-sdk/sdk/lib/liblwip.a(ip_addr.o)
                                        0x330 (size before relaxing)
 .xt.prop       0x0000000000024204      0x438 /home/stoffer/esp8266/esp-open-sdk/sdk/lib/liblwip.a(ip.o)
                                        0x480 (size before relaxing)
 .xt.prop       0x000000000002463c        0x0 /home/stoffer/esp8266/esp-open-sdk/sdk/lib/liblwip.a(memp.o)
                                         0x18 (size before relaxing)
 .xt.prop       0x000000000002463c      0x330 /home/stoffer/esp8266/esp-open-sdk/sdk/lib/liblwip.a(netif.o)
                                        0x354 (size before relaxing)
 .xt.prop       0x000000000002496c      0x7a4 /home/stoffer/esp8266/esp-open-sdk/sdk/lib/liblwip.a(pbuf.o)
                                        0x7b0 (size before relaxing)
 .xt.prop       0x0000000000025110      0x294 /home/stoffer/esp8266/esp-open-sdk/sdk/lib/liblwip.a(raw.o)
                                        0x2ac (size before relaxing)
 .xt.prop       0x00000000000253a4      0x828 /home/stoffer/esp8266/esp-open-sdk/sdk/lib/liblwip.a(sntp.o)
                                        0x8dc (size before relaxing)
 .xt.prop       0x0000000000025bcc      0xc6c /home/stoffer/esp8266/esp-open-sdk/sdk/lib/liblwip.a(tcp_in.o)
                                        0xcfc (size before relaxing)
 .xt.prop       0x0000000000026838      0xcfc /home/stoffer/esp8266/esp-open-sdk/sdk/lib/liblwip.a(tcp.o)
                                        0xd68 (size before relaxing)
 .xt.prop       0x0000000000027534      0x96c /home/stoffer/esp8266/esp-open-sdk/sdk/lib/liblwip.a(tcp_out.o)
                                        0x978 (size before relaxing)
 .xt.prop       0x0000000000027ea0      0x354 /home/stoffer/esp8266/esp-open-sdk/sdk/lib/liblwip.a(timers.o)
                                        0x384 (size before relaxing)
 .xt.prop       0x00000000000281f4      0x5a0 /home/stoffer/esp8266/esp-open-sdk/sdk/lib/liblwip.a(udp.o)
                                        0x5b8 (size before relaxing)
 .xt.prop       0x0000000000028794      0x114 /home/stoffer/esp8266/esp-open-sdk/sdk/lib/liblwip.a(icmp.o)
 .xt.prop       0x00000000000288a8      0x2e8 /home/stoffer/esp8266/esp-open-sdk/sdk/lib/libwpa.a(ap_config.o)
                                        0x2f4 (size before relaxing)
 .xt.prop       0x0000000000028b90      0x21c /home/stoffer/esp8266/esp-open-sdk/sdk/lib/libwpa.a(common.o)
                                        0x228 (size before relaxing)
 .xt.prop       0x0000000000028dac       0xf0 /home/stoffer/esp8266/esp-open-sdk/sdk/lib/libwpa.a(os_xtensa.o)
                                         0xfc (size before relaxing)
 .xt.prop       0x0000000000028e9c     0x1668 /home/stoffer/esp8266/esp-open-sdk/sdk/lib/libwpa.a(wpa_auth.o)
 .xt.prop       0x000000000002a504      0x480 /home/stoffer/esp8266/esp-open-sdk/sdk/lib/libwpa.a(wpa_auth_ie.o)
                                        0x48c (size before relaxing)
 .xt.prop       0x000000000002a984      0xd8c /home/stoffer/esp8266/esp-open-sdk/sdk/lib/libwpa.a(wpa.o)
                                        0xdb0 (size before relaxing)
 .xt.prop       0x000000000002b710      0x7a4 /home/stoffer/esp8266/esp-open-sdk/sdk/lib/libwpa.a(wpa_common.o)
 .xt.prop       0x000000000002beb4       0xc0 /home/stoffer/esp8266/esp-open-sdk/sdk/lib/libwpa.a(wpa_debug.o)
 .xt.prop       0x000000000002bf74      0x378 /home/stoffer/esp8266/esp-open-sdk/sdk/lib/libwpa.a(wpa_ie.o)
 .xt.prop       0x000000000002c2ec      0x330 /home/stoffer/esp8266/esp-open-sdk/sdk/lib/libwpa.a(wpa_main.o)
                                        0x33c (size before relaxing)
 .xt.prop       0x000000000002c61c      0x12c /home/stoffer/esp8266/esp-open-sdk/sdk/lib/libwpa.a(wpas_glue.o)
 .xt.prop       0x000000000002c748       0x6c /home/stoffer/esp8266/esp-open-sdk/sdk/lib/libwpa.a(aes-wrap.o)
 .xt.prop       0x000000000002c7b4       0xd8 /home/stoffer/esp8266/esp-open-sdk/sdk/lib/libwpa.a(aes-internal-enc.o)
                                         0xe4 (size before relaxing)
 .xt.prop       0x000000000002c88c       0xb4 /home/stoffer/esp8266/esp-open-sdk/sdk/lib/libwpa.a(aes-internal.o)
 .xt.prop       0x000000000002c940       0x3c /home/stoffer/esp8266/esp-open-sdk/xtensa-lx106-elf/bin/../lib/gcc/xtensa-lx106-elf/4.8.2/libgcc.a(_ashrdi3.o)
 .xt.prop       0x000000000002c97c      0x2e8 /home/stoffer/esp8266/esp-open-sdk/xtensa-lx106-elf/bin/../lib/gcc/xtensa-lx106-elf/4.8.2/libgcc.a(_addsubsf3.o)
 .xt.prop       0x000000000002cc64      0x15c /home/stoffer/esp8266/esp-open-sdk/xtensa-lx106-elf/bin/../lib/gcc/xtensa-lx106-elf/4.8.2/libgcc.a(_mulsf3.o)
                                        0x168 (size before relaxing)
 .xt.prop       0x000000000002cdc0      0x15c /home/stoffer/esp8266/esp-open-sdk/xtensa-lx106-elf/bin/../lib/gcc/xtensa-lx106-elf/4.8.2/libgcc.a(_divsf3.o)
                                        0x168 (size before relaxing)
 .xt.prop       0x000000000002cf1c       0x60 /home/stoffer/esp8266/esp-open-sdk/xtensa-lx106-elf/bin/../lib/gcc/xtensa-lx106-elf/4.8.2/libgcc.a(_fixsfsi.o)
                                         0x6c (size before relaxing)
 .xt.prop       0x000000000002cf7c       0x9c /home/stoffer/esp8266/esp-open-sdk/xtensa-lx106-elf/bin/../lib/gcc/xtensa-lx106-elf/4.8.2/libgcc.a(_fixunssfsi.o)
                                         0xa8 (size before relaxing)
 .xt.prop       0x000000000002d018       0x60 /home/stoffer/esp8266/esp-open-sdk/xtensa-lx106-elf/bin/../lib/gcc/xtensa-lx106-elf/4.8.2/libgcc.a(_floatsisf.o)
 .xt.prop       0x000000000002d078       0x60 /home/stoffer/esp8266/esp-open-sdk/xtensa-lx106-elf/bin/../lib/gcc/xtensa-lx106-elf/4.8.2/libgcc.a(_fixdfsi.o)
                                         0x6c (size before relaxing)
 .xt.prop       0x000000000002d0d8       0xb4 /home/stoffer/esp8266/esp-open-sdk/xtensa-lx106-elf/bin/../lib/gcc/xtensa-lx106-elf/4.8.2/libgcc.a(_truncdfsf2.o)
 .xt.prop       0x000000000002d18c      0x1f8 /home/stoffer/esp8266/esp-open-sdk/xtensa-lx106-elf/bin/../lib/gcc/xtensa-lx106-elf/4.8.2/libgcc.a(_divdi3.o)
                                        0x204 (size before relaxing)
 .xt.prop       0x000000000002d384       0xe4 /home/stoffer/esp8266/esp-open-sdk/sdk/lib/libnet80211.a(ieee80211_crypto_tkip.o)
                                         0xfc (size before relaxing)
 .xt.prop       0x000000000002d468       0x6c /home/stoffer/esp8266/esp-open-sdk/sdk/lib/libnet80211.a(ieee80211_crypto_wep.o)
                                         0x78 (size before relaxing)

.xt.lit         0x0000000000000000     0x15b0
 .xt.lit        0x0000000000000000        0x8 /home/stoffer/esp8266/esp-open-sdk/sdk/lib/libmain.a(nmi-vector.o)
                                         0x10 (size before relaxing)
 .xt.lit        0x0000000000000008        0x8 /home/stoffer/esp8266/esp-open-sdk/sdk/lib/libmain.a(user-vector.o)
                                         0x10 (size before relaxing)
 .xt.lit        0x0000000000000010        0x8 /home/stoffer/esp8266/esp-open-sdk/sdk/lib/libmain.a(vector.o)
 .xt.lit        0x0000000000000018       0x98 /home/stoffer/esp8266/esp-open-sdk/sdk/lib/libmain.a(app_main.o)
                                         0xa0 (size before relaxing)
 .xt.lit        0x00000000000000b0       0x48 /home/stoffer/esp8266/esp-open-sdk/sdk/lib/libmain.a(ets_timer.o)
 .xt.lit        0x00000000000000f8       0x40 /home/stoffer/esp8266/esp-open-sdk/sdk/lib/libmain.a(mem_manager.o)
                                         0x60 (size before relaxing)
 .xt.lit        0x0000000000000138       0x48 /home/stoffer/esp8266/esp-open-sdk/sdk/lib/libmain.a(spi_flash.o)
 .xt.lit        0x0000000000000180      0x1d0 /home/stoffer/esp8266/esp-open-sdk/sdk/lib/libmain.a(user_interface.o)
                                        0x490 (size before relaxing)
 .xt.lit        0x0000000000000350       0x18 /home/stoffer/esp8266/esp-open-sdk/sdk/lib/libmain.a(eagle_lib.o)
 .xt.lit        0x0000000000000368        0x8 /home/stoffer/esp8266/esp-open-sdk/sdk/lib/libmain.a(eagle_lwip_if.o)
                                         0x28 (size before relaxing)
 .xt.lit        0x0000000000000370        0x0 /home/stoffer/esp8266/esp-open-sdk/xtensa-lx106-elf/bin/../lib/gcc/xtensa-lx106-elf/4.8.2/libgcc.a(_muldi3.o)
                                          0x8 (size before relaxing)
 .xt.lit        0x0000000000000370       0x38 build/app_app.a(user_main.o)
                                         0x50 (size before relaxing)
 .xt.lit        0x00000000000003a8       0x10 build/app_app.a(captdns.o)
 .xt.lit        0x00000000000003b8       0x18 build/app_app.a(led.o)
                                         0x38 (size before relaxing)
 .xt.lit        0x00000000000003d0       0x68 build/app_app.a(httpd.o)
                                         0x88 (size before relaxing)
 .xt.lit        0x0000000000000438       0x10 build/app_app.a(httpd_user_init.o)
 .xt.lit        0x0000000000000448        0x8 build/app_app.a(crypto.o)
                                         0x18 (size before relaxing)
 .xt.lit        0x0000000000000450        0x0 build/app_app.a(hmac-sha256.o)
                                         0x20 (size before relaxing)
 .xt.lit        0x0000000000000450       0x18 build/app_app.a(sha256.o)
                                         0x28 (size before relaxing)
 .xt.lit        0x0000000000000468       0x20 build/app_app.a(aes.o)
                                         0x40 (size before relaxing)
 .xt.lit        0x0000000000000488       0x30 build/app_app.a(kmp_request.o)
                                         0x60 (size before relaxing)
 .xt.lit        0x00000000000004b8       0x30 build/app_app.a(kmp.o)
                                         0x50 (size before relaxing)
 .xt.lit        0x00000000000004e8       0x20 build/app_app.a(cron.o)
 .xt.lit        0x0000000000000508       0x50 build/app_app.a(ac_out.o)
                                         0x58 (size before relaxing)
 .xt.lit        0x0000000000000558       0x30 build/app_app.a(uart.o)
                                         0x48 (size before relaxing)
 .xt.lit        0x0000000000000588       0x30 build/app_app.a(mqtt.o)
                                         0xa0 (size before relaxing)
 .xt.lit        0x00000000000005b8       0x18 build/app_app.a(mqtt_msg.o)
                                         0x30 (size before relaxing)
 .xt.lit        0x00000000000005d0        0x8 build/app_app.a(queue.o)
                                         0x18 (size before relaxing)
 .xt.lit        0x00000000000005d8        0x0 build/app_app.a(proto.o)
                                         0x10 (size before relaxing)
 .xt.lit        0x00000000000005d8       0x18 build/app_app.a(config.o)
                                         0x20 (size before relaxing)
 .xt.lit        0x00000000000005f0       0x30 build/app_app.a(wifi.o)
 .xt.lit        0x0000000000000620       0x20 build/app_app.a(tinyprintf.o)
                                         0x38 (size before relaxing)
 .xt.lit        0x0000000000000640       0x18 build/app_app.a(unix_time.o)
                                         0x28 (size before relaxing)
 .xt.lit        0x0000000000000658       0x20 build/app_app.a(cgi.o)
 .xt.lit        0x0000000000000678       0x10 build/app_app.a(httpdespfs.o)
 .xt.lit        0x0000000000000688       0x30 build/app_app.a(cgiwifi.o)
 .xt.lit        0x00000000000006b8       0x18 build/app_app.a(espfs.o)
 .xt.lit        0x00000000000006d0       0x10 build/app_app.a(heatshrink_decoder.o)
                                         0x28 (size before relaxing)
 .xt.lit        0x00000000000006e0       0x18 build/app_app.a(utils.o)
                                         0x20 (size before relaxing)
 .xt.lit        0x00000000000006f8        0x0 /home/stoffer/esp8266/esp-open-sdk/xtensa-lx106-elf/bin/../lib/gcc/xtensa-lx106-elf/4.8.2/../../../../xtensa-lx106-elf/lib/libc.a(lib_a-atoi.o)
                                          0x8 (size before relaxing)
 .xt.lit        0x00000000000006f8        0x8 /home/stoffer/esp8266/esp-open-sdk/xtensa-lx106-elf/bin/../lib/gcc/xtensa-lx106-elf/4.8.2/../../../../xtensa-lx106-elf/lib/libc.a(lib_a-gmtime.o)
 .xt.lit        0x0000000000000700        0x0 /home/stoffer/esp8266/esp-open-sdk/xtensa-lx106-elf/bin/../lib/gcc/xtensa-lx106-elf/4.8.2/../../../../xtensa-lx106-elf/lib/libc.a(lib_a-gmtime_r.o)
                                          0x8 (size before relaxing)
 .xt.lit        0x0000000000000700        0x8 /home/stoffer/esp8266/esp-open-sdk/xtensa-lx106-elf/bin/../lib/gcc/xtensa-lx106-elf/4.8.2/../../../../xtensa-lx106-elf/lib/libc.a(lib_a-mktm_r.o)
 .xt.lit        0x0000000000000708        0x8 /home/stoffer/esp8266/esp-open-sdk/xtensa-lx106-elf/bin/../lib/gcc/xtensa-lx106-elf/4.8.2/../../../../xtensa-lx106-elf/lib/libc.a(lib_a-strlen.o)
 .xt.lit        0x0000000000000710        0x0 /home/stoffer/esp8266/esp-open-sdk/xtensa-lx106-elf/bin/../lib/gcc/xtensa-lx106-elf/4.8.2/../../../../xtensa-lx106-elf/lib/libc.a(lib_a-strtok.o)
                                          0x8 (size before relaxing)
 .xt.lit        0x0000000000000710        0x8 /home/stoffer/esp8266/esp-open-sdk/xtensa-lx106-elf/bin/../lib/gcc/xtensa-lx106-elf/4.8.2/../../../../xtensa-lx106-elf/lib/libc.a(lib_a-strtol.o)
 .xt.lit        0x0000000000000718        0x8 /home/stoffer/esp8266/esp-open-sdk/xtensa-lx106-elf/bin/../lib/gcc/xtensa-lx106-elf/4.8.2/../../../../xtensa-lx106-elf/lib/libc.a(lib_a-gettzinfo.o)
 .xt.lit        0x0000000000000720        0x8 /home/stoffer/esp8266/esp-open-sdk/xtensa-lx106-elf/bin/../lib/gcc/xtensa-lx106-elf/4.8.2/libgcc.a(_muldf3.o)
 .xt.lit        0x0000000000000728        0x0 /home/stoffer/esp8266/esp-open-sdk/xtensa-lx106-elf/bin/../lib/gcc/xtensa-lx106-elf/4.8.2/libgcc.a(_divdf3.o)
                                          0x8 (size before relaxing)
 .xt.lit        0x0000000000000728        0x0 /home/stoffer/esp8266/esp-open-sdk/xtensa-lx106-elf/bin/../lib/gcc/xtensa-lx106-elf/4.8.2/libgcc.a(_udivdi3.o)
                                          0x8 (size before relaxing)
 .xt.lit        0x0000000000000728        0x0 /home/stoffer/esp8266/esp-open-sdk/xtensa-lx106-elf/bin/../lib/gcc/xtensa-lx106-elf/4.8.2/libgcc.a(_umoddi3.o)
                                          0x8 (size before relaxing)
 .xt.lit        0x0000000000000728       0x10 /home/stoffer/esp8266/esp-open-sdk/sdk/lib/libphy.a(phy.o)
                                         0x68 (size before relaxing)
 .xt.lit        0x0000000000000738       0x88 /home/stoffer/esp8266/esp-open-sdk/sdk/lib/libphy.a(phy_chip_v6_ana.o)
                                         0xc0 (size before relaxing)
 .xt.lit        0x00000000000007c0      0x150 /home/stoffer/esp8266/esp-open-sdk/sdk/lib/libphy.a(phy_chip_v6.o)
                                        0x220 (size before relaxing)
 .xt.lit        0x0000000000000910       0x78 /home/stoffer/esp8266/esp-open-sdk/sdk/lib/libphy.a(phy_chip_v6_cal.o)
                                         0xe8 (size before relaxing)
 .xt.lit        0x0000000000000988       0x78 /home/stoffer/esp8266/esp-open-sdk/sdk/lib/libphy.a(phy_sleep.o)
                                         0xd8 (size before relaxing)
 .xt.lit        0x0000000000000a00       0x30 /home/stoffer/esp8266/esp-open-sdk/sdk/lib/libpp.a(if_hwctrl.o)
                                         0xa0 (size before relaxing)
 .xt.lit        0x0000000000000a30       0x70 /home/stoffer/esp8266/esp-open-sdk/sdk/lib/libpp.a(lmac.o)
                                        0x130 (size before relaxing)
 .xt.lit        0x0000000000000aa0       0xd8 /home/stoffer/esp8266/esp-open-sdk/sdk/lib/libpp.a(pm.o)
                                        0x190 (size before relaxing)
 .xt.lit        0x0000000000000b78       0x60 /home/stoffer/esp8266/esp-open-sdk/sdk/lib/libpp.a(pm_for_bcn_only_mode.o)
                                         0x98 (size before relaxing)
 .xt.lit        0x0000000000000bd8       0xd8 /home/stoffer/esp8266/esp-open-sdk/sdk/lib/libpp.a(pp.o)
                                        0x1b0 (size before relaxing)
 .xt.lit        0x0000000000000cb0       0x18 /home/stoffer/esp8266/esp-open-sdk/sdk/lib/libpp.a(rate_control.o)
                                         0x38 (size before relaxing)
 .xt.lit        0x0000000000000cc8       0x68 /home/stoffer/esp8266/esp-open-sdk/sdk/lib/libpp.a(trc.o)
                                         0xa8 (size before relaxing)
 .xt.lit        0x0000000000000d30       0xd8 /home/stoffer/esp8266/esp-open-sdk/sdk/lib/libpp.a(wdev.o)
                                        0x198 (size before relaxing)
 .xt.lit        0x0000000000000e08       0x18 /home/stoffer/esp8266/esp-open-sdk/sdk/lib/libpp.a(esf_buf.o)
                                         0x20 (size before relaxing)
 .xt.lit        0x0000000000000e20       0x28 /home/stoffer/esp8266/esp-open-sdk/sdk/lib/libnet80211.a(ieee80211.o)
                                         0x50 (size before relaxing)
 .xt.lit        0x0000000000000e48        0x0 /home/stoffer/esp8266/esp-open-sdk/sdk/lib/libnet80211.a(ieee80211_crypto.o)
                                         0x10 (size before relaxing)
 .xt.lit        0x0000000000000e48        0x8 /home/stoffer/esp8266/esp-open-sdk/sdk/lib/libnet80211.a(ieee80211_ets.o)
 .xt.lit        0x0000000000000e50       0x68 /home/stoffer/esp8266/esp-open-sdk/sdk/lib/libnet80211.a(ieee80211_hostap.o)
                                         0x78 (size before relaxing)
 .xt.lit        0x0000000000000eb8       0x48 /home/stoffer/esp8266/esp-open-sdk/sdk/lib/libnet80211.a(ieee80211_ht.o)
                                         0x70 (size before relaxing)
 .xt.lit        0x0000000000000f00       0x38 /home/stoffer/esp8266/esp-open-sdk/sdk/lib/libnet80211.a(ieee80211_input.o)
                                         0x60 (size before relaxing)
 .xt.lit        0x0000000000000f38       0x18 /home/stoffer/esp8266/esp-open-sdk/sdk/lib/libnet80211.a(ieee80211_mesh_quick.o)
                                         0x28 (size before relaxing)
 .xt.lit        0x0000000000000f50       0x30 /home/stoffer/esp8266/esp-open-sdk/sdk/lib/libnet80211.a(ieee80211_output.o)
                                         0xa8 (size before relaxing)
 .xt.lit        0x0000000000000f80        0x8 /home/stoffer/esp8266/esp-open-sdk/sdk/lib/libnet80211.a(ieee80211_phy.o)
                                         0x18 (size before relaxing)
 .xt.lit        0x0000000000000f88        0x8 /home/stoffer/esp8266/esp-open-sdk/sdk/lib/libnet80211.a(ieee80211_power.o)
                                         0x20 (size before relaxing)
 .xt.lit        0x0000000000000f90       0x18 /home/stoffer/esp8266/esp-open-sdk/sdk/lib/libnet80211.a(ieee80211_proto.o)
 .xt.lit        0x0000000000000fa8        0x0 /home/stoffer/esp8266/esp-open-sdk/sdk/lib/libnet80211.a(ieee80211_rfid.o)
                                         0x30 (size before relaxing)
 .xt.lit        0x0000000000000fa8       0x48 /home/stoffer/esp8266/esp-open-sdk/sdk/lib/libnet80211.a(ieee80211_scan.o)
                                         0xd8 (size before relaxing)
 .xt.lit        0x0000000000000ff0       0x30 /home/stoffer/esp8266/esp-open-sdk/sdk/lib/libnet80211.a(ieee80211_sta.o)
                                         0x60 (size before relaxing)
 .xt.lit        0x0000000000001020       0x20 /home/stoffer/esp8266/esp-open-sdk/sdk/lib/libnet80211.a(wl_chm.o)
                                         0x60 (size before relaxing)
 .xt.lit        0x0000000000001040       0x90 /home/stoffer/esp8266/esp-open-sdk/sdk/lib/libnet80211.a(wl_cnx.o)
                                        0x138 (size before relaxing)
 .xt.lit        0x00000000000010d0       0x20 /home/stoffer/esp8266/esp-open-sdk/sdk/lib/libnet80211.a(ieee80211_action.o)
                                         0x30 (size before relaxing)
 .xt.lit        0x00000000000010f0       0x20 /home/stoffer/esp8266/esp-open-sdk/sdk/lib/libnet80211.a(ieee80211_action_vendor.o)
                                         0x50 (size before relaxing)
 .xt.lit        0x0000000000001110        0x0 /home/stoffer/esp8266/esp-open-sdk/sdk/lib/libnet80211.a(ieee80211_crypto_ccmp.o)
                                         0x10 (size before relaxing)
 .xt.lit        0x0000000000001110        0x8 /home/stoffer/esp8266/esp-open-sdk/sdk/lib/libnet80211.a(ieee80211_ie_vendor.o)
                                         0x38 (size before relaxing)
 .xt.lit        0x0000000000001118       0x50 /home/stoffer/esp8266/esp-open-sdk/sdk/lib/liblwip.a(dhcp.o)
                                         0xc0 (size before relaxing)
 .xt.lit        0x0000000000001168       0x28 /home/stoffer/esp8266/esp-open-sdk/sdk/lib/liblwip.a(dhcpserver.o)
                                         0x98 (size before relaxing)
 .xt.lit        0x0000000000001190       0x20 /home/stoffer/esp8266/esp-open-sdk/sdk/lib/liblwip.a(dns.o)
                                         0x48 (size before relaxing)
 .xt.lit        0x00000000000011b0       0x28 /home/stoffer/esp8266/esp-open-sdk/sdk/lib/liblwip.a(espconn.o)
                                         0xe8 (size before relaxing)
 .xt.lit        0x00000000000011d8       0x68 /home/stoffer/esp8266/esp-open-sdk/sdk/lib/liblwip.a(espconn_tcp.o)
                                         0xc0 (size before relaxing)
 .xt.lit        0x0000000000001240       0x18 /home/stoffer/esp8266/esp-open-sdk/sdk/lib/liblwip.a(espconn_udp.o)
                                         0x38 (size before relaxing)
 .xt.lit        0x0000000000001258       0x30 /home/stoffer/esp8266/esp-open-sdk/sdk/lib/liblwip.a(etharp.o)
                                         0x78 (size before relaxing)
 .xt.lit        0x0000000000001288       0x18 /home/stoffer/esp8266/esp-open-sdk/sdk/lib/liblwip.a(igmp.o)
                                         0x70 (size before relaxing)
 .xt.lit        0x00000000000012a0        0x8 /home/stoffer/esp8266/esp-open-sdk/sdk/lib/liblwip.a(init.o)
 .xt.lit        0x00000000000012a8        0x8 /home/stoffer/esp8266/esp-open-sdk/sdk/lib/liblwip.a(ip_addr.o)
                                         0x20 (size before relaxing)
 .xt.lit        0x00000000000012b0       0x10 /home/stoffer/esp8266/esp-open-sdk/sdk/lib/liblwip.a(ip.o)
                                         0x20 (size before relaxing)
 .xt.lit        0x00000000000012c0       0x10 /home/stoffer/esp8266/esp-open-sdk/sdk/lib/liblwip.a(netif.o)
                                         0x40 (size before relaxing)
 .xt.lit        0x00000000000012d0       0x10 /home/stoffer/esp8266/esp-open-sdk/sdk/lib/liblwip.a(pbuf.o)
                                         0x48 (size before relaxing)
 .xt.lit        0x00000000000012e0       0x10 /home/stoffer/esp8266/esp-open-sdk/sdk/lib/liblwip.a(raw.o)
                                         0x20 (size before relaxing)
 .xt.lit        0x00000000000012f0       0x70 /home/stoffer/esp8266/esp-open-sdk/sdk/lib/liblwip.a(sntp.o)
                                         0xc0 (size before relaxing)
 .xt.lit        0x0000000000001360       0x18 /home/stoffer/esp8266/esp-open-sdk/sdk/lib/liblwip.a(tcp_in.o)
                                         0x38 (size before relaxing)
 .xt.lit        0x0000000000001378       0x50 /home/stoffer/esp8266/esp-open-sdk/sdk/lib/liblwip.a(tcp.o)
                                         0xb8 (size before relaxing)
 .xt.lit        0x00000000000013c8       0x28 /home/stoffer/esp8266/esp-open-sdk/sdk/lib/liblwip.a(tcp_out.o)
                                         0x68 (size before relaxing)
 .xt.lit        0x00000000000013f0       0x48 /home/stoffer/esp8266/esp-open-sdk/sdk/lib/liblwip.a(timers.o)
                                         0x68 (size before relaxing)
 .xt.lit        0x0000000000001438       0x18 /home/stoffer/esp8266/esp-open-sdk/sdk/lib/liblwip.a(udp.o)
                                         0x38 (size before relaxing)
 .xt.lit        0x0000000000001450        0x8 /home/stoffer/esp8266/esp-open-sdk/sdk/lib/liblwip.a(icmp.o)
                                         0x10 (size before relaxing)
 .xt.lit        0x0000000000001458       0x10 /home/stoffer/esp8266/esp-open-sdk/sdk/lib/libwpa.a(ap_config.o)
                                         0x40 (size before relaxing)
 .xt.lit        0x0000000000001468       0x10 /home/stoffer/esp8266/esp-open-sdk/sdk/lib/libwpa.a(common.o)
                                         0x18 (size before relaxing)
 .xt.lit        0x0000000000001478        0x8 /home/stoffer/esp8266/esp-open-sdk/sdk/lib/libwpa.a(os_xtensa.o)
                                         0x10 (size before relaxing)
 .xt.lit        0x0000000000001480       0x70 /home/stoffer/esp8266/esp-open-sdk/sdk/lib/libwpa.a(wpa_auth.o)
                                        0x100 (size before relaxing)
 .xt.lit        0x00000000000014f0       0x10 /home/stoffer/esp8266/esp-open-sdk/sdk/lib/libwpa.a(wpa_auth_ie.o)
                                         0x38 (size before relaxing)
 .xt.lit        0x0000000000001500       0x38 /home/stoffer/esp8266/esp-open-sdk/sdk/lib/libwpa.a(wpa.o)
                                        0x110 (size before relaxing)
 .xt.lit        0x0000000000001538       0x28 /home/stoffer/esp8266/esp-open-sdk/sdk/lib/libwpa.a(wpa_common.o)
                                         0x58 (size before relaxing)
 .xt.lit        0x0000000000001560        0x8 /home/stoffer/esp8266/esp-open-sdk/sdk/lib/libwpa.a(wpa_debug.o)
 .xt.lit        0x0000000000001568        0x0 /home/stoffer/esp8266/esp-open-sdk/sdk/lib/libwpa.a(wpa_ie.o)
                                         0x18 (size before relaxing)
 .xt.lit        0x0000000000001568       0x18 /home/stoffer/esp8266/esp-open-sdk/sdk/lib/libwpa.a(wpa_main.o)
                                         0x48 (size before relaxing)
 .xt.lit        0x0000000000001580        0x0 /home/stoffer/esp8266/esp-open-sdk/sdk/lib/libwpa.a(wpas_glue.o)
                                         0x10 (size before relaxing)
 .xt.lit        0x0000000000001580        0x0 /home/stoffer/esp8266/esp-open-sdk/sdk/lib/libwpa.a(aes-wrap.o)
                                          0x8 (size before relaxing)
 .xt.lit        0x0000000000001580       0x10 /home/stoffer/esp8266/esp-open-sdk/sdk/lib/libwpa.a(aes-internal-enc.o)
                                         0x18 (size before relaxing)
 .xt.lit        0x0000000000001590        0x8 /home/stoffer/esp8266/esp-open-sdk/sdk/lib/libwpa.a(aes-internal.o)
 .xt.lit        0x0000000000001598        0x8 /home/stoffer/esp8266/esp-open-sdk/xtensa-lx106-elf/bin/../lib/gcc/xtensa-lx106-elf/4.8.2/libgcc.a(_addsubsf3.o)
 .xt.lit        0x00000000000015a0        0x0 /home/stoffer/esp8266/esp-open-sdk/xtensa-lx106-elf/bin/../lib/gcc/xtensa-lx106-elf/4.8.2/libgcc.a(_mulsf3.o)
                                          0x8 (size before relaxing)
 .xt.lit        0x00000000000015a0        0x0 /home/stoffer/esp8266/esp-open-sdk/xtensa-lx106-elf/bin/../lib/gcc/xtensa-lx106-elf/4.8.2/libgcc.a(_divsf3.o)
                                          0x8 (size before relaxing)
 .xt.lit        0x00000000000015a0        0x0 /home/stoffer/esp8266/esp-open-sdk/xtensa-lx106-elf/bin/../lib/gcc/xtensa-lx106-elf/4.8.2/libgcc.a(_fixsfsi.o)
                                          0x8 (size before relaxing)
 .xt.lit        0x00000000000015a0        0x0 /home/stoffer/esp8266/esp-open-sdk/xtensa-lx106-elf/bin/../lib/gcc/xtensa-lx106-elf/4.8.2/libgcc.a(_fixunssfsi.o)
                                          0x8 (size before relaxing)
 .xt.lit        0x00000000000015a0        0x0 /home/stoffer/esp8266/esp-open-sdk/xtensa-lx106-elf/bin/../lib/gcc/xtensa-lx106-elf/4.8.2/libgcc.a(_fixdfsi.o)
                                          0x8 (size before relaxing)
 .xt.lit        0x00000000000015a0        0x8 /home/stoffer/esp8266/esp-open-sdk/xtensa-lx106-elf/bin/../lib/gcc/xtensa-lx106-elf/4.8.2/libgcc.a(_truncdfsf2.o)
 .xt.lit        0x00000000000015a8        0x0 /home/stoffer/esp8266/esp-open-sdk/xtensa-lx106-elf/bin/../lib/gcc/xtensa-lx106-elf/4.8.2/libgcc.a(_divdi3.o)
                                          0x8 (size before relaxing)
 .xt.lit        0x00000000000015a8        0x8 /home/stoffer/esp8266/esp-open-sdk/sdk/lib/libnet80211.a(ieee80211_crypto_tkip.o)
                                         0x10 (size before relaxing)
 .xt.lit        0x00000000000015b0        0x0 /home/stoffer/esp8266/esp-open-sdk/sdk/lib/libnet80211.a(ieee80211_crypto_wep.o)
                                          0x8 (size before relaxing)

.comment        0x0000000000000000     0x1b3d
 .comment       0x0000000000000000       0x55 /home/stoffer/esp8266/esp-open-sdk/sdk/lib/libmain.a(app_main.o)
                                         0x56 (size before relaxing)
 .comment       0x0000000000000055       0x56 /home/stoffer/esp8266/esp-open-sdk/sdk/lib/libmain.a(ets_timer.o)
                                         0x57 (size before relaxing)
 .comment       0x00000000000000ab       0x58 /home/stoffer/esp8266/esp-open-sdk/sdk/lib/libmain.a(mem_manager.o)
                                         0x59 (size before relaxing)
 .comment       0x0000000000000103       0x56 /home/stoffer/esp8266/esp-open-sdk/sdk/lib/libmain.a(spi_flash.o)
                                         0x57 (size before relaxing)
 .comment       0x0000000000000159       0x5b /home/stoffer/esp8266/esp-open-sdk/sdk/lib/libmain.a(user_interface.o)
                                         0x5c (size before relaxing)
 .comment       0x00000000000001b4       0x56 /home/stoffer/esp8266/esp-open-sdk/sdk/lib/libmain.a(eagle_lib.o)
                                         0x57 (size before relaxing)
 .comment       0x000000000000020a       0x5a /home/stoffer/esp8266/esp-open-sdk/sdk/lib/libmain.a(eagle_lwip_if.o)
                                         0x5b (size before relaxing)
 .comment       0x0000000000000264       0x21 /home/stoffer/esp8266/esp-open-sdk/xtensa-lx106-elf/bin/../lib/gcc/xtensa-lx106-elf/4.8.2/libgcc.a(_muldi3.o)
                                         0x22 (size before relaxing)
 .comment       0x0000000000000000       0x22 build/app_app.a(user_main.o)
 .comment       0x0000000000000000       0x22 build/app_app.a(captdns.o)
 .comment       0x0000000000000000       0x22 build/app_app.a(led.o)
 .comment       0x0000000000000000       0x22 build/app_app.a(httpd.o)
 .comment       0x0000000000000000       0x22 build/app_app.a(httpd_user_init.o)
 .comment       0x0000000000000000       0x22 build/app_app.a(crypto.o)
 .comment       0x0000000000000000       0x22 build/app_app.a(hmac-sha256.o)
 .comment       0x0000000000000000       0x22 build/app_app.a(sha256.o)
 .comment       0x0000000000000000       0x22 build/app_app.a(aes.o)
 .comment       0x0000000000000000       0x22 build/app_app.a(kmp_request.o)
 .comment       0x0000000000000000       0x22 build/app_app.a(kmp.o)
 .comment       0x0000000000000000       0x22 build/app_app.a(cron.o)
 .comment       0x0000000000000000       0x22 build/app_app.a(ac_out.o)
 .comment       0x0000000000000000       0x22 build/app_app.a(uart.o)
 .comment       0x0000000000000000       0x22 build/app_app.a(mqtt.o)
 .comment       0x0000000000000000       0x22 build/app_app.a(mqtt_msg.o)
 .comment       0x0000000000000000       0x22 build/app_app.a(queue.o)
 .comment       0x0000000000000000       0x22 build/app_app.a(mqtt_utils.o)
 .comment       0x0000000000000000       0x22 build/app_app.a(proto.o)
 .comment       0x0000000000000000       0x22 build/app_app.a(config.o)
 .comment       0x0000000000000000       0x22 build/app_app.a(wifi.o)
 .comment       0x0000000000000000       0x22 build/app_app.a(tinyprintf.o)
 .comment       0x0000000000000000       0x22 build/app_app.a(unix_time.o)
 .comment       0x0000000000000000       0x22 build/app_app.a(cgi.o)
 .comment       0x0000000000000000       0x22 build/app_app.a(httpdespfs.o)
 .comment       0x0000000000000000       0x22 build/app_app.a(cgiwifi.o)
 .comment       0x0000000000000000       0x22 build/app_app.a(espfs.o)
 .comment       0x0000000000000000       0x22 build/app_app.a(heatshrink_decoder.o)
 .comment       0x0000000000000000       0x22 build/app_app.a(utils.o)
 .comment       0x0000000000000000       0x22 build/app_app.a(ringbuf.o)
 .comment       0x0000000000000000       0x22 /home/stoffer/esp8266/esp-open-sdk/xtensa-lx106-elf/bin/../lib/gcc/xtensa-lx106-elf/4.8.2/../../../../xtensa-lx106-elf/lib/libc.a(lib_a-atoi.o)
 .comment       0x0000000000000000       0x22 /home/stoffer/esp8266/esp-open-sdk/xtensa-lx106-elf/bin/../lib/gcc/xtensa-lx106-elf/4.8.2/../../../../xtensa-lx106-elf/lib/libc.a(lib_a-gmtime.o)
 .comment       0x0000000000000000       0x22 /home/stoffer/esp8266/esp-open-sdk/xtensa-lx106-elf/bin/../lib/gcc/xtensa-lx106-elf/4.8.2/../../../../xtensa-lx106-elf/lib/libc.a(lib_a-gmtime_r.o)
 .comment       0x0000000000000000       0x22 /home/stoffer/esp8266/esp-open-sdk/xtensa-lx106-elf/bin/../lib/gcc/xtensa-lx106-elf/4.8.2/../../../../xtensa-lx106-elf/lib/libc.a(lib_a-impure.o)
 .comment       0x0000000000000000       0x22 /home/stoffer/esp8266/esp-open-sdk/xtensa-lx106-elf/bin/../lib/gcc/xtensa-lx106-elf/4.8.2/../../../../xtensa-lx106-elf/lib/libc.a(lib_a-mktm_r.o)
 .comment       0x0000000000000000       0x22 /home/stoffer/esp8266/esp-open-sdk/xtensa-lx106-elf/bin/../lib/gcc/xtensa-lx106-elf/4.8.2/../../../../xtensa-lx106-elf/lib/libc.a(lib_a-strcat.o)
 .comment       0x0000000000000000       0x22 /home/stoffer/esp8266/esp-open-sdk/xtensa-lx106-elf/bin/../lib/gcc/xtensa-lx106-elf/4.8.2/../../../../xtensa-lx106-elf/lib/libc.a(lib_a-strtok.o)
 .comment       0x0000000000000000       0x22 /home/stoffer/esp8266/esp-open-sdk/xtensa-lx106-elf/bin/../lib/gcc/xtensa-lx106-elf/4.8.2/../../../../xtensa-lx106-elf/lib/libc.a(lib_a-strtok_r.o)
 .comment       0x0000000000000000       0x22 /home/stoffer/esp8266/esp-open-sdk/xtensa-lx106-elf/bin/../lib/gcc/xtensa-lx106-elf/4.8.2/../../../../xtensa-lx106-elf/lib/libc.a(lib_a-strtol.o)
 .comment       0x0000000000000000       0x22 /home/stoffer/esp8266/esp-open-sdk/xtensa-lx106-elf/bin/../lib/gcc/xtensa-lx106-elf/4.8.2/../../../../xtensa-lx106-elf/lib/libc.a(lib_a-tzlock.o)
 .comment       0x0000000000000000       0x22 /home/stoffer/esp8266/esp-open-sdk/xtensa-lx106-elf/bin/../lib/gcc/xtensa-lx106-elf/4.8.2/../../../../xtensa-lx106-elf/lib/libc.a(lib_a-tzvars.o)
 .comment       0x0000000000000000       0x22 /home/stoffer/esp8266/esp-open-sdk/xtensa-lx106-elf/bin/../lib/gcc/xtensa-lx106-elf/4.8.2/../../../../xtensa-lx106-elf/lib/libc.a(lib_a-ctype_.o)
 .comment       0x0000000000000000       0x22 /home/stoffer/esp8266/esp-open-sdk/xtensa-lx106-elf/bin/../lib/gcc/xtensa-lx106-elf/4.8.2/../../../../xtensa-lx106-elf/lib/libc.a(lib_a-gettzinfo.o)
 .comment       0x0000000000000000       0x22 /home/stoffer/esp8266/esp-open-sdk/xtensa-lx106-elf/bin/../lib/gcc/xtensa-lx106-elf/4.8.2/libgcc.a(_udivdi3.o)
 .comment       0x0000000000000000       0x22 /home/stoffer/esp8266/esp-open-sdk/xtensa-lx106-elf/bin/../lib/gcc/xtensa-lx106-elf/4.8.2/libgcc.a(_umoddi3.o)
 .comment       0x0000000000000285       0x41 /home/stoffer/esp8266/esp-open-sdk/sdk/lib/libphy.a(phy.o)
 .comment       0x00000000000002c6       0x4d /home/stoffer/esp8266/esp-open-sdk/sdk/lib/libphy.a(phy_chip_v6_ana.o)
 .comment       0x0000000000000313       0x49 /home/stoffer/esp8266/esp-open-sdk/sdk/lib/libphy.a(phy_chip_v6.o)
 .comment       0x000000000000035c       0x4d /home/stoffer/esp8266/esp-open-sdk/sdk/lib/libphy.a(phy_chip_v6_cal.o)
 .comment       0x00000000000003a9       0x50 /home/stoffer/esp8266/esp-open-sdk/sdk/lib/libphy.a(phy_chip_v6_unused.o)
 .comment       0x00000000000003f9       0x47 /home/stoffer/esp8266/esp-open-sdk/sdk/lib/libphy.a(phy_sleep.o)
 .comment       0x0000000000000440       0x56 /home/stoffer/esp8266/esp-open-sdk/sdk/lib/libpp.a(if_hwctrl.o)
                                         0x57 (size before relaxing)
 .comment       0x0000000000000496       0x51 /home/stoffer/esp8266/esp-open-sdk/sdk/lib/libpp.a(lmac.o)
                                         0x52 (size before relaxing)
 .comment       0x00000000000004e7       0x4f /home/stoffer/esp8266/esp-open-sdk/sdk/lib/libpp.a(pm.o)
                                         0x50 (size before relaxing)
 .comment       0x0000000000000536       0x61 /home/stoffer/esp8266/esp-open-sdk/sdk/lib/libpp.a(pm_for_bcn_only_mode.o)
                                         0x62 (size before relaxing)
 .comment       0x0000000000000597       0x4f /home/stoffer/esp8266/esp-open-sdk/sdk/lib/libpp.a(pp.o)
                                         0x50 (size before relaxing)
 .comment       0x00000000000005e6       0x59 /home/stoffer/esp8266/esp-open-sdk/sdk/lib/libpp.a(rate_control.o)
                                         0x5a (size before relaxing)
 .comment       0x000000000000063f       0x50 /home/stoffer/esp8266/esp-open-sdk/sdk/lib/libpp.a(trc.o)
                                         0x51 (size before relaxing)
 .comment       0x000000000000068f       0x51 /home/stoffer/esp8266/esp-open-sdk/sdk/lib/libpp.a(wdev.o)
                                         0x52 (size before relaxing)
 .comment       0x00000000000006e0       0x54 /home/stoffer/esp8266/esp-open-sdk/sdk/lib/libpp.a(esf_buf.o)
                                         0x55 (size before relaxing)
 .comment       0x0000000000000734       0x56 /home/stoffer/esp8266/esp-open-sdk/sdk/lib/libnet80211.a(ieee80211.o)
                                         0x57 (size before relaxing)
 .comment       0x000000000000078a       0x5d /home/stoffer/esp8266/esp-open-sdk/sdk/lib/libnet80211.a(ieee80211_crypto.o)
                                         0x5e (size before relaxing)
 .comment       0x00000000000007e7       0x5a /home/stoffer/esp8266/esp-open-sdk/sdk/lib/libnet80211.a(ieee80211_ets.o)
                                         0x5b (size before relaxing)
 .comment       0x0000000000000841       0x5d /home/stoffer/esp8266/esp-open-sdk/sdk/lib/libnet80211.a(ieee80211_hostap.o)
                                         0x5e (size before relaxing)
 .comment       0x000000000000089e       0x59 /home/stoffer/esp8266/esp-open-sdk/sdk/lib/libnet80211.a(ieee80211_ht.o)
                                         0x5a (size before relaxing)
 .comment       0x00000000000008f7       0x5c /home/stoffer/esp8266/esp-open-sdk/sdk/lib/libnet80211.a(ieee80211_input.o)
                                         0x5d (size before relaxing)
 .comment       0x0000000000000953       0x61 /home/stoffer/esp8266/esp-open-sdk/sdk/lib/libnet80211.a(ieee80211_mesh_quick.o)
                                         0x62 (size before relaxing)
 .comment       0x00000000000009b4       0x5d /home/stoffer/esp8266/esp-open-sdk/sdk/lib/libnet80211.a(ieee80211_output.o)
                                         0x5e (size before relaxing)
 .comment       0x0000000000000a11       0x5a /home/stoffer/esp8266/esp-open-sdk/sdk/lib/libnet80211.a(ieee80211_phy.o)
                                         0x5b (size before relaxing)
 .comment       0x0000000000000a6b       0x5c /home/stoffer/esp8266/esp-open-sdk/sdk/lib/libnet80211.a(ieee80211_power.o)
                                         0x5d (size before relaxing)
 .comment       0x0000000000000ac7       0x5c /home/stoffer/esp8266/esp-open-sdk/sdk/lib/libnet80211.a(ieee80211_proto.o)
                                         0x5d (size before relaxing)
 .comment       0x0000000000000b23       0x5b /home/stoffer/esp8266/esp-open-sdk/sdk/lib/libnet80211.a(ieee80211_rfid.o)
                                         0x5c (size before relaxing)
 .comment       0x0000000000000b7e       0x5b /home/stoffer/esp8266/esp-open-sdk/sdk/lib/libnet80211.a(ieee80211_scan.o)
                                         0x5c (size before relaxing)
 .comment       0x0000000000000bd9       0x5a /home/stoffer/esp8266/esp-open-sdk/sdk/lib/libnet80211.a(ieee80211_sta.o)
                                         0x5b (size before relaxing)
 .comment       0x0000000000000c33       0x53 /home/stoffer/esp8266/esp-open-sdk/sdk/lib/libnet80211.a(wl_chm.o)
                                         0x54 (size before relaxing)
 .comment       0x0000000000000c86       0x53 /home/stoffer/esp8266/esp-open-sdk/sdk/lib/libnet80211.a(wl_cnx.o)
                                         0x54 (size before relaxing)
 .comment       0x0000000000000cd9       0x5d /home/stoffer/esp8266/esp-open-sdk/sdk/lib/libnet80211.a(ieee80211_action.o)
                                         0x5e (size before relaxing)
 .comment       0x0000000000000d36       0x64 /home/stoffer/esp8266/esp-open-sdk/sdk/lib/libnet80211.a(ieee80211_action_vendor.o)
                                         0x65 (size before relaxing)
 .comment       0x0000000000000d9a       0x62 /home/stoffer/esp8266/esp-open-sdk/sdk/lib/libnet80211.a(ieee80211_crypto_ccmp.o)
                                         0x63 (size before relaxing)
 .comment       0x0000000000000dfc       0x60 /home/stoffer/esp8266/esp-open-sdk/sdk/lib/libnet80211.a(ieee80211_ie_vendor.o)
                                         0x61 (size before relaxing)
 .comment       0x0000000000000e5c       0x51 /home/stoffer/esp8266/esp-open-sdk/sdk/lib/liblwip.a(dhcp.o)
                                         0x52 (size before relaxing)
 .comment       0x0000000000000ead       0x57 /home/stoffer/esp8266/esp-open-sdk/sdk/lib/liblwip.a(dhcpserver.o)
                                         0x58 (size before relaxing)
 .comment       0x0000000000000f04       0x50 /home/stoffer/esp8266/esp-open-sdk/sdk/lib/liblwip.a(dns.o)
                                         0x51 (size before relaxing)
 .comment       0x0000000000000f54       0x54 /home/stoffer/esp8266/esp-open-sdk/sdk/lib/liblwip.a(espconn.o)
                                         0x55 (size before relaxing)
 .comment       0x0000000000000fa8       0x58 /home/stoffer/esp8266/esp-open-sdk/sdk/lib/liblwip.a(espconn_tcp.o)
                                         0x59 (size before relaxing)
 .comment       0x0000000000001000       0x58 /home/stoffer/esp8266/esp-open-sdk/sdk/lib/liblwip.a(espconn_udp.o)
                                         0x59 (size before relaxing)
 .comment       0x0000000000001058       0x53 /home/stoffer/esp8266/esp-open-sdk/sdk/lib/liblwip.a(etharp.o)
                                         0x54 (size before relaxing)
 .comment       0x00000000000010ab       0x51 /home/stoffer/esp8266/esp-open-sdk/sdk/lib/liblwip.a(igmp.o)
                                         0x52 (size before relaxing)
 .comment       0x00000000000010fc       0x58 /home/stoffer/esp8266/esp-open-sdk/sdk/lib/liblwip.a(inet_chksum.o)
                                         0x59 (size before relaxing)
 .comment       0x0000000000001154       0x51 /home/stoffer/esp8266/esp-open-sdk/sdk/lib/liblwip.a(init.o)
                                         0x52 (size before relaxing)
 .comment       0x00000000000011a5       0x54 /home/stoffer/esp8266/esp-open-sdk/sdk/lib/liblwip.a(ip_addr.o)
                                         0x55 (size before relaxing)
 .comment       0x00000000000011f9       0x4f /home/stoffer/esp8266/esp-open-sdk/sdk/lib/liblwip.a(ip.o)
                                         0x50 (size before relaxing)
 .comment       0x0000000000001248       0x51 /home/stoffer/esp8266/esp-open-sdk/sdk/lib/liblwip.a(memp.o)
                                         0x52 (size before relaxing)
 .comment       0x0000000000001299       0x52 /home/stoffer/esp8266/esp-open-sdk/sdk/lib/liblwip.a(netif.o)
                                         0x53 (size before relaxing)
 .comment       0x00000000000012eb       0x51 /home/stoffer/esp8266/esp-open-sdk/sdk/lib/liblwip.a(pbuf.o)
                                         0x52 (size before relaxing)
 .comment       0x000000000000133c       0x50 /home/stoffer/esp8266/esp-open-sdk/sdk/lib/liblwip.a(raw.o)
                                         0x51 (size before relaxing)
 .comment       0x000000000000138c       0x51 /home/stoffer/esp8266/esp-open-sdk/sdk/lib/liblwip.a(sntp.o)
                                         0x52 (size before relaxing)
 .comment       0x00000000000013dd       0x53 /home/stoffer/esp8266/esp-open-sdk/sdk/lib/liblwip.a(tcp_in.o)
                                         0x54 (size before relaxing)
 .comment       0x0000000000001430       0x50 /home/stoffer/esp8266/esp-open-sdk/sdk/lib/liblwip.a(tcp.o)
                                         0x51 (size before relaxing)
 .comment       0x0000000000001480       0x54 /home/stoffer/esp8266/esp-open-sdk/sdk/lib/liblwip.a(tcp_out.o)
                                         0x55 (size before relaxing)
 .comment       0x00000000000014d4       0x53 /home/stoffer/esp8266/esp-open-sdk/sdk/lib/liblwip.a(timers.o)
                                         0x54 (size before relaxing)
 .comment       0x0000000000001527       0x50 /home/stoffer/esp8266/esp-open-sdk/sdk/lib/liblwip.a(udp.o)
                                         0x51 (size before relaxing)
 .comment       0x0000000000001577       0x51 /home/stoffer/esp8266/esp-open-sdk/sdk/lib/liblwip.a(icmp.o)
                                         0x52 (size before relaxing)
 .comment       0x00000000000015c8       0x56 /home/stoffer/esp8266/esp-open-sdk/sdk/lib/libwpa.a(ap_config.o)
                                         0x57 (size before relaxing)
 .comment       0x000000000000161e       0x53 /home/stoffer/esp8266/esp-open-sdk/sdk/lib/libwpa.a(common.o)
                                         0x54 (size before relaxing)
 .comment       0x0000000000001671       0x56 /home/stoffer/esp8266/esp-open-sdk/sdk/lib/libwpa.a(os_xtensa.o)
                                         0x57 (size before relaxing)
 .comment       0x00000000000016c7       0x55 /home/stoffer/esp8266/esp-open-sdk/sdk/lib/libwpa.a(wpa_auth.o)
                                         0x56 (size before relaxing)
 .comment       0x000000000000171c       0x58 /home/stoffer/esp8266/esp-open-sdk/sdk/lib/libwpa.a(wpa_auth_ie.o)
                                         0x59 (size before relaxing)
 .comment       0x0000000000001774       0x50 /home/stoffer/esp8266/esp-open-sdk/sdk/lib/libwpa.a(wpa.o)
                                         0x51 (size before relaxing)
 .comment       0x00000000000017c4       0x57 /home/stoffer/esp8266/esp-open-sdk/sdk/lib/libwpa.a(wpa_common.o)
                                         0x58 (size before relaxing)
 .comment       0x000000000000181b       0x56 /home/stoffer/esp8266/esp-open-sdk/sdk/lib/libwpa.a(wpa_debug.o)
                                         0x57 (size before relaxing)
 .comment       0x0000000000001871       0x53 /home/stoffer/esp8266/esp-open-sdk/sdk/lib/libwpa.a(wpa_ie.o)
                                         0x54 (size before relaxing)
 .comment       0x00000000000018c4       0x55 /home/stoffer/esp8266/esp-open-sdk/sdk/lib/libwpa.a(wpa_main.o)
                                         0x56 (size before relaxing)
 .comment       0x0000000000001919       0x56 /home/stoffer/esp8266/esp-open-sdk/sdk/lib/libwpa.a(wpas_glue.o)
                                         0x57 (size before relaxing)
 .comment       0x000000000000196f       0x55 /home/stoffer/esp8266/esp-open-sdk/sdk/lib/libwpa.a(aes-wrap.o)
                                         0x56 (size before relaxing)
 .comment       0x00000000000019c4       0x5d /home/stoffer/esp8266/esp-open-sdk/sdk/lib/libwpa.a(aes-internal-enc.o)
                                         0x5e (size before relaxing)
 .comment       0x0000000000001a21       0x59 /home/stoffer/esp8266/esp-open-sdk/sdk/lib/libwpa.a(aes-internal.o)
                                         0x5a (size before relaxing)
 .comment       0x0000000000000000       0x22 /home/stoffer/esp8266/esp-open-sdk/xtensa-lx106-elf/bin/../lib/gcc/xtensa-lx106-elf/4.8.2/libgcc.a(_divdi3.o)
 .comment       0x0000000000001a7a       0x62 /home/stoffer/esp8266/esp-open-sdk/sdk/lib/libnet80211.a(ieee80211_crypto_tkip.o)
                                         0x63 (size before relaxing)
 .comment       0x0000000000001adc       0x61 /home/stoffer/esp8266/esp-open-sdk/sdk/lib/libnet80211.a(ieee80211_crypto_wep.o)
                                         0x62 (size before relaxing)

.debug_line     0x0000000000000000     0xe222
 .debug_line    0x0000000000000000      0x130 /home/stoffer/esp8266/esp-open-sdk/xtensa-lx106-elf/bin/../lib/gcc/xtensa-lx106-elf/4.8.2/libgcc.a(_udivsi3.o)
 .debug_line    0x0000000000000130      0x100 /home/stoffer/esp8266/esp-open-sdk/xtensa-lx106-elf/bin/../lib/gcc/xtensa-lx106-elf/4.8.2/libgcc.a(_umodsi3.o)
 .debug_line    0x0000000000000230       0xcf /home/stoffer/esp8266/esp-open-sdk/xtensa-lx106-elf/bin/../lib/gcc/xtensa-lx106-elf/4.8.2/libgcc.a(_muldi3.o)
 .debug_line    0x00000000000002ff      0x13c /home/stoffer/esp8266/esp-open-sdk/xtensa-lx106-elf/bin/../lib/gcc/xtensa-lx106-elf/4.8.2/libgcc.a(_umulsidi3.o)
 .debug_line    0x000000000000043b      0x769 build/app_app.a(user_main.o)
 .debug_line    0x0000000000000ba4      0x5a1 build/app_app.a(captdns.o)
 .debug_line    0x0000000000001145      0x231 build/app_app.a(led.o)
 .debug_line    0x0000000000001376      0xace build/app_app.a(httpd.o)
 .debug_line    0x0000000000001e44      0x109 build/app_app.a(httpd_user_init.o)
 .debug_line    0x0000000000001f4d      0x328 build/app_app.a(crypto.o)
 .debug_line    0x0000000000002275      0x20a build/app_app.a(hmac-sha256.o)
 .debug_line    0x000000000000247f      0x726 build/app_app.a(sha256.o)
 .debug_line    0x0000000000002ba5      0x924 build/app_app.a(aes.o)
 .debug_line    0x00000000000034c9      0x6d0 build/app_app.a(kmp_request.o)
 .debug_line    0x0000000000003b99      0x904 build/app_app.a(kmp.o)
 .debug_line    0x000000000000449d      0x4c8 build/app_app.a(cron.o)
 .debug_line    0x0000000000004965      0x406 build/app_app.a(ac_out.o)
 .debug_line    0x0000000000004d6b      0x511 build/app_app.a(uart.o)
 .debug_line    0x000000000000527c      0xcb9 build/app_app.a(mqtt.o)
 .debug_line    0x0000000000005f35      0x8c2 build/app_app.a(mqtt_msg.o)
 .debug_line    0x00000000000067f7      0x183 build/app_app.a(queue.o)
 .debug_line    0x000000000000697a      0x249 build/app_app.a(mqtt_utils.o)
 .debug_line    0x0000000000006bc3      0x32f build/app_app.a(proto.o)
 .debug_line    0x0000000000006ef2      0x33a build/app_app.a(config.o)
 .debug_line    0x000000000000722c      0x47d build/app_app.a(wifi.o)
 .debug_line    0x00000000000076a9      0xae5 build/app_app.a(tinyprintf.o)
 .debug_line    0x000000000000818e      0x246 build/app_app.a(unix_time.o)
 .debug_line    0x00000000000083d4      0x242 build/app_app.a(cgi.o)
 .debug_line    0x0000000000008616      0x2e9 build/app_app.a(httpdespfs.o)
 .debug_line    0x00000000000088ff      0x47d build/app_app.a(cgiwifi.o)
 .debug_line    0x0000000000008d7c      0x379 build/app_app.a(espfs.o)
 .debug_line    0x00000000000090f5      0x58b build/app_app.a(heatshrink_decoder.o)
 .debug_line    0x0000000000009680      0x2a0 build/app_app.a(utils.o)
 .debug_line    0x0000000000009920      0x120 build/app_app.a(ringbuf.o)
 .debug_line    0x0000000000009a40      0x22c /home/stoffer/esp8266/esp-open-sdk/xtensa-lx106-elf/bin/../lib/gcc/xtensa-lx106-elf/4.8.2/../../../../xtensa-lx106-elf/lib/libc.a(lib_a-atoi.o)
 .debug_line    0x0000000000009c6c      0x222 /home/stoffer/esp8266/esp-open-sdk/xtensa-lx106-elf/bin/../lib/gcc/xtensa-lx106-elf/4.8.2/../../../../xtensa-lx106-elf/lib/libc.a(lib_a-gmtime.o)
 .debug_line    0x0000000000009e8e      0x17f /home/stoffer/esp8266/esp-open-sdk/xtensa-lx106-elf/bin/../lib/gcc/xtensa-lx106-elf/4.8.2/../../../../xtensa-lx106-elf/lib/libc.a(lib_a-gmtime_r.o)
 .debug_line    0x000000000000a00d      0x181 /home/stoffer/esp8266/esp-open-sdk/xtensa-lx106-elf/bin/../lib/gcc/xtensa-lx106-elf/4.8.2/../../../../xtensa-lx106-elf/lib/libc.a(lib_a-impure.o)
 .debug_line    0x000000000000a18e      0x388 /home/stoffer/esp8266/esp-open-sdk/xtensa-lx106-elf/bin/../lib/gcc/xtensa-lx106-elf/4.8.2/../../../../xtensa-lx106-elf/lib/libc.a(lib_a-memcpy.o)
 .debug_line    0x000000000000a516      0x1ad /home/stoffer/esp8266/esp-open-sdk/xtensa-lx106-elf/bin/../lib/gcc/xtensa-lx106-elf/4.8.2/../../../../xtensa-lx106-elf/lib/libc.a(lib_a-memset.o)
 .debug_line    0x000000000000a6c3      0x6ef /home/stoffer/esp8266/esp-open-sdk/xtensa-lx106-elf/bin/../lib/gcc/xtensa-lx106-elf/4.8.2/../../../../xtensa-lx106-elf/lib/libc.a(lib_a-mktm_r.o)
 .debug_line    0x000000000000adb2      0x11d /home/stoffer/esp8266/esp-open-sdk/xtensa-lx106-elf/bin/../lib/gcc/xtensa-lx106-elf/4.8.2/../../../../xtensa-lx106-elf/lib/libc.a(lib_a-strcat.o)
 .debug_line    0x000000000000aecf      0x15f /home/stoffer/esp8266/esp-open-sdk/xtensa-lx106-elf/bin/../lib/gcc/xtensa-lx106-elf/4.8.2/../../../../xtensa-lx106-elf/lib/libc.a(lib_a-strlen.o)
 .debug_line    0x000000000000b02e      0x21c /home/stoffer/esp8266/esp-open-sdk/xtensa-lx106-elf/bin/../lib/gcc/xtensa-lx106-elf/4.8.2/../../../../xtensa-lx106-elf/lib/libc.a(lib_a-strtok.o)
 .debug_line    0x000000000000b24a      0x1b0 /home/stoffer/esp8266/esp-open-sdk/xtensa-lx106-elf/bin/../lib/gcc/xtensa-lx106-elf/4.8.2/../../../../xtensa-lx106-elf/lib/libc.a(lib_a-strtok_r.o)
 .debug_line    0x000000000000b3fa      0x3c7 /home/stoffer/esp8266/esp-open-sdk/xtensa-lx106-elf/bin/../lib/gcc/xtensa-lx106-elf/4.8.2/../../../../xtensa-lx106-elf/lib/libc.a(lib_a-strtol.o)
 .debug_line    0x000000000000b7c1       0x95 /home/stoffer/esp8266/esp-open-sdk/xtensa-lx106-elf/bin/../lib/gcc/xtensa-lx106-elf/4.8.2/../../../../xtensa-lx106-elf/lib/libc.a(lib_a-tzlock.o)
 .debug_line    0x000000000000b856       0x80 /home/stoffer/esp8266/esp-open-sdk/xtensa-lx106-elf/bin/../lib/gcc/xtensa-lx106-elf/4.8.2/../../../../xtensa-lx106-elf/lib/libc.a(lib_a-tzvars.o)
 .debug_line    0x000000000000b8d6       0x81 /home/stoffer/esp8266/esp-open-sdk/xtensa-lx106-elf/bin/../lib/gcc/xtensa-lx106-elf/4.8.2/../../../../xtensa-lx106-elf/lib/libc.a(lib_a-ctype_.o)
 .debug_line    0x000000000000b957      0x163 /home/stoffer/esp8266/esp-open-sdk/xtensa-lx106-elf/bin/../lib/gcc/xtensa-lx106-elf/4.8.2/../../../../xtensa-lx106-elf/lib/libc.a(lib_a-gettzinfo.o)
 .debug_line    0x000000000000baba      0x160 /home/stoffer/esp8266/esp-open-sdk/xtensa-lx106-elf/bin/../lib/gcc/xtensa-lx106-elf/4.8.2/libgcc.a(_divsi3.o)
 .debug_line    0x000000000000bc1a      0x11e /home/stoffer/esp8266/esp-open-sdk/xtensa-lx106-elf/bin/../lib/gcc/xtensa-lx106-elf/4.8.2/libgcc.a(_modsi3.o)
 .debug_line    0x000000000000bd38      0x631 /home/stoffer/esp8266/esp-open-sdk/xtensa-lx106-elf/bin/../lib/gcc/xtensa-lx106-elf/4.8.2/libgcc.a(_muldf3.o)
 .debug_line    0x000000000000c369      0x4d9 /home/stoffer/esp8266/esp-open-sdk/xtensa-lx106-elf/bin/../lib/gcc/xtensa-lx106-elf/4.8.2/libgcc.a(_divdf3.o)
 .debug_line    0x000000000000c842      0x107 /home/stoffer/esp8266/esp-open-sdk/xtensa-lx106-elf/bin/../lib/gcc/xtensa-lx106-elf/4.8.2/libgcc.a(_floatsidf.o)
 .debug_line    0x000000000000c949      0x1e0 /home/stoffer/esp8266/esp-open-sdk/xtensa-lx106-elf/bin/../lib/gcc/xtensa-lx106-elf/4.8.2/libgcc.a(_udivdi3.o)
 .debug_line    0x000000000000cb29      0x239 /home/stoffer/esp8266/esp-open-sdk/xtensa-lx106-elf/bin/../lib/gcc/xtensa-lx106-elf/4.8.2/libgcc.a(_umoddi3.o)
 .debug_line    0x000000000000cd62       0xbe /home/stoffer/esp8266/esp-open-sdk/xtensa-lx106-elf/bin/../lib/gcc/xtensa-lx106-elf/4.8.2/libgcc.a(_ashrdi3.o)
 .debug_line    0x000000000000ce20      0x4c1 /home/stoffer/esp8266/esp-open-sdk/xtensa-lx106-elf/bin/../lib/gcc/xtensa-lx106-elf/4.8.2/libgcc.a(_addsubsf3.o)
 .debug_line    0x000000000000d2e1      0x383 /home/stoffer/esp8266/esp-open-sdk/xtensa-lx106-elf/bin/../lib/gcc/xtensa-lx106-elf/4.8.2/libgcc.a(_mulsf3.o)
 .debug_line    0x000000000000d664      0x31d /home/stoffer/esp8266/esp-open-sdk/xtensa-lx106-elf/bin/../lib/gcc/xtensa-lx106-elf/4.8.2/libgcc.a(_divsf3.o)
 .debug_line    0x000000000000d981      0x119 /home/stoffer/esp8266/esp-open-sdk/xtensa-lx106-elf/bin/../lib/gcc/xtensa-lx106-elf/4.8.2/libgcc.a(_fixsfsi.o)
 .debug_line    0x000000000000da9a      0x149 /home/stoffer/esp8266/esp-open-sdk/xtensa-lx106-elf/bin/../lib/gcc/xtensa-lx106-elf/4.8.2/libgcc.a(_fixunssfsi.o)
 .debug_line    0x000000000000dbe3      0x125 /home/stoffer/esp8266/esp-open-sdk/xtensa-lx106-elf/bin/../lib/gcc/xtensa-lx106-elf/4.8.2/libgcc.a(_floatsisf.o)
 .debug_line    0x000000000000dd08      0x12b /home/stoffer/esp8266/esp-open-sdk/xtensa-lx106-elf/bin/../lib/gcc/xtensa-lx106-elf/4.8.2/libgcc.a(_fixdfsi.o)
 .debug_line    0x000000000000de33      0x1d9 /home/stoffer/esp8266/esp-open-sdk/xtensa-lx106-elf/bin/../lib/gcc/xtensa-lx106-elf/4.8.2/libgcc.a(_truncdfsf2.o)
 .debug_line    0x000000000000e00c      0x216 /home/stoffer/esp8266/esp-open-sdk/xtensa-lx106-elf/bin/../lib/gcc/xtensa-lx106-elf/4.8.2/libgcc.a(_divdi3.o)

.debug_info     0x0000000000000000    0x1b847
 .debug_info    0x0000000000000000       0xfb /home/stoffer/esp8266/esp-open-sdk/xtensa-lx106-elf/bin/../lib/gcc/xtensa-lx106-elf/4.8.2/libgcc.a(_udivsi3.o)
 .debug_info    0x00000000000000fb       0xfb /home/stoffer/esp8266/esp-open-sdk/xtensa-lx106-elf/bin/../lib/gcc/xtensa-lx106-elf/4.8.2/libgcc.a(_umodsi3.o)
 .debug_info    0x00000000000001f6      0x174 /home/stoffer/esp8266/esp-open-sdk/xtensa-lx106-elf/bin/../lib/gcc/xtensa-lx106-elf/4.8.2/libgcc.a(_muldi3.o)
 .debug_info    0x000000000000036a       0xfb /home/stoffer/esp8266/esp-open-sdk/xtensa-lx106-elf/bin/../lib/gcc/xtensa-lx106-elf/4.8.2/libgcc.a(_umulsidi3.o)
 .debug_info    0x0000000000000465     0x23f0 build/app_app.a(user_main.o)
 .debug_info    0x0000000000002855      0xeef build/app_app.a(captdns.o)
 .debug_info    0x0000000000003744      0x416 build/app_app.a(led.o)
 .debug_info    0x0000000000003b5a     0x15b6 build/app_app.a(httpd.o)
 .debug_info    0x0000000000005110      0x507 build/app_app.a(httpd_user_init.o)
 .debug_info    0x0000000000005617      0x7a4 build/app_app.a(crypto.o)
 .debug_info    0x0000000000005dbb      0x58b build/app_app.a(hmac-sha256.o)
 .debug_info    0x0000000000006346      0x87b build/app_app.a(sha256.o)
 .debug_info    0x0000000000006bc1      0xbe4 build/app_app.a(aes.o)
 .debug_info    0x00000000000077a5     0x188e build/app_app.a(kmp_request.o)
 .debug_info    0x0000000000009033      0xc44 build/app_app.a(kmp.o)
 .debug_info    0x0000000000009c77      0xcf4 build/app_app.a(cron.o)
 .debug_info    0x000000000000a96b      0xad1 build/app_app.a(ac_out.o)
 .debug_info    0x000000000000b43c      0x945 build/app_app.a(uart.o)
 .debug_info    0x000000000000bd81     0x213f build/app_app.a(mqtt.o)
 .debug_info    0x000000000000dec0     0x1007 build/app_app.a(mqtt_msg.o)
 .debug_info    0x000000000000eec7      0x395 build/app_app.a(queue.o)
 .debug_info    0x000000000000f25c      0x1e3 build/app_app.a(mqtt_utils.o)
 .debug_info    0x000000000000f43f      0x4f9 build/app_app.a(proto.o)
 .debug_info    0x000000000000f938      0x9b8 build/app_app.a(config.o)
 .debug_info    0x00000000000102f0      0xe56 build/app_app.a(wifi.o)
 .debug_info    0x0000000000011146      0xae7 build/app_app.a(tinyprintf.o)
 .debug_info    0x0000000000011c2d      0x52a build/app_app.a(unix_time.o)
 .debug_info    0x0000000000012157      0x7f9 build/app_app.a(cgi.o)
 .debug_info    0x0000000000012950      0x85d build/app_app.a(httpdespfs.o)
 .debug_info    0x00000000000131ad     0x12aa build/app_app.a(cgiwifi.o)
 .debug_info    0x0000000000014457      0x766 build/app_app.a(espfs.o)
 .debug_info    0x0000000000014bbd      0xaf1 build/app_app.a(heatshrink_decoder.o)
 .debug_info    0x00000000000156ae      0x41d build/app_app.a(utils.o)
 .debug_info    0x0000000000015acb      0x1ba build/app_app.a(ringbuf.o)
 .debug_info    0x0000000000015c85      0x93d /home/stoffer/esp8266/esp-open-sdk/xtensa-lx106-elf/bin/../lib/gcc/xtensa-lx106-elf/4.8.2/../../../../xtensa-lx106-elf/lib/libc.a(lib_a-atoi.o)
 .debug_info    0x00000000000165c2      0x94e /home/stoffer/esp8266/esp-open-sdk/xtensa-lx106-elf/bin/../lib/gcc/xtensa-lx106-elf/4.8.2/../../../../xtensa-lx106-elf/lib/libc.a(lib_a-gmtime.o)
 .debug_info    0x0000000000016f10      0x17a /home/stoffer/esp8266/esp-open-sdk/xtensa-lx106-elf/bin/../lib/gcc/xtensa-lx106-elf/4.8.2/../../../../xtensa-lx106-elf/lib/libc.a(lib_a-gmtime_r.o)
 .debug_info    0x000000000001708a      0x890 /home/stoffer/esp8266/esp-open-sdk/xtensa-lx106-elf/bin/../lib/gcc/xtensa-lx106-elf/4.8.2/../../../../xtensa-lx106-elf/lib/libc.a(lib_a-impure.o)
 .debug_info    0x000000000001791a      0x111 /home/stoffer/esp8266/esp-open-sdk/xtensa-lx106-elf/bin/../lib/gcc/xtensa-lx106-elf/4.8.2/../../../../xtensa-lx106-elf/lib/libc.a(lib_a-memcpy.o)
 .debug_info    0x0000000000017a2b      0x111 /home/stoffer/esp8266/esp-open-sdk/xtensa-lx106-elf/bin/../lib/gcc/xtensa-lx106-elf/4.8.2/../../../../xtensa-lx106-elf/lib/libc.a(lib_a-memset.o)
 .debug_info    0x0000000000017b3c      0x440 /home/stoffer/esp8266/esp-open-sdk/xtensa-lx106-elf/bin/../lib/gcc/xtensa-lx106-elf/4.8.2/../../../../xtensa-lx106-elf/lib/libc.a(lib_a-mktm_r.o)
 .debug_info    0x0000000000017f7c       0xc4 /home/stoffer/esp8266/esp-open-sdk/xtensa-lx106-elf/bin/../lib/gcc/xtensa-lx106-elf/4.8.2/../../../../xtensa-lx106-elf/lib/libc.a(lib_a-strcat.o)
 .debug_info    0x0000000000018040      0x111 /home/stoffer/esp8266/esp-open-sdk/xtensa-lx106-elf/bin/../lib/gcc/xtensa-lx106-elf/4.8.2/../../../../xtensa-lx106-elf/lib/libc.a(lib_a-strlen.o)
 .debug_info    0x0000000000018151      0x8e7 /home/stoffer/esp8266/esp-open-sdk/xtensa-lx106-elf/bin/../lib/gcc/xtensa-lx106-elf/4.8.2/../../../../xtensa-lx106-elf/lib/libc.a(lib_a-strtok.o)
 .debug_info    0x0000000000018a38      0x180 /home/stoffer/esp8266/esp-open-sdk/xtensa-lx106-elf/bin/../lib/gcc/xtensa-lx106-elf/4.8.2/../../../../xtensa-lx106-elf/lib/libc.a(lib_a-strtok_r.o)
 .debug_info    0x0000000000018bb8      0x9a5 /home/stoffer/esp8266/esp-open-sdk/xtensa-lx106-elf/bin/../lib/gcc/xtensa-lx106-elf/4.8.2/../../../../xtensa-lx106-elf/lib/libc.a(lib_a-strtol.o)
 .debug_info    0x000000000001955d       0xa4 /home/stoffer/esp8266/esp-open-sdk/xtensa-lx106-elf/bin/../lib/gcc/xtensa-lx106-elf/4.8.2/../../../../xtensa-lx106-elf/lib/libc.a(lib_a-tzlock.o)
 .debug_info    0x0000000000019601       0xb7 /home/stoffer/esp8266/esp-open-sdk/xtensa-lx106-elf/bin/../lib/gcc/xtensa-lx106-elf/4.8.2/../../../../xtensa-lx106-elf/lib/libc.a(lib_a-tzvars.o)
 .debug_info    0x00000000000196b8       0x6b /home/stoffer/esp8266/esp-open-sdk/xtensa-lx106-elf/bin/../lib/gcc/xtensa-lx106-elf/4.8.2/../../../../xtensa-lx106-elf/lib/libc.a(lib_a-ctype_.o)
 .debug_info    0x0000000000019723      0x15c /home/stoffer/esp8266/esp-open-sdk/xtensa-lx106-elf/bin/../lib/gcc/xtensa-lx106-elf/4.8.2/../../../../xtensa-lx106-elf/lib/libc.a(lib_a-gettzinfo.o)
 .debug_info    0x000000000001987f       0xfb /home/stoffer/esp8266/esp-open-sdk/xtensa-lx106-elf/bin/../lib/gcc/xtensa-lx106-elf/4.8.2/libgcc.a(_divsi3.o)
 .debug_info    0x000000000001997a       0xfb /home/stoffer/esp8266/esp-open-sdk/xtensa-lx106-elf/bin/../lib/gcc/xtensa-lx106-elf/4.8.2/libgcc.a(_modsi3.o)
 .debug_info    0x0000000000019a75       0xfc /home/stoffer/esp8266/esp-open-sdk/xtensa-lx106-elf/bin/../lib/gcc/xtensa-lx106-elf/4.8.2/libgcc.a(_muldf3.o)
 .debug_info    0x0000000000019b71       0xfc /home/stoffer/esp8266/esp-open-sdk/xtensa-lx106-elf/bin/../lib/gcc/xtensa-lx106-elf/4.8.2/libgcc.a(_divdf3.o)
 .debug_info    0x0000000000019c6d       0xfc /home/stoffer/esp8266/esp-open-sdk/xtensa-lx106-elf/bin/../lib/gcc/xtensa-lx106-elf/4.8.2/libgcc.a(_floatsidf.o)
 .debug_info    0x0000000000019d69      0x5da /home/stoffer/esp8266/esp-open-sdk/xtensa-lx106-elf/bin/../lib/gcc/xtensa-lx106-elf/4.8.2/libgcc.a(_udivdi3.o)
 .debug_info    0x000000000001a343      0x61d /home/stoffer/esp8266/esp-open-sdk/xtensa-lx106-elf/bin/../lib/gcc/xtensa-lx106-elf/4.8.2/libgcc.a(_umoddi3.o)
 .debug_info    0x000000000001a960       0xfb /home/stoffer/esp8266/esp-open-sdk/xtensa-lx106-elf/bin/../lib/gcc/xtensa-lx106-elf/4.8.2/libgcc.a(_ashrdi3.o)
 .debug_info    0x000000000001aa5b       0xfc /home/stoffer/esp8266/esp-open-sdk/xtensa-lx106-elf/bin/../lib/gcc/xtensa-lx106-elf/4.8.2/libgcc.a(_addsubsf3.o)
 .debug_info    0x000000000001ab57       0xfc /home/stoffer/esp8266/esp-open-sdk/xtensa-lx106-elf/bin/../lib/gcc/xtensa-lx106-elf/4.8.2/libgcc.a(_mulsf3.o)
 .debug_info    0x000000000001ac53       0xfc /home/stoffer/esp8266/esp-open-sdk/xtensa-lx106-elf/bin/../lib/gcc/xtensa-lx106-elf/4.8.2/libgcc.a(_divsf3.o)
 .debug_info    0x000000000001ad4f       0xfc /home/stoffer/esp8266/esp-open-sdk/xtensa-lx106-elf/bin/../lib/gcc/xtensa-lx106-elf/4.8.2/libgcc.a(_fixsfsi.o)
 .debug_info    0x000000000001ae4b       0xfc /home/stoffer/esp8266/esp-open-sdk/xtensa-lx106-elf/bin/../lib/gcc/xtensa-lx106-elf/4.8.2/libgcc.a(_fixunssfsi.o)
 .debug_info    0x000000000001af47       0xfc /home/stoffer/esp8266/esp-open-sdk/xtensa-lx106-elf/bin/../lib/gcc/xtensa-lx106-elf/4.8.2/libgcc.a(_floatsisf.o)
 .debug_info    0x000000000001b043       0xfc /home/stoffer/esp8266/esp-open-sdk/xtensa-lx106-elf/bin/../lib/gcc/xtensa-lx106-elf/4.8.2/libgcc.a(_fixdfsi.o)
 .debug_info    0x000000000001b13f       0xfc /home/stoffer/esp8266/esp-open-sdk/xtensa-lx106-elf/bin/../lib/gcc/xtensa-lx106-elf/4.8.2/libgcc.a(_truncdfsf2.o)
 .debug_info    0x000000000001b23b      0x60c /home/stoffer/esp8266/esp-open-sdk/xtensa-lx106-elf/bin/../lib/gcc/xtensa-lx106-elf/4.8.2/libgcc.a(_divdi3.o)

.debug_abbrev   0x0000000000000000     0x59ac
 .debug_abbrev  0x0000000000000000       0x14 /home/stoffer/esp8266/esp-open-sdk/xtensa-lx106-elf/bin/../lib/gcc/xtensa-lx106-elf/4.8.2/libgcc.a(_udivsi3.o)
 .debug_abbrev  0x0000000000000014       0x14 /home/stoffer/esp8266/esp-open-sdk/xtensa-lx106-elf/bin/../lib/gcc/xtensa-lx106-elf/4.8.2/libgcc.a(_umodsi3.o)
 .debug_abbrev  0x0000000000000028       0xfd /home/stoffer/esp8266/esp-open-sdk/xtensa-lx106-elf/bin/../lib/gcc/xtensa-lx106-elf/4.8.2/libgcc.a(_muldi3.o)
 .debug_abbrev  0x0000000000000125       0x14 /home/stoffer/esp8266/esp-open-sdk/xtensa-lx106-elf/bin/../lib/gcc/xtensa-lx106-elf/4.8.2/libgcc.a(_umulsidi3.o)
 .debug_abbrev  0x0000000000000139      0x339 build/app_app.a(user_main.o)
 .debug_abbrev  0x0000000000000472      0x2c9 build/app_app.a(captdns.o)
 .debug_abbrev  0x000000000000073b      0x15b build/app_app.a(led.o)
 .debug_abbrev  0x0000000000000896      0x3bf build/app_app.a(httpd.o)
 .debug_abbrev  0x0000000000000c55      0x1a6 build/app_app.a(httpd_user_init.o)
 .debug_abbrev  0x0000000000000dfb      0x1a9 build/app_app.a(crypto.o)
 .debug_abbrev  0x0000000000000fa4      0x1a3 build/app_app.a(hmac-sha256.o)
 .debug_abbrev  0x0000000000001147      0x250 build/app_app.a(sha256.o)
 .debug_abbrev  0x0000000000001397      0x28c build/app_app.a(aes.o)
 .debug_abbrev  0x0000000000001623      0x32a build/app_app.a(kmp_request.o)
 .debug_abbrev  0x000000000000194d      0x27b build/app_app.a(kmp.o)
 .debug_abbrev  0x0000000000001bc8      0x255 build/app_app.a(cron.o)
 .debug_abbrev  0x0000000000001e1d      0x267 build/app_app.a(ac_out.o)
 .debug_abbrev  0x0000000000002084      0x2ed build/app_app.a(uart.o)
 .debug_abbrev  0x0000000000002371      0x373 build/app_app.a(mqtt.o)
 .debug_abbrev  0x00000000000026e4      0x287 build/app_app.a(mqtt_msg.o)
 .debug_abbrev  0x000000000000296b      0x121 build/app_app.a(queue.o)
 .debug_abbrev  0x0000000000002a8c       0xc7 build/app_app.a(mqtt_utils.o)
 .debug_abbrev  0x0000000000002b53      0x1df build/app_app.a(proto.o)
 .debug_abbrev  0x0000000000002d32      0x20a build/app_app.a(config.o)
 .debug_abbrev  0x0000000000002f3c      0x2ff build/app_app.a(wifi.o)
 .debug_abbrev  0x000000000000323b      0x341 build/app_app.a(tinyprintf.o)
 .debug_abbrev  0x000000000000357c      0x1dd build/app_app.a(unix_time.o)
 .debug_abbrev  0x0000000000003759      0x1c7 build/app_app.a(cgi.o)
 .debug_abbrev  0x0000000000003920      0x1e0 build/app_app.a(httpdespfs.o)
 .debug_abbrev  0x0000000000003b00      0x315 build/app_app.a(cgiwifi.o)
 .debug_abbrev  0x0000000000003e15      0x1b7 build/app_app.a(espfs.o)
 .debug_abbrev  0x0000000000003fcc      0x2ad build/app_app.a(heatshrink_decoder.o)
 .debug_abbrev  0x0000000000004279      0x1fc build/app_app.a(utils.o)
 .debug_abbrev  0x0000000000004475       0xe2 build/app_app.a(ringbuf.o)
 .debug_abbrev  0x0000000000004557      0x1cc /home/stoffer/esp8266/esp-open-sdk/xtensa-lx106-elf/bin/../lib/gcc/xtensa-lx106-elf/4.8.2/../../../../xtensa-lx106-elf/lib/libc.a(lib_a-atoi.o)
 .debug_abbrev  0x0000000000004723      0x1d7 /home/stoffer/esp8266/esp-open-sdk/xtensa-lx106-elf/bin/../lib/gcc/xtensa-lx106-elf/4.8.2/../../../../xtensa-lx106-elf/lib/libc.a(lib_a-gmtime.o)
 .debug_abbrev  0x00000000000048fa       0xce /home/stoffer/esp8266/esp-open-sdk/xtensa-lx106-elf/bin/../lib/gcc/xtensa-lx106-elf/4.8.2/../../../../xtensa-lx106-elf/lib/libc.a(lib_a-gmtime_r.o)
 .debug_abbrev  0x00000000000049c8      0x17e /home/stoffer/esp8266/esp-open-sdk/xtensa-lx106-elf/bin/../lib/gcc/xtensa-lx106-elf/4.8.2/../../../../xtensa-lx106-elf/lib/libc.a(lib_a-impure.o)
 .debug_abbrev  0x0000000000004b46       0x14 /home/stoffer/esp8266/esp-open-sdk/xtensa-lx106-elf/bin/../lib/gcc/xtensa-lx106-elf/4.8.2/../../../../xtensa-lx106-elf/lib/libc.a(lib_a-memcpy.o)
 .debug_abbrev  0x0000000000004b5a       0x14 /home/stoffer/esp8266/esp-open-sdk/xtensa-lx106-elf/bin/../lib/gcc/xtensa-lx106-elf/4.8.2/../../../../xtensa-lx106-elf/lib/libc.a(lib_a-memset.o)
 .debug_abbrev  0x0000000000004b6e      0x167 /home/stoffer/esp8266/esp-open-sdk/xtensa-lx106-elf/bin/../lib/gcc/xtensa-lx106-elf/4.8.2/../../../../xtensa-lx106-elf/lib/libc.a(lib_a-mktm_r.o)
 .debug_abbrev  0x0000000000004cd5       0x70 /home/stoffer/esp8266/esp-open-sdk/xtensa-lx106-elf/bin/../lib/gcc/xtensa-lx106-elf/4.8.2/../../../../xtensa-lx106-elf/lib/libc.a(lib_a-strcat.o)
 .debug_abbrev  0x0000000000004d45       0x14 /home/stoffer/esp8266/esp-open-sdk/xtensa-lx106-elf/bin/../lib/gcc/xtensa-lx106-elf/4.8.2/../../../../xtensa-lx106-elf/lib/libc.a(lib_a-strlen.o)
 .debug_abbrev  0x0000000000004d59      0x1d9 /home/stoffer/esp8266/esp-open-sdk/xtensa-lx106-elf/bin/../lib/gcc/xtensa-lx106-elf/4.8.2/../../../../xtensa-lx106-elf/lib/libc.a(lib_a-strtok.o)
 .debug_abbrev  0x0000000000004f32       0xe8 /home/stoffer/esp8266/esp-open-sdk/xtensa-lx106-elf/bin/../lib/gcc/xtensa-lx106-elf/4.8.2/../../../../xtensa-lx106-elf/lib/libc.a(lib_a-strtok_r.o)
 .debug_abbrev  0x000000000000501a      0x20f /home/stoffer/esp8266/esp-open-sdk/xtensa-lx106-elf/bin/../lib/gcc/xtensa-lx106-elf/4.8.2/../../../../xtensa-lx106-elf/lib/libc.a(lib_a-strtol.o)
 .debug_abbrev  0x0000000000005229       0x4f /home/stoffer/esp8266/esp-open-sdk/xtensa-lx106-elf/bin/../lib/gcc/xtensa-lx106-elf/4.8.2/../../../../xtensa-lx106-elf/lib/libc.a(lib_a-tzlock.o)
 .debug_abbrev  0x0000000000005278       0x50 /home/stoffer/esp8266/esp-open-sdk/xtensa-lx106-elf/bin/../lib/gcc/xtensa-lx106-elf/4.8.2/../../../../xtensa-lx106-elf/lib/libc.a(lib_a-tzvars.o)
 .debug_abbrev  0x00000000000052c8       0x4c /home/stoffer/esp8266/esp-open-sdk/xtensa-lx106-elf/bin/../lib/gcc/xtensa-lx106-elf/4.8.2/../../../../xtensa-lx106-elf/lib/libc.a(lib_a-ctype_.o)
 .debug_abbrev  0x0000000000005314       0xa6 /home/stoffer/esp8266/esp-open-sdk/xtensa-lx106-elf/bin/../lib/gcc/xtensa-lx106-elf/4.8.2/../../../../xtensa-lx106-elf/lib/libc.a(lib_a-gettzinfo.o)
 .debug_abbrev  0x00000000000053ba       0x14 /home/stoffer/esp8266/esp-open-sdk/xtensa-lx106-elf/bin/../lib/gcc/xtensa-lx106-elf/4.8.2/libgcc.a(_divsi3.o)
 .debug_abbrev  0x00000000000053ce       0x14 /home/stoffer/esp8266/esp-open-sdk/xtensa-lx106-elf/bin/../lib/gcc/xtensa-lx106-elf/4.8.2/libgcc.a(_modsi3.o)
 .debug_abbrev  0x00000000000053e2       0x14 /home/stoffer/esp8266/esp-open-sdk/xtensa-lx106-elf/bin/../lib/gcc/xtensa-lx106-elf/4.8.2/libgcc.a(_muldf3.o)
 .debug_abbrev  0x00000000000053f6       0x14 /home/stoffer/esp8266/esp-open-sdk/xtensa-lx106-elf/bin/../lib/gcc/xtensa-lx106-elf/4.8.2/libgcc.a(_divdf3.o)
 .debug_abbrev  0x000000000000540a       0x14 /home/stoffer/esp8266/esp-open-sdk/xtensa-lx106-elf/bin/../lib/gcc/xtensa-lx106-elf/4.8.2/libgcc.a(_floatsidf.o)
 .debug_abbrev  0x000000000000541e      0x194 /home/stoffer/esp8266/esp-open-sdk/xtensa-lx106-elf/bin/../lib/gcc/xtensa-lx106-elf/4.8.2/libgcc.a(_udivdi3.o)
 .debug_abbrev  0x00000000000055b2      0x1a3 /home/stoffer/esp8266/esp-open-sdk/xtensa-lx106-elf/bin/../lib/gcc/xtensa-lx106-elf/4.8.2/libgcc.a(_umoddi3.o)
 .debug_abbrev  0x0000000000005755       0x14 /home/stoffer/esp8266/esp-open-sdk/xtensa-lx106-elf/bin/../lib/gcc/xtensa-lx106-elf/4.8.2/libgcc.a(_ashrdi3.o)
 .debug_abbrev  0x0000000000005769       0x14 /home/stoffer/esp8266/esp-open-sdk/xtensa-lx106-elf/bin/../lib/gcc/xtensa-lx106-elf/4.8.2/libgcc.a(_addsubsf3.o)
 .debug_abbrev  0x000000000000577d       0x14 /home/stoffer/esp8266/esp-open-sdk/xtensa-lx106-elf/bin/../lib/gcc/xtensa-lx106-elf/4.8.2/libgcc.a(_mulsf3.o)
 .debug_abbrev  0x0000000000005791       0x14 /home/stoffer/esp8266/esp-open-sdk/xtensa-lx106-elf/bin/../lib/gcc/xtensa-lx106-elf/4.8.2/libgcc.a(_divsf3.o)
 .debug_abbrev  0x00000000000057a5       0x14 /home/stoffer/esp8266/esp-open-sdk/xtensa-lx106-elf/bin/../lib/gcc/xtensa-lx106-elf/4.8.2/libgcc.a(_fixsfsi.o)
 .debug_abbrev  0x00000000000057b9       0x14 /home/stoffer/esp8266/esp-open-sdk/xtensa-lx106-elf/bin/../lib/gcc/xtensa-lx106-elf/4.8.2/libgcc.a(_fixunssfsi.o)
 .debug_abbrev  0x00000000000057cd       0x14 /home/stoffer/esp8266/esp-open-sdk/xtensa-lx106-elf/bin/../lib/gcc/xtensa-lx106-elf/4.8.2/libgcc.a(_floatsisf.o)
 .debug_abbrev  0x00000000000057e1       0x14 /home/stoffer/esp8266/esp-open-sdk/xtensa-lx106-elf/bin/../lib/gcc/xtensa-lx106-elf/4.8.2/libgcc.a(_fixdfsi.o)
 .debug_abbrev  0x00000000000057f5       0x14 /home/stoffer/esp8266/esp-open-sdk/xtensa-lx106-elf/bin/../lib/gcc/xtensa-lx106-elf/4.8.2/libgcc.a(_truncdfsf2.o)
 .debug_abbrev  0x0000000000005809      0x1a3 /home/stoffer/esp8266/esp-open-sdk/xtensa-lx106-elf/bin/../lib/gcc/xtensa-lx106-elf/4.8.2/libgcc.a(_divdi3.o)

.debug_aranges  0x0000000000000000      0xe30
 .debug_aranges
                0x0000000000000000       0x20 /home/stoffer/esp8266/esp-open-sdk/xtensa-lx106-elf/bin/../lib/gcc/xtensa-lx106-elf/4.8.2/libgcc.a(_udivsi3.o)
 .debug_aranges
                0x0000000000000020       0x20 /home/stoffer/esp8266/esp-open-sdk/xtensa-lx106-elf/bin/../lib/gcc/xtensa-lx106-elf/4.8.2/libgcc.a(_umodsi3.o)
 .debug_aranges
                0x0000000000000040       0x20 /home/stoffer/esp8266/esp-open-sdk/xtensa-lx106-elf/bin/../lib/gcc/xtensa-lx106-elf/4.8.2/libgcc.a(_muldi3.o)
 .debug_aranges
                0x0000000000000060       0x20 /home/stoffer/esp8266/esp-open-sdk/xtensa-lx106-elf/bin/../lib/gcc/xtensa-lx106-elf/4.8.2/libgcc.a(_umulsidi3.o)
 .debug_aranges
                0x0000000000000080       0x70 build/app_app.a(user_main.o)
 .debug_aranges
                0x00000000000000f0       0x30 build/app_app.a(captdns.o)
 .debug_aranges
                0x0000000000000120       0x50 build/app_app.a(led.o)
 .debug_aranges
                0x0000000000000170       0xc0 build/app_app.a(httpd.o)
 .debug_aranges
                0x0000000000000230       0x20 build/app_app.a(httpd_user_init.o)
 .debug_aranges
                0x0000000000000250       0x30 build/app_app.a(crypto.o)
 .debug_aranges
                0x0000000000000280       0x38 build/app_app.a(hmac-sha256.o)
 .debug_aranges
                0x00000000000002b8       0x58 build/app_app.a(sha256.o)
 .debug_aranges
                0x0000000000000310       0x58 build/app_app.a(aes.o)
 .debug_aranges
                0x0000000000000368       0x60 build/app_app.a(kmp_request.o)
 .debug_aranges
                0x00000000000003c8       0x70 build/app_app.a(kmp.o)
 .debug_aranges
                0x0000000000000438       0x38 build/app_app.a(cron.o)
 .debug_aranges
                0x0000000000000470       0x70 build/app_app.a(ac_out.o)
 .debug_aranges
                0x00000000000004e0       0x58 build/app_app.a(uart.o)
 .debug_aranges
                0x0000000000000538       0xe0 build/app_app.a(mqtt.o)
 .debug_aranges
                0x0000000000000618       0xb0 build/app_app.a(mqtt_msg.o)
 .debug_aranges
                0x00000000000006c8       0x38 build/app_app.a(queue.o)
 .debug_aranges
                0x0000000000000700       0x30 build/app_app.a(mqtt_utils.o)
 .debug_aranges
                0x0000000000000730       0x48 build/app_app.a(proto.o)
 .debug_aranges
                0x0000000000000778       0x38 build/app_app.a(config.o)
 .debug_aranges
                0x00000000000007b0       0x48 build/app_app.a(wifi.o)
 .debug_aranges
                0x00000000000007f8       0x80 build/app_app.a(tinyprintf.o)
 .debug_aranges
                0x0000000000000878       0x40 build/app_app.a(unix_time.o)
 .debug_aranges
                0x00000000000008b8       0x38 build/app_app.a(cgi.o)
 .debug_aranges
                0x00000000000008f0       0x28 build/app_app.a(httpdespfs.o)
 .debug_aranges
                0x0000000000000918       0x48 build/app_app.a(cgiwifi.o)
 .debug_aranges
                0x0000000000000960       0x38 build/app_app.a(espfs.o)
 .debug_aranges
                0x0000000000000998       0x20 build/app_app.a(heatshrink_decoder.o)
 .debug_aranges
                0x00000000000009b8       0x40 build/app_app.a(utils.o)
 .debug_aranges
                0x00000000000009f8       0x30 build/app_app.a(ringbuf.o)
 .debug_aranges
                0x0000000000000a28       0x20 /home/stoffer/esp8266/esp-open-sdk/xtensa-lx106-elf/bin/../lib/gcc/xtensa-lx106-elf/4.8.2/../../../../xtensa-lx106-elf/lib/libc.a(lib_a-atoi.o)
 .debug_aranges
                0x0000000000000a48       0x20 /home/stoffer/esp8266/esp-open-sdk/xtensa-lx106-elf/bin/../lib/gcc/xtensa-lx106-elf/4.8.2/../../../../xtensa-lx106-elf/lib/libc.a(lib_a-gmtime.o)
 .debug_aranges
                0x0000000000000a68       0x20 /home/stoffer/esp8266/esp-open-sdk/xtensa-lx106-elf/bin/../lib/gcc/xtensa-lx106-elf/4.8.2/../../../../xtensa-lx106-elf/lib/libc.a(lib_a-gmtime_r.o)
 .debug_aranges
                0x0000000000000a88       0x18 /home/stoffer/esp8266/esp-open-sdk/xtensa-lx106-elf/bin/../lib/gcc/xtensa-lx106-elf/4.8.2/../../../../xtensa-lx106-elf/lib/libc.a(lib_a-impure.o)
 .debug_aranges
                0x0000000000000aa0       0x20 /home/stoffer/esp8266/esp-open-sdk/xtensa-lx106-elf/bin/../lib/gcc/xtensa-lx106-elf/4.8.2/../../../../xtensa-lx106-elf/lib/libc.a(lib_a-memcpy.o)
 .debug_aranges
                0x0000000000000ac0       0x20 /home/stoffer/esp8266/esp-open-sdk/xtensa-lx106-elf/bin/../lib/gcc/xtensa-lx106-elf/4.8.2/../../../../xtensa-lx106-elf/lib/libc.a(lib_a-memset.o)
 .debug_aranges
                0x0000000000000ae0       0x20 /home/stoffer/esp8266/esp-open-sdk/xtensa-lx106-elf/bin/../lib/gcc/xtensa-lx106-elf/4.8.2/../../../../xtensa-lx106-elf/lib/libc.a(lib_a-mktm_r.o)
 .debug_aranges
                0x0000000000000b00       0x20 /home/stoffer/esp8266/esp-open-sdk/xtensa-lx106-elf/bin/../lib/gcc/xtensa-lx106-elf/4.8.2/../../../../xtensa-lx106-elf/lib/libc.a(lib_a-strcat.o)
 .debug_aranges
                0x0000000000000b20       0x20 /home/stoffer/esp8266/esp-open-sdk/xtensa-lx106-elf/bin/../lib/gcc/xtensa-lx106-elf/4.8.2/../../../../xtensa-lx106-elf/lib/libc.a(lib_a-strlen.o)
 .debug_aranges
                0x0000000000000b40       0x20 /home/stoffer/esp8266/esp-open-sdk/xtensa-lx106-elf/bin/../lib/gcc/xtensa-lx106-elf/4.8.2/../../../../xtensa-lx106-elf/lib/libc.a(lib_a-strtok.o)
 .debug_aranges
                0x0000000000000b60       0x20 /home/stoffer/esp8266/esp-open-sdk/xtensa-lx106-elf/bin/../lib/gcc/xtensa-lx106-elf/4.8.2/../../../../xtensa-lx106-elf/lib/libc.a(lib_a-strtok_r.o)
 .debug_aranges
                0x0000000000000b80       0x20 /home/stoffer/esp8266/esp-open-sdk/xtensa-lx106-elf/bin/../lib/gcc/xtensa-lx106-elf/4.8.2/../../../../xtensa-lx106-elf/lib/libc.a(lib_a-strtol.o)
 .debug_aranges
                0x0000000000000ba0       0x20 /home/stoffer/esp8266/esp-open-sdk/xtensa-lx106-elf/bin/../lib/gcc/xtensa-lx106-elf/4.8.2/../../../../xtensa-lx106-elf/lib/libc.a(lib_a-tzlock.o)
 .debug_aranges
                0x0000000000000bc0       0x18 /home/stoffer/esp8266/esp-open-sdk/xtensa-lx106-elf/bin/../lib/gcc/xtensa-lx106-elf/4.8.2/../../../../xtensa-lx106-elf/lib/libc.a(lib_a-tzvars.o)
 .debug_aranges
                0x0000000000000bd8       0x18 /home/stoffer/esp8266/esp-open-sdk/xtensa-lx106-elf/bin/../lib/gcc/xtensa-lx106-elf/4.8.2/../../../../xtensa-lx106-elf/lib/libc.a(lib_a-ctype_.o)
 .debug_aranges
                0x0000000000000bf0       0x20 /home/stoffer/esp8266/esp-open-sdk/xtensa-lx106-elf/bin/../lib/gcc/xtensa-lx106-elf/4.8.2/../../../../xtensa-lx106-elf/lib/libc.a(lib_a-gettzinfo.o)
 .debug_aranges
                0x0000000000000c10       0x20 /home/stoffer/esp8266/esp-open-sdk/xtensa-lx106-elf/bin/../lib/gcc/xtensa-lx106-elf/4.8.2/libgcc.a(_divsi3.o)
 .debug_aranges
                0x0000000000000c30       0x20 /home/stoffer/esp8266/esp-open-sdk/xtensa-lx106-elf/bin/../lib/gcc/xtensa-lx106-elf/4.8.2/libgcc.a(_modsi3.o)
 .debug_aranges
                0x0000000000000c50       0x20 /home/stoffer/esp8266/esp-open-sdk/xtensa-lx106-elf/bin/../lib/gcc/xtensa-lx106-elf/4.8.2/libgcc.a(_muldf3.o)
 .debug_aranges
                0x0000000000000c70       0x20 /home/stoffer/esp8266/esp-open-sdk/xtensa-lx106-elf/bin/../lib/gcc/xtensa-lx106-elf/4.8.2/libgcc.a(_divdf3.o)
 .debug_aranges
                0x0000000000000c90       0x20 /home/stoffer/esp8266/esp-open-sdk/xtensa-lx106-elf/bin/../lib/gcc/xtensa-lx106-elf/4.8.2/libgcc.a(_floatsidf.o)
 .debug_aranges
                0x0000000000000cb0       0x20 /home/stoffer/esp8266/esp-open-sdk/xtensa-lx106-elf/bin/../lib/gcc/xtensa-lx106-elf/4.8.2/libgcc.a(_udivdi3.o)
 .debug_aranges
                0x0000000000000cd0       0x20 /home/stoffer/esp8266/esp-open-sdk/xtensa-lx106-elf/bin/../lib/gcc/xtensa-lx106-elf/4.8.2/libgcc.a(_umoddi3.o)
 .debug_aranges
                0x0000000000000cf0       0x20 /home/stoffer/esp8266/esp-open-sdk/xtensa-lx106-elf/bin/../lib/gcc/xtensa-lx106-elf/4.8.2/libgcc.a(_ashrdi3.o)
 .debug_aranges
                0x0000000000000d10       0x20 /home/stoffer/esp8266/esp-open-sdk/xtensa-lx106-elf/bin/../lib/gcc/xtensa-lx106-elf/4.8.2/libgcc.a(_addsubsf3.o)
 .debug_aranges
                0x0000000000000d30       0x20 /home/stoffer/esp8266/esp-open-sdk/xtensa-lx106-elf/bin/../lib/gcc/xtensa-lx106-elf/4.8.2/libgcc.a(_mulsf3.o)
 .debug_aranges
                0x0000000000000d50       0x20 /home/stoffer/esp8266/esp-open-sdk/xtensa-lx106-elf/bin/../lib/gcc/xtensa-lx106-elf/4.8.2/libgcc.a(_divsf3.o)
 .debug_aranges
                0x0000000000000d70       0x20 /home/stoffer/esp8266/esp-open-sdk/xtensa-lx106-elf/bin/../lib/gcc/xtensa-lx106-elf/4.8.2/libgcc.a(_fixsfsi.o)
 .debug_aranges
                0x0000000000000d90       0x20 /home/stoffer/esp8266/esp-open-sdk/xtensa-lx106-elf/bin/../lib/gcc/xtensa-lx106-elf/4.8.2/libgcc.a(_fixunssfsi.o)
 .debug_aranges
                0x0000000000000db0       0x20 /home/stoffer/esp8266/esp-open-sdk/xtensa-lx106-elf/bin/../lib/gcc/xtensa-lx106-elf/4.8.2/libgcc.a(_floatsisf.o)
 .debug_aranges
                0x0000000000000dd0       0x20 /home/stoffer/esp8266/esp-open-sdk/xtensa-lx106-elf/bin/../lib/gcc/xtensa-lx106-elf/4.8.2/libgcc.a(_fixdfsi.o)
 .debug_aranges
                0x0000000000000df0       0x20 /home/stoffer/esp8266/esp-open-sdk/xtensa-lx106-elf/bin/../lib/gcc/xtensa-lx106-elf/4.8.2/libgcc.a(_truncdfsf2.o)
 .debug_aranges
                0x0000000000000e10       0x20 /home/stoffer/esp8266/esp-open-sdk/xtensa-lx106-elf/bin/../lib/gcc/xtensa-lx106-elf/4.8.2/libgcc.a(_divdi3.o)

.debug_frame    0x0000000000000000     0x23dc
 .debug_frame   0x0000000000000000       0x3c /home/stoffer/esp8266/esp-open-sdk/xtensa-lx106-elf/bin/../lib/gcc/xtensa-lx106-elf/4.8.2/libgcc.a(_muldi3.o)
 .debug_frame   0x000000000000003c      0x17c build/app_app.a(user_main.o)
 .debug_frame   0x00000000000001b8       0x8c build/app_app.a(captdns.o)
 .debug_frame   0x0000000000000244      0x100 build/app_app.a(led.o)
 .debug_frame   0x0000000000000344      0x348 build/app_app.a(httpd.o)
 .debug_frame   0x000000000000068c       0x50 build/app_app.a(httpd_user_init.o)
 .debug_frame   0x00000000000006dc       0x98 build/app_app.a(crypto.o)
 .debug_frame   0x0000000000000774       0xb8 build/app_app.a(hmac-sha256.o)
 .debug_frame   0x000000000000082c      0x14c build/app_app.a(sha256.o)
 .debug_frame   0x0000000000000978      0x130 build/app_app.a(aes.o)
 .debug_frame   0x0000000000000aa8      0x14c build/app_app.a(kmp_request.o)
 .debug_frame   0x0000000000000bf4      0x1c0 build/app_app.a(kmp.o)
 .debug_frame   0x0000000000000db4       0xa8 build/app_app.a(cron.o)
 .debug_frame   0x0000000000000e5c      0x174 build/app_app.a(ac_out.o)
 .debug_frame   0x0000000000000fd0       0xf8 build/app_app.a(uart.o)
 .debug_frame   0x00000000000010c8      0x380 build/app_app.a(mqtt.o)
 .debug_frame   0x0000000000001448      0x254 build/app_app.a(mqtt_msg.o)
 .debug_frame   0x000000000000169c       0x8c build/app_app.a(queue.o)
 .debug_frame   0x0000000000001728       0x40 build/app_app.a(mqtt_utils.o)
 .debug_frame   0x0000000000001768       0xe4 build/app_app.a(proto.o)
 .debug_frame   0x000000000000184c       0xb8 build/app_app.a(config.o)
 .debug_frame   0x0000000000001904      0x104 build/app_app.a(wifi.o)
 .debug_frame   0x0000000000001a08      0x1bc build/app_app.a(tinyprintf.o)
 .debug_frame   0x0000000000001bc4       0xac build/app_app.a(unix_time.o)
 .debug_frame   0x0000000000001c70       0xa8 build/app_app.a(cgi.o)
 .debug_frame   0x0000000000001d18       0x6c build/app_app.a(httpdespfs.o)
 .debug_frame   0x0000000000001d84      0x100 build/app_app.a(cgiwifi.o)
 .debug_frame   0x0000000000001e84       0x90 build/app_app.a(espfs.o)
 .debug_frame   0x0000000000001f14       0xf4 build/app_app.a(heatshrink_decoder.o)
 .debug_frame   0x0000000000002008       0x98 build/app_app.a(utils.o)
 .debug_frame   0x00000000000020a0       0x40 build/app_app.a(ringbuf.o)
 .debug_frame   0x00000000000020e0       0x50 /home/stoffer/esp8266/esp-open-sdk/xtensa-lx106-elf/bin/../lib/gcc/xtensa-lx106-elf/4.8.2/../../../../xtensa-lx106-elf/lib/libc.a(lib_a-atoi.o)
 .debug_frame   0x0000000000002130       0x30 /home/stoffer/esp8266/esp-open-sdk/xtensa-lx106-elf/bin/../lib/gcc/xtensa-lx106-elf/4.8.2/../../../../xtensa-lx106-elf/lib/libc.a(lib_a-gmtime.o)
 .debug_frame   0x0000000000002160       0x30 /home/stoffer/esp8266/esp-open-sdk/xtensa-lx106-elf/bin/../lib/gcc/xtensa-lx106-elf/4.8.2/../../../../xtensa-lx106-elf/lib/libc.a(lib_a-gmtime_r.o)
 .debug_frame   0x0000000000002190       0x64 /home/stoffer/esp8266/esp-open-sdk/xtensa-lx106-elf/bin/../lib/gcc/xtensa-lx106-elf/4.8.2/../../../../xtensa-lx106-elf/lib/libc.a(lib_a-mktm_r.o)
 .debug_frame   0x00000000000021f4       0x20 /home/stoffer/esp8266/esp-open-sdk/xtensa-lx106-elf/bin/../lib/gcc/xtensa-lx106-elf/4.8.2/../../../../xtensa-lx106-elf/lib/libc.a(lib_a-strcat.o)
 .debug_frame   0x0000000000002214       0x30 /home/stoffer/esp8266/esp-open-sdk/xtensa-lx106-elf/bin/../lib/gcc/xtensa-lx106-elf/4.8.2/../../../../xtensa-lx106-elf/lib/libc.a(lib_a-strtok.o)
 .debug_frame   0x0000000000002244       0x40 /home/stoffer/esp8266/esp-open-sdk/xtensa-lx106-elf/bin/../lib/gcc/xtensa-lx106-elf/4.8.2/../../../../xtensa-lx106-elf/lib/libc.a(lib_a-strtok_r.o)
 .debug_frame   0x0000000000002284       0x5c /home/stoffer/esp8266/esp-open-sdk/xtensa-lx106-elf/bin/../lib/gcc/xtensa-lx106-elf/4.8.2/../../../../xtensa-lx106-elf/lib/libc.a(lib_a-strtol.o)
 .debug_frame   0x00000000000022e0       0x30 /home/stoffer/esp8266/esp-open-sdk/xtensa-lx106-elf/bin/../lib/gcc/xtensa-lx106-elf/4.8.2/../../../../xtensa-lx106-elf/lib/libc.a(lib_a-tzlock.o)
 .debug_frame   0x0000000000002310       0x20 /home/stoffer/esp8266/esp-open-sdk/xtensa-lx106-elf/bin/../lib/gcc/xtensa-lx106-elf/4.8.2/../../../../xtensa-lx106-elf/lib/libc.a(lib_a-gettzinfo.o)
 .debug_frame   0x0000000000002330       0x38 /home/stoffer/esp8266/esp-open-sdk/xtensa-lx106-elf/bin/../lib/gcc/xtensa-lx106-elf/4.8.2/libgcc.a(_udivdi3.o)
 .debug_frame   0x0000000000002368       0x3c /home/stoffer/esp8266/esp-open-sdk/xtensa-lx106-elf/bin/../lib/gcc/xtensa-lx106-elf/4.8.2/libgcc.a(_umoddi3.o)
 .debug_frame   0x00000000000023a4       0x38 /home/stoffer/esp8266/esp-open-sdk/xtensa-lx106-elf/bin/../lib/gcc/xtensa-lx106-elf/4.8.2/libgcc.a(_divdi3.o)

.debug_loc      0x0000000000000000     0xce0b
 .debug_loc     0x0000000000000000       0x50 /home/stoffer/esp8266/esp-open-sdk/xtensa-lx106-elf/bin/../lib/gcc/xtensa-lx106-elf/4.8.2/libgcc.a(_muldi3.o)
 .debug_loc     0x0000000000000050      0x2ae build/app_app.a(user_main.o)
 .debug_loc     0x00000000000002fe      0xb4c build/app_app.a(captdns.o)
 .debug_loc     0x0000000000000e4a       0x37 build/app_app.a(led.o)
 .debug_loc     0x0000000000000e81      0xc7f build/app_app.a(httpd.o)
 .debug_loc     0x0000000000001b00       0xc6 build/app_app.a(httpd_user_init.o)
 .debug_loc     0x0000000000001bc6      0x2da build/app_app.a(crypto.o)
 .debug_loc     0x0000000000001ea0      0x2f0 build/app_app.a(hmac-sha256.o)
 .debug_loc     0x0000000000002190      0xfd3 build/app_app.a(sha256.o)
 .debug_loc     0x0000000000003163     0x10f1 build/app_app.a(aes.o)
 .debug_loc     0x0000000000004254      0x18c build/app_app.a(kmp_request.o)
 .debug_loc     0x00000000000043e0      0xa9e build/app_app.a(kmp.o)
 .debug_loc     0x0000000000004e7e      0x28a build/app_app.a(cron.o)
 .debug_loc     0x0000000000005108       0xd4 build/app_app.a(ac_out.o)
 .debug_loc     0x00000000000051dc      0x398 build/app_app.a(uart.o)
 .debug_loc     0x0000000000005574      0x9e0 build/app_app.a(mqtt.o)
 .debug_loc     0x0000000000005f54      0xb94 build/app_app.a(mqtt_msg.o)
 .debug_loc     0x0000000000006ae8      0x17a build/app_app.a(queue.o)
 .debug_loc     0x0000000000006c62      0x278 build/app_app.a(mqtt_utils.o)
 .debug_loc     0x0000000000006eda      0x540 build/app_app.a(proto.o)
 .debug_loc     0x000000000000741a       0x5b build/app_app.a(config.o)
 .debug_loc     0x0000000000007475      0x147 build/app_app.a(wifi.o)
 .debug_loc     0x00000000000075bc     0x108a build/app_app.a(tinyprintf.o)
 .debug_loc     0x0000000000008646       0x76 build/app_app.a(unix_time.o)
 .debug_loc     0x00000000000086bc      0x18f build/app_app.a(cgi.o)
 .debug_loc     0x000000000000884b      0x213 build/app_app.a(httpdespfs.o)
 .debug_loc     0x0000000000008a5e      0x406 build/app_app.a(cgiwifi.o)
 .debug_loc     0x0000000000008e64      0x343 build/app_app.a(espfs.o)
 .debug_loc     0x00000000000091a7      0x7ec build/app_app.a(heatshrink_decoder.o)
 .debug_loc     0x0000000000009993      0x584 build/app_app.a(utils.o)
 .debug_loc     0x0000000000009f17       0xd7 build/app_app.a(ringbuf.o)
 .debug_loc     0x0000000000009fee       0x63 /home/stoffer/esp8266/esp-open-sdk/xtensa-lx106-elf/bin/../lib/gcc/xtensa-lx106-elf/4.8.2/../../../../xtensa-lx106-elf/lib/libc.a(lib_a-atoi.o)
 .debug_loc     0x000000000000a051       0x21 /home/stoffer/esp8266/esp-open-sdk/xtensa-lx106-elf/bin/../lib/gcc/xtensa-lx106-elf/4.8.2/../../../../xtensa-lx106-elf/lib/libc.a(lib_a-gmtime.o)
 .debug_loc     0x000000000000a072       0x42 /home/stoffer/esp8266/esp-open-sdk/xtensa-lx106-elf/bin/../lib/gcc/xtensa-lx106-elf/4.8.2/../../../../xtensa-lx106-elf/lib/libc.a(lib_a-gmtime_r.o)
 .debug_loc     0x000000000000a0b4      0x4b0 /home/stoffer/esp8266/esp-open-sdk/xtensa-lx106-elf/bin/../lib/gcc/xtensa-lx106-elf/4.8.2/../../../../xtensa-lx106-elf/lib/libc.a(lib_a-mktm_r.o)
 .debug_loc     0x000000000000a564       0x75 /home/stoffer/esp8266/esp-open-sdk/xtensa-lx106-elf/bin/../lib/gcc/xtensa-lx106-elf/4.8.2/../../../../xtensa-lx106-elf/lib/libc.a(lib_a-strcat.o)
 .debug_loc     0x000000000000a5d9       0x42 /home/stoffer/esp8266/esp-open-sdk/xtensa-lx106-elf/bin/../lib/gcc/xtensa-lx106-elf/4.8.2/../../../../xtensa-lx106-elf/lib/libc.a(lib_a-strtok.o)
 .debug_loc     0x000000000000a61b      0x1aa /home/stoffer/esp8266/esp-open-sdk/xtensa-lx106-elf/bin/../lib/gcc/xtensa-lx106-elf/4.8.2/../../../../xtensa-lx106-elf/lib/libc.a(lib_a-strtok_r.o)
 .debug_loc     0x000000000000a7c5      0x38d /home/stoffer/esp8266/esp-open-sdk/xtensa-lx106-elf/bin/../lib/gcc/xtensa-lx106-elf/4.8.2/../../../../xtensa-lx106-elf/lib/libc.a(lib_a-strtol.o)
 .debug_loc     0x000000000000ab52      0xced /home/stoffer/esp8266/esp-open-sdk/xtensa-lx106-elf/bin/../lib/gcc/xtensa-lx106-elf/4.8.2/libgcc.a(_udivdi3.o)
 .debug_loc     0x000000000000b83f      0xa45 /home/stoffer/esp8266/esp-open-sdk/xtensa-lx106-elf/bin/../lib/gcc/xtensa-lx106-elf/4.8.2/libgcc.a(_umoddi3.o)
 .debug_loc     0x000000000000c284      0xb87 /home/stoffer/esp8266/esp-open-sdk/xtensa-lx106-elf/bin/../lib/gcc/xtensa-lx106-elf/4.8.2/libgcc.a(_divdi3.o)

.debug_str      0x0000000000000000     0x45f5
 .debug_str     0x0000000000000000      0x1d5 /home/stoffer/esp8266/esp-open-sdk/xtensa-lx106-elf/bin/../lib/gcc/xtensa-lx106-elf/4.8.2/libgcc.a(_muldi3.o)
                                        0x20e (size before relaxing)
 .debug_str     0x00000000000001d5      0xf80 build/app_app.a(user_main.o)
                                       0x114c (size before relaxing)
 .debug_str     0x0000000000001155      0x19d build/app_app.a(captdns.o)
                                        0x534 (size before relaxing)
 .debug_str     0x00000000000012f2       0x80 build/app_app.a(led.o)
                                        0x241 (size before relaxing)
 .debug_str     0x0000000000001372      0x371 build/app_app.a(httpd.o)
                                        0x795 (size before relaxing)
 .debug_str     0x00000000000016e3       0x3b build/app_app.a(httpd_user_init.o)
                                        0x3e9 (size before relaxing)
 .debug_str     0x000000000000171e      0x15a build/app_app.a(crypto.o)
                                        0x332 (size before relaxing)
 .debug_str     0x0000000000001878       0x37 build/app_app.a(hmac-sha256.o)
                                        0x23e (size before relaxing)
 .debug_str     0x00000000000018af       0x94 build/app_app.a(sha256.o)
                                        0x238 (size before relaxing)
 .debug_str     0x0000000000001943       0xc9 build/app_app.a(aes.o)
                                        0x281 (size before relaxing)
 .debug_str     0x0000000000001a0c      0x30d build/app_app.a(kmp_request.o)
                                        0xcb4 (size before relaxing)
 .debug_str     0x0000000000001d19      0x178 build/app_app.a(kmp.o)
                                        0x487 (size before relaxing)
 .debug_str     0x0000000000001e91       0x95 build/app_app.a(cron.o)
                                        0x47f (size before relaxing)
 .debug_str     0x0000000000001f26       0xcf build/app_app.a(ac_out.o)
                                        0x439 (size before relaxing)
 .debug_str     0x0000000000001ff5      0x35d build/app_app.a(uart.o)
                                        0x677 (size before relaxing)
 .debug_str     0x0000000000002352      0x556 build/app_app.a(mqtt.o)
                                        0xfc3 (size before relaxing)
 .debug_str     0x00000000000028a8      0x196 build/app_app.a(mqtt_msg.o)
                                        0x67a (size before relaxing)
 .debug_str     0x0000000000002a3e       0x3f build/app_app.a(queue.o)
                                        0x1de (size before relaxing)
 .debug_str     0x0000000000002a7d       0x4d build/app_app.a(mqtt_utils.o)
                                        0x193 (size before relaxing)
 .debug_str     0x0000000000002aca       0xb7 build/app_app.a(proto.o)
                                        0x225 (size before relaxing)
 .debug_str     0x0000000000002b81      0x10c build/app_app.a(config.o)
                                        0x494 (size before relaxing)
 .debug_str     0x0000000000002c8d      0x4f2 build/app_app.a(wifi.o)
                                        0x8cb (size before relaxing)
 .debug_str     0x000000000000317f      0x156 build/app_app.a(tinyprintf.o)
                                        0x2c1 (size before relaxing)
 .debug_str     0x00000000000032d5       0xf8 build/app_app.a(unix_time.o)
                                        0x323 (size before relaxing)
 .debug_str     0x00000000000033cd       0x4f build/app_app.a(cgi.o)
                                        0x44c (size before relaxing)
 .debug_str     0x000000000000341c       0x7d build/app_app.a(httpdespfs.o)
                                        0x46a (size before relaxing)
 .debug_str     0x0000000000003499       0xe3 build/app_app.a(cgiwifi.o)
                                        0x81b (size before relaxing)
 .debug_str     0x000000000000357c      0x2c5 build/app_app.a(espfs.o)
                                        0x480 (size before relaxing)
 .debug_str     0x0000000000003841      0x215 build/app_app.a(heatshrink_decoder.o)
                                        0x5a9 (size before relaxing)
 .debug_str     0x0000000000003a56       0x71 build/app_app.a(utils.o)
                                        0x225 (size before relaxing)
 .debug_str     0x0000000000003ac7        0xf build/app_app.a(ringbuf.o)
                                        0x164 (size before relaxing)
 .debug_str     0x0000000000003ad6      0x41e /home/stoffer/esp8266/esp-open-sdk/xtensa-lx106-elf/bin/../lib/gcc/xtensa-lx106-elf/4.8.2/../../../../xtensa-lx106-elf/lib/libc.a(lib_a-atoi.o)
                                        0x4f5 (size before relaxing)
 .debug_str     0x0000000000003ef4       0x6e /home/stoffer/esp8266/esp-open-sdk/xtensa-lx106-elf/bin/../lib/gcc/xtensa-lx106-elf/4.8.2/../../../../xtensa-lx106-elf/lib/libc.a(lib_a-gmtime.o)
                                        0x546 (size before relaxing)
 .debug_str     0x0000000000003f62       0x69 /home/stoffer/esp8266/esp-open-sdk/xtensa-lx106-elf/bin/../lib/gcc/xtensa-lx106-elf/4.8.2/../../../../xtensa-lx106-elf/lib/libc.a(lib_a-gmtime_r.o)
                                        0x187 (size before relaxing)
 .debug_str     0x0000000000003fcb       0x7f /home/stoffer/esp8266/esp-open-sdk/xtensa-lx106-elf/bin/../lib/gcc/xtensa-lx106-elf/4.8.2/../../../../xtensa-lx106-elf/lib/libc.a(lib_a-impure.o)
                                        0x503 (size before relaxing)
 .debug_str     0x000000000000404a      0x154 /home/stoffer/esp8266/esp-open-sdk/xtensa-lx106-elf/bin/../lib/gcc/xtensa-lx106-elf/4.8.2/../../../../xtensa-lx106-elf/lib/libc.a(lib_a-mktm_r.o)
                                        0x290 (size before relaxing)
 .debug_str     0x000000000000419e       0x61 /home/stoffer/esp8266/esp-open-sdk/xtensa-lx106-elf/bin/../lib/gcc/xtensa-lx106-elf/4.8.2/../../../../xtensa-lx106-elf/lib/libc.a(lib_a-strcat.o)
                                        0x12a (size before relaxing)
 .debug_str     0x00000000000041ff       0x6c /home/stoffer/esp8266/esp-open-sdk/xtensa-lx106-elf/bin/../lib/gcc/xtensa-lx106-elf/4.8.2/../../../../xtensa-lx106-elf/lib/libc.a(lib_a-strtok.o)
                                        0x4fd (size before relaxing)
 .debug_str     0x000000000000426b       0x87 /home/stoffer/esp8266/esp-open-sdk/xtensa-lx106-elf/bin/../lib/gcc/xtensa-lx106-elf/4.8.2/../../../../xtensa-lx106-elf/lib/libc.a(lib_a-strtok_r.o)
                                        0x163 (size before relaxing)
 .debug_str     0x00000000000042f2       0x8e /home/stoffer/esp8266/esp-open-sdk/xtensa-lx106-elf/bin/../lib/gcc/xtensa-lx106-elf/4.8.2/../../../../xtensa-lx106-elf/lib/libc.a(lib_a-strtol.o)
                                        0x528 (size before relaxing)
 .debug_str     0x0000000000004380       0x70 /home/stoffer/esp8266/esp-open-sdk/xtensa-lx106-elf/bin/../lib/gcc/xtensa-lx106-elf/4.8.2/../../../../xtensa-lx106-elf/lib/libc.a(lib_a-tzlock.o)
                                        0x148 (size before relaxing)
 .debug_str     0x00000000000043f0       0x67 /home/stoffer/esp8266/esp-open-sdk/xtensa-lx106-elf/bin/../lib/gcc/xtensa-lx106-elf/4.8.2/../../../../xtensa-lx106-elf/lib/libc.a(lib_a-tzvars.o)
                                        0x13d (size before relaxing)
 .debug_str     0x0000000000004457       0x68 /home/stoffer/esp8266/esp-open-sdk/xtensa-lx106-elf/bin/../lib/gcc/xtensa-lx106-elf/4.8.2/../../../../xtensa-lx106-elf/lib/libc.a(lib_a-ctype_.o)
                                         0xb4 (size before relaxing)
 .debug_str     0x00000000000044bf       0x62 /home/stoffer/esp8266/esp-open-sdk/xtensa-lx106-elf/bin/../lib/gcc/xtensa-lx106-elf/4.8.2/../../../../xtensa-lx106-elf/lib/libc.a(lib_a-gettzinfo.o)
                                        0x1a4 (size before relaxing)
 .debug_str     0x0000000000004521       0xc1 /home/stoffer/esp8266/esp-open-sdk/xtensa-lx106-elf/bin/../lib/gcc/xtensa-lx106-elf/4.8.2/libgcc.a(_udivdi3.o)
                                        0x265 (size before relaxing)
 .debug_str     0x00000000000045e2        0xa /home/stoffer/esp8266/esp-open-sdk/xtensa-lx106-elf/bin/../lib/gcc/xtensa-lx106-elf/4.8.2/libgcc.a(_umoddi3.o)
                                        0x265 (size before relaxing)
 .debug_str     0x00000000000045ec        0x9 /home/stoffer/esp8266/esp-open-sdk/xtensa-lx106-elf/bin/../lib/gcc/xtensa-lx106-elf/4.8.2/libgcc.a(_divdi3.o)
                                        0x264 (size before relaxing)

.debug_ranges   0x0000000000000000     0x1410
 .debug_ranges  0x0000000000000000       0x60 build/app_app.a(user_main.o)
 .debug_ranges  0x0000000000000060      0x228 build/app_app.a(captdns.o)
 .debug_ranges  0x0000000000000288       0x40 build/app_app.a(led.o)
 .debug_ranges  0x00000000000002c8      0x118 build/app_app.a(httpd.o)
 .debug_ranges  0x00000000000003e0       0x20 build/app_app.a(crypto.o)
 .debug_ranges  0x0000000000000400       0x28 build/app_app.a(hmac-sha256.o)
 .debug_ranges  0x0000000000000428       0x90 build/app_app.a(sha256.o)
 .debug_ranges  0x00000000000004b8      0x508 build/app_app.a(aes.o)
 .debug_ranges  0x00000000000009c0       0xb0 build/app_app.a(kmp_request.o)
 .debug_ranges  0x0000000000000a70       0xe8 build/app_app.a(kmp.o)
 .debug_ranges  0x0000000000000b58       0x28 build/app_app.a(cron.o)
 .debug_ranges  0x0000000000000b80       0x60 build/app_app.a(ac_out.o)
 .debug_ranges  0x0000000000000be0       0xd8 build/app_app.a(uart.o)
 .debug_ranges  0x0000000000000cb8      0x118 build/app_app.a(mqtt.o)
 .debug_ranges  0x0000000000000dd0      0x118 build/app_app.a(mqtt_msg.o)
 .debug_ranges  0x0000000000000ee8       0x28 build/app_app.a(queue.o)
 .debug_ranges  0x0000000000000f10       0x38 build/app_app.a(mqtt_utils.o)
 .debug_ranges  0x0000000000000f48       0x58 build/app_app.a(proto.o)
 .debug_ranges  0x0000000000000fa0       0x28 build/app_app.a(config.o)
 .debug_ranges  0x0000000000000fc8       0x38 build/app_app.a(wifi.o)
 .debug_ranges  0x0000000000001000       0xf8 build/app_app.a(tinyprintf.o)
 .debug_ranges  0x00000000000010f8       0x30 build/app_app.a(unix_time.o)
 .debug_ranges  0x0000000000001128       0x28 build/app_app.a(cgi.o)
 .debug_ranges  0x0000000000001150       0x18 build/app_app.a(httpdespfs.o)
 .debug_ranges  0x0000000000001168       0x38 build/app_app.a(cgiwifi.o)
 .debug_ranges  0x00000000000011a0       0x28 build/app_app.a(espfs.o)
 .debug_ranges  0x00000000000011c8       0x80 build/app_app.a(heatshrink_decoder.o)
 .debug_ranges  0x0000000000001248       0x30 build/app_app.a(utils.o)
 .debug_ranges  0x0000000000001278       0x20 build/app_app.a(ringbuf.o)
 .debug_ranges  0x0000000000001298       0x20 /home/stoffer/esp8266/esp-open-sdk/xtensa-lx106-elf/bin/../lib/gcc/xtensa-lx106-elf/4.8.2/../../../../xtensa-lx106-elf/lib/libc.a(lib_a-mktm_r.o)
 .debug_ranges  0x00000000000012b8       0x60 /home/stoffer/esp8266/esp-open-sdk/xtensa-lx106-elf/bin/../lib/gcc/xtensa-lx106-elf/4.8.2/libgcc.a(_udivdi3.o)
 .debug_ranges  0x0000000000001318       0x98 /home/stoffer/esp8266/esp-open-sdk/xtensa-lx106-elf/bin/../lib/gcc/xtensa-lx106-elf/4.8.2/libgcc.a(_umoddi3.o)
 .debug_ranges  0x00000000000013b0       0x60 /home/stoffer/esp8266/esp-open-sdk/xtensa-lx106-elf/bin/../lib/gcc/xtensa-lx106-elf/4.8.2/libgcc.a(_divdi3.o)

Cross Reference Table

Symbol                                            File
AES128_CBC_decrypt_buffer                         build/app_app.a(aes.o)
                                                  build/app_app.a(crypto.o)
AES128_CBC_encrypt_buffer                         build/app_app.a(aes.o)
                                                  build/app_app.a(crypto.o)
APRecvBcnStartTick                                /home/stoffer/esp8266/esp-open-sdk/sdk/lib/libnet80211.a(ieee80211_hostap.o)
                                                  /home/stoffer/esp8266/esp-open-sdk/sdk/lib/libpp.a(pp.o)
ApFreqCalTimer                                    /home/stoffer/esp8266/esp-open-sdk/sdk/lib/libnet80211.a(ieee80211_hostap.o)
BcnEb_update                                      /home/stoffer/esp8266/esp-open-sdk/sdk/lib/libnet80211.a(ieee80211_hostap.o)
                                                  /home/stoffer/esp8266/esp-open-sdk/sdk/lib/libnet80211.a(ieee80211_mesh_quick.o)
                                                  /home/stoffer/esp8266/esp-open-sdk/sdk/lib/libmain.a(user_interface.o)
BcnWithMcastSendCnt                               /home/stoffer/esp8266/esp-open-sdk/sdk/lib/libnet80211.a(ieee80211_hostap.o)
                                                  /home/stoffer/esp8266/esp-open-sdk/sdk/lib/libpp.a(pp.o)
BcnWithMcastSendStart                             /home/stoffer/esp8266/esp-open-sdk/sdk/lib/libnet80211.a(ieee80211_hostap.o)
Cache_Read_Disable                                /home/stoffer/esp8266/esp-open-sdk/sdk/lib/libmain.a(user_interface.o)
                                                  /home/stoffer/esp8266/esp-open-sdk/sdk/lib/libmain.a(spi_flash.o)
Cache_Read_Disable_2                              /home/stoffer/esp8266/esp-open-sdk/sdk/lib/libmain.a(spi_flash.o)
Cache_Read_Enable                                 /home/stoffer/esp8266/esp-open-sdk/sdk/lib/libmain.a(app_main.o)
Cache_Read_Enable_2                               /home/stoffer/esp8266/esp-open-sdk/sdk/lib/libmain.a(spi_flash.o)
Cache_Read_Enable_New                             /home/stoffer/esp8266/esp-open-sdk/sdk/lib/libmain.a(app_main.o)
                                                  /home/stoffer/esp8266/esp-open-sdk/sdk/lib/libpp.a(pp.o)
                                                  /home/stoffer/esp8266/esp-open-sdk/sdk/lib/libmain.a(spi_flash.o)
                                                  /home/stoffer/esp8266/esp-open-sdk/sdk/lib/libmain.a(mem_manager.o)
CanDoFreqCal                                      /home/stoffer/esp8266/esp-open-sdk/sdk/lib/libpp.a(pp.o)
                                                  /home/stoffer/esp8266/esp-open-sdk/sdk/lib/libnet80211.a(ieee80211_hostap.o)
DefFreqCalTimer                                   /home/stoffer/esp8266/esp-open-sdk/sdk/lib/libpp.a(pp.o)
                                                  /home/stoffer/esp8266/esp-open-sdk/sdk/lib/libnet80211.a(ieee80211_hostap.o)
DefFreqCalTimerCB                                 /home/stoffer/esp8266/esp-open-sdk/sdk/lib/libpp.a(pp.o)
                                                  /home/stoffer/esp8266/esp-open-sdk/sdk/lib/libnet80211.a(ieee80211_hostap.o)
FreqCalCntForScan                                 /home/stoffer/esp8266/esp-open-sdk/sdk/lib/libnet80211.a(ieee80211_scan.o)
                                                  /home/stoffer/esp8266/esp-open-sdk/sdk/lib/libnet80211.a(ieee80211_sta.o)
GetAccess                                         /home/stoffer/esp8266/esp-open-sdk/sdk/lib/libpp.a(lmac.o)
                                                  /home/stoffer/esp8266/esp-open-sdk/sdk/lib/libpp.a(pp.o)
HdlAllBuffedEb                                    /home/stoffer/esp8266/esp-open-sdk/sdk/lib/libpp.a(pp.o)
                                                  /home/stoffer/esp8266/esp-open-sdk/sdk/lib/libnet80211.a(ieee80211_hostap.o)
HighestFreqOffsetInOneChk                         /home/stoffer/esp8266/esp-open-sdk/sdk/lib/libpp.a(pp.o)
                                                  /home/stoffer/esp8266/esp-open-sdk/sdk/lib/libnet80211.a(ieee80211_hostap.o)
LightSleepWakedCbSetFunc                          /home/stoffer/esp8266/esp-open-sdk/sdk/lib/libpp.a(pm.o)
LowestFreqOffsetInOneChk                          /home/stoffer/esp8266/esp-open-sdk/sdk/lib/libpp.a(pp.o)
                                                  /home/stoffer/esp8266/esp-open-sdk/sdk/lib/libnet80211.a(ieee80211_hostap.o)
MQTT_Connect                                      build/app_app.a(mqtt.o)
                                                  build/app_app.a(user_main.o)
MQTT_DeleteClient                                 build/app_app.a(mqtt.o)
MQTT_Disconnect                                   build/app_app.a(mqtt.o)
MQTT_InitClient                                   build/app_app.a(mqtt.o)
                                                  build/app_app.a(user_main.o)
MQTT_InitConnection                               build/app_app.a(mqtt.o)
                                                  build/app_app.a(user_main.o)
MQTT_InitLWT                                      build/app_app.a(mqtt.o)
                                                  build/app_app.a(user_main.o)
MQTT_OnConnected                                  build/app_app.a(mqtt.o)
                                                  build/app_app.a(user_main.o)
MQTT_OnData                                       build/app_app.a(mqtt.o)
                                                  build/app_app.a(user_main.o)
MQTT_OnDisconnected                               build/app_app.a(mqtt.o)
                                                  build/app_app.a(user_main.o)
MQTT_OnPublished                                  build/app_app.a(mqtt.o)
                                                  build/app_app.a(user_main.o)
MQTT_OnTimeout                                    build/app_app.a(mqtt.o)
MQTT_Ping                                         build/app_app.a(mqtt.o)
MQTT_Publish                                      build/app_app.a(mqtt.o)
                                                  build/app_app.a(kmp_request.o)
                                                  build/app_app.a(user_main.o)
MQTT_Subscribe                                    build/app_app.a(mqtt.o)
                                                  build/app_app.a(user_main.o)
MQTT_Task                                         build/app_app.a(mqtt.o)
NMI_Handler                                       /home/stoffer/esp8266/esp-open-sdk/sdk/lib/libmain.a(app_main.o)
                                                  /home/stoffer/esp8266/esp-open-sdk/sdk/lib/libmain.a(nmi-vector.o)
NmiTimSetFunc                                     /home/stoffer/esp8266/esp-open-sdk/sdk/lib/libmain.a(app_main.o)
NoiseTimerInterval                                /home/stoffer/esp8266/esp-open-sdk/sdk/lib/libpp.a(pp.o)
                                                  /home/stoffer/esp8266/esp-open-sdk/sdk/lib/libnet80211.a(ieee80211_hostap.o)
OpmodChgIsOnGoing                                 /home/stoffer/esp8266/esp-open-sdk/sdk/lib/libmain.a(user_interface.o)
PPWdtReset                                        /home/stoffer/esp8266/esp-open-sdk/sdk/lib/libpp.a(pp.o)
                                                  /home/stoffer/esp8266/esp-open-sdk/sdk/lib/libpp.a(wdev.o)
PROTO_Add                                         build/app_app.a(proto.o)
PROTO_AddRb                                       build/app_app.a(proto.o)
                                                  build/app_app.a(queue.o)
PROTO_Init                                        build/app_app.a(proto.o)
PROTO_Parse                                       build/app_app.a(proto.o)
PROTO_ParseByte                                   build/app_app.a(proto.o)
PROTO_ParseRb                                     build/app_app.a(proto.o)
                                                  build/app_app.a(queue.o)
PendFreeBcnEb                                     /home/stoffer/esp8266/esp-open-sdk/sdk/lib/libnet80211.a(ieee80211_hostap.o)
                                                  /home/stoffer/esp8266/esp-open-sdk/sdk/lib/libpp.a(pp.o)
PktNumInOneChk                                    /home/stoffer/esp8266/esp-open-sdk/sdk/lib/libpp.a(pp.o)
                                                  /home/stoffer/esp8266/esp-open-sdk/sdk/lib/libnet80211.a(ieee80211_hostap.o)
QUEUE_Gets                                        build/app_app.a(queue.o)
                                                  build/app_app.a(mqtt.o)
QUEUE_Init                                        build/app_app.a(queue.o)
                                                  build/app_app.a(mqtt.o)
QUEUE_IsEmpty                                     build/app_app.a(queue.o)
                                                  build/app_app.a(mqtt.o)
QUEUE_Puts                                        build/app_app.a(queue.o)
                                                  build/app_app.a(mqtt.o)
RC_GetAckRate                                     /home/stoffer/esp8266/esp-open-sdk/sdk/lib/libpp.a(rate_control.o)
RC_GetAckTime                                     /home/stoffer/esp8266/esp-open-sdk/sdk/lib/libpp.a(rate_control.o)
                                                  /home/stoffer/esp8266/esp-open-sdk/sdk/lib/libpp.a(pp.o)
                                                  /home/stoffer/esp8266/esp-open-sdk/sdk/lib/libpp.a(lmac.o)
RC_GetBlockAckTime                                /home/stoffer/esp8266/esp-open-sdk/sdk/lib/libpp.a(rate_control.o)
                                                  /home/stoffer/esp8266/esp-open-sdk/sdk/lib/libpp.a(pp.o)
RC_GetCtsTime                                     /home/stoffer/esp8266/esp-open-sdk/sdk/lib/libpp.a(rate_control.o)
                                                  /home/stoffer/esp8266/esp-open-sdk/sdk/lib/libpp.a(pp.o)
RC_GetRtsRate                                     /home/stoffer/esp8266/esp-open-sdk/sdk/lib/libpp.a(rate_control.o)
RC_SetBasicRate                                   /home/stoffer/esp8266/esp-open-sdk/sdk/lib/libpp.a(rate_control.o)
                                                  /home/stoffer/esp8266/esp-open-sdk/sdk/lib/libpp.a(lmac.o)
RFChannelSel                                      /home/stoffer/esp8266/esp-open-sdk/sdk/lib/libphy.a(phy.o)
RINGBUF_Get                                       build/app_app.a(ringbuf.o)
                                                  build/app_app.a(proto.o)
RINGBUF_Init                                      build/app_app.a(ringbuf.o)
                                                  build/app_app.a(queue.o)
RINGBUF_Put                                       build/app_app.a(ringbuf.o)
                                                  build/app_app.a(proto.o)
RxNodeNum                                         /home/stoffer/esp8266/esp-open-sdk/sdk/lib/libpp.a(pp.o)
                                                  /home/stoffer/esp8266/esp-open-sdk/sdk/lib/liblwip.a(tcp_in.o)
                                                  /home/stoffer/esp8266/esp-open-sdk/sdk/lib/libnet80211.a(ieee80211_hostap.o)
SDIO_slp_reject                                   /home/stoffer/esp8266/esp-open-sdk/sdk/lib/libphy.a(phy_sleep.o)
SDK_VERSION                                       /home/stoffer/esp8266/esp-open-sdk/sdk/lib/libmain.a(app_main.o)
                                                  /home/stoffer/esp8266/esp-open-sdk/sdk/lib/libmain.a(user_interface.o)
SPIEraseSector                                    /home/stoffer/esp8266/esp-open-sdk/sdk/lib/libmain.a(spi_flash.o)
SPIRead                                           /home/stoffer/esp8266/esp-open-sdk/sdk/lib/libmain.a(spi_flash.o)
                                                  /home/stoffer/esp8266/esp-open-sdk/sdk/lib/libmain.a(app_main.o)
SPIWrite                                          /home/stoffer/esp8266/esp-open-sdk/sdk/lib/libmain.a(spi_flash.o)
SPI_read_status                                   /home/stoffer/esp8266/esp-open-sdk/sdk/lib/libmain.a(spi_flash.o)
SPI_write_enable                                  /home/stoffer/esp8266/esp-open-sdk/sdk/lib/libmain.a(spi_flash.o)
SPI_write_status                                  /home/stoffer/esp8266/esp-open-sdk/sdk/lib/libmain.a(spi_flash.o)
StopLightSleepSetFunc                             /home/stoffer/esp8266/esp-open-sdk/sdk/lib/libpp.a(pm.o)
Te0                                               /home/stoffer/esp8266/esp-open-sdk/sdk/lib/libwpa.a(aes-internal.o)
                                                  /home/stoffer/esp8266/esp-open-sdk/sdk/lib/libwpa.a(aes-internal-enc.o)
TestStaFreqCalValInput                            /home/stoffer/esp8266/esp-open-sdk/sdk/lib/libnet80211.a(ieee80211_scan.o)
                                                  /home/stoffer/esp8266/esp-open-sdk/sdk/lib/libnet80211.a(ieee80211_output.o)
                                                  /home/stoffer/esp8266/esp-open-sdk/sdk/lib/libnet80211.a(ieee80211_hostap.o)
                                                  /home/stoffer/esp8266/esp-open-sdk/sdk/lib/libpp.a(pp.o)
                                                  /home/stoffer/esp8266/esp-open-sdk/sdk/lib/libmain.a(app_main.o)
TmpSTAAPCloseAP                                   /home/stoffer/esp8266/esp-open-sdk/sdk/lib/libnet80211.a(ieee80211_hostap.o)
                                                  /home/stoffer/esp8266/esp-open-sdk/sdk/lib/libpp.a(pp.o)
TxNodeNum                                         /home/stoffer/esp8266/esp-open-sdk/sdk/lib/libpp.a(pp.o)
Tx_Copy2Queue                                     /home/stoffer/esp8266/esp-open-sdk/sdk/lib/libpp.a(wdev.o)
                                                  /home/stoffer/esp8266/esp-open-sdk/sdk/lib/libpp.a(lmac.o)
UTILS_Atoh                                        build/app_app.a(mqtt_utils.o)
UTILS_IsIPV4                                      build/app_app.a(mqtt_utils.o)
UTILS_StrToIP                                     build/app_app.a(mqtt_utils.o)
                                                  build/app_app.a(mqtt.o)
UartDev                                           build/app_app.a(uart.o)
Uart_Init                                         /home/stoffer/esp8266/esp-open-sdk/sdk/lib/libphy.a(phy_chip_v6.o)
Wait_SPI_Idle                                     /home/stoffer/esp8266/esp-open-sdk/sdk/lib/libpp.a(pp.o)
                                                  /home/stoffer/esp8266/esp-open-sdk/sdk/lib/libmain.a(user_interface.o)
                                                  /home/stoffer/esp8266/esp-open-sdk/sdk/lib/libmain.a(spi_flash.o)
                                                  /home/stoffer/esp8266/esp-open-sdk/sdk/lib/libmain.a(mem_manager.o)
                                                  /home/stoffer/esp8266/esp-open-sdk/sdk/lib/libmain.a(app_main.o)
WdevTimOffSet                                     /home/stoffer/esp8266/esp-open-sdk/sdk/lib/libpp.a(wdev.o)
                                                  /home/stoffer/esp8266/esp-open-sdk/sdk/lib/libpp.a(pm_for_bcn_only_mode.o)
                                                  /home/stoffer/esp8266/esp-open-sdk/sdk/lib/libpp.a(pm.o)
                                                  /home/stoffer/esp8266/esp-open-sdk/sdk/lib/libmain.a(user_interface.o)
_DebugExceptionVector                             /home/stoffer/esp8266/esp-open-sdk/sdk/lib/libmain.a(debug-vector.o)
_DoubleExceptionVector                            /home/stoffer/esp8266/esp-open-sdk/sdk/lib/libmain.a(double-vector.o)
_KernelExceptionVector                            /home/stoffer/esp8266/esp-open-sdk/sdk/lib/libmain.a(kernel-vector.o)
_NMIExceptionVector                               /home/stoffer/esp8266/esp-open-sdk/sdk/lib/libmain.a(nmi-vector.o)
_NMILevelVector                                   /home/stoffer/esp8266/esp-open-sdk/sdk/lib/libmain.a(nmi-vector.o)
_Pri_3_HandlerAddress                             /home/stoffer/esp8266/esp-open-sdk/sdk/lib/libmain.a(nmi-vector.o)
_UserExceptionVector                              /home/stoffer/esp8266/esp-open-sdk/sdk/lib/libmain.a(user-vector.o)
_UserExceptionVector_1                            /home/stoffer/esp8266/esp-open-sdk/sdk/lib/libmain.a(user-vector.o)
__addsf3                                          /home/stoffer/esp8266/esp-open-sdk/xtensa-lx106-elf/bin/../lib/gcc/xtensa-lx106-elf/4.8.2/libgcc.a(_addsubsf3.o)
                                                  /home/stoffer/esp8266/esp-open-sdk/sdk/lib/libphy.a(phy_chip_v6_ana.o)
__ashrdi3                                         /home/stoffer/esp8266/esp-open-sdk/xtensa-lx106-elf/bin/../lib/gcc/xtensa-lx106-elf/4.8.2/libgcc.a(_ashrdi3.o)
                                                  /home/stoffer/esp8266/esp-open-sdk/sdk/lib/libphy.a(phy_chip_v6.o)
__ctype_ptr__                                     /home/stoffer/esp8266/esp-open-sdk/xtensa-lx106-elf/bin/../lib/gcc/xtensa-lx106-elf/4.8.2/../../../../xtensa-lx106-elf/lib/libc.a(lib_a-ctype_.o)
                                                  /home/stoffer/esp8266/esp-open-sdk/xtensa-lx106-elf/bin/../lib/gcc/xtensa-lx106-elf/4.8.2/../../../../xtensa-lx106-elf/lib/libc.a(lib_a-strtol.o)
__divdf3                                          /home/stoffer/esp8266/esp-open-sdk/xtensa-lx106-elf/bin/../lib/gcc/xtensa-lx106-elf/4.8.2/libgcc.a(_divdf3.o)
                                                  /home/stoffer/esp8266/esp-open-sdk/sdk/lib/libphy.a(phy_chip_v6.o)
                                                  /home/stoffer/esp8266/esp-open-sdk/sdk/lib/libphy.a(phy_chip_v6_ana.o)
                                                  build/app_app.a(kmp.o)
__divdi3                                          /home/stoffer/esp8266/esp-open-sdk/xtensa-lx106-elf/bin/../lib/gcc/xtensa-lx106-elf/4.8.2/libgcc.a(_divdi3.o)
                                                  /home/stoffer/esp8266/esp-open-sdk/sdk/lib/libphy.a(phy_chip_v6_cal.o)
__divsf3                                          /home/stoffer/esp8266/esp-open-sdk/xtensa-lx106-elf/bin/../lib/gcc/xtensa-lx106-elf/4.8.2/libgcc.a(_divsf3.o)
                                                  /home/stoffer/esp8266/esp-open-sdk/sdk/lib/libphy.a(phy_chip_v6.o)
                                                  /home/stoffer/esp8266/esp-open-sdk/sdk/lib/libphy.a(phy_chip_v6_ana.o)
__divsi3                                          /home/stoffer/esp8266/esp-open-sdk/xtensa-lx106-elf/bin/../lib/gcc/xtensa-lx106-elf/4.8.2/libgcc.a(_divsi3.o)
                                                  /home/stoffer/esp8266/esp-open-sdk/sdk/lib/libwpa.a(wpa_auth.o)
                                                  /home/stoffer/esp8266/esp-open-sdk/sdk/lib/liblwip.a(tcp_in.o)
                                                  /home/stoffer/esp8266/esp-open-sdk/sdk/lib/liblwip.a(sntp.o)
                                                  /home/stoffer/esp8266/esp-open-sdk/sdk/lib/liblwip.a(dhcp.o)
                                                  /home/stoffer/esp8266/esp-open-sdk/sdk/lib/libnet80211.a(ieee80211.o)
                                                  /home/stoffer/esp8266/esp-open-sdk/sdk/lib/libpp.a(pp.o)
                                                  /home/stoffer/esp8266/esp-open-sdk/sdk/lib/libpp.a(pm.o)
                                                  /home/stoffer/esp8266/esp-open-sdk/sdk/lib/libphy.a(phy_chip_v6_cal.o)
                                                  /home/stoffer/esp8266/esp-open-sdk/sdk/lib/libphy.a(phy_chip_v6.o)
                                                  /home/stoffer/esp8266/esp-open-sdk/sdk/lib/libphy.a(phy_chip_v6_ana.o)
                                                  /home/stoffer/esp8266/esp-open-sdk/xtensa-lx106-elf/bin/../lib/gcc/xtensa-lx106-elf/4.8.2/../../../../xtensa-lx106-elf/lib/libc.a(lib_a-mktm_r.o)
                                                  build/app_app.a(utils.o)
                                                  build/app_app.a(kmp.o)
__fixdfsi                                         /home/stoffer/esp8266/esp-open-sdk/xtensa-lx106-elf/bin/../lib/gcc/xtensa-lx106-elf/4.8.2/libgcc.a(_fixdfsi.o)
                                                  /home/stoffer/esp8266/esp-open-sdk/sdk/lib/libphy.a(phy_chip_v6.o)
__fixsfsi                                         /home/stoffer/esp8266/esp-open-sdk/xtensa-lx106-elf/bin/../lib/gcc/xtensa-lx106-elf/4.8.2/libgcc.a(_fixsfsi.o)
                                                  /home/stoffer/esp8266/esp-open-sdk/sdk/lib/libphy.a(phy_chip_v6.o)
__fixunssfsi                                      /home/stoffer/esp8266/esp-open-sdk/xtensa-lx106-elf/bin/../lib/gcc/xtensa-lx106-elf/4.8.2/libgcc.a(_fixunssfsi.o)
                                                  /home/stoffer/esp8266/esp-open-sdk/sdk/lib/libphy.a(phy_chip_v6_ana.o)
__floatsidf                                       /home/stoffer/esp8266/esp-open-sdk/xtensa-lx106-elf/bin/../lib/gcc/xtensa-lx106-elf/4.8.2/libgcc.a(_floatsidf.o)
                                                  /home/stoffer/esp8266/esp-open-sdk/sdk/lib/libphy.a(phy_chip_v6.o)
                                                  build/app_app.a(kmp.o)
__floatsisf                                       /home/stoffer/esp8266/esp-open-sdk/xtensa-lx106-elf/bin/../lib/gcc/xtensa-lx106-elf/4.8.2/libgcc.a(_floatsisf.o)
                                                  /home/stoffer/esp8266/esp-open-sdk/sdk/lib/libphy.a(phy_chip_v6.o)
                                                  /home/stoffer/esp8266/esp-open-sdk/sdk/lib/libphy.a(phy_chip_v6_ana.o)
__floatunsidf                                     /home/stoffer/esp8266/esp-open-sdk/xtensa-lx106-elf/bin/../lib/gcc/xtensa-lx106-elf/4.8.2/libgcc.a(_floatsidf.o)
                                                  /home/stoffer/esp8266/esp-open-sdk/sdk/lib/libphy.a(phy_chip_v6_ana.o)
__floatunsisf                                     /home/stoffer/esp8266/esp-open-sdk/xtensa-lx106-elf/bin/../lib/gcc/xtensa-lx106-elf/4.8.2/libgcc.a(_floatsisf.o)
                                                  /home/stoffer/esp8266/esp-open-sdk/sdk/lib/libphy.a(phy_chip_v6.o)
__gettzinfo                                       /home/stoffer/esp8266/esp-open-sdk/xtensa-lx106-elf/bin/../lib/gcc/xtensa-lx106-elf/4.8.2/../../../../xtensa-lx106-elf/lib/libc.a(lib_a-gettzinfo.o)
                                                  /home/stoffer/esp8266/esp-open-sdk/xtensa-lx106-elf/bin/../lib/gcc/xtensa-lx106-elf/4.8.2/../../../../xtensa-lx106-elf/lib/libc.a(lib_a-mktm_r.o)
__modsi3                                          /home/stoffer/esp8266/esp-open-sdk/xtensa-lx106-elf/bin/../lib/gcc/xtensa-lx106-elf/4.8.2/libgcc.a(_modsi3.o)
                                                  /home/stoffer/esp8266/esp-open-sdk/sdk/lib/libwpa.a(wpa_auth.o)
                                                  /home/stoffer/esp8266/esp-open-sdk/sdk/lib/liblwip.a(sntp.o)
                                                  /home/stoffer/esp8266/esp-open-sdk/sdk/lib/liblwip.a(dns.o)
                                                  /home/stoffer/esp8266/esp-open-sdk/sdk/lib/libnet80211.a(ieee80211_ht.o)
                                                  /home/stoffer/esp8266/esp-open-sdk/sdk/lib/libphy.a(phy_chip_v6.o)
                                                  /home/stoffer/esp8266/esp-open-sdk/xtensa-lx106-elf/bin/../lib/gcc/xtensa-lx106-elf/4.8.2/../../../../xtensa-lx106-elf/lib/libc.a(lib_a-mktm_r.o)
                                                  build/app_app.a(cron.o)
__muldf3                                          /home/stoffer/esp8266/esp-open-sdk/xtensa-lx106-elf/bin/../lib/gcc/xtensa-lx106-elf/4.8.2/libgcc.a(_muldf3.o)
                                                  /home/stoffer/esp8266/esp-open-sdk/sdk/lib/libphy.a(phy_chip_v6.o)
                                                  build/app_app.a(kmp.o)
__muldi3                                          /home/stoffer/esp8266/esp-open-sdk/xtensa-lx106-elf/bin/../lib/gcc/xtensa-lx106-elf/4.8.2/libgcc.a(_muldi3.o)
                                                  /home/stoffer/esp8266/esp-open-sdk/sdk/lib/libphy.a(phy_chip_v6_cal.o)
                                                  /home/stoffer/esp8266/esp-open-sdk/sdk/lib/libphy.a(phy_chip_v6.o)
                                                  build/app_app.a(tinyprintf.o)
                                                  /home/stoffer/esp8266/esp-open-sdk/sdk/lib/libmain.a(user_interface.o)
__mulsf3                                          /home/stoffer/esp8266/esp-open-sdk/xtensa-lx106-elf/bin/../lib/gcc/xtensa-lx106-elf/4.8.2/libgcc.a(_mulsf3.o)
                                                  /home/stoffer/esp8266/esp-open-sdk/sdk/lib/libphy.a(phy_chip_v6.o)
                                                  /home/stoffer/esp8266/esp-open-sdk/sdk/lib/libphy.a(phy_chip_v6_ana.o)
__strtok_r                                        /home/stoffer/esp8266/esp-open-sdk/xtensa-lx106-elf/bin/../lib/gcc/xtensa-lx106-elf/4.8.2/../../../../xtensa-lx106-elf/lib/libc.a(lib_a-strtok_r.o)
                                                  /home/stoffer/esp8266/esp-open-sdk/xtensa-lx106-elf/bin/../lib/gcc/xtensa-lx106-elf/4.8.2/../../../../xtensa-lx106-elf/lib/libc.a(lib_a-strtok.o)
__subsf3                                          /home/stoffer/esp8266/esp-open-sdk/xtensa-lx106-elf/bin/../lib/gcc/xtensa-lx106-elf/4.8.2/libgcc.a(_addsubsf3.o)
                                                  /home/stoffer/esp8266/esp-open-sdk/sdk/lib/libphy.a(phy_chip_v6_ana.o)
__truncdfsf2                                      /home/stoffer/esp8266/esp-open-sdk/xtensa-lx106-elf/bin/../lib/gcc/xtensa-lx106-elf/4.8.2/libgcc.a(_truncdfsf2.o)
                                                  /home/stoffer/esp8266/esp-open-sdk/sdk/lib/libphy.a(phy_chip_v6_ana.o)
__tz_lock                                         /home/stoffer/esp8266/esp-open-sdk/xtensa-lx106-elf/bin/../lib/gcc/xtensa-lx106-elf/4.8.2/../../../../xtensa-lx106-elf/lib/libc.a(lib_a-tzlock.o)
                                                  /home/stoffer/esp8266/esp-open-sdk/xtensa-lx106-elf/bin/../lib/gcc/xtensa-lx106-elf/4.8.2/../../../../xtensa-lx106-elf/lib/libc.a(lib_a-mktm_r.o)
__tz_unlock                                       /home/stoffer/esp8266/esp-open-sdk/xtensa-lx106-elf/bin/../lib/gcc/xtensa-lx106-elf/4.8.2/../../../../xtensa-lx106-elf/lib/libc.a(lib_a-tzlock.o)
                                                  /home/stoffer/esp8266/esp-open-sdk/xtensa-lx106-elf/bin/../lib/gcc/xtensa-lx106-elf/4.8.2/../../../../xtensa-lx106-elf/lib/libc.a(lib_a-mktm_r.o)
__tzcalc_limits                                   /home/stoffer/esp8266/esp-open-sdk/xtensa-lx106-elf/bin/../lib/gcc/xtensa-lx106-elf/4.8.2/../../../../xtensa-lx106-elf/lib/libc.a(lib_a-mktm_r.o)
__tznorth                                         /home/stoffer/esp8266/esp-open-sdk/sdk/lib/liblwip.a(sntp.o)
__tzyear                                          /home/stoffer/esp8266/esp-open-sdk/sdk/lib/liblwip.a(sntp.o)
__udivdi3                                         /home/stoffer/esp8266/esp-open-sdk/xtensa-lx106-elf/bin/../lib/gcc/xtensa-lx106-elf/4.8.2/libgcc.a(_udivdi3.o)
                                                  build/app_app.a(tinyprintf.o)
__udivsi3                                         /home/stoffer/esp8266/esp-open-sdk/xtensa-lx106-elf/bin/../lib/gcc/xtensa-lx106-elf/4.8.2/libgcc.a(_udivsi3.o)
                                                  /home/stoffer/esp8266/esp-open-sdk/xtensa-lx106-elf/bin/../lib/gcc/xtensa-lx106-elf/4.8.2/libgcc.a(_divdi3.o)
                                                  /home/stoffer/esp8266/esp-open-sdk/sdk/lib/liblwip.a(timers.o)
                                                  /home/stoffer/esp8266/esp-open-sdk/sdk/lib/liblwip.a(tcp.o)
                                                  /home/stoffer/esp8266/esp-open-sdk/sdk/lib/liblwip.a(ip_addr.o)
                                                  /home/stoffer/esp8266/esp-open-sdk/sdk/lib/liblwip.a(espconn.o)
                                                  /home/stoffer/esp8266/esp-open-sdk/sdk/lib/liblwip.a(dhcp.o)
                                                  /home/stoffer/esp8266/esp-open-sdk/sdk/lib/libnet80211.a(ieee80211_hostap.o)
                                                  /home/stoffer/esp8266/esp-open-sdk/sdk/lib/libnet80211.a(ieee80211.o)
                                                  /home/stoffer/esp8266/esp-open-sdk/sdk/lib/libpp.a(wdev.o)
                                                  /home/stoffer/esp8266/esp-open-sdk/sdk/lib/libpp.a(trc.o)
                                                  /home/stoffer/esp8266/esp-open-sdk/sdk/lib/libpp.a(pp.o)
                                                  /home/stoffer/esp8266/esp-open-sdk/sdk/lib/libpp.a(pm_for_bcn_only_mode.o)
                                                  /home/stoffer/esp8266/esp-open-sdk/sdk/lib/libpp.a(pm.o)
                                                  /home/stoffer/esp8266/esp-open-sdk/sdk/lib/libphy.a(phy_sleep.o)
                                                  /home/stoffer/esp8266/esp-open-sdk/sdk/lib/libphy.a(phy_chip_v6_cal.o)
                                                  /home/stoffer/esp8266/esp-open-sdk/sdk/lib/libphy.a(phy_chip_v6.o)
                                                  /home/stoffer/esp8266/esp-open-sdk/xtensa-lx106-elf/bin/../lib/gcc/xtensa-lx106-elf/4.8.2/libgcc.a(_umoddi3.o)
                                                  /home/stoffer/esp8266/esp-open-sdk/xtensa-lx106-elf/bin/../lib/gcc/xtensa-lx106-elf/4.8.2/libgcc.a(_udivdi3.o)
                                                  /home/stoffer/esp8266/esp-open-sdk/xtensa-lx106-elf/bin/../lib/gcc/xtensa-lx106-elf/4.8.2/../../../../xtensa-lx106-elf/lib/libc.a(lib_a-strtol.o)
                                                  build/app_app.a(utils.o)
                                                  build/app_app.a(tinyprintf.o)
                                                  build/app_app.a(uart.o)
                                                  build/app_app.a(kmp.o)
                                                  /home/stoffer/esp8266/esp-open-sdk/sdk/lib/libmain.a(eagle_lib.o)
                                                  /home/stoffer/esp8266/esp-open-sdk/sdk/lib/libmain.a(user_interface.o)
                                                  /home/stoffer/esp8266/esp-open-sdk/sdk/lib/libmain.a(ets_timer.o)
                                                  /home/stoffer/esp8266/esp-open-sdk/sdk/lib/libmain.a(app_main.o)
__umoddi3                                         /home/stoffer/esp8266/esp-open-sdk/xtensa-lx106-elf/bin/../lib/gcc/xtensa-lx106-elf/4.8.2/libgcc.a(_umoddi3.o)
                                                  /home/stoffer/esp8266/esp-open-sdk/sdk/lib/libpp.a(pm.o)
                                                  build/app_app.a(tinyprintf.o)
__umodsi3                                         /home/stoffer/esp8266/esp-open-sdk/xtensa-lx106-elf/bin/../lib/gcc/xtensa-lx106-elf/4.8.2/libgcc.a(_umodsi3.o)
                                                  /home/stoffer/esp8266/esp-open-sdk/xtensa-lx106-elf/bin/../lib/gcc/xtensa-lx106-elf/4.8.2/libgcc.a(_divdi3.o)
                                                  /home/stoffer/esp8266/esp-open-sdk/sdk/lib/liblwip.a(tcp.o)
                                                  /home/stoffer/esp8266/esp-open-sdk/sdk/lib/liblwip.a(ip_addr.o)
                                                  /home/stoffer/esp8266/esp-open-sdk/sdk/lib/liblwip.a(igmp.o)
                                                  /home/stoffer/esp8266/esp-open-sdk/sdk/lib/liblwip.a(espconn.o)
                                                  /home/stoffer/esp8266/esp-open-sdk/xtensa-lx106-elf/bin/../lib/gcc/xtensa-lx106-elf/4.8.2/libgcc.a(_umoddi3.o)
                                                  /home/stoffer/esp8266/esp-open-sdk/xtensa-lx106-elf/bin/../lib/gcc/xtensa-lx106-elf/4.8.2/libgcc.a(_udivdi3.o)
                                                  /home/stoffer/esp8266/esp-open-sdk/xtensa-lx106-elf/bin/../lib/gcc/xtensa-lx106-elf/4.8.2/../../../../xtensa-lx106-elf/lib/libc.a(lib_a-strtol.o)
                                                  build/app_app.a(utils.o)
                                                  build/app_app.a(tinyprintf.o)
                                                  /home/stoffer/esp8266/esp-open-sdk/sdk/lib/libmain.a(eagle_lib.o)
__umulsidi3                                       /home/stoffer/esp8266/esp-open-sdk/xtensa-lx106-elf/bin/../lib/gcc/xtensa-lx106-elf/4.8.2/libgcc.a(_umulsidi3.o)
                                                  /home/stoffer/esp8266/esp-open-sdk/xtensa-lx106-elf/bin/../lib/gcc/xtensa-lx106-elf/4.8.2/libgcc.a(_divdi3.o)
                                                  /home/stoffer/esp8266/esp-open-sdk/xtensa-lx106-elf/bin/../lib/gcc/xtensa-lx106-elf/4.8.2/libgcc.a(_umoddi3.o)
                                                  /home/stoffer/esp8266/esp-open-sdk/xtensa-lx106-elf/bin/../lib/gcc/xtensa-lx106-elf/4.8.2/libgcc.a(_udivdi3.o)
                                                  /home/stoffer/esp8266/esp-open-sdk/xtensa-lx106-elf/bin/../lib/gcc/xtensa-lx106-elf/4.8.2/libgcc.a(_muldi3.o)
__wpa_send_eapol                                  /home/stoffer/esp8266/esp-open-sdk/sdk/lib/libwpa.a(wpa_auth.o)
_atoi_r                                           /home/stoffer/esp8266/esp-open-sdk/xtensa-lx106-elf/bin/../lib/gcc/xtensa-lx106-elf/4.8.2/../../../../xtensa-lx106-elf/lib/libc.a(lib_a-atoi.o)
_bss_end                                          /home/stoffer/esp8266/esp-open-sdk/sdk/lib/libmain.a(user_interface.o)
                                                  /home/stoffer/esp8266/esp-open-sdk/sdk/lib/libmain.a(app_main.o)
_bss_start                                        /home/stoffer/esp8266/esp-open-sdk/sdk/lib/libmain.a(user_interface.o)
                                                  /home/stoffer/esp8266/esp-open-sdk/sdk/lib/libmain.a(app_main.o)
_ctype_                                           /home/stoffer/esp8266/esp-open-sdk/xtensa-lx106-elf/bin/../lib/gcc/xtensa-lx106-elf/4.8.2/../../../../xtensa-lx106-elf/lib/libc.a(lib_a-ctype_.o)
_data_end                                         /home/stoffer/esp8266/esp-open-sdk/sdk/lib/libmain.a(user_interface.o)
_data_start                                       /home/stoffer/esp8266/esp-open-sdk/sdk/lib/libmain.a(user_interface.o)
_daylight                                         /home/stoffer/esp8266/esp-open-sdk/xtensa-lx106-elf/bin/../lib/gcc/xtensa-lx106-elf/4.8.2/../../../../xtensa-lx106-elf/lib/libc.a(lib_a-tzvars.o)
                                                  /home/stoffer/esp8266/esp-open-sdk/xtensa-lx106-elf/bin/../lib/gcc/xtensa-lx106-elf/4.8.2/../../../../xtensa-lx106-elf/lib/libc.a(lib_a-mktm_r.o)
_global_impure_ptr                                /home/stoffer/esp8266/esp-open-sdk/xtensa-lx106-elf/bin/../lib/gcc/xtensa-lx106-elf/4.8.2/../../../../xtensa-lx106-elf/lib/libc.a(lib_a-impure.o)
_heap_start                                       /home/stoffer/esp8266/esp-open-sdk/sdk/lib/libmain.a(user_interface.o)
                                                  /home/stoffer/esp8266/esp-open-sdk/sdk/lib/libmain.a(mem_manager.o)
_impure_ptr                                       /home/stoffer/esp8266/esp-open-sdk/xtensa-lx106-elf/bin/../lib/gcc/xtensa-lx106-elf/4.8.2/../../../../xtensa-lx106-elf/lib/libc.a(lib_a-impure.o)
                                                  /home/stoffer/esp8266/esp-open-sdk/xtensa-lx106-elf/bin/../lib/gcc/xtensa-lx106-elf/4.8.2/../../../../xtensa-lx106-elf/lib/libc.a(lib_a-strtol.o)
                                                  /home/stoffer/esp8266/esp-open-sdk/xtensa-lx106-elf/bin/../lib/gcc/xtensa-lx106-elf/4.8.2/../../../../xtensa-lx106-elf/lib/libc.a(lib_a-strtok.o)
                                                  /home/stoffer/esp8266/esp-open-sdk/xtensa-lx106-elf/bin/../lib/gcc/xtensa-lx106-elf/4.8.2/../../../../xtensa-lx106-elf/lib/libc.a(lib_a-gmtime.o)
_mktm_r                                           /home/stoffer/esp8266/esp-open-sdk/xtensa-lx106-elf/bin/../lib/gcc/xtensa-lx106-elf/4.8.2/../../../../xtensa-lx106-elf/lib/libc.a(lib_a-mktm_r.o)
                                                  /home/stoffer/esp8266/esp-open-sdk/xtensa-lx106-elf/bin/../lib/gcc/xtensa-lx106-elf/4.8.2/../../../../xtensa-lx106-elf/lib/libc.a(lib_a-gmtime_r.o)
_rodata_end                                       /home/stoffer/esp8266/esp-open-sdk/sdk/lib/libmain.a(user_interface.o)
_rodata_start                                     /home/stoffer/esp8266/esp-open-sdk/sdk/lib/libmain.a(user_interface.o)
_strtol_r                                         /home/stoffer/esp8266/esp-open-sdk/xtensa-lx106-elf/bin/../lib/gcc/xtensa-lx106-elf/4.8.2/../../../../xtensa-lx106-elf/lib/libc.a(lib_a-strtol.o)
                                                  /home/stoffer/esp8266/esp-open-sdk/xtensa-lx106-elf/bin/../lib/gcc/xtensa-lx106-elf/4.8.2/../../../../xtensa-lx106-elf/lib/libc.a(lib_a-atoi.o)
_timezone                                         /home/stoffer/esp8266/esp-open-sdk/xtensa-lx106-elf/bin/../lib/gcc/xtensa-lx106-elf/4.8.2/../../../../xtensa-lx106-elf/lib/libc.a(lib_a-tzvars.o)
_tzname                                           /home/stoffer/esp8266/esp-open-sdk/xtensa-lx106-elf/bin/../lib/gcc/xtensa-lx106-elf/4.8.2/../../../../xtensa-lx106-elf/lib/libc.a(lib_a-tzvars.o)
_xtos_set_exception_handler                       /home/stoffer/esp8266/esp-open-sdk/sdk/lib/libmain.a(app_main.o)
ac_motor_valve_close                              build/app_app.a(ac_out.o)
ac_motor_valve_open                               build/app_app.a(ac_out.o)
ac_off                                            build/app_app.a(ac_out.o)
                                                  build/app_app.a(cron.o)
                                                  build/app_app.a(user_main.o)
ac_out_init                                       build/app_app.a(ac_out.o)
                                                  build/app_app.a(user_main.o)
ac_pwm_duty_cycle                                 build/app_app.a(ac_out.o)
ac_pwm_state                                      build/app_app.a(ac_out.o)
ac_test                                           build/app_app.a(ac_out.o)
                                                  build/app_app.a(cron.o)
                                                  build/app_app.a(user_main.o)
ac_thermo_close                                   build/app_app.a(ac_out.o)
                                                  build/app_app.a(cron.o)
                                                  build/app_app.a(user_main.o)
ac_thermo_open                                    build/app_app.a(ac_out.o)
                                                  build/app_app.a(cron.o)
                                                  build/app_app.a(user_main.o)
ac_thermo_pwm                                     build/app_app.a(ac_out.o)
                                                  build/app_app.a(user_main.o)
adc_rand_noise                                    /home/stoffer/esp8266/esp-open-sdk/sdk/lib/libphy.a(phy_chip_v6.o)
                                                  /home/stoffer/esp8266/esp-open-sdk/sdk/lib/libphy.a(phy_sleep.o)
add_cron_job_from_query                           build/app_app.a(cron.o)
                                                  build/app_app.a(user_main.o)
aes_encrypt                                       /home/stoffer/esp8266/esp-open-sdk/sdk/lib/libwpa.a(aes-internal-enc.o)
                                                  /home/stoffer/esp8266/esp-open-sdk/sdk/lib/libwpa.a(aes-wrap.o)
aes_encrypt_deinit                                /home/stoffer/esp8266/esp-open-sdk/sdk/lib/libwpa.a(aes-internal-enc.o)
                                                  /home/stoffer/esp8266/esp-open-sdk/sdk/lib/libwpa.a(aes-wrap.o)
aes_encrypt_init                                  /home/stoffer/esp8266/esp-open-sdk/sdk/lib/libwpa.a(aes-internal-enc.o)
                                                  /home/stoffer/esp8266/esp-open-sdk/sdk/lib/libwpa.a(aes-wrap.o)
aes_key                                           build/app_app.a(crypto.o)
aes_unwrap                                        /home/stoffer/esp8266/esp-open-sdk/sdk/lib/libwpa.a(wpa.o)
aes_wrap                                          /home/stoffer/esp8266/esp-open-sdk/sdk/lib/libwpa.a(aes-wrap.o)
                                                  /home/stoffer/esp8266/esp-open-sdk/sdk/lib/libwpa.a(wpa_auth.o)
ant_switch_init                                   /home/stoffer/esp8266/esp-open-sdk/sdk/lib/libphy.a(phy_chip_v6.o)
atoi                                              /home/stoffer/esp8266/esp-open-sdk/xtensa-lx106-elf/bin/../lib/gcc/xtensa-lx106-elf/4.8.2/../../../../xtensa-lx106-elf/lib/libc.a(lib_a-atoi.o)
                                                  build/app_app.a(utils.o)
                                                  build/app_app.a(cgiwifi.o)
                                                  build/app_app.a(cgi.o)
                                                  build/app_app.a(cron.o)
                                                  build/app_app.a(kmp_request.o)
                                                  build/app_app.a(httpd.o)
                                                  build/app_app.a(user_main.o)
auth_type                                         /home/stoffer/esp8266/esp-open-sdk/sdk/lib/libnet80211.a(ieee80211_scan.o)
                                                  /home/stoffer/esp8266/esp-open-sdk/sdk/lib/libnet80211.a(wl_cnx.o)
bb_init                                           /home/stoffer/esp8266/esp-open-sdk/sdk/lib/libphy.a(phy.o)
bbpll_cal                                         /home/stoffer/esp8266/esp-open-sdk/sdk/lib/libphy.a(phy_chip_v6.o)
bbpll_cal_flag                                    /home/stoffer/esp8266/esp-open-sdk/sdk/lib/libphy.a(phy_chip_v6.o)
                                                  /home/stoffer/esp8266/esp-open-sdk/sdk/lib/libphy.a(phy_sleep.o)
bit_popcount                                      /home/stoffer/esp8266/esp-open-sdk/sdk/lib/libmain.a(eagle_lib.o)
                                                  /home/stoffer/esp8266/esp-open-sdk/sdk/lib/libpp.a(trc.o)
                                                  /home/stoffer/esp8266/esp-open-sdk/sdk/lib/libpp.a(if_hwctrl.o)
boot_time                                         build/app_app.a(unix_time.o)
buffed_eb_arr                                     /home/stoffer/esp8266/esp-open-sdk/sdk/lib/libpp.a(pp.o)
builtInUrls                                       build/app_app.a(httpd_user_init.o)
cal_rf_ana_gain                                   /home/stoffer/esp8266/esp-open-sdk/sdk/lib/libphy.a(phy_chip_v6_cal.o)
                                                  /home/stoffer/esp8266/esp-open-sdk/sdk/lib/libphy.a(phy_chip_v6.o)
call_user_start                                   /home/stoffer/esp8266/esp-open-sdk/sdk/lib/libmain.a(vector.o)
call_user_start_local                             /home/stoffer/esp8266/esp-open-sdk/sdk/lib/libmain.a(app_main.o)
                                                  /home/stoffer/esp8266/esp-open-sdk/sdk/lib/libmain.a(vector.o)
cannel_scan_connect_state                         /home/stoffer/esp8266/esp-open-sdk/sdk/lib/libnet80211.a(ieee80211_scan.o)
captdnsInit                                       build/app_app.a(captdns.o)
                                                  build/app_app.a(user_main.o)
ccit_crc16                                        build/app_app.a(utils.o)
                                                  build/app_app.a(config.o)
                                                  build/app_app.a(kmp.o)
ccit_crc16_table                                  build/app_app.a(utils.o)
ccmp                                              /home/stoffer/esp8266/esp-open-sdk/sdk/lib/libnet80211.a(ieee80211_crypto_ccmp.o)
                                                  /home/stoffer/esp8266/esp-open-sdk/sdk/lib/libwpa.a(wpa_main.o)
                                                  /home/stoffer/esp8266/esp-open-sdk/sdk/lib/libwpa.a(wpa_auth.o)
                                                  /home/stoffer/esp8266/esp-open-sdk/sdk/lib/libnet80211.a(ieee80211_action.o)
                                                  /home/stoffer/esp8266/esp-open-sdk/sdk/lib/libnet80211.a(ieee80211_input.o)
cfg_load                                          build/app_app.a(config.o)
                                                  build/app_app.a(cgiwifi.o)
                                                  build/app_app.a(user_main.o)
cfg_save                                          build/app_app.a(config.o)
                                                  build/app_app.a(cgiwifi.o)
cfg_save_defered                                  build/app_app.a(config.o)
                                                  build/app_app.a(ac_out.o)
                                                  build/app_app.a(cron.o)
cgiEspFsHook                                      build/app_app.a(httpdespfs.o)
                                                  build/app_app.a(httpd_user_init.o)
cgiEspFsTemplate                                  build/app_app.a(httpdespfs.o)
                                                  build/app_app.a(httpd_user_init.o)
cgiLed                                            build/app_app.a(cgi.o)
                                                  build/app_app.a(httpd_user_init.o)
cgiReadFlash                                      build/app_app.a(cgi.o)
                                                  build/app_app.a(httpd_user_init.o)
cgiRedirect                                       build/app_app.a(httpd.o)
                                                  build/app_app.a(httpd_user_init.o)
cgiSetup                                          build/app_app.a(cgiwifi.o)
                                                  build/app_app.a(httpd_user_init.o)
cgiWiFiScan                                       build/app_app.a(cgiwifi.o)
                                                  build/app_app.a(httpd_user_init.o)
cgiWifiAps                                        build/app_app.a(cgiwifi.o)
cgiWifiSetMode                                    build/app_app.a(cgiwifi.o)
                                                  build/app_app.a(httpd_user_init.o)
change_bbpll160                                   /home/stoffer/esp8266/esp-open-sdk/sdk/lib/libphy.a(phy_chip_v6.o)
                                                  /home/stoffer/esp8266/esp-open-sdk/sdk/lib/libphy.a(phy_sleep.o)
change_bbpll160_sleep                             /home/stoffer/esp8266/esp-open-sdk/sdk/lib/libphy.a(phy_chip_v6.o)
check_data_flag                                   /home/stoffer/esp8266/esp-open-sdk/sdk/lib/libphy.a(phy_chip_v6_ana.o)
check_data_func                                   /home/stoffer/esp8266/esp-open-sdk/sdk/lib/libphy.a(phy_chip_v6.o)
check_memleak_debug_enable                        /home/stoffer/esp8266/esp-open-sdk/sdk/lib/libmain.a(mem_manager.o)
check_result                                      /home/stoffer/esp8266/esp-open-sdk/sdk/lib/libphy.a(phy_chip_v6.o)
                                                  /home/stoffer/esp8266/esp-open-sdk/sdk/lib/libphy.a(phy_chip_v6_cal.o)
check_timeouts_timer                              /home/stoffer/esp8266/esp-open-sdk/sdk/lib/libmain.a(app_main.o)
                                                  /home/stoffer/esp8266/esp-open-sdk/sdk/lib/libpp.a(pm_for_bcn_only_mode.o)
                                                  /home/stoffer/esp8266/esp-open-sdk/sdk/lib/libpp.a(pm.o)
chg_lslp_mem_opt_8266                             /home/stoffer/esp8266/esp-open-sdk/sdk/lib/libphy.a(phy_sleep.o)
chip6_phy_init_ctrl                               /home/stoffer/esp8266/esp-open-sdk/sdk/lib/libphy.a(phy_chip_v6.o)
                                                  /home/stoffer/esp8266/esp-open-sdk/sdk/lib/libpp.a(pp.o)
                                                  /home/stoffer/esp8266/esp-open-sdk/sdk/lib/libphy.a(phy_sleep.o)
                                                  /home/stoffer/esp8266/esp-open-sdk/sdk/lib/libphy.a(phy_chip_v6_cal.o)
                                                  /home/stoffer/esp8266/esp-open-sdk/sdk/lib/libphy.a(phy_chip_v6_ana.o)
chip6_sleep_params                                /home/stoffer/esp8266/esp-open-sdk/sdk/lib/libphy.a(phy_chip_v6.o)
                                                  /home/stoffer/esp8266/esp-open-sdk/sdk/lib/libphy.a(phy_sleep.o)
                                                  /home/stoffer/esp8266/esp-open-sdk/sdk/lib/libphy.a(phy_chip_v6_cal.o)
                                                  /home/stoffer/esp8266/esp-open-sdk/sdk/lib/libphy.a(phy_chip_v6_ana.o)
chip_60_set_channel                               /home/stoffer/esp8266/esp-open-sdk/sdk/lib/libphy.a(phy_chip_v6_ana.o)
                                                  /home/stoffer/esp8266/esp-open-sdk/sdk/lib/libphy.a(phy_chip_v6.o)
chip_v6_get_sense                                 /home/stoffer/esp8266/esp-open-sdk/sdk/lib/libphy.a(phy_chip_v6_unused.o)
chip_v6_initialize_bb                             /home/stoffer/esp8266/esp-open-sdk/sdk/lib/libphy.a(phy_chip_v6.o)
chip_v6_rf_init                                   /home/stoffer/esp8266/esp-open-sdk/sdk/lib/libphy.a(phy_chip_v6_ana.o)
                                                  /home/stoffer/esp8266/esp-open-sdk/sdk/lib/libphy.a(phy_chip_v6.o)
chip_v6_rxmax_ext                                 /home/stoffer/esp8266/esp-open-sdk/sdk/lib/libphy.a(phy_chip_v6.o)
                                                  /home/stoffer/esp8266/esp-open-sdk/sdk/lib/libnet80211.a(ieee80211_sta.o)
chip_v6_rxmax_ext_ana                             /home/stoffer/esp8266/esp-open-sdk/sdk/lib/libphy.a(phy_chip_v6_ana.o)
                                                  /home/stoffer/esp8266/esp-open-sdk/sdk/lib/libphy.a(phy_chip_v6.o)
chip_v6_rxmax_ext_dig                             /home/stoffer/esp8266/esp-open-sdk/sdk/lib/libphy.a(phy_chip_v6.o)
chip_v6_set_chan                                  /home/stoffer/esp8266/esp-open-sdk/sdk/lib/libphy.a(phy_chip_v6_ana.o)
                                                  /home/stoffer/esp8266/esp-open-sdk/sdk/lib/libphy.a(phy_chip_v6.o)
chip_v6_set_chan_misc                             /home/stoffer/esp8266/esp-open-sdk/sdk/lib/libphy.a(phy_chip_v6.o)
                                                  /home/stoffer/esp8266/esp-open-sdk/sdk/lib/libphy.a(phy_chip_v6_ana.o)
chip_v6_set_chan_offset                           /home/stoffer/esp8266/esp-open-sdk/sdk/lib/libphy.a(phy_chip_v6_ana.o)
                                                  /home/stoffer/esp8266/esp-open-sdk/sdk/lib/libnet80211.a(ieee80211_scan.o)
                                                  /home/stoffer/esp8266/esp-open-sdk/sdk/lib/libnet80211.a(ieee80211_hostap.o)
                                                  /home/stoffer/esp8266/esp-open-sdk/sdk/lib/libpp.a(pp.o)
                                                  /home/stoffer/esp8266/esp-open-sdk/sdk/lib/libmain.a(app_main.o)
chip_v6_set_chan_rx_cmp                           /home/stoffer/esp8266/esp-open-sdk/sdk/lib/libphy.a(phy_chip_v6.o)
chip_v6_set_chan_wakeup                           /home/stoffer/esp8266/esp-open-sdk/sdk/lib/libphy.a(phy_chip_v6_ana.o)
chip_v6_set_chanfreq                              /home/stoffer/esp8266/esp-open-sdk/sdk/lib/libphy.a(phy_chip_v6.o)
chip_v6_set_sense                                 /home/stoffer/esp8266/esp-open-sdk/sdk/lib/libphy.a(phy_chip_v6_unused.o)
                                                  /home/stoffer/esp8266/esp-open-sdk/sdk/lib/libphy.a(phy_chip_v6.o)
chip_v6_unset_chanfreq                            /home/stoffer/esp8266/esp-open-sdk/sdk/lib/libphy.a(phy_chip_v6_unused.o)
                                                  /home/stoffer/esp8266/esp-open-sdk/sdk/lib/libphy.a(phy_chip_v6.o)
chip_version                                      /home/stoffer/esp8266/esp-open-sdk/sdk/lib/libphy.a(phy_sleep.o)
chm_acquire_lock                                  /home/stoffer/esp8266/esp-open-sdk/sdk/lib/libnet80211.a(wl_chm.o)
                                                  /home/stoffer/esp8266/esp-open-sdk/sdk/lib/libnet80211.a(wl_cnx.o)
                                                  /home/stoffer/esp8266/esp-open-sdk/sdk/lib/libnet80211.a(ieee80211_scan.o)
chm_cancel_op                                     /home/stoffer/esp8266/esp-open-sdk/sdk/lib/libnet80211.a(wl_chm.o)
                                                  /home/stoffer/esp8266/esp-open-sdk/sdk/lib/libnet80211.a(ieee80211_scan.o)
chm_check_same_channel                            /home/stoffer/esp8266/esp-open-sdk/sdk/lib/libnet80211.a(wl_chm.o)
                                                  /home/stoffer/esp8266/esp-open-sdk/sdk/lib/libnet80211.a(ieee80211_power.o)
                                                  /home/stoffer/esp8266/esp-open-sdk/sdk/lib/libnet80211.a(ieee80211_output.o)
                                                  /home/stoffer/esp8266/esp-open-sdk/sdk/lib/libnet80211.a(ieee80211_hostap.o)
chm_end_op                                        /home/stoffer/esp8266/esp-open-sdk/sdk/lib/libnet80211.a(wl_chm.o)
chm_freq2index                                    /home/stoffer/esp8266/esp-open-sdk/sdk/lib/libnet80211.a(wl_chm.o)
chm_get_current_channel                           /home/stoffer/esp8266/esp-open-sdk/sdk/lib/libnet80211.a(wl_chm.o)
                                                  /home/stoffer/esp8266/esp-open-sdk/sdk/lib/libnet80211.a(wl_cnx.o)
                                                  /home/stoffer/esp8266/esp-open-sdk/sdk/lib/libnet80211.a(ieee80211_scan.o)
                                                  /home/stoffer/esp8266/esp-open-sdk/sdk/lib/libnet80211.a(ieee80211_hostap.o)
                                                  /home/stoffer/esp8266/esp-open-sdk/sdk/lib/libpp.a(wdev.o)
                                                  /home/stoffer/esp8266/esp-open-sdk/sdk/lib/libpp.a(pp.o)
                                                  /home/stoffer/esp8266/esp-open-sdk/sdk/lib/libpp.a(pm.o)
                                                  /home/stoffer/esp8266/esp-open-sdk/sdk/lib/libmain.a(user_interface.o)
chm_init                                          /home/stoffer/esp8266/esp-open-sdk/sdk/lib/libnet80211.a(wl_chm.o)
                                                  /home/stoffer/esp8266/esp-open-sdk/sdk/lib/libnet80211.a(ieee80211.o)
chm_release_lock                                  /home/stoffer/esp8266/esp-open-sdk/sdk/lib/libnet80211.a(wl_chm.o)
                                                  /home/stoffer/esp8266/esp-open-sdk/sdk/lib/libnet80211.a(wl_cnx.o)
                                                  /home/stoffer/esp8266/esp-open-sdk/sdk/lib/libnet80211.a(ieee80211_scan.o)
chm_return_home_channel                           /home/stoffer/esp8266/esp-open-sdk/sdk/lib/libnet80211.a(wl_chm.o)
                                                  /home/stoffer/esp8266/esp-open-sdk/sdk/lib/libnet80211.a(wl_cnx.o)
                                                  /home/stoffer/esp8266/esp-open-sdk/sdk/lib/libnet80211.a(ieee80211_scan.o)
chm_set_current_channel                           /home/stoffer/esp8266/esp-open-sdk/sdk/lib/libnet80211.a(wl_chm.o)
                                                  /home/stoffer/esp8266/esp-open-sdk/sdk/lib/libnet80211.a(ieee80211_hostap.o)
                                                  /home/stoffer/esp8266/esp-open-sdk/sdk/lib/libmain.a(user_interface.o)
chm_start_op                                      /home/stoffer/esp8266/esp-open-sdk/sdk/lib/libnet80211.a(wl_chm.o)
                                                  /home/stoffer/esp8266/esp-open-sdk/sdk/lib/libnet80211.a(wl_cnx.o)
                                                  /home/stoffer/esp8266/esp-open-sdk/sdk/lib/libnet80211.a(ieee80211_scan.o)
clear_cron_jobs                                   build/app_app.a(cron.o)
                                                  build/app_app.a(user_main.o)
clockgate_watchdog                                /home/stoffer/esp8266/esp-open-sdk/sdk/lib/libphy.a(phy_sleep.o)
                                                  /home/stoffer/esp8266/esp-open-sdk/sdk/lib/libpp.a(pm_for_bcn_only_mode.o)
                                                  /home/stoffer/esp8266/esp-open-sdk/sdk/lib/libpp.a(pm.o)
                                                  /home/stoffer/esp8266/esp-open-sdk/sdk/lib/libmain.a(user_interface.o)
cnx_add_rc                                        /home/stoffer/esp8266/esp-open-sdk/sdk/lib/libnet80211.a(wl_cnx.o)
                                                  /home/stoffer/esp8266/esp-open-sdk/sdk/lib/libnet80211.a(ieee80211_scan.o)
cnx_assoc_timeout                                 /home/stoffer/esp8266/esp-open-sdk/sdk/lib/libnet80211.a(wl_cnx.o)
                                                  /home/stoffer/esp8266/esp-open-sdk/sdk/lib/libnet80211.a(ieee80211_sta.o)
cnx_attach                                        /home/stoffer/esp8266/esp-open-sdk/sdk/lib/libnet80211.a(wl_cnx.o)
                                                  /home/stoffer/esp8266/esp-open-sdk/sdk/lib/libmain.a(app_main.o)
cnx_auth_timeout                                  /home/stoffer/esp8266/esp-open-sdk/sdk/lib/libnet80211.a(wl_cnx.o)
                                                  /home/stoffer/esp8266/esp-open-sdk/sdk/lib/libnet80211.a(ieee80211_proto.o)
cnx_bss_alloc                                     /home/stoffer/esp8266/esp-open-sdk/sdk/lib/libnet80211.a(wl_cnx.o)
                                                  /home/stoffer/esp8266/esp-open-sdk/sdk/lib/libnet80211.a(ieee80211_scan.o)
cnx_connect_timeout                               /home/stoffer/esp8266/esp-open-sdk/sdk/lib/libnet80211.a(wl_cnx.o)
                                                  /home/stoffer/esp8266/esp-open-sdk/sdk/lib/libnet80211.a(ieee80211_sta.o)
                                                  /home/stoffer/esp8266/esp-open-sdk/sdk/lib/libnet80211.a(ieee80211_scan.o)
cnx_handshake_timeout                             /home/stoffer/esp8266/esp-open-sdk/sdk/lib/libnet80211.a(wl_cnx.o)
cnx_node_alloc                                    /home/stoffer/esp8266/esp-open-sdk/sdk/lib/libnet80211.a(wl_cnx.o)
                                                  /home/stoffer/esp8266/esp-open-sdk/sdk/lib/libnet80211.a(ieee80211_hostap.o)
cnx_node_join                                     /home/stoffer/esp8266/esp-open-sdk/sdk/lib/libnet80211.a(wl_cnx.o)
                                                  /home/stoffer/esp8266/esp-open-sdk/sdk/lib/libnet80211.a(ieee80211_hostap.o)
cnx_node_leave                                    /home/stoffer/esp8266/esp-open-sdk/sdk/lib/libnet80211.a(wl_cnx.o)
                                                  /home/stoffer/esp8266/esp-open-sdk/sdk/lib/libnet80211.a(ieee80211_hostap.o)
                                                  /home/stoffer/esp8266/esp-open-sdk/sdk/lib/libmain.a(user_interface.o)
cnx_node_remove                                   /home/stoffer/esp8266/esp-open-sdk/sdk/lib/libnet80211.a(wl_cnx.o)
cnx_node_search                                   /home/stoffer/esp8266/esp-open-sdk/sdk/lib/libnet80211.a(wl_cnx.o)
                                                  /home/stoffer/esp8266/esp-open-sdk/sdk/lib/libwpa.a(wpa_auth.o)
                                                  /home/stoffer/esp8266/esp-open-sdk/sdk/lib/libnet80211.a(ieee80211_output.o)
                                                  /home/stoffer/esp8266/esp-open-sdk/sdk/lib/libnet80211.a(ieee80211_hostap.o)
cnx_rc_search                                     /home/stoffer/esp8266/esp-open-sdk/sdk/lib/libnet80211.a(wl_cnx.o)
                                                  /home/stoffer/esp8266/esp-open-sdk/sdk/lib/libnet80211.a(ieee80211_scan.o)
cnx_rc_update_age                                 /home/stoffer/esp8266/esp-open-sdk/sdk/lib/libnet80211.a(wl_cnx.o)
                                                  /home/stoffer/esp8266/esp-open-sdk/sdk/lib/libnet80211.a(ieee80211_scan.o)
cnx_rc_update_rssi                                /home/stoffer/esp8266/esp-open-sdk/sdk/lib/libnet80211.a(wl_cnx.o)
                                                  /home/stoffer/esp8266/esp-open-sdk/sdk/lib/libnet80211.a(ieee80211_scan.o)
cnx_rc_update_state_metric                        /home/stoffer/esp8266/esp-open-sdk/sdk/lib/libnet80211.a(wl_cnx.o)
                                                  /home/stoffer/esp8266/esp-open-sdk/sdk/lib/libnet80211.a(ieee80211_scan.o)
cnx_remove_all_rc                                 /home/stoffer/esp8266/esp-open-sdk/sdk/lib/libnet80211.a(wl_cnx.o)
                                                  /home/stoffer/esp8266/esp-open-sdk/sdk/lib/libnet80211.a(ieee80211_sta.o)
cnx_remove_rc                                     /home/stoffer/esp8266/esp-open-sdk/sdk/lib/libnet80211.a(wl_cnx.o)
                                                  /home/stoffer/esp8266/esp-open-sdk/sdk/lib/libnet80211.a(ieee80211_scan.o)
cnx_sta_associated                                /home/stoffer/esp8266/esp-open-sdk/sdk/lib/libnet80211.a(wl_cnx.o)
                                                  /home/stoffer/esp8266/esp-open-sdk/sdk/lib/libnet80211.a(ieee80211_sta.o)
cnx_sta_connect_cmd                               /home/stoffer/esp8266/esp-open-sdk/sdk/lib/libnet80211.a(wl_cnx.o)
                                                  /home/stoffer/esp8266/esp-open-sdk/sdk/lib/libmain.a(user_interface.o)
cnx_sta_connect_led_timer_cb                      /home/stoffer/esp8266/esp-open-sdk/sdk/lib/libnet80211.a(wl_cnx.o)
cnx_sta_leave                                     /home/stoffer/esp8266/esp-open-sdk/sdk/lib/libnet80211.a(wl_cnx.o)
                                                  /home/stoffer/esp8266/esp-open-sdk/sdk/lib/libnet80211.a(ieee80211_sta.o)
cnx_sta_scan_cmd                                  /home/stoffer/esp8266/esp-open-sdk/sdk/lib/libnet80211.a(wl_cnx.o)
                                                  /home/stoffer/esp8266/esp-open-sdk/sdk/lib/libmain.a(user_interface.o)
cnx_start_handoff_cb                              /home/stoffer/esp8266/esp-open-sdk/sdk/lib/libnet80211.a(wl_cnx.o)
cnx_update_bss                                    /home/stoffer/esp8266/esp-open-sdk/sdk/lib/libnet80211.a(wl_cnx.o)
                                                  /home/stoffer/esp8266/esp-open-sdk/sdk/lib/libnet80211.a(ieee80211_scan.o)
cnx_update_bss_more                               /home/stoffer/esp8266/esp-open-sdk/sdk/lib/libnet80211.a(wl_cnx.o)
                                                  /home/stoffer/esp8266/esp-open-sdk/sdk/lib/libnet80211.a(ieee80211_scan.o)
config_pass                                       build/app_app.a(wifi.o)
config_save_timer_func                            build/app_app.a(config.o)
config_save_timer_running                         build/app_app.a(config.o)
config_ssid                                       build/app_app.a(wifi.o)
connect_scan_flag                                 /home/stoffer/esp8266/esp-open-sdk/sdk/lib/libnet80211.a(ieee80211_scan.o)
correct_rf_ana_gain                               /home/stoffer/esp8266/esp-open-sdk/sdk/lib/libphy.a(phy_chip_v6_cal.o)
counter                                           build/app_app.a(user_main.o)
cpu_overclock                                     /home/stoffer/esp8266/esp-open-sdk/sdk/lib/libmain.a(user_interface.o)
cron_init                                         build/app_app.a(cron.o)
                                                  build/app_app.a(user_main.o)
current_header                                    /home/stoffer/esp8266/esp-open-sdk/sdk/lib/liblwip.a(ip.o)
current_iphdr_dest                                /home/stoffer/esp8266/esp-open-sdk/sdk/lib/liblwip.a(ip.o)
                                                  /home/stoffer/esp8266/esp-open-sdk/sdk/lib/liblwip.a(icmp.o)
                                                  /home/stoffer/esp8266/esp-open-sdk/sdk/lib/liblwip.a(udp.o)
                                                  /home/stoffer/esp8266/esp-open-sdk/sdk/lib/liblwip.a(tcp_in.o)
                                                  /home/stoffer/esp8266/esp-open-sdk/sdk/lib/liblwip.a(raw.o)
current_iphdr_src                                 /home/stoffer/esp8266/esp-open-sdk/sdk/lib/liblwip.a(ip.o)
                                                  /home/stoffer/esp8266/esp-open-sdk/sdk/lib/liblwip.a(icmp.o)
                                                  /home/stoffer/esp8266/esp-open-sdk/sdk/lib/liblwip.a(udp.o)
                                                  /home/stoffer/esp8266/esp-open-sdk/sdk/lib/liblwip.a(tcp_in.o)
                                                  /home/stoffer/esp8266/esp-open-sdk/sdk/lib/liblwip.a(raw.o)
current_netif                                     /home/stoffer/esp8266/esp-open-sdk/sdk/lib/liblwip.a(ip.o)
current_unix_time                                 build/app_app.a(unix_time.o)
dbg_stop_hw_wdt                                   /home/stoffer/esp8266/esp-open-sdk/sdk/lib/libpp.a(pp.o)
dbg_stop_sw_wdt                                   /home/stoffer/esp8266/esp-open-sdk/sdk/lib/libpp.a(pp.o)
dbg_timer_flag                                    /home/stoffer/esp8266/esp-open-sdk/sdk/lib/libmain.a(ets_timer.o)
dcoindex2txbbgain                                 /home/stoffer/esp8266/esp-open-sdk/sdk/lib/libphy.a(phy_chip_v6_cal.o)
debug_timer                                       /home/stoffer/esp8266/esp-open-sdk/sdk/lib/libmain.a(ets_timer.o)
debug_timerfn                                     /home/stoffer/esp8266/esp-open-sdk/sdk/lib/libmain.a(ets_timer.o)
decimal_number_length                             build/app_app.a(utils.o)
                                                  build/app_app.a(kmp.o)
decrypt_aes_hmac_combined                         build/app_app.a(crypto.o)
                                                  build/app_app.a(user_main.o)
deep_sleep_flag                                   /home/stoffer/esp8266/esp-open-sdk/sdk/lib/libmain.a(user_interface.o)
deep_sleep_set_option                             /home/stoffer/esp8266/esp-open-sdk/sdk/lib/libphy.a(phy_chip_v6.o)
                                                  /home/stoffer/esp8266/esp-open-sdk/sdk/lib/libmain.a(user_interface.o)
default_certificate                               build/app_app.a(mqtt.o)
default_certificate_len                           build/app_app.a(mqtt.o)
default_hostname                                  /home/stoffer/esp8266/esp-open-sdk/sdk/lib/libmain.a(eagle_lwip_if.o)
                                                  /home/stoffer/esp8266/esp-open-sdk/sdk/lib/libmain.a(user_interface.o)
default_interface                                 /home/stoffer/esp8266/esp-open-sdk/sdk/lib/libmain.a(user_interface.o)
                                                  /home/stoffer/esp8266/esp-open-sdk/sdk/lib/liblwip.a(espconn_udp.o)
default_private_key                               build/app_app.a(mqtt.o)
default_private_key_len                           build/app_app.a(mqtt.o)
default_ssid                                      /home/stoffer/esp8266/esp-open-sdk/sdk/lib/libmain.a(user_interface.o)
dhcp_arp_reply                                    /home/stoffer/esp8266/esp-open-sdk/sdk/lib/liblwip.a(dhcp.o)
                                                  /home/stoffer/esp8266/esp-open-sdk/sdk/lib/liblwip.a(etharp.o)
dhcp_bind_check                                   /home/stoffer/esp8266/esp-open-sdk/sdk/lib/libwpa.a(wpa_main.o)
dhcp_cleanup                                      /home/stoffer/esp8266/esp-open-sdk/sdk/lib/liblwip.a(dhcp.o)
                                                  /home/stoffer/esp8266/esp-open-sdk/sdk/lib/libnet80211.a(wl_cnx.o)
                                                  /home/stoffer/esp8266/esp-open-sdk/sdk/lib/libmain.a(user_interface.o)
dhcp_coarse_tmr                                   /home/stoffer/esp8266/esp-open-sdk/sdk/lib/liblwip.a(dhcp.o)
                                                  /home/stoffer/esp8266/esp-open-sdk/sdk/lib/liblwip.a(timers.o)
dhcp_fine_tmr                                     /home/stoffer/esp8266/esp-open-sdk/sdk/lib/liblwip.a(dhcp.o)
                                                  /home/stoffer/esp8266/esp-open-sdk/sdk/lib/liblwip.a(timers.o)
dhcp_inform                                       /home/stoffer/esp8266/esp-open-sdk/sdk/lib/liblwip.a(dhcp.o)
dhcp_network_changed                              /home/stoffer/esp8266/esp-open-sdk/sdk/lib/liblwip.a(dhcp.o)
                                                  /home/stoffer/esp8266/esp-open-sdk/sdk/lib/liblwip.a(netif.o)
dhcp_release                                      /home/stoffer/esp8266/esp-open-sdk/sdk/lib/liblwip.a(dhcp.o)
                                                  /home/stoffer/esp8266/esp-open-sdk/sdk/lib/libnet80211.a(wl_cnx.o)
dhcp_renew                                        /home/stoffer/esp8266/esp-open-sdk/sdk/lib/liblwip.a(dhcp.o)
dhcp_rx_options_given                             /home/stoffer/esp8266/esp-open-sdk/sdk/lib/liblwip.a(dhcp.o)
dhcp_rx_options_val                               /home/stoffer/esp8266/esp-open-sdk/sdk/lib/liblwip.a(dhcp.o)
dhcp_set_struct                                   /home/stoffer/esp8266/esp-open-sdk/sdk/lib/liblwip.a(dhcp.o)
dhcp_start                                        /home/stoffer/esp8266/esp-open-sdk/sdk/lib/liblwip.a(dhcp.o)
                                                  /home/stoffer/esp8266/esp-open-sdk/sdk/lib/libwpa.a(wpa_main.o)
                                                  /home/stoffer/esp8266/esp-open-sdk/sdk/lib/libmain.a(user_interface.o)
dhcp_stop                                         /home/stoffer/esp8266/esp-open-sdk/sdk/lib/liblwip.a(dhcp.o)
                                                  /home/stoffer/esp8266/esp-open-sdk/sdk/lib/libnet80211.a(wl_cnx.o)
                                                  /home/stoffer/esp8266/esp-open-sdk/sdk/lib/libmain.a(user_interface.o)
dhcpc_flag                                        /home/stoffer/esp8266/esp-open-sdk/sdk/lib/libmain.a(user_interface.o)
                                                  /home/stoffer/esp8266/esp-open-sdk/sdk/lib/libwpa.a(wpa_main.o)
dhcps_coarse_tmr                                  /home/stoffer/esp8266/esp-open-sdk/sdk/lib/liblwip.a(dhcpserver.o)
                                                  /home/stoffer/esp8266/esp-open-sdk/sdk/lib/liblwip.a(timers.o)
dhcps_flag                                        /home/stoffer/esp8266/esp-open-sdk/sdk/lib/libmain.a(user_interface.o)
                                                  /home/stoffer/esp8266/esp-open-sdk/sdk/lib/libmain.a(eagle_lwip_if.o)
dhcps_lease_time                                  /home/stoffer/esp8266/esp-open-sdk/sdk/lib/liblwip.a(dhcpserver.o)
dhcps_start                                       /home/stoffer/esp8266/esp-open-sdk/sdk/lib/liblwip.a(dhcpserver.o)
                                                  /home/stoffer/esp8266/esp-open-sdk/sdk/lib/libmain.a(eagle_lwip_if.o)
                                                  /home/stoffer/esp8266/esp-open-sdk/sdk/lib/libmain.a(user_interface.o)
dhcps_stop                                        /home/stoffer/esp8266/esp-open-sdk/sdk/lib/liblwip.a(dhcpserver.o)
                                                  /home/stoffer/esp8266/esp-open-sdk/sdk/lib/libmain.a(eagle_lwip_if.o)
                                                  /home/stoffer/esp8266/esp-open-sdk/sdk/lib/libmain.a(user_interface.o)
divide                                            /home/stoffer/esp8266/esp-open-sdk/sdk/lib/libmain.a(eagle_lib.o)
dns_gethostbyname                                 /home/stoffer/esp8266/esp-open-sdk/sdk/lib/liblwip.a(dns.o)
                                                  /home/stoffer/esp8266/esp-open-sdk/sdk/lib/liblwip.a(sntp.o)
                                                  /home/stoffer/esp8266/esp-open-sdk/sdk/lib/liblwip.a(espconn.o)
dns_getserver                                     /home/stoffer/esp8266/esp-open-sdk/sdk/lib/liblwip.a(dns.o)
dns_init                                          /home/stoffer/esp8266/esp-open-sdk/sdk/lib/liblwip.a(dns.o)
                                                  /home/stoffer/esp8266/esp-open-sdk/sdk/lib/liblwip.a(init.o)
dns_setserver                                     /home/stoffer/esp8266/esp-open-sdk/sdk/lib/liblwip.a(dns.o)
                                                  /home/stoffer/esp8266/esp-open-sdk/sdk/lib/liblwip.a(espconn.o)
                                                  /home/stoffer/esp8266/esp-open-sdk/sdk/lib/liblwip.a(dhcp.o)
dns_tmr                                           /home/stoffer/esp8266/esp-open-sdk/sdk/lib/liblwip.a(dns.o)
                                                  /home/stoffer/esp8266/esp-open-sdk/sdk/lib/liblwip.a(timers.o)
do_noisefloor                                     /home/stoffer/esp8266/esp-open-sdk/sdk/lib/libphy.a(phy_chip_v6.o)
do_noisefloor_lsleep_v50                          /home/stoffer/esp8266/esp-open-sdk/sdk/lib/libphy.a(phy_chip_v6.o)
do_pwctrl_flag                                    /home/stoffer/esp8266/esp-open-sdk/sdk/lib/libphy.a(phy_chip_v6.o)
                                                  /home/stoffer/esp8266/esp-open-sdk/sdk/lib/libphy.a(phy_sleep.o)
done_cb                                           /home/stoffer/esp8266/esp-open-sdk/sdk/lib/libmain.a(user_interface.o)
                                                  /home/stoffer/esp8266/esp-open-sdk/sdk/lib/libmain.a(app_main.o)
dpd_bypass_original                               /home/stoffer/esp8266/esp-open-sdk/sdk/lib/libphy.a(phy_chip_v6.o)
dpd_mem_write                                     /home/stoffer/esp8266/esp-open-sdk/sdk/lib/libphy.a(phy_chip_v6_cal.o)
dpd_scale_set                                     /home/stoffer/esp8266/esp-open-sdk/sdk/lib/libphy.a(phy_chip_v6_cal.o)
                                                  /home/stoffer/esp8266/esp-open-sdk/sdk/lib/libphy.a(phy_chip_v6.o)
dup_binstr                                        /home/stoffer/esp8266/esp-open-sdk/sdk/lib/libwpa.a(common.o)
eagle_auth_done                                   /home/stoffer/esp8266/esp-open-sdk/sdk/lib/libwpa.a(wpa_main.o)
                                                  /home/stoffer/esp8266/esp-open-sdk/sdk/lib/libnet80211.a(ieee80211_sta.o)
eagle_lwip_getif                                  /home/stoffer/esp8266/esp-open-sdk/sdk/lib/libmain.a(eagle_lwip_if.o)
                                                  /home/stoffer/esp8266/esp-open-sdk/sdk/lib/liblwip.a(ip.o)
                                                  /home/stoffer/esp8266/esp-open-sdk/sdk/lib/liblwip.a(espconn_udp.o)
                                                  /home/stoffer/esp8266/esp-open-sdk/sdk/lib/liblwip.a(dhcpserver.o)
                                                  /home/stoffer/esp8266/esp-open-sdk/sdk/lib/libmain.a(user_interface.o)
eagle_lwip_if_alloc                               /home/stoffer/esp8266/esp-open-sdk/sdk/lib/libmain.a(eagle_lwip_if.o)
                                                  /home/stoffer/esp8266/esp-open-sdk/sdk/lib/libnet80211.a(ieee80211_sta.o)
                                                  /home/stoffer/esp8266/esp-open-sdk/sdk/lib/libnet80211.a(ieee80211_hostap.o)
eagle_lwip_if_free                                /home/stoffer/esp8266/esp-open-sdk/sdk/lib/libmain.a(eagle_lwip_if.o)
                                                  /home/stoffer/esp8266/esp-open-sdk/sdk/lib/libnet80211.a(ieee80211_hostap.o)
                                                  /home/stoffer/esp8266/esp-open-sdk/sdk/lib/libmain.a(user_interface.o)
eapol_txcb                                        /home/stoffer/esp8266/esp-open-sdk/sdk/lib/libwpa.a(wpa.o)
                                                  /home/stoffer/esp8266/esp-open-sdk/sdk/lib/libwpa.a(wpa_main.o)
eloop_cancel_timeout                              /home/stoffer/esp8266/esp-open-sdk/sdk/lib/libwpa.a(wpa_debug.o)
                                                  /home/stoffer/esp8266/esp-open-sdk/sdk/lib/libwpa.a(wpa.o)
                                                  /home/stoffer/esp8266/esp-open-sdk/sdk/lib/libwpa.a(wpa_auth.o)
eloop_register_timeout                            /home/stoffer/esp8266/esp-open-sdk/sdk/lib/libwpa.a(wpa_debug.o)
                                                  /home/stoffer/esp8266/esp-open-sdk/sdk/lib/libwpa.a(wpa.o)
                                                  /home/stoffer/esp8266/esp-open-sdk/sdk/lib/libwpa.a(wpa_auth.o)
encrypt_aes_hmac_combined                         build/app_app.a(crypto.o)
                                                  build/app_app.a(kmp_request.o)
                                                  build/app_app.a(user_main.o)
esf_buf_alloc                                     /home/stoffer/esp8266/esp-open-sdk/sdk/lib/libpp.a(esf_buf.o)
                                                  /home/stoffer/esp8266/esp-open-sdk/sdk/lib/libnet80211.a(ieee80211_output.o)
                                                  /home/stoffer/esp8266/esp-open-sdk/sdk/lib/libnet80211.a(ieee80211_ets.o)
esf_buf_recycle                                   /home/stoffer/esp8266/esp-open-sdk/sdk/lib/libpp.a(esf_buf.o)
                                                  /home/stoffer/esp8266/esp-open-sdk/sdk/lib/libnet80211.a(ieee80211_power.o)
                                                  /home/stoffer/esp8266/esp-open-sdk/sdk/lib/libnet80211.a(ieee80211_output.o)
                                                  /home/stoffer/esp8266/esp-open-sdk/sdk/lib/libnet80211.a(ieee80211_hostap.o)
                                                  /home/stoffer/esp8266/esp-open-sdk/sdk/lib/libpp.a(pp.o)
esf_buf_setup                                     /home/stoffer/esp8266/esp-open-sdk/sdk/lib/libpp.a(esf_buf.o)
                                                  /home/stoffer/esp8266/esp-open-sdk/sdk/lib/libpp.a(pp.o)
esf_rx_buf_alloc                                  /home/stoffer/esp8266/esp-open-sdk/sdk/lib/libpp.a(esf_buf.o)
                                                  /home/stoffer/esp8266/esp-open-sdk/sdk/lib/libpp.a(wdev.o)
espFsClose                                        build/app_app.a(espfs.o)
                                                  build/app_app.a(httpdespfs.o)
espFsOpen                                         build/app_app.a(espfs.o)
                                                  build/app_app.a(httpdespfs.o)
espFsRead                                         build/app_app.a(espfs.o)
                                                  build/app_app.a(httpdespfs.o)
espconn_TaskQueue                                 /home/stoffer/esp8266/esp-open-sdk/sdk/lib/liblwip.a(espconn_tcp.o)
espconn_abort                                     /home/stoffer/esp8266/esp-open-sdk/sdk/lib/liblwip.a(espconn.o)
espconn_accept                                    /home/stoffer/esp8266/esp-open-sdk/sdk/lib/liblwip.a(espconn.o)
                                                  build/app_app.a(httpd.o)
espconn_clear_opt                                 /home/stoffer/esp8266/esp-open-sdk/sdk/lib/liblwip.a(espconn.o)
espconn_connect                                   /home/stoffer/esp8266/esp-open-sdk/sdk/lib/liblwip.a(espconn.o)
                                                  build/app_app.a(mqtt.o)
espconn_copy_partial                              /home/stoffer/esp8266/esp-open-sdk/sdk/lib/liblwip.a(espconn.o)
                                                  /home/stoffer/esp8266/esp-open-sdk/sdk/lib/liblwip.a(espconn_tcp.o)
espconn_create                                    /home/stoffer/esp8266/esp-open-sdk/sdk/lib/liblwip.a(espconn.o)
                                                  build/app_app.a(captdns.o)
espconn_delete                                    /home/stoffer/esp8266/esp-open-sdk/sdk/lib/liblwip.a(espconn.o)
                                                  build/app_app.a(mqtt.o)
                                                  build/app_app.a(httpd.o)
espconn_disconnect                                /home/stoffer/esp8266/esp-open-sdk/sdk/lib/liblwip.a(espconn.o)
                                                  build/app_app.a(mqtt.o)
                                                  build/app_app.a(httpd.o)
espconn_dns_setserver                             /home/stoffer/esp8266/esp-open-sdk/sdk/lib/liblwip.a(espconn.o)
espconn_find_connection                           /home/stoffer/esp8266/esp-open-sdk/sdk/lib/liblwip.a(espconn.o)
                                                  /home/stoffer/esp8266/esp-open-sdk/sdk/lib/liblwip.a(espconn_tcp.o)
espconn_find_current_pcb                          /home/stoffer/esp8266/esp-open-sdk/sdk/lib/liblwip.a(espconn_tcp.o)
espconn_get_connection_info                       /home/stoffer/esp8266/esp-open-sdk/sdk/lib/liblwip.a(espconn.o)
                                                  /home/stoffer/esp8266/esp-open-sdk/sdk/lib/liblwip.a(espconn_tcp.o)
                                                  build/app_app.a(captdns.o)
espconn_get_keepalive                             /home/stoffer/esp8266/esp-open-sdk/sdk/lib/liblwip.a(espconn.o)
espconn_get_packet_info                           /home/stoffer/esp8266/esp-open-sdk/sdk/lib/liblwip.a(espconn.o)
espconn_gethostbyname                             /home/stoffer/esp8266/esp-open-sdk/sdk/lib/liblwip.a(espconn.o)
                                                  build/app_app.a(mqtt.o)
espconn_igmp_join                                 /home/stoffer/esp8266/esp-open-sdk/sdk/lib/liblwip.a(espconn_udp.o)
espconn_igmp_leave                                /home/stoffer/esp8266/esp-open-sdk/sdk/lib/liblwip.a(espconn_udp.o)
espconn_init                                      /home/stoffer/esp8266/esp-open-sdk/sdk/lib/liblwip.a(espconn_tcp.o)
                                                  /home/stoffer/esp8266/esp-open-sdk/sdk/lib/libmain.a(app_main.o)
espconn_kill_oldest_pcb                           /home/stoffer/esp8266/esp-open-sdk/sdk/lib/liblwip.a(espconn_tcp.o)
espconn_kill_pcb                                  /home/stoffer/esp8266/esp-open-sdk/sdk/lib/liblwip.a(espconn_tcp.o)
espconn_list_creat                                /home/stoffer/esp8266/esp-open-sdk/sdk/lib/liblwip.a(espconn.o)
                                                  /home/stoffer/esp8266/esp-open-sdk/sdk/lib/liblwip.a(espconn_udp.o)
                                                  /home/stoffer/esp8266/esp-open-sdk/sdk/lib/liblwip.a(espconn_tcp.o)
espconn_list_delete                               /home/stoffer/esp8266/esp-open-sdk/sdk/lib/liblwip.a(espconn.o)
                                                  /home/stoffer/esp8266/esp-open-sdk/sdk/lib/liblwip.a(espconn_udp.o)
                                                  /home/stoffer/esp8266/esp-open-sdk/sdk/lib/liblwip.a(espconn_tcp.o)
espconn_pbuf_create                               /home/stoffer/esp8266/esp-open-sdk/sdk/lib/liblwip.a(espconn.o)
espconn_pbuf_delete                               /home/stoffer/esp8266/esp-open-sdk/sdk/lib/liblwip.a(espconn.o)
                                                  /home/stoffer/esp8266/esp-open-sdk/sdk/lib/liblwip.a(espconn_tcp.o)
espconn_port                                      /home/stoffer/esp8266/esp-open-sdk/sdk/lib/liblwip.a(espconn.o)
                                                  build/app_app.a(mqtt.o)
espconn_recv_hold                                 /home/stoffer/esp8266/esp-open-sdk/sdk/lib/liblwip.a(espconn_tcp.o)
espconn_recv_unhold                               /home/stoffer/esp8266/esp-open-sdk/sdk/lib/liblwip.a(espconn_tcp.o)
espconn_regist_connectcb                          /home/stoffer/esp8266/esp-open-sdk/sdk/lib/liblwip.a(espconn.o)
                                                  build/app_app.a(mqtt.o)
                                                  build/app_app.a(httpd.o)
espconn_regist_disconcb                           /home/stoffer/esp8266/esp-open-sdk/sdk/lib/liblwip.a(espconn.o)
                                                  build/app_app.a(mqtt.o)
                                                  build/app_app.a(httpd.o)
espconn_regist_reconcb                            /home/stoffer/esp8266/esp-open-sdk/sdk/lib/liblwip.a(espconn.o)
                                                  build/app_app.a(mqtt.o)
                                                  build/app_app.a(httpd.o)
espconn_regist_recvcb                             /home/stoffer/esp8266/esp-open-sdk/sdk/lib/liblwip.a(espconn.o)
                                                  build/app_app.a(mqtt.o)
                                                  build/app_app.a(httpd.o)
                                                  build/app_app.a(captdns.o)
espconn_regist_sentcb                             /home/stoffer/esp8266/esp-open-sdk/sdk/lib/liblwip.a(espconn.o)
                                                  build/app_app.a(mqtt.o)
                                                  build/app_app.a(httpd.o)
espconn_regist_time                               /home/stoffer/esp8266/esp-open-sdk/sdk/lib/liblwip.a(espconn.o)
espconn_regist_write_finish                       /home/stoffer/esp8266/esp-open-sdk/sdk/lib/liblwip.a(espconn.o)
espconn_send                                      /home/stoffer/esp8266/esp-open-sdk/sdk/lib/liblwip.a(espconn.o)
                                                  build/app_app.a(mqtt.o)
espconn_sendto                                    /home/stoffer/esp8266/esp-open-sdk/sdk/lib/liblwip.a(espconn.o)
                                                  build/app_app.a(captdns.o)
espconn_sent                                      /home/stoffer/esp8266/esp-open-sdk/sdk/lib/liblwip.a(espconn.o)
                                                  build/app_app.a(httpdespfs.o)
                                                  build/app_app.a(cgi.o)
                                                  build/app_app.a(httpd.o)
espconn_set_keepalive                             /home/stoffer/esp8266/esp-open-sdk/sdk/lib/liblwip.a(espconn.o)
espconn_set_opt                                   /home/stoffer/esp8266/esp-open-sdk/sdk/lib/liblwip.a(espconn.o)
espconn_tcp_client                                /home/stoffer/esp8266/esp-open-sdk/sdk/lib/liblwip.a(espconn_tcp.o)
                                                  /home/stoffer/esp8266/esp-open-sdk/sdk/lib/liblwip.a(espconn.o)
espconn_tcp_delete                                /home/stoffer/esp8266/esp-open-sdk/sdk/lib/liblwip.a(espconn_tcp.o)
                                                  /home/stoffer/esp8266/esp-open-sdk/sdk/lib/liblwip.a(espconn.o)
espconn_tcp_disconnect                            /home/stoffer/esp8266/esp-open-sdk/sdk/lib/liblwip.a(espconn_tcp.o)
                                                  /home/stoffer/esp8266/esp-open-sdk/sdk/lib/liblwip.a(espconn.o)
espconn_tcp_get_max_con                           /home/stoffer/esp8266/esp-open-sdk/sdk/lib/liblwip.a(espconn.o)
espconn_tcp_get_max_con_allow                     /home/stoffer/esp8266/esp-open-sdk/sdk/lib/liblwip.a(espconn.o)
                                                  /home/stoffer/esp8266/esp-open-sdk/sdk/lib/liblwip.a(espconn_tcp.o)
espconn_tcp_get_max_retran                        /home/stoffer/esp8266/esp-open-sdk/sdk/lib/liblwip.a(espconn.o)
espconn_tcp_get_max_syn                           /home/stoffer/esp8266/esp-open-sdk/sdk/lib/liblwip.a(espconn.o)
espconn_tcp_get_mss                               /home/stoffer/esp8266/esp-open-sdk/sdk/lib/liblwip.a(espconn.o)
espconn_tcp_get_wnd                               /home/stoffer/esp8266/esp-open-sdk/sdk/lib/liblwip.a(espconn.o)
espconn_tcp_sent                                  /home/stoffer/esp8266/esp-open-sdk/sdk/lib/liblwip.a(espconn_tcp.o)
espconn_tcp_server                                /home/stoffer/esp8266/esp-open-sdk/sdk/lib/liblwip.a(espconn_tcp.o)
                                                  /home/stoffer/esp8266/esp-open-sdk/sdk/lib/liblwip.a(espconn.o)
espconn_tcp_set_buf_count                         /home/stoffer/esp8266/esp-open-sdk/sdk/lib/liblwip.a(espconn.o)
                                                  /home/stoffer/esp8266/esp-open-sdk/sdk/lib/liblwip.a(espconn_tcp.o)
espconn_tcp_set_max_con                           /home/stoffer/esp8266/esp-open-sdk/sdk/lib/liblwip.a(espconn.o)
espconn_tcp_set_max_con_allow                     /home/stoffer/esp8266/esp-open-sdk/sdk/lib/liblwip.a(espconn.o)
espconn_tcp_set_max_retran                        /home/stoffer/esp8266/esp-open-sdk/sdk/lib/liblwip.a(espconn.o)
espconn_tcp_set_max_syn                           /home/stoffer/esp8266/esp-open-sdk/sdk/lib/liblwip.a(espconn.o)
espconn_tcp_set_wnd                               /home/stoffer/esp8266/esp-open-sdk/sdk/lib/liblwip.a(espconn.o)
espconn_tcp_write                                 /home/stoffer/esp8266/esp-open-sdk/sdk/lib/liblwip.a(espconn_tcp.o)
                                                  /home/stoffer/esp8266/esp-open-sdk/sdk/lib/liblwip.a(espconn.o)
espconn_udp_disconnect                            /home/stoffer/esp8266/esp-open-sdk/sdk/lib/liblwip.a(espconn_udp.o)
                                                  /home/stoffer/esp8266/esp-open-sdk/sdk/lib/liblwip.a(espconn.o)
espconn_udp_sendto                                /home/stoffer/esp8266/esp-open-sdk/sdk/lib/liblwip.a(espconn_udp.o)
                                                  /home/stoffer/esp8266/esp-open-sdk/sdk/lib/liblwip.a(espconn.o)
espconn_udp_sent                                  /home/stoffer/esp8266/esp-open-sdk/sdk/lib/liblwip.a(espconn_udp.o)
                                                  /home/stoffer/esp8266/esp-open-sdk/sdk/lib/liblwip.a(espconn.o)
espconn_udp_server                                /home/stoffer/esp8266/esp-open-sdk/sdk/lib/liblwip.a(espconn_udp.o)
                                                  /home/stoffer/esp8266/esp-open-sdk/sdk/lib/liblwip.a(espconn.o)
etharp_cleanup_netif                              /home/stoffer/esp8266/esp-open-sdk/sdk/lib/liblwip.a(etharp.o)
                                                  /home/stoffer/esp8266/esp-open-sdk/sdk/lib/liblwip.a(netif.o)
etharp_find_addr                                  /home/stoffer/esp8266/esp-open-sdk/sdk/lib/liblwip.a(etharp.o)
etharp_output                                     /home/stoffer/esp8266/esp-open-sdk/sdk/lib/liblwip.a(etharp.o)
                                                  /home/stoffer/esp8266/esp-open-sdk/sdk/lib/libmain.a(eagle_lwip_if.o)
etharp_query                                      /home/stoffer/esp8266/esp-open-sdk/sdk/lib/liblwip.a(etharp.o)
                                                  /home/stoffer/esp8266/esp-open-sdk/sdk/lib/liblwip.a(dhcp.o)
etharp_request                                    /home/stoffer/esp8266/esp-open-sdk/sdk/lib/liblwip.a(etharp.o)
                                                  /home/stoffer/esp8266/esp-open-sdk/sdk/lib/liblwip.a(netif.o)
etharp_tmr                                        /home/stoffer/esp8266/esp-open-sdk/sdk/lib/liblwip.a(etharp.o)
                                                  /home/stoffer/esp8266/esp-open-sdk/sdk/lib/liblwip.a(timers.o)
ethbroadcast                                      /home/stoffer/esp8266/esp-open-sdk/sdk/lib/liblwip.a(etharp.o)
                                                  /home/stoffer/esp8266/esp-open-sdk/sdk/lib/libwpa.a(wpa_auth.o)
                                                  /home/stoffer/esp8266/esp-open-sdk/sdk/lib/libnet80211.a(wl_cnx.o)
                                                  /home/stoffer/esp8266/esp-open-sdk/sdk/lib/libnet80211.a(ieee80211_scan.o)
                                                  /home/stoffer/esp8266/esp-open-sdk/sdk/lib/libnet80211.a(ieee80211_output.o)
                                                  /home/stoffer/esp8266/esp-open-sdk/sdk/lib/libnet80211.a(ieee80211_hostap.o)
                                                  /home/stoffer/esp8266/esp-open-sdk/sdk/lib/libnet80211.a(ieee80211.o)
                                                  /home/stoffer/esp8266/esp-open-sdk/sdk/lib/libpp.a(wdev.o)
                                                  /home/stoffer/esp8266/esp-open-sdk/sdk/lib/libmain.a(user_interface.o)
ethernet_input                                    /home/stoffer/esp8266/esp-open-sdk/sdk/lib/liblwip.a(etharp.o)
                                                  /home/stoffer/esp8266/esp-open-sdk/sdk/lib/libmain.a(eagle_lwip_if.o)
ethzero                                           /home/stoffer/esp8266/esp-open-sdk/sdk/lib/liblwip.a(etharp.o)
ets_bzero                                         /home/stoffer/esp8266/esp-open-sdk/sdk/lib/libwpa.a(wpa_main.o)
                                                  /home/stoffer/esp8266/esp-open-sdk/sdk/lib/libwpa.a(wpa.o)
                                                  /home/stoffer/esp8266/esp-open-sdk/sdk/lib/libwpa.a(wpa_auth.o)
                                                  /home/stoffer/esp8266/esp-open-sdk/sdk/lib/libwpa.a(ap_config.o)
                                                  /home/stoffer/esp8266/esp-open-sdk/sdk/lib/liblwip.a(espconn_tcp.o)
                                                  /home/stoffer/esp8266/esp-open-sdk/sdk/lib/liblwip.a(dhcpserver.o)
                                                  /home/stoffer/esp8266/esp-open-sdk/sdk/lib/libnet80211.a(wl_cnx.o)
                                                  /home/stoffer/esp8266/esp-open-sdk/sdk/lib/libnet80211.a(wl_chm.o)
                                                  /home/stoffer/esp8266/esp-open-sdk/sdk/lib/libnet80211.a(ieee80211_sta.o)
                                                  /home/stoffer/esp8266/esp-open-sdk/sdk/lib/libnet80211.a(ieee80211_scan.o)
                                                  /home/stoffer/esp8266/esp-open-sdk/sdk/lib/libnet80211.a(ieee80211_input.o)
                                                  /home/stoffer/esp8266/esp-open-sdk/sdk/lib/libpp.a(trc.o)
                                                  /home/stoffer/esp8266/esp-open-sdk/sdk/lib/libpp.a(pm.o)
                                                  /home/stoffer/esp8266/esp-open-sdk/sdk/lib/libmain.a(user_interface.o)
                                                  /home/stoffer/esp8266/esp-open-sdk/sdk/lib/libmain.a(app_main.o)
ets_delay_us                                      /home/stoffer/esp8266/esp-open-sdk/sdk/lib/libwpa.a(wpa.o)
                                                  /home/stoffer/esp8266/esp-open-sdk/sdk/lib/libnet80211.a(ieee80211_hostap.o)
                                                  /home/stoffer/esp8266/esp-open-sdk/sdk/lib/libpp.a(wdev.o)
                                                  /home/stoffer/esp8266/esp-open-sdk/sdk/lib/libpp.a(lmac.o)
                                                  /home/stoffer/esp8266/esp-open-sdk/sdk/lib/libphy.a(phy_sleep.o)
                                                  /home/stoffer/esp8266/esp-open-sdk/sdk/lib/libphy.a(phy_chip_v6_cal.o)
                                                  /home/stoffer/esp8266/esp-open-sdk/sdk/lib/libphy.a(phy_chip_v6.o)
                                                  /home/stoffer/esp8266/esp-open-sdk/sdk/lib/libphy.a(phy_chip_v6_ana.o)
                                                  /home/stoffer/esp8266/esp-open-sdk/sdk/lib/libmain.a(user_interface.o)
                                                  /home/stoffer/esp8266/esp-open-sdk/sdk/lib/libmain.a(mem_manager.o)
ets_get_cpu_frequency                             /home/stoffer/esp8266/esp-open-sdk/sdk/lib/libmain.a(user_interface.o)
ets_install_putc1                                 build/app_app.a(uart.o)
                                                  /home/stoffer/esp8266/esp-open-sdk/sdk/lib/libmain.a(app_main.o)
ets_intr_lock                                     /home/stoffer/esp8266/esp-open-sdk/sdk/lib/libnet80211.a(wl_cnx.o)
                                                  /home/stoffer/esp8266/esp-open-sdk/sdk/lib/libnet80211.a(wl_chm.o)
                                                  /home/stoffer/esp8266/esp-open-sdk/sdk/lib/libnet80211.a(ieee80211_scan.o)
                                                  /home/stoffer/esp8266/esp-open-sdk/sdk/lib/libnet80211.a(ieee80211_hostap.o)
                                                  /home/stoffer/esp8266/esp-open-sdk/sdk/lib/libpp.a(esf_buf.o)
                                                  /home/stoffer/esp8266/esp-open-sdk/sdk/lib/libpp.a(wdev.o)
                                                  /home/stoffer/esp8266/esp-open-sdk/sdk/lib/libpp.a(pp.o)
                                                  /home/stoffer/esp8266/esp-open-sdk/sdk/lib/libpp.a(pm_for_bcn_only_mode.o)
                                                  /home/stoffer/esp8266/esp-open-sdk/sdk/lib/libpp.a(pm.o)
                                                  /home/stoffer/esp8266/esp-open-sdk/sdk/lib/libpp.a(lmac.o)
                                                  /home/stoffer/esp8266/esp-open-sdk/sdk/lib/libpp.a(if_hwctrl.o)
                                                  /home/stoffer/esp8266/esp-open-sdk/sdk/lib/libmain.a(user_interface.o)
                                                  /home/stoffer/esp8266/esp-open-sdk/sdk/lib/libmain.a(mem_manager.o)
                                                  /home/stoffer/esp8266/esp-open-sdk/sdk/lib/libmain.a(ets_timer.o)
                                                  /home/stoffer/esp8266/esp-open-sdk/sdk/lib/libmain.a(app_main.o)
ets_intr_unlock                                   /home/stoffer/esp8266/esp-open-sdk/sdk/lib/libnet80211.a(wl_cnx.o)
                                                  /home/stoffer/esp8266/esp-open-sdk/sdk/lib/libnet80211.a(wl_chm.o)
                                                  /home/stoffer/esp8266/esp-open-sdk/sdk/lib/libnet80211.a(ieee80211_scan.o)
                                                  /home/stoffer/esp8266/esp-open-sdk/sdk/lib/libnet80211.a(ieee80211_hostap.o)
                                                  /home/stoffer/esp8266/esp-open-sdk/sdk/lib/libpp.a(esf_buf.o)
                                                  /home/stoffer/esp8266/esp-open-sdk/sdk/lib/libpp.a(wdev.o)
                                                  /home/stoffer/esp8266/esp-open-sdk/sdk/lib/libpp.a(pp.o)
                                                  /home/stoffer/esp8266/esp-open-sdk/sdk/lib/libpp.a(pm_for_bcn_only_mode.o)
                                                  /home/stoffer/esp8266/esp-open-sdk/sdk/lib/libpp.a(pm.o)
                                                  /home/stoffer/esp8266/esp-open-sdk/sdk/lib/libpp.a(lmac.o)
                                                  /home/stoffer/esp8266/esp-open-sdk/sdk/lib/libpp.a(if_hwctrl.o)
                                                  /home/stoffer/esp8266/esp-open-sdk/sdk/lib/libmain.a(user_interface.o)
                                                  /home/stoffer/esp8266/esp-open-sdk/sdk/lib/libmain.a(mem_manager.o)
                                                  /home/stoffer/esp8266/esp-open-sdk/sdk/lib/libmain.a(ets_timer.o)
ets_isr_attach                                    build/app_app.a(uart.o)
                                                  /home/stoffer/esp8266/esp-open-sdk/sdk/lib/libmain.a(ets_timer.o)
                                                  /home/stoffer/esp8266/esp-open-sdk/sdk/lib/libmain.a(app_main.o)
ets_isr_mask                                      /home/stoffer/esp8266/esp-open-sdk/sdk/lib/libmain.a(user_interface.o)
ets_isr_unmask                                    build/app_app.a(uart.o)
                                                  /home/stoffer/esp8266/esp-open-sdk/sdk/lib/libmain.a(ets_timer.o)
                                                  /home/stoffer/esp8266/esp-open-sdk/sdk/lib/libmain.a(app_main.o)
ets_memcmp                                        /home/stoffer/esp8266/esp-open-sdk/sdk/lib/libwpa.a(wpa_common.o)
                                                  /home/stoffer/esp8266/esp-open-sdk/sdk/lib/libwpa.a(wpa.o)
                                                  /home/stoffer/esp8266/esp-open-sdk/sdk/lib/libwpa.a(wpa_auth.o)
                                                  /home/stoffer/esp8266/esp-open-sdk/sdk/lib/libwpa.a(ap_config.o)
                                                  /home/stoffer/esp8266/esp-open-sdk/sdk/lib/liblwip.a(dhcpserver.o)
                                                  /home/stoffer/esp8266/esp-open-sdk/sdk/lib/libnet80211.a(ieee80211_action_vendor.o)
                                                  /home/stoffer/esp8266/esp-open-sdk/sdk/lib/libnet80211.a(wl_cnx.o)
                                                  /home/stoffer/esp8266/esp-open-sdk/sdk/lib/libnet80211.a(ieee80211_sta.o)
                                                  /home/stoffer/esp8266/esp-open-sdk/sdk/lib/libnet80211.a(ieee80211_scan.o)
                                                  /home/stoffer/esp8266/esp-open-sdk/sdk/lib/libnet80211.a(ieee80211_input.o)
                                                  /home/stoffer/esp8266/esp-open-sdk/sdk/lib/libnet80211.a(ieee80211_hostap.o)
                                                  /home/stoffer/esp8266/esp-open-sdk/sdk/lib/libpp.a(trc.o)
                                                  /home/stoffer/esp8266/esp-open-sdk/sdk/lib/libpp.a(pp.o)
                                                  /home/stoffer/esp8266/esp-open-sdk/sdk/lib/libpp.a(pm.o)
                                                  build/app_app.a(crypto.o)
                                                  /home/stoffer/esp8266/esp-open-sdk/sdk/lib/libmain.a(user_interface.o)
ets_memcpy                                        /home/stoffer/esp8266/esp-open-sdk/sdk/lib/libwpa.a(aes-wrap.o)
                                                  /home/stoffer/esp8266/esp-open-sdk/sdk/lib/libwpa.a(wpas_glue.o)
                                                  /home/stoffer/esp8266/esp-open-sdk/sdk/lib/libwpa.a(wpa_main.o)
                                                  /home/stoffer/esp8266/esp-open-sdk/sdk/lib/libwpa.a(wpa_common.o)
                                                  /home/stoffer/esp8266/esp-open-sdk/sdk/lib/libwpa.a(wpa.o)
                                                  /home/stoffer/esp8266/esp-open-sdk/sdk/lib/libwpa.a(wpa_auth_ie.o)
                                                  /home/stoffer/esp8266/esp-open-sdk/sdk/lib/libwpa.a(wpa_auth.o)
                                                  /home/stoffer/esp8266/esp-open-sdk/sdk/lib/libwpa.a(os_xtensa.o)
                                                  /home/stoffer/esp8266/esp-open-sdk/sdk/lib/libwpa.a(common.o)
                                                  /home/stoffer/esp8266/esp-open-sdk/sdk/lib/libwpa.a(ap_config.o)
                                                  /home/stoffer/esp8266/esp-open-sdk/sdk/lib/liblwip.a(icmp.o)
                                                  /home/stoffer/esp8266/esp-open-sdk/sdk/lib/liblwip.a(tcp_out.o)
                                                  /home/stoffer/esp8266/esp-open-sdk/sdk/lib/liblwip.a(tcp.o)
                                                  /home/stoffer/esp8266/esp-open-sdk/sdk/lib/liblwip.a(pbuf.o)
                                                  /home/stoffer/esp8266/esp-open-sdk/sdk/lib/liblwip.a(ip.o)
                                                  /home/stoffer/esp8266/esp-open-sdk/sdk/lib/liblwip.a(etharp.o)
                                                  /home/stoffer/esp8266/esp-open-sdk/sdk/lib/liblwip.a(espconn_tcp.o)
                                                  /home/stoffer/esp8266/esp-open-sdk/sdk/lib/liblwip.a(espconn.o)
                                                  /home/stoffer/esp8266/esp-open-sdk/sdk/lib/liblwip.a(dns.o)
                                                  /home/stoffer/esp8266/esp-open-sdk/sdk/lib/liblwip.a(dhcpserver.o)
                                                  /home/stoffer/esp8266/esp-open-sdk/sdk/lib/libnet80211.a(ieee80211_ie_vendor.o)
                                                  /home/stoffer/esp8266/esp-open-sdk/sdk/lib/libnet80211.a(ieee80211_action_vendor.o)
                                                  /home/stoffer/esp8266/esp-open-sdk/sdk/lib/libnet80211.a(wl_cnx.o)
                                                  /home/stoffer/esp8266/esp-open-sdk/sdk/lib/libnet80211.a(ieee80211_sta.o)
                                                  /home/stoffer/esp8266/esp-open-sdk/sdk/lib/libnet80211.a(ieee80211_scan.o)
                                                  /home/stoffer/esp8266/esp-open-sdk/sdk/lib/libnet80211.a(ieee80211_proto.o)
                                                  /home/stoffer/esp8266/esp-open-sdk/sdk/lib/libnet80211.a(ieee80211_phy.o)
                                                  /home/stoffer/esp8266/esp-open-sdk/sdk/lib/libnet80211.a(ieee80211_output.o)
                                                  /home/stoffer/esp8266/esp-open-sdk/sdk/lib/libnet80211.a(ieee80211_mesh_quick.o)
                                                  /home/stoffer/esp8266/esp-open-sdk/sdk/lib/libnet80211.a(ieee80211_input.o)
                                                  /home/stoffer/esp8266/esp-open-sdk/sdk/lib/libnet80211.a(ieee80211_hostap.o)
                                                  /home/stoffer/esp8266/esp-open-sdk/sdk/lib/libnet80211.a(ieee80211.o)
                                                  /home/stoffer/esp8266/esp-open-sdk/sdk/lib/libpp.a(wdev.o)
                                                  /home/stoffer/esp8266/esp-open-sdk/sdk/lib/libpp.a(trc.o)
                                                  /home/stoffer/esp8266/esp-open-sdk/sdk/lib/libpp.a(pm.o)
                                                  /home/stoffer/esp8266/esp-open-sdk/sdk/lib/libpp.a(if_hwctrl.o)
                                                  build/app_app.a(heatshrink_decoder.o)
                                                  build/app_app.a(espfs.o)
                                                  build/app_app.a(config.o)
                                                  build/app_app.a(mqtt.o)
                                                  build/app_app.a(kmp.o)
                                                  build/app_app.a(sha256.o)
                                                  build/app_app.a(hmac-sha256.o)
                                                  build/app_app.a(crypto.o)
                                                  build/app_app.a(httpd.o)
                                                  build/app_app.a(captdns.o)
                                                  build/app_app.a(user_main.o)
                                                  /home/stoffer/esp8266/esp-open-sdk/sdk/lib/libmain.a(eagle_lwip_if.o)
                                                  /home/stoffer/esp8266/esp-open-sdk/sdk/lib/libmain.a(user_interface.o)
                                                  /home/stoffer/esp8266/esp-open-sdk/sdk/lib/libmain.a(mem_manager.o)
                                                  /home/stoffer/esp8266/esp-open-sdk/sdk/lib/libmain.a(app_main.o)
ets_memset                                        /home/stoffer/esp8266/esp-open-sdk/sdk/lib/libwpa.a(aes-internal-enc.o)
                                                  /home/stoffer/esp8266/esp-open-sdk/sdk/lib/libwpa.a(aes-wrap.o)
                                                  /home/stoffer/esp8266/esp-open-sdk/sdk/lib/libwpa.a(wpas_glue.o)
                                                  /home/stoffer/esp8266/esp-open-sdk/sdk/lib/libwpa.a(wpa_ie.o)
                                                  /home/stoffer/esp8266/esp-open-sdk/sdk/lib/libwpa.a(wpa_common.o)
                                                  /home/stoffer/esp8266/esp-open-sdk/sdk/lib/libwpa.a(wpa.o)
                                                  /home/stoffer/esp8266/esp-open-sdk/sdk/lib/libwpa.a(wpa_auth_ie.o)
                                                  /home/stoffer/esp8266/esp-open-sdk/sdk/lib/libwpa.a(wpa_auth.o)
                                                  /home/stoffer/esp8266/esp-open-sdk/sdk/lib/liblwip.a(udp.o)
                                                  /home/stoffer/esp8266/esp-open-sdk/sdk/lib/liblwip.a(tcp.o)
                                                  /home/stoffer/esp8266/esp-open-sdk/sdk/lib/liblwip.a(sntp.o)
                                                  /home/stoffer/esp8266/esp-open-sdk/sdk/lib/liblwip.a(raw.o)
                                                  /home/stoffer/esp8266/esp-open-sdk/sdk/lib/liblwip.a(ip.o)
                                                  /home/stoffer/esp8266/esp-open-sdk/sdk/lib/liblwip.a(espconn.o)
                                                  /home/stoffer/esp8266/esp-open-sdk/sdk/lib/liblwip.a(dns.o)
                                                  /home/stoffer/esp8266/esp-open-sdk/sdk/lib/liblwip.a(dhcpserver.o)
                                                  /home/stoffer/esp8266/esp-open-sdk/sdk/lib/liblwip.a(dhcp.o)
                                                  /home/stoffer/esp8266/esp-open-sdk/sdk/lib/libnet80211.a(wl_cnx.o)
                                                  /home/stoffer/esp8266/esp-open-sdk/sdk/lib/libnet80211.a(ieee80211_power.o)
                                                  /home/stoffer/esp8266/esp-open-sdk/sdk/lib/libnet80211.a(ieee80211_output.o)
                                                  /home/stoffer/esp8266/esp-open-sdk/sdk/lib/libnet80211.a(ieee80211_input.o)
                                                  /home/stoffer/esp8266/esp-open-sdk/sdk/lib/libnet80211.a(ieee80211_ht.o)
                                                  /home/stoffer/esp8266/esp-open-sdk/sdk/lib/libpp.a(esf_buf.o)
                                                  build/app_app.a(heatshrink_decoder.o)
                                                  build/app_app.a(wifi.o)
                                                  build/app_app.a(config.o)
                                                  build/app_app.a(mqtt.o)
                                                  build/app_app.a(cron.o)
                                                  build/app_app.a(kmp.o)
                                                  build/app_app.a(kmp_request.o)
                                                  build/app_app.a(aes.o)
                                                  build/app_app.a(sha256.o)
                                                  build/app_app.a(hmac-sha256.o)
                                                  build/app_app.a(crypto.o)
                                                  build/app_app.a(user_main.o)
                                                  /home/stoffer/esp8266/esp-open-sdk/sdk/lib/libmain.a(user_interface.o)
                                                  /home/stoffer/esp8266/esp-open-sdk/sdk/lib/libmain.a(mem_manager.o)
                                                  /home/stoffer/esp8266/esp-open-sdk/sdk/lib/libmain.a(app_main.o)
ets_post                                          /home/stoffer/esp8266/esp-open-sdk/sdk/lib/libwpa.a(wpa_main.o)
                                                  /home/stoffer/esp8266/esp-open-sdk/sdk/lib/liblwip.a(espconn_tcp.o)
                                                  /home/stoffer/esp8266/esp-open-sdk/sdk/lib/libnet80211.a(wl_cnx.o)
                                                  /home/stoffer/esp8266/esp-open-sdk/sdk/lib/libnet80211.a(ieee80211_sta.o)
                                                  /home/stoffer/esp8266/esp-open-sdk/sdk/lib/libnet80211.a(ieee80211_input.o)
                                                  /home/stoffer/esp8266/esp-open-sdk/sdk/lib/libnet80211.a(ieee80211_hostap.o)
                                                  /home/stoffer/esp8266/esp-open-sdk/sdk/lib/libpp.a(pp.o)
                                                  /home/stoffer/esp8266/esp-open-sdk/sdk/lib/libpp.a(pm.o)
                                                  /home/stoffer/esp8266/esp-open-sdk/sdk/lib/libpp.a(lmac.o)
                                                  /home/stoffer/esp8266/esp-open-sdk/sdk/lib/libmain.a(user_interface.o)
                                                  /home/stoffer/esp8266/esp-open-sdk/sdk/lib/libmain.a(ets_timer.o)
ets_printf                                        /home/stoffer/esp8266/esp-open-sdk/sdk/lib/libpp.a(wdev.o)
                                                  /home/stoffer/esp8266/esp-open-sdk/sdk/lib/libpp.a(pp.o)
                                                  /home/stoffer/esp8266/esp-open-sdk/sdk/lib/libpp.a(pm_for_bcn_only_mode.o)
                                                  /home/stoffer/esp8266/esp-open-sdk/sdk/lib/libpp.a(lmac.o)
                                                  /home/stoffer/esp8266/esp-open-sdk/sdk/lib/libmain.a(mem_manager.o)
                                                  /home/stoffer/esp8266/esp-open-sdk/sdk/lib/libmain.a(ets_timer.o)
                                                  /home/stoffer/esp8266/esp-open-sdk/sdk/lib/libmain.a(app_main.o)
ets_run                                           /home/stoffer/esp8266/esp-open-sdk/sdk/lib/libmain.a(app_main.o)
ets_set_idle_cb                                   /home/stoffer/esp8266/esp-open-sdk/sdk/lib/libpp.a(pm_for_bcn_only_mode.o)
                                                  /home/stoffer/esp8266/esp-open-sdk/sdk/lib/libpp.a(pm.o)
ets_snprintf                                      /home/stoffer/esp8266/esp-open-sdk/sdk/lib/libmain.a(eagle_lib.o)
ets_sprintf                                       /home/stoffer/esp8266/esp-open-sdk/sdk/lib/libmain.a(eagle_lib.o)
                                                  /home/stoffer/esp8266/esp-open-sdk/sdk/lib/liblwip.a(sntp.o)
                                                  /home/stoffer/esp8266/esp-open-sdk/sdk/lib/libmain.a(user_interface.o)
ets_strcat                                        /home/stoffer/esp8266/esp-open-sdk/sdk/lib/libmain.a(eagle_lib.o)
ets_strchr                                        /home/stoffer/esp8266/esp-open-sdk/sdk/lib/libmain.a(eagle_lib.o)
ets_strcmp                                        build/app_app.a(espfs.o)
                                                  build/app_app.a(cgiwifi.o)
                                                  build/app_app.a(cgi.o)
                                                  build/app_app.a(httpd.o)
ets_strcpy                                        build/app_app.a(cgiwifi.o)
                                                  build/app_app.a(cgi.o)
                                                  build/app_app.a(mqtt.o)
                                                  build/app_app.a(kmp.o)
                                                  build/app_app.a(httpd_user_init.o)
                                                  /home/stoffer/esp8266/esp-open-sdk/sdk/lib/libmain.a(user_interface.o)
ets_strdup                                        /home/stoffer/esp8266/esp-open-sdk/sdk/lib/libwpa.a(os_xtensa.o)
ets_strlen                                        /home/stoffer/esp8266/esp-open-sdk/sdk/lib/libwpa.a(wpa.o)
                                                  /home/stoffer/esp8266/esp-open-sdk/sdk/lib/libwpa.a(os_xtensa.o)
                                                  /home/stoffer/esp8266/esp-open-sdk/sdk/lib/libwpa.a(common.o)
                                                  /home/stoffer/esp8266/esp-open-sdk/sdk/lib/libwpa.a(ap_config.o)
                                                  /home/stoffer/esp8266/esp-open-sdk/sdk/lib/liblwip.a(pbuf.o)
                                                  /home/stoffer/esp8266/esp-open-sdk/sdk/lib/liblwip.a(dns.o)
                                                  /home/stoffer/esp8266/esp-open-sdk/sdk/lib/liblwip.a(dhcp.o)
                                                  /home/stoffer/esp8266/esp-open-sdk/sdk/lib/libnet80211.a(wl_cnx.o)
                                                  /home/stoffer/esp8266/esp-open-sdk/sdk/lib/libnet80211.a(ieee80211_scan.o)
                                                  /home/stoffer/esp8266/esp-open-sdk/sdk/lib/libnet80211.a(ieee80211_hostap.o)
                                                  build/app_app.a(utils.o)
                                                  build/app_app.a(cgiwifi.o)
                                                  build/app_app.a(mqtt.o)
                                                  build/app_app.a(kmp_request.o)
                                                  build/app_app.a(crypto.o)
                                                  build/app_app.a(httpd.o)
                                                  build/app_app.a(user_main.o)
                                                  /home/stoffer/esp8266/esp-open-sdk/sdk/lib/libmain.a(eagle_lib.o)
                                                  /home/stoffer/esp8266/esp-open-sdk/sdk/lib/libmain.a(user_interface.o)
                                                  /home/stoffer/esp8266/esp-open-sdk/sdk/lib/libmain.a(mem_manager.o)
ets_strncmp                                       /home/stoffer/esp8266/esp-open-sdk/sdk/lib/libnet80211.a(ieee80211_scan.o)
                                                  build/app_app.a(wifi.o)
                                                  build/app_app.a(cron.o)
                                                  build/app_app.a(httpd.o)
                                                  build/app_app.a(user_main.o)
                                                  /home/stoffer/esp8266/esp-open-sdk/sdk/lib/libmain.a(user_interface.o)
ets_strncpy                                       /home/stoffer/esp8266/esp-open-sdk/sdk/lib/libnet80211.a(ieee80211_scan.o)
                                                  build/app_app.a(cgiwifi.o)
                                                  build/app_app.a(cron.o)
                                                  build/app_app.a(kmp_request.o)
                                                  build/app_app.a(user_main.o)
ets_strrchr                                       /home/stoffer/esp8266/esp-open-sdk/sdk/lib/libmain.a(eagle_lib.o)
                                                  /home/stoffer/esp8266/esp-open-sdk/sdk/lib/libwpa.a(common.o)
ets_strstr                                        build/app_app.a(httpd.o)
ets_task                                          /home/stoffer/esp8266/esp-open-sdk/sdk/lib/liblwip.a(espconn_tcp.o)
                                                  /home/stoffer/esp8266/esp-open-sdk/sdk/lib/libpp.a(pp.o)
                                                  /home/stoffer/esp8266/esp-open-sdk/sdk/lib/libpp.a(pm.o)
                                                  /home/stoffer/esp8266/esp-open-sdk/sdk/lib/libmain.a(eagle_lwip_if.o)
                                                  /home/stoffer/esp8266/esp-open-sdk/sdk/lib/libmain.a(user_interface.o)
                                                  /home/stoffer/esp8266/esp-open-sdk/sdk/lib/libmain.a(ets_timer.o)
ets_timer_arm_new                                 /home/stoffer/esp8266/esp-open-sdk/sdk/lib/libmain.a(ets_timer.o)
                                                  /home/stoffer/esp8266/esp-open-sdk/sdk/lib/libwpa.a(wpa_main.o)
                                                  /home/stoffer/esp8266/esp-open-sdk/sdk/lib/libwpa.a(wpa.o)
                                                  /home/stoffer/esp8266/esp-open-sdk/sdk/lib/liblwip.a(sntp.o)
                                                  /home/stoffer/esp8266/esp-open-sdk/sdk/lib/libnet80211.a(wl_cnx.o)
                                                  /home/stoffer/esp8266/esp-open-sdk/sdk/lib/libnet80211.a(wl_chm.o)
                                                  /home/stoffer/esp8266/esp-open-sdk/sdk/lib/libnet80211.a(ieee80211_sta.o)
                                                  /home/stoffer/esp8266/esp-open-sdk/sdk/lib/libnet80211.a(ieee80211_scan.o)
                                                  /home/stoffer/esp8266/esp-open-sdk/sdk/lib/libnet80211.a(ieee80211_proto.o)
                                                  /home/stoffer/esp8266/esp-open-sdk/sdk/lib/libnet80211.a(ieee80211_hostap.o)
                                                  /home/stoffer/esp8266/esp-open-sdk/sdk/lib/libpp.a(pp.o)
                                                  /home/stoffer/esp8266/esp-open-sdk/sdk/lib/libpp.a(pm_for_bcn_only_mode.o)
                                                  /home/stoffer/esp8266/esp-open-sdk/sdk/lib/libpp.a(pm.o)
                                                  /home/stoffer/esp8266/esp-open-sdk/sdk/lib/libpp.a(if_hwctrl.o)
                                                  build/app_app.a(cgiwifi.o)
                                                  build/app_app.a(unix_time.o)
                                                  build/app_app.a(wifi.o)
                                                  build/app_app.a(config.o)
                                                  build/app_app.a(mqtt.o)
                                                  build/app_app.a(ac_out.o)
                                                  build/app_app.a(cron.o)
                                                  build/app_app.a(kmp_request.o)
                                                  build/app_app.a(httpd.o)
                                                  build/app_app.a(led.o)
                                                  build/app_app.a(user_main.o)
                                                  /home/stoffer/esp8266/esp-open-sdk/sdk/lib/libmain.a(user_interface.o)
                                                  /home/stoffer/esp8266/esp-open-sdk/sdk/lib/libmain.a(app_main.o)
ets_timer_disarm                                  /home/stoffer/esp8266/esp-open-sdk/sdk/lib/libmain.a(ets_timer.o)
                                                  /home/stoffer/esp8266/esp-open-sdk/sdk/lib/libwpa.a(wpa_main.o)
                                                  /home/stoffer/esp8266/esp-open-sdk/sdk/lib/libwpa.a(wpa.o)
                                                  /home/stoffer/esp8266/esp-open-sdk/sdk/lib/liblwip.a(sntp.o)
                                                  /home/stoffer/esp8266/esp-open-sdk/sdk/lib/libnet80211.a(wl_cnx.o)
                                                  /home/stoffer/esp8266/esp-open-sdk/sdk/lib/libnet80211.a(wl_chm.o)
                                                  /home/stoffer/esp8266/esp-open-sdk/sdk/lib/libnet80211.a(ieee80211_sta.o)
                                                  /home/stoffer/esp8266/esp-open-sdk/sdk/lib/libnet80211.a(ieee80211_scan.o)
                                                  /home/stoffer/esp8266/esp-open-sdk/sdk/lib/libnet80211.a(ieee80211_proto.o)
                                                  /home/stoffer/esp8266/esp-open-sdk/sdk/lib/libnet80211.a(ieee80211_hostap.o)
                                                  /home/stoffer/esp8266/esp-open-sdk/sdk/lib/libpp.a(pp.o)
                                                  /home/stoffer/esp8266/esp-open-sdk/sdk/lib/libpp.a(pm_for_bcn_only_mode.o)
                                                  /home/stoffer/esp8266/esp-open-sdk/sdk/lib/libpp.a(pm.o)
                                                  /home/stoffer/esp8266/esp-open-sdk/sdk/lib/libpp.a(if_hwctrl.o)
                                                  build/app_app.a(cgiwifi.o)
                                                  build/app_app.a(unix_time.o)
                                                  build/app_app.a(wifi.o)
                                                  build/app_app.a(config.o)
                                                  build/app_app.a(mqtt.o)
                                                  build/app_app.a(ac_out.o)
                                                  build/app_app.a(cron.o)
                                                  build/app_app.a(kmp_request.o)
                                                  build/app_app.a(httpd.o)
                                                  build/app_app.a(led.o)
                                                  build/app_app.a(user_main.o)
                                                  /home/stoffer/esp8266/esp-open-sdk/sdk/lib/libmain.a(user_interface.o)
                                                  /home/stoffer/esp8266/esp-open-sdk/sdk/lib/libmain.a(app_main.o)
ets_timer_done                                    /home/stoffer/esp8266/esp-open-sdk/sdk/lib/libmain.a(ets_timer.o)
ets_timer_handler_isr                             /home/stoffer/esp8266/esp-open-sdk/sdk/lib/libmain.a(ets_timer.o)
ets_timer_init                                    /home/stoffer/esp8266/esp-open-sdk/sdk/lib/libmain.a(ets_timer.o)
                                                  /home/stoffer/esp8266/esp-open-sdk/sdk/lib/libmain.a(app_main.o)
ets_timer_setfn                                   /home/stoffer/esp8266/esp-open-sdk/sdk/lib/libmain.a(ets_timer.o)
                                                  /home/stoffer/esp8266/esp-open-sdk/sdk/lib/libwpa.a(wpa_main.o)
                                                  /home/stoffer/esp8266/esp-open-sdk/sdk/lib/libwpa.a(wpa.o)
                                                  /home/stoffer/esp8266/esp-open-sdk/sdk/lib/liblwip.a(sntp.o)
                                                  /home/stoffer/esp8266/esp-open-sdk/sdk/lib/libnet80211.a(wl_cnx.o)
                                                  /home/stoffer/esp8266/esp-open-sdk/sdk/lib/libnet80211.a(wl_chm.o)
                                                  /home/stoffer/esp8266/esp-open-sdk/sdk/lib/libnet80211.a(ieee80211_sta.o)
                                                  /home/stoffer/esp8266/esp-open-sdk/sdk/lib/libnet80211.a(ieee80211_scan.o)
                                                  /home/stoffer/esp8266/esp-open-sdk/sdk/lib/libnet80211.a(ieee80211_proto.o)
                                                  /home/stoffer/esp8266/esp-open-sdk/sdk/lib/libnet80211.a(ieee80211_hostap.o)
                                                  /home/stoffer/esp8266/esp-open-sdk/sdk/lib/libpp.a(pp.o)
                                                  /home/stoffer/esp8266/esp-open-sdk/sdk/lib/libpp.a(pm_for_bcn_only_mode.o)
                                                  /home/stoffer/esp8266/esp-open-sdk/sdk/lib/libpp.a(pm.o)
                                                  /home/stoffer/esp8266/esp-open-sdk/sdk/lib/libpp.a(if_hwctrl.o)
                                                  build/app_app.a(cgiwifi.o)
                                                  build/app_app.a(unix_time.o)
                                                  build/app_app.a(wifi.o)
                                                  build/app_app.a(config.o)
                                                  build/app_app.a(mqtt.o)
                                                  build/app_app.a(ac_out.o)
                                                  build/app_app.a(cron.o)
                                                  build/app_app.a(kmp_request.o)
                                                  build/app_app.a(httpd.o)
                                                  build/app_app.a(led.o)
                                                  build/app_app.a(user_main.o)
                                                  /home/stoffer/esp8266/esp-open-sdk/sdk/lib/libmain.a(user_interface.o)
                                                  /home/stoffer/esp8266/esp-open-sdk/sdk/lib/libmain.a(app_main.o)
ets_update_cpu_frequency                          /home/stoffer/esp8266/esp-open-sdk/sdk/lib/libpp.a(pm_for_bcn_only_mode.o)
                                                  /home/stoffer/esp8266/esp-open-sdk/sdk/lib/libpp.a(pm.o)
                                                  /home/stoffer/esp8266/esp-open-sdk/sdk/lib/libphy.a(phy_chip_v6.o)
                                                  /home/stoffer/esp8266/esp-open-sdk/sdk/lib/libmain.a(user_interface.o)
ets_vprintf                                       /home/stoffer/esp8266/esp-open-sdk/sdk/lib/libmain.a(user_interface.o)
ets_vsnprintf                                     /home/stoffer/esp8266/esp-open-sdk/sdk/lib/libmain.a(eagle_lib.o)
                                                  /home/stoffer/esp8266/esp-open-sdk/sdk/lib/libwpa.a(wpa_debug.o)
ets_vsprintf                                      /home/stoffer/esp8266/esp-open-sdk/sdk/lib/libmain.a(eagle_lib.o)
ets_write_char                                    /home/stoffer/esp8266/esp-open-sdk/sdk/lib/libmain.a(user_interface.o)
event_TaskQueue                                   /home/stoffer/esp8266/esp-open-sdk/sdk/lib/libmain.a(user_interface.o)
event_cb                                          /home/stoffer/esp8266/esp-open-sdk/sdk/lib/libmain.a(user_interface.o)
                                                  /home/stoffer/esp8266/esp-open-sdk/sdk/lib/libwpa.a(wpa_main.o)
                                                  /home/stoffer/esp8266/esp-open-sdk/sdk/lib/libnet80211.a(wl_cnx.o)
                                                  /home/stoffer/esp8266/esp-open-sdk/sdk/lib/libnet80211.a(ieee80211_sta.o)
                                                  /home/stoffer/esp8266/esp-open-sdk/sdk/lib/libnet80211.a(ieee80211_hostap.o)
fifo_buffer                                       build/app_app.a(kmp_request.o)
fifo_head                                         build/app_app.a(kmp_request.o)
fifo_tail                                         build/app_app.a(kmp_request.o)
flash_read                                        /home/stoffer/esp8266/esp-open-sdk/sdk/lib/libmain.a(spi_flash.o)
flash_tmp                                         /home/stoffer/esp8266/esp-open-sdk/sdk/lib/libpp.a(pm.o)
                                                  /home/stoffer/esp8266/esp-open-sdk/sdk/lib/libpp.a(pm_for_bcn_only_mode.o)
flashchip                                         /home/stoffer/esp8266/esp-open-sdk/sdk/lib/libpp.a(pp.o)
                                                  /home/stoffer/esp8266/esp-open-sdk/sdk/lib/libpp.a(pm_for_bcn_only_mode.o)
                                                  /home/stoffer/esp8266/esp-open-sdk/sdk/lib/libpp.a(pm.o)
                                                  /home/stoffer/esp8266/esp-open-sdk/sdk/lib/libmain.a(user_interface.o)
                                                  /home/stoffer/esp8266/esp-open-sdk/sdk/lib/libmain.a(spi_flash.o)
                                                  /home/stoffer/esp8266/esp-open-sdk/sdk/lib/libmain.a(mem_manager.o)
                                                  /home/stoffer/esp8266/esp-open-sdk/sdk/lib/libmain.a(app_main.o)
fpm_allow_tx                                      /home/stoffer/esp8266/esp-open-sdk/sdk/lib/libpp.a(pm_for_bcn_only_mode.o)
                                                  /home/stoffer/esp8266/esp-open-sdk/sdk/lib/libnet80211.a(ieee80211_scan.o)
                                                  /home/stoffer/esp8266/esp-open-sdk/sdk/lib/libpp.a(pp.o)
                                                  /home/stoffer/esp8266/esp-open-sdk/sdk/lib/libmain.a(user_interface.o)
fpm_attach                                        /home/stoffer/esp8266/esp-open-sdk/sdk/lib/libpp.a(pm_for_bcn_only_mode.o)
                                                  /home/stoffer/esp8266/esp-open-sdk/sdk/lib/libmain.a(app_main.o)
fpm_close                                         /home/stoffer/esp8266/esp-open-sdk/sdk/lib/libpp.a(pm_for_bcn_only_mode.o)
                                                  /home/stoffer/esp8266/esp-open-sdk/sdk/lib/libnet80211.a(ieee80211_hostap.o)
                                                  /home/stoffer/esp8266/esp-open-sdk/sdk/lib/libpp.a(pm.o)
fpm_do_sleep                                      /home/stoffer/esp8266/esp-open-sdk/sdk/lib/libpp.a(pm_for_bcn_only_mode.o)
                                                  /home/stoffer/esp8266/esp-open-sdk/sdk/lib/libnet80211.a(ieee80211_hostap.o)
fpm_do_wakeup                                     /home/stoffer/esp8266/esp-open-sdk/sdk/lib/libpp.a(pm_for_bcn_only_mode.o)
                                                  /home/stoffer/esp8266/esp-open-sdk/sdk/lib/libnet80211.a(ieee80211_scan.o)
                                                  /home/stoffer/esp8266/esp-open-sdk/sdk/lib/libpp.a(pp.o)
                                                  /home/stoffer/esp8266/esp-open-sdk/sdk/lib/libmain.a(user_interface.o)
fpm_get_slp_type                                  /home/stoffer/esp8266/esp-open-sdk/sdk/lib/libpp.a(pm_for_bcn_only_mode.o)
fpm_is_open                                       /home/stoffer/esp8266/esp-open-sdk/sdk/lib/libpp.a(pm_for_bcn_only_mode.o)
                                                  /home/stoffer/esp8266/esp-open-sdk/sdk/lib/libnet80211.a(ieee80211_hostap.o)
                                                  /home/stoffer/esp8266/esp-open-sdk/sdk/lib/libpp.a(pm.o)
fpm_open                                          /home/stoffer/esp8266/esp-open-sdk/sdk/lib/libpp.a(pm_for_bcn_only_mode.o)
                                                  /home/stoffer/esp8266/esp-open-sdk/sdk/lib/libnet80211.a(ieee80211_hostap.o)
fpm_rf_is_closed                                  /home/stoffer/esp8266/esp-open-sdk/sdk/lib/libpp.a(pm_for_bcn_only_mode.o)
                                                  /home/stoffer/esp8266/esp-open-sdk/sdk/lib/libpp.a(pp.o)
fpm_set_type_from_upper                           /home/stoffer/esp8266/esp-open-sdk/sdk/lib/libpp.a(pm_for_bcn_only_mode.o)
fpm_set_wakeup_cb                                 /home/stoffer/esp8266/esp-open-sdk/sdk/lib/libpp.a(pm_for_bcn_only_mode.o)
frame                                             build/app_app.a(kmp_request.o)
frame_length                                      build/app_app.a(kmp_request.o)
gScanStruct                                       /home/stoffer/esp8266/esp-open-sdk/sdk/lib/libnet80211.a(ieee80211_scan.o)
                                                  /home/stoffer/esp8266/esp-open-sdk/sdk/lib/libnet80211.a(wl_cnx.o)
                                                  /home/stoffer/esp8266/esp-open-sdk/sdk/lib/libnet80211.a(ieee80211_sta.o)
                                                  /home/stoffer/esp8266/esp-open-sdk/sdk/lib/libnet80211.a(ieee80211_hostap.o)
                                                  /home/stoffer/esp8266/esp-open-sdk/sdk/lib/libpp.a(pp.o)
g_cnx_probe_rc_list_cb                            /home/stoffer/esp8266/esp-open-sdk/sdk/lib/libnet80211.a(wl_cnx.o)
g_ic                                              /home/stoffer/esp8266/esp-open-sdk/sdk/lib/libnet80211.a(ieee80211.o)
                                                  /home/stoffer/esp8266/esp-open-sdk/sdk/lib/libnet80211.a(ieee80211_crypto_tkip.o)
                                                  /home/stoffer/esp8266/esp-open-sdk/sdk/lib/libwpa.a(wpa_main.o)
                                                  /home/stoffer/esp8266/esp-open-sdk/sdk/lib/libwpa.a(wpa.o)
                                                  /home/stoffer/esp8266/esp-open-sdk/sdk/lib/libwpa.a(wpa_auth.o)
                                                  /home/stoffer/esp8266/esp-open-sdk/sdk/lib/libwpa.a(ap_config.o)
                                                  /home/stoffer/esp8266/esp-open-sdk/sdk/lib/libnet80211.a(ieee80211_action_vendor.o)
                                                  /home/stoffer/esp8266/esp-open-sdk/sdk/lib/libnet80211.a(wl_cnx.o)
                                                  /home/stoffer/esp8266/esp-open-sdk/sdk/lib/libnet80211.a(wl_chm.o)
                                                  /home/stoffer/esp8266/esp-open-sdk/sdk/lib/libnet80211.a(ieee80211_sta.o)
                                                  /home/stoffer/esp8266/esp-open-sdk/sdk/lib/libnet80211.a(ieee80211_scan.o)
                                                  /home/stoffer/esp8266/esp-open-sdk/sdk/lib/libnet80211.a(ieee80211_rfid.o)
                                                  /home/stoffer/esp8266/esp-open-sdk/sdk/lib/libnet80211.a(ieee80211_proto.o)
                                                  /home/stoffer/esp8266/esp-open-sdk/sdk/lib/libnet80211.a(ieee80211_power.o)
                                                  /home/stoffer/esp8266/esp-open-sdk/sdk/lib/libnet80211.a(ieee80211_phy.o)
                                                  /home/stoffer/esp8266/esp-open-sdk/sdk/lib/libnet80211.a(ieee80211_output.o)
                                                  /home/stoffer/esp8266/esp-open-sdk/sdk/lib/libnet80211.a(ieee80211_mesh_quick.o)
                                                  /home/stoffer/esp8266/esp-open-sdk/sdk/lib/libnet80211.a(ieee80211_input.o)
                                                  /home/stoffer/esp8266/esp-open-sdk/sdk/lib/libnet80211.a(ieee80211_ht.o)
                                                  /home/stoffer/esp8266/esp-open-sdk/sdk/lib/libnet80211.a(ieee80211_hostap.o)
                                                  /home/stoffer/esp8266/esp-open-sdk/sdk/lib/libnet80211.a(ieee80211_crypto.o)
                                                  /home/stoffer/esp8266/esp-open-sdk/sdk/lib/libpp.a(wdev.o)
                                                  /home/stoffer/esp8266/esp-open-sdk/sdk/lib/libpp.a(trc.o)
                                                  /home/stoffer/esp8266/esp-open-sdk/sdk/lib/libpp.a(pp.o)
                                                  /home/stoffer/esp8266/esp-open-sdk/sdk/lib/libpp.a(pm.o)
                                                  /home/stoffer/esp8266/esp-open-sdk/sdk/lib/libpp.a(if_hwctrl.o)
                                                  /home/stoffer/esp8266/esp-open-sdk/sdk/lib/libmain.a(eagle_lwip_if.o)
                                                  /home/stoffer/esp8266/esp-open-sdk/sdk/lib/libmain.a(user_interface.o)
                                                  /home/stoffer/esp8266/esp-open-sdk/sdk/lib/libmain.a(app_main.o)
g_phyFuns                                         /home/stoffer/esp8266/esp-open-sdk/sdk/lib/libphy.a(phy_chip_v6.o)
                                                  /home/stoffer/esp8266/esp-open-sdk/sdk/lib/libpp.a(pm.o)
                                                  /home/stoffer/esp8266/esp-open-sdk/sdk/lib/libphy.a(phy_sleep.o)
                                                  /home/stoffer/esp8266/esp-open-sdk/sdk/lib/libphy.a(phy_chip_v6_cal.o)
                                                  /home/stoffer/esp8266/esp-open-sdk/sdk/lib/libphy.a(phy_chip_v6_ana.o)
gen_rx_gain_table                                 /home/stoffer/esp8266/esp-open-sdk/sdk/lib/libphy.a(phy_chip_v6.o)
get_adc_rand                                      /home/stoffer/esp8266/esp-open-sdk/sdk/lib/libphy.a(phy_chip_v6.o)
                                                  /home/stoffer/esp8266/esp-open-sdk/sdk/lib/libphy.a(phy_sleep.o)
get_chip_version                                  /home/stoffer/esp8266/esp-open-sdk/sdk/lib/libphy.a(phy_sleep.o)
                                                  /home/stoffer/esp8266/esp-open-sdk/sdk/lib/libphy.a(phy_chip_v6.o)
get_data_from_rtc                                 /home/stoffer/esp8266/esp-open-sdk/sdk/lib/libphy.a(phy_chip_v6.o)
get_fcc_1m2m_pwr_offset                           /home/stoffer/esp8266/esp-open-sdk/sdk/lib/libphy.a(phy_chip_v6_cal.o)
get_iav_key                                       /home/stoffer/esp8266/esp-open-sdk/sdk/lib/libnet80211.a(ieee80211_action_vendor.o)
get_noisefloor_sat                                /home/stoffer/esp8266/esp-open-sdk/sdk/lib/libphy.a(phy_chip_v6.o)
get_phy_target_power                              /home/stoffer/esp8266/esp-open-sdk/sdk/lib/libphy.a(phy_chip_v6.o)
                                                  /home/stoffer/esp8266/esp-open-sdk/sdk/lib/libphy.a(phy_chip_v6_cal.o)
get_pwctrl_correct                                /home/stoffer/esp8266/esp-open-sdk/sdk/lib/libphy.a(phy_chip_v6_cal.o)
get_rf_gain_qdb                                   /home/stoffer/esp8266/esp-open-sdk/sdk/lib/libphy.a(phy_chip_v6_cal.o)
get_sar_dout                                      /home/stoffer/esp8266/esp-open-sdk/sdk/lib/libphy.a(phy_chip_v6_cal.o)
get_target_power_offset                           /home/stoffer/esp8266/esp-open-sdk/sdk/lib/libphy.a(phy_chip_v6_cal.o)
get_unix_time                                     build/app_app.a(unix_time.o)
                                                  build/app_app.a(cron.o)
                                                  build/app_app.a(kmp_request.o)
                                                  build/app_app.a(user_main.o)
get_vdd33_offset                                  /home/stoffer/esp8266/esp-open-sdk/sdk/lib/libphy.a(phy_chip_v6.o)
gmtime                                            /home/stoffer/esp8266/esp-open-sdk/xtensa-lx106-elf/bin/../lib/gcc/xtensa-lx106-elf/4.8.2/../../../../xtensa-lx106-elf/lib/libc.a(lib_a-gmtime.o)
                                                  build/app_app.a(cron.o)
gmtime_r                                          /home/stoffer/esp8266/esp-open-sdk/xtensa-lx106-elf/bin/../lib/gcc/xtensa-lx106-elf/4.8.2/../../../../xtensa-lx106-elf/lib/libc.a(lib_a-gmtime_r.o)
                                                  /home/stoffer/esp8266/esp-open-sdk/xtensa-lx106-elf/bin/../lib/gcc/xtensa-lx106-elf/4.8.2/../../../../xtensa-lx106-elf/lib/libc.a(lib_a-gmtime.o)
gpio_init                                         build/app_app.a(user_main.o)
gpio_output_set                                   /home/stoffer/esp8266/esp-open-sdk/sdk/lib/libnet80211.a(wl_cnx.o)
                                                  /home/stoffer/esp8266/esp-open-sdk/sdk/lib/libnet80211.a(ieee80211_hostap.o)
                                                  /home/stoffer/esp8266/esp-open-sdk/sdk/lib/libphy.a(phy_sleep.o)
                                                  /home/stoffer/esp8266/esp-open-sdk/sdk/lib/libphy.a(phy_chip_v6.o)
                                                  build/app_app.a(ac_out.o)
                                                  build/app_app.a(led.o)
                                                  /home/stoffer/esp8266/esp-open-sdk/sdk/lib/libmain.a(user_interface.o)
hardware_reject                                   /home/stoffer/esp8266/esp-open-sdk/sdk/lib/libphy.a(phy_sleep.o)
heatshrink_decoder_alloc                          build/app_app.a(heatshrink_decoder.o)
                                                  build/app_app.a(espfs.o)
heatshrink_decoder_finish                         build/app_app.a(heatshrink_decoder.o)
                                                  build/app_app.a(espfs.o)
heatshrink_decoder_free                           build/app_app.a(heatshrink_decoder.o)
                                                  build/app_app.a(espfs.o)
heatshrink_decoder_poll                           build/app_app.a(heatshrink_decoder.o)
                                                  build/app_app.a(espfs.o)
heatshrink_decoder_reset                          build/app_app.a(heatshrink_decoder.o)
heatshrink_decoder_sink                           build/app_app.a(heatshrink_decoder.o)
                                                  build/app_app.a(espfs.o)
hex2byte                                          /home/stoffer/esp8266/esp-open-sdk/sdk/lib/libwpa.a(common.o)
hexstr2bin                                        /home/stoffer/esp8266/esp-open-sdk/sdk/lib/libwpa.a(common.o)
                                                  /home/stoffer/esp8266/esp-open-sdk/sdk/lib/libwpa.a(wpa.o)
                                                  /home/stoffer/esp8266/esp-open-sdk/sdk/lib/libmain.a(user_interface.o)
hmac_md5                                          /home/stoffer/esp8266/esp-open-sdk/sdk/lib/libwpa.a(wpa_common.o)
hmac_sha1                                         /home/stoffer/esp8266/esp-open-sdk/sdk/lib/libwpa.a(wpa_common.o)
hmac_sha1_vector                                  /home/stoffer/esp8266/esp-open-sdk/sdk/lib/libwpa.a(wpa_common.o)
hmac_sha256                                       build/app_app.a(hmac-sha256.o)
hmac_sha256_final                                 build/app_app.a(hmac-sha256.o)
                                                  build/app_app.a(crypto.o)
hmac_sha256_init                                  build/app_app.a(hmac-sha256.o)
                                                  build/app_app.a(crypto.o)
hmac_sha256_key                                   build/app_app.a(crypto.o)
hmac_sha256_update                                build/app_app.a(hmac-sha256.o)
                                                  build/app_app.a(crypto.o)
hostap_handle_timer                               /home/stoffer/esp8266/esp-open-sdk/sdk/lib/libnet80211.a(ieee80211_hostap.o)
hostap_input                                      /home/stoffer/esp8266/esp-open-sdk/sdk/lib/libnet80211.a(ieee80211_hostap.o)
                                                  /home/stoffer/esp8266/esp-open-sdk/sdk/lib/libpp.a(pp.o)
hostapd_config_defaults                           /home/stoffer/esp8266/esp-open-sdk/sdk/lib/libwpa.a(ap_config.o)
hostapd_config_defaults_bss                       /home/stoffer/esp8266/esp-open-sdk/sdk/lib/libwpa.a(ap_config.o)
hostapd_get_psk                                   /home/stoffer/esp8266/esp-open-sdk/sdk/lib/libwpa.a(ap_config.o)
                                                  /home/stoffer/esp8266/esp-open-sdk/sdk/lib/libwpa.a(wpa_auth.o)
hostapd_mac_comp                                  /home/stoffer/esp8266/esp-open-sdk/sdk/lib/libwpa.a(ap_config.o)
hostapd_mac_comp_empty                            /home/stoffer/esp8266/esp-open-sdk/sdk/lib/libwpa.a(ap_config.o)
hostapd_maclist_found                             /home/stoffer/esp8266/esp-open-sdk/sdk/lib/libwpa.a(ap_config.o)
hostapd_rate_found                                /home/stoffer/esp8266/esp-open-sdk/sdk/lib/libwpa.a(ap_config.o)
hostapd_setup_wpa_psk                             /home/stoffer/esp8266/esp-open-sdk/sdk/lib/libwpa.a(ap_config.o)
                                                  /home/stoffer/esp8266/esp-open-sdk/sdk/lib/libnet80211.a(ieee80211_hostap.o)
hostapd_wep_key_cmp                               /home/stoffer/esp8266/esp-open-sdk/sdk/lib/libwpa.a(ap_config.o)
hostname                                          /home/stoffer/esp8266/esp-open-sdk/sdk/lib/libmain.a(eagle_lwip_if.o)
                                                  /home/stoffer/esp8266/esp-open-sdk/sdk/lib/libmain.a(user_interface.o)
httpdEndHeaders                                   build/app_app.a(httpd.o)
                                                  build/app_app.a(cgiwifi.o)
                                                  build/app_app.a(httpdespfs.o)
                                                  build/app_app.a(cgi.o)
httpdFindArg                                      build/app_app.a(httpd.o)
                                                  build/app_app.a(cgiwifi.o)
                                                  build/app_app.a(cgi.o)
httpdGetHeader                                    build/app_app.a(httpd.o)
httpdGetMimetype                                  build/app_app.a(httpd.o)
                                                  build/app_app.a(httpdespfs.o)
httpdHeader                                       build/app_app.a(httpd.o)
                                                  build/app_app.a(cgiwifi.o)
                                                  build/app_app.a(httpdespfs.o)
                                                  build/app_app.a(cgi.o)
httpdInit                                         build/app_app.a(httpd.o)
                                                  build/app_app.a(httpd_user_init.o)
httpdRedirect                                     build/app_app.a(httpd.o)
                                                  build/app_app.a(cgiwifi.o)
                                                  build/app_app.a(cgi.o)
httpdSend                                         build/app_app.a(httpd.o)
                                                  build/app_app.a(cgiwifi.o)
                                                  build/app_app.a(httpdespfs.o)
                                                  build/app_app.a(cgi.o)
httpdStartResponse                                build/app_app.a(httpd.o)
                                                  build/app_app.a(cgiwifi.o)
                                                  build/app_app.a(httpdespfs.o)
                                                  build/app_app.a(cgi.o)
httpdStop                                         build/app_app.a(httpd.o)
                                                  build/app_app.a(user_main.o)
httpdUrlDecode                                    build/app_app.a(httpd.o)
httpd_user_init                                   build/app_app.a(httpd_user_init.o)
                                                  build/app_app.a(user_main.o)
ic_bss_info_update                                /home/stoffer/esp8266/esp-open-sdk/sdk/lib/libpp.a(if_hwctrl.o)
                                                  /home/stoffer/esp8266/esp-open-sdk/sdk/lib/libnet80211.a(ieee80211_sta.o)
                                                  /home/stoffer/esp8266/esp-open-sdk/sdk/lib/libnet80211.a(ieee80211_hostap.o)
ic_disable_interface                              /home/stoffer/esp8266/esp-open-sdk/sdk/lib/libpp.a(if_hwctrl.o)
ic_enable_interface                               /home/stoffer/esp8266/esp-open-sdk/sdk/lib/libpp.a(if_hwctrl.o)
ic_get_addr                                       /home/stoffer/esp8266/esp-open-sdk/sdk/lib/libpp.a(if_hwctrl.o)
                                                  /home/stoffer/esp8266/esp-open-sdk/sdk/lib/libpp.a(pm.o)
ic_get_gtk_alg                                    /home/stoffer/esp8266/esp-open-sdk/sdk/lib/libpp.a(if_hwctrl.o)
                                                  /home/stoffer/esp8266/esp-open-sdk/sdk/lib/libpp.a(pp.o)
ic_get_ptk_alg                                    /home/stoffer/esp8266/esp-open-sdk/sdk/lib/libpp.a(if_hwctrl.o)
                                                  /home/stoffer/esp8266/esp-open-sdk/sdk/lib/libpp.a(pp.o)
ic_get_rssi                                       /home/stoffer/esp8266/esp-open-sdk/sdk/lib/libpp.a(if_hwctrl.o)
                                                  /home/stoffer/esp8266/esp-open-sdk/sdk/lib/libmain.a(user_interface.o)
ic_interface_enabled                              /home/stoffer/esp8266/esp-open-sdk/sdk/lib/libpp.a(if_hwctrl.o)
ic_interface_is_p2p                               /home/stoffer/esp8266/esp-open-sdk/sdk/lib/libpp.a(if_hwctrl.o)
ic_is_pure_sta                                    /home/stoffer/esp8266/esp-open-sdk/sdk/lib/libpp.a(if_hwctrl.o)
                                                  /home/stoffer/esp8266/esp-open-sdk/sdk/lib/libpp.a(pp.o)
ic_remove_key                                     /home/stoffer/esp8266/esp-open-sdk/sdk/lib/libpp.a(if_hwctrl.o)
                                                  /home/stoffer/esp8266/esp-open-sdk/sdk/lib/libwpa.a(wpa_auth.o)
ic_set_gtk_alg                                    /home/stoffer/esp8266/esp-open-sdk/sdk/lib/libpp.a(if_hwctrl.o)
ic_set_key                                        /home/stoffer/esp8266/esp-open-sdk/sdk/lib/libpp.a(if_hwctrl.o)
                                                  /home/stoffer/esp8266/esp-open-sdk/sdk/lib/libwpa.a(wpa_main.o)
                                                  /home/stoffer/esp8266/esp-open-sdk/sdk/lib/libwpa.a(wpa_auth.o)
ic_set_opmode                                     /home/stoffer/esp8266/esp-open-sdk/sdk/lib/libpp.a(if_hwctrl.o)
ic_set_ptk_alg                                    /home/stoffer/esp8266/esp-open-sdk/sdk/lib/libpp.a(if_hwctrl.o)
ic_set_sta                                        /home/stoffer/esp8266/esp-open-sdk/sdk/lib/libpp.a(if_hwctrl.o)
                                                  /home/stoffer/esp8266/esp-open-sdk/sdk/lib/libnet80211.a(wl_cnx.o)
ic_set_vif                                        /home/stoffer/esp8266/esp-open-sdk/sdk/lib/libpp.a(if_hwctrl.o)
                                                  /home/stoffer/esp8266/esp-open-sdk/sdk/lib/libnet80211.a(ieee80211_sta.o)
                                                  /home/stoffer/esp8266/esp-open-sdk/sdk/lib/libnet80211.a(ieee80211_hostap.o)
                                                  /home/stoffer/esp8266/esp-open-sdk/sdk/lib/libmain.a(user_interface.o)
icmp_dest_unreach                                 /home/stoffer/esp8266/esp-open-sdk/sdk/lib/liblwip.a(icmp.o)
                                                  /home/stoffer/esp8266/esp-open-sdk/sdk/lib/liblwip.a(udp.o)
                                                  /home/stoffer/esp8266/esp-open-sdk/sdk/lib/liblwip.a(ip.o)
icmp_input                                        /home/stoffer/esp8266/esp-open-sdk/sdk/lib/liblwip.a(icmp.o)
                                                  /home/stoffer/esp8266/esp-open-sdk/sdk/lib/liblwip.a(ip.o)
idle_timer_reopen_flag                            /home/stoffer/esp8266/esp-open-sdk/sdk/lib/libpp.a(pp.o)
                                                  /home/stoffer/esp8266/esp-open-sdk/sdk/lib/libpp.a(pm.o)
ieee80211_action_vendor_spec_attach               /home/stoffer/esp8266/esp-open-sdk/sdk/lib/libnet80211.a(ieee80211_action_vendor.o)
                                                  /home/stoffer/esp8266/esp-open-sdk/sdk/lib/libnet80211.a(ieee80211.o)
ieee80211_add_action_vendor_spec_esp              /home/stoffer/esp8266/esp-open-sdk/sdk/lib/libnet80211.a(ieee80211_action_vendor.o)
ieee80211_add_htcap                               /home/stoffer/esp8266/esp-open-sdk/sdk/lib/libnet80211.a(ieee80211_ht.o)
                                                  /home/stoffer/esp8266/esp-open-sdk/sdk/lib/libnet80211.a(ieee80211_output.o)
ieee80211_add_htcap_vendor                        /home/stoffer/esp8266/esp-open-sdk/sdk/lib/libnet80211.a(ieee80211_ht.o)
                                                  /home/stoffer/esp8266/esp-open-sdk/sdk/lib/libnet80211.a(ieee80211_output.o)
ieee80211_add_htinfo                              /home/stoffer/esp8266/esp-open-sdk/sdk/lib/libnet80211.a(ieee80211_ht.o)
                                                  /home/stoffer/esp8266/esp-open-sdk/sdk/lib/libnet80211.a(ieee80211_output.o)
ieee80211_add_htinfo_vendor                       /home/stoffer/esp8266/esp-open-sdk/sdk/lib/libnet80211.a(ieee80211_ht.o)
                                                  /home/stoffer/esp8266/esp-open-sdk/sdk/lib/libnet80211.a(ieee80211_output.o)
ieee80211_add_ie_vendor_esp_freq_annon            /home/stoffer/esp8266/esp-open-sdk/sdk/lib/libnet80211.a(ieee80211_ie_vendor.o)
                                                  /home/stoffer/esp8266/esp-open-sdk/sdk/lib/libnet80211.a(ieee80211_output.o)
ieee80211_add_ie_vendor_esp_head                  /home/stoffer/esp8266/esp-open-sdk/sdk/lib/libnet80211.a(ieee80211_ie_vendor.o)
ieee80211_add_ie_vendor_esp_manufacturer          /home/stoffer/esp8266/esp-open-sdk/sdk/lib/libnet80211.a(ieee80211_ie_vendor.o)
                                                  /home/stoffer/esp8266/esp-open-sdk/sdk/lib/libnet80211.a(ieee80211_output.o)
ieee80211_add_ie_vendor_esp_mesh_assoc            /home/stoffer/esp8266/esp-open-sdk/sdk/lib/libnet80211.a(ieee80211_ie_vendor.o)
                                                  /home/stoffer/esp8266/esp-open-sdk/sdk/lib/libnet80211.a(ieee80211_mesh_quick.o)
ieee80211_add_ie_vendor_esp_mesh_group            /home/stoffer/esp8266/esp-open-sdk/sdk/lib/libnet80211.a(ieee80211_ie_vendor.o)
ieee80211_add_ie_vendor_esp_now                   /home/stoffer/esp8266/esp-open-sdk/sdk/lib/libnet80211.a(ieee80211_ie_vendor.o)
                                                  /home/stoffer/esp8266/esp-open-sdk/sdk/lib/libnet80211.a(ieee80211_action_vendor.o)
ieee80211_add_ie_vendor_esp_simple_pair           /home/stoffer/esp8266/esp-open-sdk/sdk/lib/libnet80211.a(ieee80211_ie_vendor.o)
ieee80211_add_ie_vendor_esp_ssid                  /home/stoffer/esp8266/esp-open-sdk/sdk/lib/libnet80211.a(ieee80211_ie_vendor.o)
                                                  /home/stoffer/esp8266/esp-open-sdk/sdk/lib/libnet80211.a(ieee80211_output.o)
ieee80211_add_rates                               /home/stoffer/esp8266/esp-open-sdk/sdk/lib/libnet80211.a(ieee80211_output.o)
ieee80211_add_xrates                              /home/stoffer/esp8266/esp-open-sdk/sdk/lib/libnet80211.a(ieee80211_output.o)
ieee80211_alloc_action_vendor_spec                /home/stoffer/esp8266/esp-open-sdk/sdk/lib/libnet80211.a(ieee80211_action_vendor.o)
ieee80211_alloc_challenge                         /home/stoffer/esp8266/esp-open-sdk/sdk/lib/libnet80211.a(ieee80211_input.o)
                                                  /home/stoffer/esp8266/esp-open-sdk/sdk/lib/libnet80211.a(ieee80211_sta.o)
ieee80211_alloc_deauth                            /home/stoffer/esp8266/esp-open-sdk/sdk/lib/libnet80211.a(ieee80211_output.o)
ieee80211_alloc_proberesp                         /home/stoffer/esp8266/esp-open-sdk/sdk/lib/libnet80211.a(ieee80211_output.o)
ieee80211_beacon_alloc                            /home/stoffer/esp8266/esp-open-sdk/sdk/lib/libnet80211.a(ieee80211_output.o)
                                                  /home/stoffer/esp8266/esp-open-sdk/sdk/lib/libnet80211.a(ieee80211_hostap.o)
ieee80211_chan2ieee                               /home/stoffer/esp8266/esp-open-sdk/sdk/lib/libnet80211.a(ieee80211.o)
                                                  /home/stoffer/esp8266/esp-open-sdk/sdk/lib/libnet80211.a(wl_chm.o)
                                                  /home/stoffer/esp8266/esp-open-sdk/sdk/lib/libnet80211.a(ieee80211_scan.o)
                                                  /home/stoffer/esp8266/esp-open-sdk/sdk/lib/libnet80211.a(ieee80211_output.o)
                                                  /home/stoffer/esp8266/esp-open-sdk/sdk/lib/libnet80211.a(ieee80211_input.o)
                                                  /home/stoffer/esp8266/esp-open-sdk/sdk/lib/libnet80211.a(ieee80211_ht.o)
                                                  /home/stoffer/esp8266/esp-open-sdk/sdk/lib/libnet80211.a(ieee80211_hostap.o)
ieee80211_crypto_attach                           /home/stoffer/esp8266/esp-open-sdk/sdk/lib/libnet80211.a(ieee80211_crypto.o)
                                                  /home/stoffer/esp8266/esp-open-sdk/sdk/lib/libnet80211.a(ieee80211.o)
ieee80211_crypto_available                        /home/stoffer/esp8266/esp-open-sdk/sdk/lib/libnet80211.a(ieee80211_crypto.o)
ieee80211_crypto_decap                            /home/stoffer/esp8266/esp-open-sdk/sdk/lib/libnet80211.a(ieee80211_crypto.o)
                                                  /home/stoffer/esp8266/esp-open-sdk/sdk/lib/libnet80211.a(ieee80211_sta.o)
                                                  /home/stoffer/esp8266/esp-open-sdk/sdk/lib/libnet80211.a(ieee80211_hostap.o)
ieee80211_crypto_encap                            /home/stoffer/esp8266/esp-open-sdk/sdk/lib/libnet80211.a(ieee80211_crypto.o)
                                                  /home/stoffer/esp8266/esp-open-sdk/sdk/lib/libnet80211.a(ieee80211_output.o)
ieee80211_crypto_setkey                           /home/stoffer/esp8266/esp-open-sdk/sdk/lib/libnet80211.a(ieee80211_crypto.o)
ieee80211_decap                                   /home/stoffer/esp8266/esp-open-sdk/sdk/lib/libnet80211.a(ieee80211_input.o)
                                                  /home/stoffer/esp8266/esp-open-sdk/sdk/lib/libnet80211.a(ieee80211_sta.o)
                                                  /home/stoffer/esp8266/esp-open-sdk/sdk/lib/libnet80211.a(ieee80211_hostap.o)
ieee80211_deliver_data                            /home/stoffer/esp8266/esp-open-sdk/sdk/lib/libnet80211.a(ieee80211_input.o)
                                                  /home/stoffer/esp8266/esp-open-sdk/sdk/lib/libnet80211.a(ieee80211_sta.o)
ieee80211_find_channel                            /home/stoffer/esp8266/esp-open-sdk/sdk/lib/libnet80211.a(ieee80211.o)
                                                  /home/stoffer/esp8266/esp-open-sdk/sdk/lib/libnet80211.a(ieee80211_ht.o)
ieee80211_find_channel_byieee                     /home/stoffer/esp8266/esp-open-sdk/sdk/lib/libnet80211.a(ieee80211.o)
ieee80211_freedom_init                            /home/stoffer/esp8266/esp-open-sdk/sdk/lib/libnet80211.a(ieee80211.o)
ieee80211_freedom_inside_cb                       /home/stoffer/esp8266/esp-open-sdk/sdk/lib/libnet80211.a(ieee80211.o)
ieee80211_freedom_output                          /home/stoffer/esp8266/esp-open-sdk/sdk/lib/libnet80211.a(ieee80211_output.o)
                                                  /home/stoffer/esp8266/esp-open-sdk/sdk/lib/libmain.a(user_interface.o)
ieee80211_getcapinfo                              /home/stoffer/esp8266/esp-open-sdk/sdk/lib/libnet80211.a(ieee80211_output.o)
ieee80211_getmgtframe                             /home/stoffer/esp8266/esp-open-sdk/sdk/lib/libnet80211.a(ieee80211_ets.o)
                                                  /home/stoffer/esp8266/esp-open-sdk/sdk/lib/libnet80211.a(ieee80211_action_vendor.o)
                                                  /home/stoffer/esp8266/esp-open-sdk/sdk/lib/libnet80211.a(ieee80211_output.o)
                                                  /home/stoffer/esp8266/esp-open-sdk/sdk/lib/libnet80211.a(ieee80211_ht.o)
                                                  /home/stoffer/esp8266/esp-open-sdk/sdk/lib/libpp.a(pm.o)
ieee80211_hostap_attach                           /home/stoffer/esp8266/esp-open-sdk/sdk/lib/libnet80211.a(ieee80211_hostap.o)
ieee80211_ht_attach                               /home/stoffer/esp8266/esp-open-sdk/sdk/lib/libnet80211.a(ieee80211_ht.o)
                                                  /home/stoffer/esp8266/esp-open-sdk/sdk/lib/libnet80211.a(ieee80211.o)
                                                  /home/stoffer/esp8266/esp-open-sdk/sdk/lib/libmain.a(user_interface.o)
ieee80211_ht_node_cleanup                         /home/stoffer/esp8266/esp-open-sdk/sdk/lib/libnet80211.a(ieee80211_ht.o)
ieee80211_ht_node_init                            /home/stoffer/esp8266/esp-open-sdk/sdk/lib/libnet80211.a(ieee80211_ht.o)
                                                  /home/stoffer/esp8266/esp-open-sdk/sdk/lib/libnet80211.a(ieee80211_sta.o)
ieee80211_ht_updateparams                         /home/stoffer/esp8266/esp-open-sdk/sdk/lib/libnet80211.a(ieee80211_ht.o)
                                                  /home/stoffer/esp8266/esp-open-sdk/sdk/lib/libnet80211.a(wl_cnx.o)
                                                  /home/stoffer/esp8266/esp-open-sdk/sdk/lib/libnet80211.a(ieee80211_sta.o)
ieee80211_ieee2mhz                                /home/stoffer/esp8266/esp-open-sdk/sdk/lib/libnet80211.a(ieee80211.o)
ieee80211_ifattach                                /home/stoffer/esp8266/esp-open-sdk/sdk/lib/libnet80211.a(ieee80211.o)
                                                  /home/stoffer/esp8266/esp-open-sdk/sdk/lib/libmain.a(app_main.o)
ieee80211_iserp_rateset                           /home/stoffer/esp8266/esp-open-sdk/sdk/lib/libnet80211.a(ieee80211_proto.o)
ieee80211_mesh_quick_deinit                       /home/stoffer/esp8266/esp-open-sdk/sdk/lib/libnet80211.a(ieee80211_mesh_quick.o)
ieee80211_mesh_quick_get                          /home/stoffer/esp8266/esp-open-sdk/sdk/lib/libnet80211.a(ieee80211_mesh_quick.o)
                                                  /home/stoffer/esp8266/esp-open-sdk/sdk/lib/libnet80211.a(ieee80211_output.o)
                                                  /home/stoffer/esp8266/esp-open-sdk/sdk/lib/libnet80211.a(ieee80211_hostap.o)
ieee80211_mesh_quick_ie_add                       /home/stoffer/esp8266/esp-open-sdk/sdk/lib/libnet80211.a(ieee80211_mesh_quick.o)
                                                  /home/stoffer/esp8266/esp-open-sdk/sdk/lib/libnet80211.a(ieee80211_output.o)
ieee80211_mesh_quick_init                         /home/stoffer/esp8266/esp-open-sdk/sdk/lib/libnet80211.a(ieee80211_mesh_quick.o)
ieee80211_mesh_quick_set                          /home/stoffer/esp8266/esp-open-sdk/sdk/lib/libnet80211.a(ieee80211_mesh_quick.o)
ieee80211_mgmt_output                             /home/stoffer/esp8266/esp-open-sdk/sdk/lib/libnet80211.a(ieee80211_output.o)
                                                  /home/stoffer/esp8266/esp-open-sdk/sdk/lib/libnet80211.a(ieee80211_ht.o)
ieee80211_mhz2ieee                                /home/stoffer/esp8266/esp-open-sdk/sdk/lib/libnet80211.a(ieee80211.o)
ieee80211_mlme_connect_bss                        /home/stoffer/esp8266/esp-open-sdk/sdk/lib/libnet80211.a(ieee80211_proto.o)
                                                  /home/stoffer/esp8266/esp-open-sdk/sdk/lib/libnet80211.a(wl_cnx.o)
ieee80211_node_pwrsave                            /home/stoffer/esp8266/esp-open-sdk/sdk/lib/libnet80211.a(ieee80211_power.o)
                                                  /home/stoffer/esp8266/esp-open-sdk/sdk/lib/libnet80211.a(ieee80211_hostap.o)
ieee80211_opcap                                   /home/stoffer/esp8266/esp-open-sdk/sdk/lib/libnet80211.a(ieee80211.o)
ieee80211_output_pbuf                             /home/stoffer/esp8266/esp-open-sdk/sdk/lib/libnet80211.a(ieee80211_output.o)
                                                  /home/stoffer/esp8266/esp-open-sdk/sdk/lib/libwpa.a(wpa_main.o)
                                                  /home/stoffer/esp8266/esp-open-sdk/sdk/lib/libwpa.a(wpa_auth.o)
                                                  /home/stoffer/esp8266/esp-open-sdk/sdk/lib/libnet80211.a(ieee80211_hostap.o)
                                                  /home/stoffer/esp8266/esp-open-sdk/sdk/lib/libmain.a(eagle_lwip_if.o)
ieee80211_parse_action                            /home/stoffer/esp8266/esp-open-sdk/sdk/lib/libnet80211.a(ieee80211_input.o)
                                                  /home/stoffer/esp8266/esp-open-sdk/sdk/lib/libnet80211.a(ieee80211_sta.o)
ieee80211_parse_beacon                            /home/stoffer/esp8266/esp-open-sdk/sdk/lib/libnet80211.a(ieee80211_input.o)
                                                  /home/stoffer/esp8266/esp-open-sdk/sdk/lib/libnet80211.a(ieee80211_sta.o)
                                                  /home/stoffer/esp8266/esp-open-sdk/sdk/lib/libnet80211.a(ieee80211_hostap.o)
ieee80211_parse_htcap                             /home/stoffer/esp8266/esp-open-sdk/sdk/lib/libnet80211.a(ieee80211_ht.o)
ieee80211_parse_rsn                               /home/stoffer/esp8266/esp-open-sdk/sdk/lib/libnet80211.a(ieee80211_input.o)
                                                  /home/stoffer/esp8266/esp-open-sdk/sdk/lib/libnet80211.a(ieee80211_scan.o)
ieee80211_parse_wmeparams                         /home/stoffer/esp8266/esp-open-sdk/sdk/lib/libnet80211.a(ieee80211_sta.o)
                                                  /home/stoffer/esp8266/esp-open-sdk/sdk/lib/libnet80211.a(wl_cnx.o)
ieee80211_parse_wpa                               /home/stoffer/esp8266/esp-open-sdk/sdk/lib/libnet80211.a(ieee80211_input.o)
                                                  /home/stoffer/esp8266/esp-open-sdk/sdk/lib/libnet80211.a(ieee80211_scan.o)
ieee80211_phy_init                                /home/stoffer/esp8266/esp-open-sdk/sdk/lib/libnet80211.a(ieee80211_phy.o)
                                                  /home/stoffer/esp8266/esp-open-sdk/sdk/lib/libmain.a(user_interface.o)
                                                  /home/stoffer/esp8266/esp-open-sdk/sdk/lib/libmain.a(app_main.o)
ieee80211_phy_type_get                            /home/stoffer/esp8266/esp-open-sdk/sdk/lib/libnet80211.a(ieee80211_phy.o)
                                                  /home/stoffer/esp8266/esp-open-sdk/sdk/lib/libnet80211.a(wl_cnx.o)
ieee80211_proto_attach                            /home/stoffer/esp8266/esp-open-sdk/sdk/lib/libnet80211.a(ieee80211_proto.o)
                                                  /home/stoffer/esp8266/esp-open-sdk/sdk/lib/libnet80211.a(ieee80211.o)
ieee80211_psq_cleanup                             /home/stoffer/esp8266/esp-open-sdk/sdk/lib/libnet80211.a(ieee80211_power.o)
ieee80211_psq_init                                /home/stoffer/esp8266/esp-open-sdk/sdk/lib/libnet80211.a(ieee80211_power.o)
                                                  /home/stoffer/esp8266/esp-open-sdk/sdk/lib/libnet80211.a(ieee80211_hostap.o)
ieee80211_pwrsave                                 /home/stoffer/esp8266/esp-open-sdk/sdk/lib/libnet80211.a(ieee80211_power.o)
                                                  /home/stoffer/esp8266/esp-open-sdk/sdk/lib/libnet80211.a(ieee80211_output.o)
ieee80211_rate_ref_init                           /home/stoffer/esp8266/esp-open-sdk/sdk/lib/libnet80211.a(ieee80211.o)
ieee80211_recv_action                             /home/stoffer/esp8266/esp-open-sdk/sdk/lib/libnet80211.a(ieee80211_action.o)
                                                  /home/stoffer/esp8266/esp-open-sdk/sdk/lib/libnet80211.a(ieee80211_sta.o)
                                                  /home/stoffer/esp8266/esp-open-sdk/sdk/lib/libnet80211.a(ieee80211_hostap.o)
ieee80211_recv_action_register                    /home/stoffer/esp8266/esp-open-sdk/sdk/lib/libnet80211.a(ieee80211_action.o)
                                                  /home/stoffer/esp8266/esp-open-sdk/sdk/lib/libnet80211.a(ieee80211_action_vendor.o)
                                                  /home/stoffer/esp8266/esp-open-sdk/sdk/lib/libnet80211.a(ieee80211_ht.o)
ieee80211_recv_action_unregister                  /home/stoffer/esp8266/esp-open-sdk/sdk/lib/libnet80211.a(ieee80211_action.o)
ieee80211_recv_action_vendor_spec                 /home/stoffer/esp8266/esp-open-sdk/sdk/lib/libnet80211.a(ieee80211_action_vendor.o)
ieee80211_rfid_locp_recv                          /home/stoffer/esp8266/esp-open-sdk/sdk/lib/libnet80211.a(ieee80211_rfid.o)
                                                  /home/stoffer/esp8266/esp-open-sdk/sdk/lib/libnet80211.a(ieee80211_hostap.o)
ieee80211_rfid_locp_recv_close                    /home/stoffer/esp8266/esp-open-sdk/sdk/lib/libnet80211.a(ieee80211_rfid.o)
                                                  /home/stoffer/esp8266/esp-open-sdk/sdk/lib/libmain.a(user_interface.o)
ieee80211_rfid_locp_recv_open                     /home/stoffer/esp8266/esp-open-sdk/sdk/lib/libnet80211.a(ieee80211_rfid.o)
                                                  /home/stoffer/esp8266/esp-open-sdk/sdk/lib/libmain.a(user_interface.o)
ieee80211_rfid_locp_recv_reset                    /home/stoffer/esp8266/esp-open-sdk/sdk/lib/libnet80211.a(ieee80211_rfid.o)
                                                  /home/stoffer/esp8266/esp-open-sdk/sdk/lib/libnet80211.a(ieee80211.o)
ieee80211_scan_attach                             /home/stoffer/esp8266/esp-open-sdk/sdk/lib/libnet80211.a(ieee80211_scan.o)
                                                  /home/stoffer/esp8266/esp-open-sdk/sdk/lib/libnet80211.a(ieee80211.o)
ieee80211_send_action                             /home/stoffer/esp8266/esp-open-sdk/sdk/lib/libnet80211.a(ieee80211_action.o)
                                                  /home/stoffer/esp8266/esp-open-sdk/sdk/lib/libnet80211.a(ieee80211_ht.o)
ieee80211_send_action_register                    /home/stoffer/esp8266/esp-open-sdk/sdk/lib/libnet80211.a(ieee80211_action.o)
                                                  /home/stoffer/esp8266/esp-open-sdk/sdk/lib/libnet80211.a(ieee80211_ht.o)
ieee80211_send_action_unregister                  /home/stoffer/esp8266/esp-open-sdk/sdk/lib/libnet80211.a(ieee80211_action.o)
ieee80211_send_action_vendor_spec                 /home/stoffer/esp8266/esp-open-sdk/sdk/lib/libnet80211.a(ieee80211_action_vendor.o)
ieee80211_send_deauth                             /home/stoffer/esp8266/esp-open-sdk/sdk/lib/libnet80211.a(ieee80211_output.o)
                                                  /home/stoffer/esp8266/esp-open-sdk/sdk/lib/libnet80211.a(ieee80211_hostap.o)
ieee80211_send_mgmt                               /home/stoffer/esp8266/esp-open-sdk/sdk/lib/libnet80211.a(ieee80211_output.o)
                                                  /home/stoffer/esp8266/esp-open-sdk/sdk/lib/libwpa.a(wpa_main.o)
                                                  /home/stoffer/esp8266/esp-open-sdk/sdk/lib/libnet80211.a(wl_cnx.o)
                                                  /home/stoffer/esp8266/esp-open-sdk/sdk/lib/libnet80211.a(ieee80211_sta.o)
                                                  /home/stoffer/esp8266/esp-open-sdk/sdk/lib/libnet80211.a(ieee80211_hostap.o)
                                                  /home/stoffer/esp8266/esp-open-sdk/sdk/lib/libmain.a(user_interface.o)
ieee80211_send_nulldata                           /home/stoffer/esp8266/esp-open-sdk/sdk/lib/libnet80211.a(ieee80211_output.o)
                                                  /home/stoffer/esp8266/esp-open-sdk/sdk/lib/libnet80211.a(ieee80211_hostap.o)
ieee80211_send_probereq                           /home/stoffer/esp8266/esp-open-sdk/sdk/lib/libnet80211.a(ieee80211_output.o)
                                                  /home/stoffer/esp8266/esp-open-sdk/sdk/lib/libnet80211.a(wl_cnx.o)
                                                  /home/stoffer/esp8266/esp-open-sdk/sdk/lib/libnet80211.a(ieee80211_scan.o)
ieee80211_send_proberesp                          /home/stoffer/esp8266/esp-open-sdk/sdk/lib/libnet80211.a(ieee80211_output.o)
                                                  /home/stoffer/esp8266/esp-open-sdk/sdk/lib/libnet80211.a(ieee80211_hostap.o)
ieee80211_send_setup                              /home/stoffer/esp8266/esp-open-sdk/sdk/lib/libnet80211.a(ieee80211_output.o)
                                                  /home/stoffer/esp8266/esp-open-sdk/sdk/lib/libnet80211.a(ieee80211_action_vendor.o)
                                                  /home/stoffer/esp8266/esp-open-sdk/sdk/lib/libpp.a(pm.o)
ieee80211_set_shortslottime                       /home/stoffer/esp8266/esp-open-sdk/sdk/lib/libnet80211.a(ieee80211_proto.o)
                                                  /home/stoffer/esp8266/esp-open-sdk/sdk/lib/libnet80211.a(wl_cnx.o)
                                                  /home/stoffer/esp8266/esp-open-sdk/sdk/lib/libnet80211.a(ieee80211_sta.o)
ieee80211_set_tim                                 /home/stoffer/esp8266/esp-open-sdk/sdk/lib/libnet80211.a(ieee80211_power.o)
                                                  /home/stoffer/esp8266/esp-open-sdk/sdk/lib/libnet80211.a(ieee80211_hostap.o)
ieee80211_setup_basic_htrates                     /home/stoffer/esp8266/esp-open-sdk/sdk/lib/libnet80211.a(ieee80211_ht.o)
                                                  /home/stoffer/esp8266/esp-open-sdk/sdk/lib/libnet80211.a(ieee80211_sta.o)
ieee80211_setup_htrates                           /home/stoffer/esp8266/esp-open-sdk/sdk/lib/libnet80211.a(ieee80211_ht.o)
                                                  /home/stoffer/esp8266/esp-open-sdk/sdk/lib/libnet80211.a(ieee80211_sta.o)
ieee80211_setup_rates                             /home/stoffer/esp8266/esp-open-sdk/sdk/lib/libnet80211.a(ieee80211_input.o)
                                                  /home/stoffer/esp8266/esp-open-sdk/sdk/lib/libnet80211.a(ieee80211_sta.o)
                                                  /home/stoffer/esp8266/esp-open-sdk/sdk/lib/libnet80211.a(ieee80211_hostap.o)
ieee80211_setup_rateset                           /home/stoffer/esp8266/esp-open-sdk/sdk/lib/libnet80211.a(ieee80211_input.o)
                                                  /home/stoffer/esp8266/esp-open-sdk/sdk/lib/libnet80211.a(wl_cnx.o)
ieee80211_setup_ratetable                         /home/stoffer/esp8266/esp-open-sdk/sdk/lib/libnet80211.a(ieee80211_phy.o)
ieee80211_sta_new_state                           /home/stoffer/esp8266/esp-open-sdk/sdk/lib/libnet80211.a(ieee80211_sta.o)
                                                  /home/stoffer/esp8266/esp-open-sdk/sdk/lib/libwpa.a(wpa_main.o)
                                                  /home/stoffer/esp8266/esp-open-sdk/sdk/lib/libnet80211.a(wl_cnx.o)
                                                  /home/stoffer/esp8266/esp-open-sdk/sdk/lib/libnet80211.a(ieee80211_proto.o)
                                                  /home/stoffer/esp8266/esp-open-sdk/sdk/lib/libmain.a(user_interface.o)
ieee80211_tx_mgt_cb                               /home/stoffer/esp8266/esp-open-sdk/sdk/lib/libnet80211.a(ieee80211_output.o)
                                                  /home/stoffer/esp8266/esp-open-sdk/sdk/lib/libnet80211.a(ieee80211_proto.o)
ieee80211_user_ie_init                            /home/stoffer/esp8266/esp-open-sdk/sdk/lib/libnet80211.a(ieee80211.o)
ieee80211_wme_initparams                          /home/stoffer/esp8266/esp-open-sdk/sdk/lib/libnet80211.a(ieee80211_proto.o)
ieee80211_wme_updateparams                        /home/stoffer/esp8266/esp-open-sdk/sdk/lib/libnet80211.a(ieee80211_proto.o)
                                                  /home/stoffer/esp8266/esp-open-sdk/sdk/lib/libnet80211.a(wl_cnx.o)
                                                  /home/stoffer/esp8266/esp-open-sdk/sdk/lib/libnet80211.a(ieee80211_sta.o)
if_ctrl                                           /home/stoffer/esp8266/esp-open-sdk/sdk/lib/libpp.a(if_hwctrl.o)
igmp_init                                         /home/stoffer/esp8266/esp-open-sdk/sdk/lib/liblwip.a(igmp.o)
                                                  /home/stoffer/esp8266/esp-open-sdk/sdk/lib/liblwip.a(init.o)
igmp_input                                        /home/stoffer/esp8266/esp-open-sdk/sdk/lib/liblwip.a(igmp.o)
                                                  /home/stoffer/esp8266/esp-open-sdk/sdk/lib/liblwip.a(ip.o)
igmp_joingroup                                    /home/stoffer/esp8266/esp-open-sdk/sdk/lib/liblwip.a(igmp.o)
                                                  /home/stoffer/esp8266/esp-open-sdk/sdk/lib/liblwip.a(espconn_udp.o)
igmp_leavegroup                                   /home/stoffer/esp8266/esp-open-sdk/sdk/lib/liblwip.a(igmp.o)
                                                  /home/stoffer/esp8266/esp-open-sdk/sdk/lib/liblwip.a(espconn_udp.o)
igmp_lookfor_group                                /home/stoffer/esp8266/esp-open-sdk/sdk/lib/liblwip.a(igmp.o)
                                                  /home/stoffer/esp8266/esp-open-sdk/sdk/lib/liblwip.a(ip.o)
igmp_report_groups                                /home/stoffer/esp8266/esp-open-sdk/sdk/lib/liblwip.a(igmp.o)
                                                  /home/stoffer/esp8266/esp-open-sdk/sdk/lib/liblwip.a(netif.o)
igmp_start                                        /home/stoffer/esp8266/esp-open-sdk/sdk/lib/liblwip.a(igmp.o)
                                                  /home/stoffer/esp8266/esp-open-sdk/sdk/lib/liblwip.a(netif.o)
igmp_stop                                         /home/stoffer/esp8266/esp-open-sdk/sdk/lib/liblwip.a(igmp.o)
                                                  /home/stoffer/esp8266/esp-open-sdk/sdk/lib/liblwip.a(netif.o)
igmp_tmr                                          /home/stoffer/esp8266/esp-open-sdk/sdk/lib/liblwip.a(igmp.o)
                                                  /home/stoffer/esp8266/esp-open-sdk/sdk/lib/liblwip.a(timers.o)
inc_byte_array                                    /home/stoffer/esp8266/esp-open-sdk/sdk/lib/libwpa.a(common.o)
                                                  /home/stoffer/esp8266/esp-open-sdk/sdk/lib/libwpa.a(wpa.o)
                                                  /home/stoffer/esp8266/esp-open-sdk/sdk/lib/libwpa.a(wpa_auth.o)
inet_chksum                                       /home/stoffer/esp8266/esp-open-sdk/sdk/lib/liblwip.a(inet_chksum.o)
                                                  /home/stoffer/esp8266/esp-open-sdk/sdk/lib/liblwip.a(icmp.o)
                                                  /home/stoffer/esp8266/esp-open-sdk/sdk/lib/liblwip.a(ip.o)
                                                  /home/stoffer/esp8266/esp-open-sdk/sdk/lib/liblwip.a(igmp.o)
inet_chksum_pbuf                                  /home/stoffer/esp8266/esp-open-sdk/sdk/lib/liblwip.a(inet_chksum.o)
                                                  /home/stoffer/esp8266/esp-open-sdk/sdk/lib/liblwip.a(icmp.o)
inet_chksum_pseudo                                /home/stoffer/esp8266/esp-open-sdk/sdk/lib/liblwip.a(inet_chksum.o)
                                                  /home/stoffer/esp8266/esp-open-sdk/sdk/lib/liblwip.a(udp.o)
                                                  /home/stoffer/esp8266/esp-open-sdk/sdk/lib/liblwip.a(tcp_out.o)
                                                  /home/stoffer/esp8266/esp-open-sdk/sdk/lib/liblwip.a(tcp_in.o)
inet_chksum_pseudo_partial                        /home/stoffer/esp8266/esp-open-sdk/sdk/lib/liblwip.a(inet_chksum.o)
info                                              /home/stoffer/esp8266/esp-open-sdk/sdk/lib/libmain.a(app_main.o)
                                                  /home/stoffer/esp8266/esp-open-sdk/sdk/lib/libwpa.a(wpa_main.o)
                                                  /home/stoffer/esp8266/esp-open-sdk/sdk/lib/libnet80211.a(ieee80211_sta.o)
                                                  /home/stoffer/esp8266/esp-open-sdk/sdk/lib/libnet80211.a(ieee80211_hostap.o)
                                                  /home/stoffer/esp8266/esp-open-sdk/sdk/lib/libnet80211.a(ieee80211.o)
                                                  /home/stoffer/esp8266/esp-open-sdk/sdk/lib/libmain.a(user_interface.o)
init_aes_hmac_combined                            build/app_app.a(crypto.o)
                                                  build/app_app.a(user_main.o)
init_cal_dcoffset                                 /home/stoffer/esp8266/esp-open-sdk/sdk/lib/libphy.a(phy_chip_v6_cal.o)
                                                  /home/stoffer/esp8266/esp-open-sdk/sdk/lib/libphy.a(phy_chip_v6.o)
init_printf                                       build/app_app.a(tinyprintf.o)
init_rf_no_cal                                    /home/stoffer/esp8266/esp-open-sdk/sdk/lib/libphy.a(phy_chip_v6.o)
                                                  /home/stoffer/esp8266/esp-open-sdk/sdk/lib/libphy.a(phy_chip_v6_cal.o)
                                                  /home/stoffer/esp8266/esp-open-sdk/sdk/lib/libphy.a(phy_chip_v6_ana.o)
init_time                                         build/app_app.a(unix_time.o)
init_unix_time                                    build/app_app.a(unix_time.o)
                                                  build/app_app.a(user_main.o)
int_pow                                           build/app_app.a(utils.o)
                                                  build/app_app.a(kmp.o)
interface_mask                                    /home/stoffer/esp8266/esp-open-sdk/sdk/lib/libpp.a(if_hwctrl.o)
ip4_addr_isbroadcast                              /home/stoffer/esp8266/esp-open-sdk/sdk/lib/liblwip.a(ip_addr.o)
                                                  /home/stoffer/esp8266/esp-open-sdk/sdk/lib/liblwip.a(icmp.o)
                                                  /home/stoffer/esp8266/esp-open-sdk/sdk/lib/liblwip.a(udp.o)
                                                  /home/stoffer/esp8266/esp-open-sdk/sdk/lib/liblwip.a(tcp_in.o)
                                                  /home/stoffer/esp8266/esp-open-sdk/sdk/lib/liblwip.a(ip.o)
                                                  /home/stoffer/esp8266/esp-open-sdk/sdk/lib/liblwip.a(etharp.o)
                                                  /home/stoffer/esp8266/esp-open-sdk/sdk/lib/liblwip.a(espconn_udp.o)
ip4_addr_netmask_valid                            /home/stoffer/esp8266/esp-open-sdk/sdk/lib/liblwip.a(ip_addr.o)
ip_addr_any                                       /home/stoffer/esp8266/esp-open-sdk/sdk/lib/liblwip.a(ip_addr.o)
                                                  /home/stoffer/esp8266/esp-open-sdk/sdk/lib/liblwip.a(sntp.o)
                                                  /home/stoffer/esp8266/esp-open-sdk/sdk/lib/liblwip.a(igmp.o)
                                                  /home/stoffer/esp8266/esp-open-sdk/sdk/lib/liblwip.a(espconn_udp.o)
                                                  /home/stoffer/esp8266/esp-open-sdk/sdk/lib/liblwip.a(espconn_tcp.o)
                                                  /home/stoffer/esp8266/esp-open-sdk/sdk/lib/liblwip.a(dns.o)
                                                  /home/stoffer/esp8266/esp-open-sdk/sdk/lib/liblwip.a(dhcpserver.o)
                                                  /home/stoffer/esp8266/esp-open-sdk/sdk/lib/liblwip.a(dhcp.o)
ip_addr_broadcast                                 /home/stoffer/esp8266/esp-open-sdk/sdk/lib/liblwip.a(ip_addr.o)
                                                  /home/stoffer/esp8266/esp-open-sdk/sdk/lib/liblwip.a(dhcp.o)
ip_input                                          /home/stoffer/esp8266/esp-open-sdk/sdk/lib/liblwip.a(ip.o)
                                                  /home/stoffer/esp8266/esp-open-sdk/sdk/lib/liblwip.a(etharp.o)
ip_output                                         /home/stoffer/esp8266/esp-open-sdk/sdk/lib/liblwip.a(ip.o)
                                                  /home/stoffer/esp8266/esp-open-sdk/sdk/lib/liblwip.a(icmp.o)
                                                  /home/stoffer/esp8266/esp-open-sdk/sdk/lib/liblwip.a(tcp_out.o)
ip_output_if                                      /home/stoffer/esp8266/esp-open-sdk/sdk/lib/liblwip.a(ip.o)
                                                  /home/stoffer/esp8266/esp-open-sdk/sdk/lib/liblwip.a(icmp.o)
                                                  /home/stoffer/esp8266/esp-open-sdk/sdk/lib/liblwip.a(udp.o)
                                                  /home/stoffer/esp8266/esp-open-sdk/sdk/lib/liblwip.a(raw.o)
ip_output_if_opt                                  /home/stoffer/esp8266/esp-open-sdk/sdk/lib/liblwip.a(ip.o)
                                                  /home/stoffer/esp8266/esp-open-sdk/sdk/lib/liblwip.a(igmp.o)
ip_route                                          /home/stoffer/esp8266/esp-open-sdk/sdk/lib/liblwip.a(ip.o)
                                                  /home/stoffer/esp8266/esp-open-sdk/sdk/lib/liblwip.a(udp.o)
                                                  /home/stoffer/esp8266/esp-open-sdk/sdk/lib/liblwip.a(tcp_out.o)
                                                  /home/stoffer/esp8266/esp-open-sdk/sdk/lib/liblwip.a(tcp.o)
                                                  /home/stoffer/esp8266/esp-open-sdk/sdk/lib/liblwip.a(raw.o)
ip_router                                         /home/stoffer/esp8266/esp-open-sdk/sdk/lib/liblwip.a(ip.o)
ipaddr_addr                                       /home/stoffer/esp8266/esp-open-sdk/sdk/lib/liblwip.a(ip_addr.o)
                                                  /home/stoffer/esp8266/esp-open-sdk/sdk/lib/liblwip.a(dns.o)
ipaddr_aton                                       /home/stoffer/esp8266/esp-open-sdk/sdk/lib/liblwip.a(ip_addr.o)
ipaddr_ntoa                                       /home/stoffer/esp8266/esp-open-sdk/sdk/lib/liblwip.a(ip_addr.o)
ipaddr_ntoa_r                                     /home/stoffer/esp8266/esp-open-sdk/sdk/lib/liblwip.a(ip_addr.o)
kmp_byte_stuff                                    build/app_app.a(kmp.o)
kmp_byte_unstuff                                  build/app_app.a(kmp.o)
kmp_crc16                                         build/app_app.a(kmp.o)
kmp_data_length                                   build/app_app.a(kmp.o)
kmp_decode_frame                                  build/app_app.a(kmp.o)
                                                  build/app_app.a(kmp_request.o)
kmp_fifo_get                                      build/app_app.a(kmp_request.o)
kmp_fifo_in_use                                   build/app_app.a(kmp_request.o)
kmp_fifo_put                                      build/app_app.a(kmp_request.o)
                                                  build/app_app.a(uart.o)
kmp_fifo_snoop                                    build/app_app.a(kmp_request.o)
kmp_frame                                         build/app_app.a(kmp.o)
kmp_frame_length                                  build/app_app.a(kmp.o)
kmp_get_received_serial                           build/app_app.a(kmp_request.o)
                                                  build/app_app.a(user_main.o)
kmp_get_register                                  build/app_app.a(kmp.o)
                                                  build/app_app.a(kmp_request.o)
kmp_get_serial                                    build/app_app.a(kmp.o)
                                                  build/app_app.a(kmp_request.o)
kmp_get_type                                      build/app_app.a(kmp.o)
kmp_received_task_queue                           build/app_app.a(uart.o)
                                                  build/app_app.a(kmp_request.o)
                                                  build/app_app.a(user_main.o)
kmp_request_init                                  build/app_app.a(kmp_request.o)
                                                  build/app_app.a(user_main.o)
kmp_request_send                                  build/app_app.a(kmp_request.o)
                                                  build/app_app.a(user_main.o)
kmp_requests_sent                                 build/app_app.a(kmp_request.o)
kmp_response                                      build/app_app.a(kmp.o)
kmp_serial                                        build/app_app.a(kmp_request.o)
kmp_set_clock                                     build/app_app.a(kmp.o)
kmp_set_mqtt_client                               build/app_app.a(kmp_request.o)
                                                  build/app_app.a(user_main.o)
kmp_unit_to_string                                build/app_app.a(kmp.o)
                                                  build/app_app.a(kmp_request.o)
kmp_value_to_double                               build/app_app.a(kmp.o)
kmp_value_to_string                               build/app_app.a(kmp.o)
                                                  build/app_app.a(kmp_request.o)
kw_to_w_str                                       build/app_app.a(utils.o)
led_init                                          build/app_app.a(led.o)
                                                  build/app_app.a(user_main.o)
led_off                                           build/app_app.a(led.o)
led_on                                            build/app_app.a(led.o)
led_pattern_a                                     build/app_app.a(led.o)
led_pattern_b                                     build/app_app.a(led.o)
                                                  build/app_app.a(wifi.o)
led_stop_pattern                                  build/app_app.a(led.o)
                                                  build/app_app.a(wifi.o)
                                                  build/app_app.a(ac_out.o)
lldesc_build_chain                                /home/stoffer/esp8266/esp-open-sdk/sdk/lib/libpp.a(wdev.o)
lldesc_num2link                                   /home/stoffer/esp8266/esp-open-sdk/sdk/lib/libpp.a(pp.o)
lmacConfMib                                       /home/stoffer/esp8266/esp-open-sdk/sdk/lib/libpp.a(lmac.o)
                                                  /home/stoffer/esp8266/esp-open-sdk/sdk/lib/libpp.a(trc.o)
lmacDiscardAgedMSDU                               /home/stoffer/esp8266/esp-open-sdk/sdk/lib/libpp.a(lmac.o)
                                                  /home/stoffer/esp8266/esp-open-sdk/sdk/lib/libpp.a(pp.o)
lmacInit                                          /home/stoffer/esp8266/esp-open-sdk/sdk/lib/libpp.a(lmac.o)
                                                  /home/stoffer/esp8266/esp-open-sdk/sdk/lib/libmain.a(app_main.o)
lmacInitAc                                        /home/stoffer/esp8266/esp-open-sdk/sdk/lib/libpp.a(lmac.o)
lmacIsActive                                      /home/stoffer/esp8266/esp-open-sdk/sdk/lib/libpp.a(lmac.o)
lmacIsIdle                                        /home/stoffer/esp8266/esp-open-sdk/sdk/lib/libpp.a(lmac.o)
                                                  /home/stoffer/esp8266/esp-open-sdk/sdk/lib/libpp.a(pp.o)
lmacMSDUAged                                      /home/stoffer/esp8266/esp-open-sdk/sdk/lib/libpp.a(lmac.o)
                                                  /home/stoffer/esp8266/esp-open-sdk/sdk/lib/libpp.a(pp.o)
lmacProcessAckTimeout                             /home/stoffer/esp8266/esp-open-sdk/sdk/lib/libpp.a(lmac.o)
                                                  /home/stoffer/esp8266/esp-open-sdk/sdk/lib/libpp.a(wdev.o)
lmacProcessAllTxTimeout                           /home/stoffer/esp8266/esp-open-sdk/sdk/lib/libpp.a(lmac.o)
                                                  /home/stoffer/esp8266/esp-open-sdk/sdk/lib/libpp.a(wdev.o)
lmacProcessCollision                              /home/stoffer/esp8266/esp-open-sdk/sdk/lib/libpp.a(lmac.o)
lmacProcessCollisions                             /home/stoffer/esp8266/esp-open-sdk/sdk/lib/libpp.a(lmac.o)
                                                  /home/stoffer/esp8266/esp-open-sdk/sdk/lib/libpp.a(wdev.o)
lmacProcessCtsTimeout                             /home/stoffer/esp8266/esp-open-sdk/sdk/lib/libpp.a(lmac.o)
                                                  /home/stoffer/esp8266/esp-open-sdk/sdk/lib/libpp.a(wdev.o)
lmacProcessRtsStart                               /home/stoffer/esp8266/esp-open-sdk/sdk/lib/libpp.a(lmac.o)
                                                  /home/stoffer/esp8266/esp-open-sdk/sdk/lib/libpp.a(wdev.o)
lmacProcessTXStartData                            /home/stoffer/esp8266/esp-open-sdk/sdk/lib/libpp.a(lmac.o)
                                                  /home/stoffer/esp8266/esp-open-sdk/sdk/lib/libpp.a(wdev.o)
lmacProcessTxError                                /home/stoffer/esp8266/esp-open-sdk/sdk/lib/libpp.a(lmac.o)
                                                  /home/stoffer/esp8266/esp-open-sdk/sdk/lib/libpp.a(wdev.o)
lmacProcessTxRtsError                             /home/stoffer/esp8266/esp-open-sdk/sdk/lib/libpp.a(lmac.o)
                                                  /home/stoffer/esp8266/esp-open-sdk/sdk/lib/libpp.a(wdev.o)
lmacProcessTxSuccess                              /home/stoffer/esp8266/esp-open-sdk/sdk/lib/libpp.a(lmac.o)
                                                  /home/stoffer/esp8266/esp-open-sdk/sdk/lib/libpp.a(wdev.o)
lmacProcessTxTimeout                              /home/stoffer/esp8266/esp-open-sdk/sdk/lib/libpp.a(lmac.o)
                                                  /home/stoffer/esp8266/esp-open-sdk/sdk/lib/libpp.a(pp.o)
lmacRecycleMPDU                                   /home/stoffer/esp8266/esp-open-sdk/sdk/lib/libpp.a(lmac.o)
lmacRxDone                                        /home/stoffer/esp8266/esp-open-sdk/sdk/lib/libpp.a(lmac.o)
                                                  /home/stoffer/esp8266/esp-open-sdk/sdk/lib/libpp.a(wdev.o)
lmacSetAcParam                                    /home/stoffer/esp8266/esp-open-sdk/sdk/lib/libpp.a(lmac.o)
lmacSetRetryLimit                                 /home/stoffer/esp8266/esp-open-sdk/sdk/lib/libpp.a(lmac.o)
lmacTxFrame                                       /home/stoffer/esp8266/esp-open-sdk/sdk/lib/libpp.a(lmac.o)
                                                  /home/stoffer/esp8266/esp-open-sdk/sdk/lib/libpp.a(pp.o)
loop_pwctrl_correct_atten_high_power              /home/stoffer/esp8266/esp-open-sdk/sdk/lib/libphy.a(phy_chip_v6_cal.o)
                                                  /home/stoffer/esp8266/esp-open-sdk/sdk/lib/libphy.a(phy_chip_v6.o)
loop_pwctrl_pwdet_error_accum_high_power          /home/stoffer/esp8266/esp-open-sdk/sdk/lib/libphy.a(phy_chip_v6_cal.o)
                                                  /home/stoffer/esp8266/esp-open-sdk/sdk/lib/libphy.a(phy_chip_v6.o)
low_power_set                                     /home/stoffer/esp8266/esp-open-sdk/sdk/lib/libphy.a(phy_chip_v6_ana.o)
                                                  /home/stoffer/esp8266/esp-open-sdk/sdk/lib/libphy.a(phy_chip_v6.o)
lslp_mem_opt_8266                                 /home/stoffer/esp8266/esp-open-sdk/sdk/lib/libphy.a(phy_sleep.o)
lwip_init                                         /home/stoffer/esp8266/esp-open-sdk/sdk/lib/liblwip.a(init.o)
                                                  /home/stoffer/esp8266/esp-open-sdk/sdk/lib/libmain.a(app_main.o)
lwip_timer_interval                               /home/stoffer/esp8266/esp-open-sdk/sdk/lib/libmain.a(app_main.o)
                                                  /home/stoffer/esp8266/esp-open-sdk/sdk/lib/libpp.a(pm.o)
meas_tone_pwr_db                                  /home/stoffer/esp8266/esp-open-sdk/sdk/lib/libphy.a(phy_chip_v6_cal.o)
memcpy                                            /home/stoffer/esp8266/esp-open-sdk/xtensa-lx106-elf/bin/../lib/gcc/xtensa-lx106-elf/4.8.2/../../../../xtensa-lx106-elf/lib/libc.a(lib_a-memcpy.o)
                                                  build/app_app.a(mqtt_msg.o)
memcpyAligned                                     build/app_app.a(espfs.o)
memp_sizes                                        /home/stoffer/esp8266/esp-open-sdk/sdk/lib/liblwip.a(memp.o)
                                                  /home/stoffer/esp8266/esp-open-sdk/sdk/lib/liblwip.a(udp.o)
                                                  /home/stoffer/esp8266/esp-open-sdk/sdk/lib/liblwip.a(timers.o)
                                                  /home/stoffer/esp8266/esp-open-sdk/sdk/lib/liblwip.a(tcp_out.o)
                                                  /home/stoffer/esp8266/esp-open-sdk/sdk/lib/liblwip.a(tcp.o)
                                                  /home/stoffer/esp8266/esp-open-sdk/sdk/lib/liblwip.a(raw.o)
                                                  /home/stoffer/esp8266/esp-open-sdk/sdk/lib/liblwip.a(pbuf.o)
                                                  /home/stoffer/esp8266/esp-open-sdk/sdk/lib/liblwip.a(igmp.o)
                                                  /home/stoffer/esp8266/esp-open-sdk/sdk/lib/liblwip.a(etharp.o)
memp_sizes_test                                   /home/stoffer/esp8266/esp-open-sdk/sdk/lib/liblwip.a(memp.o)
memset                                            /home/stoffer/esp8266/esp-open-sdk/xtensa-lx106-elf/bin/../lib/gcc/xtensa-lx106-elf/4.8.2/../../../../xtensa-lx106-elf/lib/libc.a(lib_a-memset.o)
                                                  build/app_app.a(mqtt_msg.o)
mqttClient                                        build/app_app.a(user_main.o)
mqttConnectedCb                                   build/app_app.a(user_main.o)
mqttDataCb                                        build/app_app.a(user_main.o)
mqttDisconnectedCb                                build/app_app.a(user_main.o)
mqttPublishedCb                                   build/app_app.a(user_main.o)
mqtt_client_delete                                build/app_app.a(mqtt.o)
mqtt_get_id                                       build/app_app.a(mqtt_msg.o)
                                                  build/app_app.a(mqtt.o)
mqtt_get_publish_data                             build/app_app.a(mqtt_msg.o)
                                                  build/app_app.a(mqtt.o)
mqtt_get_publish_topic                            build/app_app.a(mqtt_msg.o)
                                                  build/app_app.a(mqtt.o)
mqtt_get_total_length                             build/app_app.a(mqtt_msg.o)
                                                  build/app_app.a(mqtt.o)
mqtt_msg_connect                                  build/app_app.a(mqtt_msg.o)
                                                  build/app_app.a(mqtt.o)
mqtt_msg_disconnect                               build/app_app.a(mqtt_msg.o)
mqtt_msg_init                                     build/app_app.a(mqtt_msg.o)
                                                  build/app_app.a(mqtt.o)
mqtt_msg_pingreq                                  build/app_app.a(mqtt_msg.o)
                                                  build/app_app.a(mqtt.o)
mqtt_msg_pingresp                                 build/app_app.a(mqtt_msg.o)
                                                  build/app_app.a(mqtt.o)
mqtt_msg_puback                                   build/app_app.a(mqtt_msg.o)
                                                  build/app_app.a(mqtt.o)
mqtt_msg_pubcomp                                  build/app_app.a(mqtt_msg.o)
                                                  build/app_app.a(mqtt.o)
mqtt_msg_publish                                  build/app_app.a(mqtt_msg.o)
                                                  build/app_app.a(mqtt.o)
mqtt_msg_pubrec                                   build/app_app.a(mqtt_msg.o)
                                                  build/app_app.a(mqtt.o)
mqtt_msg_pubrel                                   build/app_app.a(mqtt_msg.o)
                                                  build/app_app.a(mqtt.o)
mqtt_msg_subscribe                                build/app_app.a(mqtt_msg.o)
                                                  build/app_app.a(mqtt.o)
mqtt_msg_unsubscribe                              build/app_app.a(mqtt_msg.o)
mqtt_procTaskQueue                                build/app_app.a(mqtt.o)
mqtt_send_keepalive                               build/app_app.a(mqtt.o)
mqtt_tcpclient_connect_cb                         build/app_app.a(mqtt.o)
mqtt_tcpclient_delete                             build/app_app.a(mqtt.o)
mqtt_tcpclient_discon_cb                          build/app_app.a(mqtt.o)
mqtt_tcpclient_recon_cb                           build/app_app.a(mqtt.o)
mqtt_tcpclient_recv                               build/app_app.a(mqtt.o)
mqtt_tcpclient_sent_cb                            build/app_app.a(mqtt.o)
mqtt_timer                                        build/app_app.a(mqtt.o)
myPassFn                                          build/app_app.a(httpd_user_init.o)
netif_add                                         /home/stoffer/esp8266/esp-open-sdk/sdk/lib/liblwip.a(netif.o)
                                                  /home/stoffer/esp8266/esp-open-sdk/sdk/lib/libmain.a(eagle_lwip_if.o)
netif_default                                     /home/stoffer/esp8266/esp-open-sdk/sdk/lib/liblwip.a(netif.o)
                                                  /home/stoffer/esp8266/esp-open-sdk/sdk/lib/liblwip.a(ip.o)
                                                  /home/stoffer/esp8266/esp-open-sdk/sdk/lib/libmain.a(user_interface.o)
netif_find                                        /home/stoffer/esp8266/esp-open-sdk/sdk/lib/liblwip.a(netif.o)
netif_init                                        /home/stoffer/esp8266/esp-open-sdk/sdk/lib/liblwip.a(netif.o)
                                                  /home/stoffer/esp8266/esp-open-sdk/sdk/lib/liblwip.a(init.o)
netif_list                                        /home/stoffer/esp8266/esp-open-sdk/sdk/lib/liblwip.a(netif.o)
                                                  /home/stoffer/esp8266/esp-open-sdk/sdk/lib/liblwip.a(ip.o)
                                                  /home/stoffer/esp8266/esp-open-sdk/sdk/lib/liblwip.a(igmp.o)
                                                  /home/stoffer/esp8266/esp-open-sdk/sdk/lib/liblwip.a(dhcp.o)
netif_remove                                      /home/stoffer/esp8266/esp-open-sdk/sdk/lib/liblwip.a(netif.o)
                                                  /home/stoffer/esp8266/esp-open-sdk/sdk/lib/libmain.a(eagle_lwip_if.o)
netif_set_addr                                    /home/stoffer/esp8266/esp-open-sdk/sdk/lib/liblwip.a(netif.o)
                                                  /home/stoffer/esp8266/esp-open-sdk/sdk/lib/libwpa.a(wpa_main.o)
                                                  /home/stoffer/esp8266/esp-open-sdk/sdk/lib/libmain.a(eagle_lwip_if.o)
                                                  /home/stoffer/esp8266/esp-open-sdk/sdk/lib/libmain.a(user_interface.o)
netif_set_default                                 /home/stoffer/esp8266/esp-open-sdk/sdk/lib/liblwip.a(netif.o)
                                                  /home/stoffer/esp8266/esp-open-sdk/sdk/lib/liblwip.a(espconn_udp.o)
                                                  /home/stoffer/esp8266/esp-open-sdk/sdk/lib/libnet80211.a(ieee80211_hostap.o)
                                                  /home/stoffer/esp8266/esp-open-sdk/sdk/lib/libmain.a(user_interface.o)
                                                  /home/stoffer/esp8266/esp-open-sdk/sdk/lib/libmain.a(app_main.o)
netif_set_down                                    /home/stoffer/esp8266/esp-open-sdk/sdk/lib/liblwip.a(netif.o)
                                                  /home/stoffer/esp8266/esp-open-sdk/sdk/lib/liblwip.a(dhcp.o)
                                                  /home/stoffer/esp8266/esp-open-sdk/sdk/lib/libnet80211.a(wl_cnx.o)
                                                  /home/stoffer/esp8266/esp-open-sdk/sdk/lib/libnet80211.a(ieee80211_hostap.o)
netif_set_gw                                      /home/stoffer/esp8266/esp-open-sdk/sdk/lib/liblwip.a(netif.o)
                                                  /home/stoffer/esp8266/esp-open-sdk/sdk/lib/liblwip.a(dhcp.o)
netif_set_ipaddr                                  /home/stoffer/esp8266/esp-open-sdk/sdk/lib/liblwip.a(netif.o)
                                                  /home/stoffer/esp8266/esp-open-sdk/sdk/lib/liblwip.a(dhcp.o)
netif_set_link_down                               /home/stoffer/esp8266/esp-open-sdk/sdk/lib/liblwip.a(netif.o)
netif_set_link_up                                 /home/stoffer/esp8266/esp-open-sdk/sdk/lib/liblwip.a(netif.o)
netif_set_netmask                                 /home/stoffer/esp8266/esp-open-sdk/sdk/lib/liblwip.a(netif.o)
                                                  /home/stoffer/esp8266/esp-open-sdk/sdk/lib/liblwip.a(dhcp.o)
netif_set_up                                      /home/stoffer/esp8266/esp-open-sdk/sdk/lib/liblwip.a(netif.o)
                                                  /home/stoffer/esp8266/esp-open-sdk/sdk/lib/libwpa.a(wpa_main.o)
                                                  /home/stoffer/esp8266/esp-open-sdk/sdk/lib/liblwip.a(dhcp.o)
                                                  /home/stoffer/esp8266/esp-open-sdk/sdk/lib/libnet80211.a(ieee80211_hostap.o)
no_ap_found_index                                 /home/stoffer/esp8266/esp-open-sdk/sdk/lib/libnet80211.a(wl_cnx.o)
                                                  /home/stoffer/esp8266/esp-open-sdk/sdk/lib/libwpa.a(wpa_main.o)
                                                  /home/stoffer/esp8266/esp-open-sdk/sdk/lib/libmain.a(user_interface.o)
node_insert_to_list                               /home/stoffer/esp8266/esp-open-sdk/sdk/lib/liblwip.a(dhcpserver.o)
node_remove_from_list                             /home/stoffer/esp8266/esp-open-sdk/sdk/lib/liblwip.a(dhcpserver.o)
noise_array                                       /home/stoffer/esp8266/esp-open-sdk/sdk/lib/libphy.a(phy_chip_v6.o)
noise_check_loop                                  /home/stoffer/esp8266/esp-open-sdk/sdk/lib/libphy.a(phy_chip_v6.o)
                                                  /home/stoffer/esp8266/esp-open-sdk/sdk/lib/libnet80211.a(ieee80211_hostap.o)
                                                  /home/stoffer/esp8266/esp-open-sdk/sdk/lib/libpp.a(pp.o)
                                                  /home/stoffer/esp8266/esp-open-sdk/sdk/lib/libpp.a(pm_for_bcn_only_mode.o)
                                                  /home/stoffer/esp8266/esp-open-sdk/sdk/lib/libpp.a(pm.o)
                                                  /home/stoffer/esp8266/esp-open-sdk/sdk/lib/libphy.a(phy_sleep.o)
noise_init                                        /home/stoffer/esp8266/esp-open-sdk/sdk/lib/libphy.a(phy_chip_v6.o)
ntp_offline_second_counter                        build/app_app.a(unix_time.o)
os_get_random                                     /home/stoffer/esp8266/esp-open-sdk/sdk/lib/libwpa.a(os_xtensa.o)
                                                  /home/stoffer/esp8266/esp-open-sdk/sdk/lib/libwpa.a(wpa.o)
                                                  /home/stoffer/esp8266/esp-open-sdk/sdk/lib/libwpa.a(wpa_auth.o)
                                                  build/app_app.a(crypto.o)
os_get_time                                       /home/stoffer/esp8266/esp-open-sdk/sdk/lib/libwpa.a(os_xtensa.o)
                                                  /home/stoffer/esp8266/esp-open-sdk/sdk/lib/libwpa.a(common.o)
os_printf_plus                                    /home/stoffer/esp8266/esp-open-sdk/sdk/lib/libmain.a(user_interface.o)
                                                  /home/stoffer/esp8266/esp-open-sdk/sdk/lib/libwpa.a(wpa_main.o)
                                                  /home/stoffer/esp8266/esp-open-sdk/sdk/lib/liblwip.a(sntp.o)
                                                  /home/stoffer/esp8266/esp-open-sdk/sdk/lib/liblwip.a(ip.o)
                                                  /home/stoffer/esp8266/esp-open-sdk/sdk/lib/liblwip.a(espconn_tcp.o)
                                                  /home/stoffer/esp8266/esp-open-sdk/sdk/lib/liblwip.a(dhcpserver.o)
                                                  /home/stoffer/esp8266/esp-open-sdk/sdk/lib/liblwip.a(dhcp.o)
                                                  /home/stoffer/esp8266/esp-open-sdk/sdk/lib/libnet80211.a(ieee80211_action_vendor.o)
                                                  /home/stoffer/esp8266/esp-open-sdk/sdk/lib/libnet80211.a(wl_cnx.o)
                                                  /home/stoffer/esp8266/esp-open-sdk/sdk/lib/libnet80211.a(ieee80211_sta.o)
                                                  /home/stoffer/esp8266/esp-open-sdk/sdk/lib/libnet80211.a(ieee80211_scan.o)
                                                  /home/stoffer/esp8266/esp-open-sdk/sdk/lib/libnet80211.a(ieee80211_output.o)
                                                  /home/stoffer/esp8266/esp-open-sdk/sdk/lib/libnet80211.a(ieee80211_mesh_quick.o)
                                                  /home/stoffer/esp8266/esp-open-sdk/sdk/lib/libnet80211.a(ieee80211_ht.o)
                                                  /home/stoffer/esp8266/esp-open-sdk/sdk/lib/libnet80211.a(ieee80211_hostap.o)
                                                  /home/stoffer/esp8266/esp-open-sdk/sdk/lib/libnet80211.a(ieee80211.o)
                                                  /home/stoffer/esp8266/esp-open-sdk/sdk/lib/libpp.a(trc.o)
                                                  /home/stoffer/esp8266/esp-open-sdk/sdk/lib/libpp.a(pp.o)
                                                  /home/stoffer/esp8266/esp-open-sdk/sdk/lib/libpp.a(pm_for_bcn_only_mode.o)
                                                  /home/stoffer/esp8266/esp-open-sdk/sdk/lib/libpp.a(pm.o)
                                                  /home/stoffer/esp8266/esp-open-sdk/sdk/lib/libpp.a(lmac.o)
                                                  /home/stoffer/esp8266/esp-open-sdk/sdk/lib/libpp.a(if_hwctrl.o)
                                                  /home/stoffer/esp8266/esp-open-sdk/sdk/lib/libphy.a(phy_chip_v6_cal.o)
                                                  /home/stoffer/esp8266/esp-open-sdk/sdk/lib/libphy.a(phy_chip_v6.o)
                                                  /home/stoffer/esp8266/esp-open-sdk/sdk/lib/libphy.a(phy_chip_v6_ana.o)
                                                  build/app_app.a(cgiwifi.o)
                                                  build/app_app.a(wifi.o)
                                                  build/app_app.a(config.o)
                                                  build/app_app.a(ac_out.o)
                                                  build/app_app.a(cron.o)
                                                  build/app_app.a(crypto.o)
                                                  build/app_app.a(user_main.o)
                                                  /home/stoffer/esp8266/esp-open-sdk/sdk/lib/libmain.a(eagle_lwip_if.o)
                                                  /home/stoffer/esp8266/esp-open-sdk/sdk/lib/libmain.a(ets_timer.o)
                                                  /home/stoffer/esp8266/esp-open-sdk/sdk/lib/libmain.a(app_main.o)
os_random                                         /home/stoffer/esp8266/esp-open-sdk/sdk/lib/libwpa.a(os_xtensa.o)
                                                  /home/stoffer/esp8266/esp-open-sdk/sdk/lib/liblwip.a(tcp.o)
                                                  /home/stoffer/esp8266/esp-open-sdk/sdk/lib/liblwip.a(espconn.o)
                                                  /home/stoffer/esp8266/esp-open-sdk/sdk/lib/liblwip.a(dns.o)
our_tx_eb                                         /home/stoffer/esp8266/esp-open-sdk/sdk/lib/libpp.a(lmac.o)
                                                  /home/stoffer/esp8266/esp-open-sdk/sdk/lib/libpp.a(wdev.o)
pbkdf2_sha1                                       /home/stoffer/esp8266/esp-open-sdk/sdk/lib/libwpa.a(wpa.o)
                                                  /home/stoffer/esp8266/esp-open-sdk/sdk/lib/libmain.a(user_interface.o)
pbuf_alloc                                        /home/stoffer/esp8266/esp-open-sdk/sdk/lib/liblwip.a(pbuf.o)
                                                  /home/stoffer/esp8266/esp-open-sdk/sdk/lib/libwpa.a(wpas_glue.o)
                                                  /home/stoffer/esp8266/esp-open-sdk/sdk/lib/libwpa.a(wpa_auth.o)
                                                  /home/stoffer/esp8266/esp-open-sdk/sdk/lib/liblwip.a(icmp.o)
                                                  /home/stoffer/esp8266/esp-open-sdk/sdk/lib/liblwip.a(udp.o)
                                                  /home/stoffer/esp8266/esp-open-sdk/sdk/lib/liblwip.a(tcp_out.o)
                                                  /home/stoffer/esp8266/esp-open-sdk/sdk/lib/liblwip.a(sntp.o)
                                                  /home/stoffer/esp8266/esp-open-sdk/sdk/lib/liblwip.a(raw.o)
                                                  /home/stoffer/esp8266/esp-open-sdk/sdk/lib/liblwip.a(igmp.o)
                                                  /home/stoffer/esp8266/esp-open-sdk/sdk/lib/liblwip.a(etharp.o)
                                                  /home/stoffer/esp8266/esp-open-sdk/sdk/lib/liblwip.a(espconn_udp.o)
                                                  /home/stoffer/esp8266/esp-open-sdk/sdk/lib/liblwip.a(dns.o)
                                                  /home/stoffer/esp8266/esp-open-sdk/sdk/lib/liblwip.a(dhcpserver.o)
                                                  /home/stoffer/esp8266/esp-open-sdk/sdk/lib/liblwip.a(dhcp.o)
                                                  /home/stoffer/esp8266/esp-open-sdk/sdk/lib/libnet80211.a(ieee80211_input.o)
                                                  /home/stoffer/esp8266/esp-open-sdk/sdk/lib/libnet80211.a(ieee80211_hostap.o)
pbuf_cat                                          /home/stoffer/esp8266/esp-open-sdk/sdk/lib/liblwip.a(pbuf.o)
                                                  /home/stoffer/esp8266/esp-open-sdk/sdk/lib/liblwip.a(tcp_out.o)
                                                  /home/stoffer/esp8266/esp-open-sdk/sdk/lib/liblwip.a(tcp_in.o)
pbuf_chain                                        /home/stoffer/esp8266/esp-open-sdk/sdk/lib/liblwip.a(pbuf.o)
                                                  /home/stoffer/esp8266/esp-open-sdk/sdk/lib/liblwip.a(udp.o)
                                                  /home/stoffer/esp8266/esp-open-sdk/sdk/lib/liblwip.a(raw.o)
pbuf_clen                                         /home/stoffer/esp8266/esp-open-sdk/sdk/lib/liblwip.a(pbuf.o)
                                                  /home/stoffer/esp8266/esp-open-sdk/sdk/lib/liblwip.a(tcp_out.o)
                                                  /home/stoffer/esp8266/esp-open-sdk/sdk/lib/liblwip.a(tcp_in.o)
pbuf_coalesce                                     /home/stoffer/esp8266/esp-open-sdk/sdk/lib/liblwip.a(pbuf.o)
pbuf_copy                                         /home/stoffer/esp8266/esp-open-sdk/sdk/lib/liblwip.a(pbuf.o)
                                                  /home/stoffer/esp8266/esp-open-sdk/sdk/lib/liblwip.a(icmp.o)
                                                  /home/stoffer/esp8266/esp-open-sdk/sdk/lib/liblwip.a(etharp.o)
                                                  /home/stoffer/esp8266/esp-open-sdk/sdk/lib/liblwip.a(espconn_udp.o)
pbuf_copy_partial                                 /home/stoffer/esp8266/esp-open-sdk/sdk/lib/liblwip.a(pbuf.o)
                                                  /home/stoffer/esp8266/esp-open-sdk/sdk/lib/liblwip.a(tcp_out.o)
                                                  /home/stoffer/esp8266/esp-open-sdk/sdk/lib/liblwip.a(sntp.o)
                                                  /home/stoffer/esp8266/esp-open-sdk/sdk/lib/liblwip.a(espconn_udp.o)
                                                  /home/stoffer/esp8266/esp-open-sdk/sdk/lib/liblwip.a(espconn_tcp.o)
                                                  /home/stoffer/esp8266/esp-open-sdk/sdk/lib/liblwip.a(dns.o)
                                                  /home/stoffer/esp8266/esp-open-sdk/sdk/lib/liblwip.a(dhcp.o)
pbuf_dechain                                      /home/stoffer/esp8266/esp-open-sdk/sdk/lib/liblwip.a(pbuf.o)
pbuf_free                                         /home/stoffer/esp8266/esp-open-sdk/sdk/lib/liblwip.a(pbuf.o)
                                                  /home/stoffer/esp8266/esp-open-sdk/sdk/lib/liblwip.a(icmp.o)
                                                  /home/stoffer/esp8266/esp-open-sdk/sdk/lib/liblwip.a(udp.o)
                                                  /home/stoffer/esp8266/esp-open-sdk/sdk/lib/liblwip.a(tcp_out.o)
                                                  /home/stoffer/esp8266/esp-open-sdk/sdk/lib/liblwip.a(tcp.o)
                                                  /home/stoffer/esp8266/esp-open-sdk/sdk/lib/liblwip.a(tcp_in.o)
                                                  /home/stoffer/esp8266/esp-open-sdk/sdk/lib/liblwip.a(sntp.o)
                                                  /home/stoffer/esp8266/esp-open-sdk/sdk/lib/liblwip.a(raw.o)
                                                  /home/stoffer/esp8266/esp-open-sdk/sdk/lib/liblwip.a(ip.o)
                                                  /home/stoffer/esp8266/esp-open-sdk/sdk/lib/liblwip.a(igmp.o)
                                                  /home/stoffer/esp8266/esp-open-sdk/sdk/lib/liblwip.a(etharp.o)
                                                  /home/stoffer/esp8266/esp-open-sdk/sdk/lib/liblwip.a(espconn_udp.o)
                                                  /home/stoffer/esp8266/esp-open-sdk/sdk/lib/liblwip.a(espconn_tcp.o)
                                                  /home/stoffer/esp8266/esp-open-sdk/sdk/lib/liblwip.a(dns.o)
                                                  /home/stoffer/esp8266/esp-open-sdk/sdk/lib/liblwip.a(dhcpserver.o)
                                                  /home/stoffer/esp8266/esp-open-sdk/sdk/lib/liblwip.a(dhcp.o)
                                                  /home/stoffer/esp8266/esp-open-sdk/sdk/lib/libnet80211.a(ieee80211_power.o)
                                                  /home/stoffer/esp8266/esp-open-sdk/sdk/lib/libnet80211.a(ieee80211_hostap.o)
                                                  /home/stoffer/esp8266/esp-open-sdk/sdk/lib/libpp.a(pp.o)
                                                  /home/stoffer/esp8266/esp-open-sdk/sdk/lib/libmain.a(eagle_lwip_if.o)
pbuf_free_ooseq_new                               /home/stoffer/esp8266/esp-open-sdk/sdk/lib/liblwip.a(pbuf.o)
                                                  /home/stoffer/esp8266/esp-open-sdk/sdk/lib/liblwip.a(tcp_in.o)
pbuf_get_at                                       /home/stoffer/esp8266/esp-open-sdk/sdk/lib/liblwip.a(pbuf.o)
pbuf_header                                       /home/stoffer/esp8266/esp-open-sdk/sdk/lib/liblwip.a(pbuf.o)
                                                  /home/stoffer/esp8266/esp-open-sdk/sdk/lib/liblwip.a(icmp.o)
                                                  /home/stoffer/esp8266/esp-open-sdk/sdk/lib/liblwip.a(udp.o)
                                                  /home/stoffer/esp8266/esp-open-sdk/sdk/lib/liblwip.a(tcp_out.o)
                                                  /home/stoffer/esp8266/esp-open-sdk/sdk/lib/liblwip.a(tcp_in.o)
                                                  /home/stoffer/esp8266/esp-open-sdk/sdk/lib/liblwip.a(raw.o)
                                                  /home/stoffer/esp8266/esp-open-sdk/sdk/lib/liblwip.a(ip.o)
                                                  /home/stoffer/esp8266/esp-open-sdk/sdk/lib/liblwip.a(igmp.o)
                                                  /home/stoffer/esp8266/esp-open-sdk/sdk/lib/liblwip.a(etharp.o)
pbuf_memcmp                                       /home/stoffer/esp8266/esp-open-sdk/sdk/lib/liblwip.a(pbuf.o)
pbuf_memfind                                      /home/stoffer/esp8266/esp-open-sdk/sdk/lib/liblwip.a(pbuf.o)
pbuf_realloc                                      /home/stoffer/esp8266/esp-open-sdk/sdk/lib/liblwip.a(pbuf.o)
                                                  /home/stoffer/esp8266/esp-open-sdk/sdk/lib/liblwip.a(tcp_in.o)
                                                  /home/stoffer/esp8266/esp-open-sdk/sdk/lib/liblwip.a(ip.o)
                                                  /home/stoffer/esp8266/esp-open-sdk/sdk/lib/liblwip.a(dns.o)
                                                  /home/stoffer/esp8266/esp-open-sdk/sdk/lib/liblwip.a(dhcp.o)
pbuf_ref                                          /home/stoffer/esp8266/esp-open-sdk/sdk/lib/liblwip.a(pbuf.o)
                                                  /home/stoffer/esp8266/esp-open-sdk/sdk/lib/liblwip.a(tcp.o)
                                                  /home/stoffer/esp8266/esp-open-sdk/sdk/lib/liblwip.a(etharp.o)
                                                  /home/stoffer/esp8266/esp-open-sdk/sdk/lib/libnet80211.a(ieee80211_output.o)
pbuf_strstr                                       /home/stoffer/esp8266/esp-open-sdk/sdk/lib/liblwip.a(pbuf.o)
pbuf_take                                         /home/stoffer/esp8266/esp-open-sdk/sdk/lib/liblwip.a(pbuf.o)
pbus_set_rxbbgain                                 /home/stoffer/esp8266/esp-open-sdk/sdk/lib/libphy.a(phy_chip_v6.o)
pend_flag_noise_check                             /home/stoffer/esp8266/esp-open-sdk/sdk/lib/libpp.a(pp.o)
                                                  /home/stoffer/esp8266/esp-open-sdk/sdk/lib/libpp.a(pm_for_bcn_only_mode.o)
                                                  /home/stoffer/esp8266/esp-open-sdk/sdk/lib/libpp.a(pm.o)
pend_flag_periodic_cal                            /home/stoffer/esp8266/esp-open-sdk/sdk/lib/libpp.a(pp.o)
                                                  /home/stoffer/esp8266/esp-open-sdk/sdk/lib/libpp.a(pm_for_bcn_only_mode.o)
                                                  /home/stoffer/esp8266/esp-open-sdk/sdk/lib/libpp.a(pm.o)
periodic_cal                                      /home/stoffer/esp8266/esp-open-sdk/sdk/lib/libphy.a(phy_chip_v6.o)
                                                  /home/stoffer/esp8266/esp-open-sdk/sdk/lib/libphy.a(phy_sleep.o)
periodic_cal_dc_num                               /home/stoffer/esp8266/esp-open-sdk/sdk/lib/libphy.a(phy_chip_v6.o)
periodic_cal_flag                                 /home/stoffer/esp8266/esp-open-sdk/sdk/lib/libphy.a(phy_chip_v6.o)
                                                  /home/stoffer/esp8266/esp-open-sdk/sdk/lib/libphy.a(phy_sleep.o)
periodic_cal_sat                                  /home/stoffer/esp8266/esp-open-sdk/sdk/lib/libphy.a(phy_sleep.o)
periodic_cal_top                                  /home/stoffer/esp8266/esp-open-sdk/sdk/lib/libphy.a(phy_chip_v6.o)
                                                  /home/stoffer/esp8266/esp-open-sdk/sdk/lib/libnet80211.a(ieee80211_hostap.o)
                                                  /home/stoffer/esp8266/esp-open-sdk/sdk/lib/libpp.a(pp.o)
                                                  /home/stoffer/esp8266/esp-open-sdk/sdk/lib/libpp.a(pm_for_bcn_only_mode.o)
                                                  /home/stoffer/esp8266/esp-open-sdk/sdk/lib/libpp.a(pm.o)
                                                  /home/stoffer/esp8266/esp-open-sdk/sdk/lib/libphy.a(phy_chip_v6_cal.o)
phy_after_init_enrx                               /home/stoffer/esp8266/esp-open-sdk/sdk/lib/libphy.a(phy_chip_v6.o)
                                                  /home/stoffer/esp8266/esp-open-sdk/sdk/lib/libphy.a(phy_chip_v6_ana.o)
phy_afterwake_set_rfoption                        /home/stoffer/esp8266/esp-open-sdk/sdk/lib/libphy.a(phy_chip_v6.o)
                                                  /home/stoffer/esp8266/esp-open-sdk/sdk/lib/libmain.a(user_interface.o)
phy_bb_rx_cfg                                     /home/stoffer/esp8266/esp-open-sdk/sdk/lib/libphy.a(phy_chip_v6.o)
phy_change_channel                                /home/stoffer/esp8266/esp-open-sdk/sdk/lib/libphy.a(phy.o)
                                                  /home/stoffer/esp8266/esp-open-sdk/sdk/lib/libnet80211.a(wl_chm.o)
phy_check_data_table                              /home/stoffer/esp8266/esp-open-sdk/sdk/lib/libphy.a(phy_chip_v6.o)
phy_delete_channel                                /home/stoffer/esp8266/esp-open-sdk/sdk/lib/libphy.a(phy.o)
phy_dig_spur_prot                                 /home/stoffer/esp8266/esp-open-sdk/sdk/lib/libphy.a(phy_chip_v6.o)
                                                  /home/stoffer/esp8266/esp-open-sdk/sdk/lib/libphy.a(phy_chip_v6_ana.o)
phy_dig_spur_set                                  /home/stoffer/esp8266/esp-open-sdk/sdk/lib/libphy.a(phy_chip_v6.o)
                                                  /home/stoffer/esp8266/esp-open-sdk/sdk/lib/libphy.a(phy_chip_v6_ana.o)
phy_disable_agc                                   /home/stoffer/esp8266/esp-open-sdk/sdk/lib/libphy.a(phy.o)
                                                  /home/stoffer/esp8266/esp-open-sdk/sdk/lib/libmain.a(app_main.o)
phy_enable_agc                                    /home/stoffer/esp8266/esp-open-sdk/sdk/lib/libphy.a(phy.o)
                                                  /home/stoffer/esp8266/esp-open-sdk/sdk/lib/libmain.a(app_main.o)
phy_freq_offset                                   /home/stoffer/esp8266/esp-open-sdk/sdk/lib/libphy.a(phy_chip_v6.o)
                                                  /home/stoffer/esp8266/esp-open-sdk/sdk/lib/libphy.a(phy_chip_v6_ana.o)
phy_get_bb_evm                                    /home/stoffer/esp8266/esp-open-sdk/sdk/lib/libphy.a(phy_chip_v6_cal.o)
phy_get_bb_freqoffset                             /home/stoffer/esp8266/esp-open-sdk/sdk/lib/libphy.a(phy_chip_v6_cal.o)
                                                  /home/stoffer/esp8266/esp-open-sdk/sdk/lib/libpp.a(wdev.o)
phy_get_check_flag                                /home/stoffer/esp8266/esp-open-sdk/sdk/lib/libphy.a(phy_chip_v6_ana.o)
                                                  /home/stoffer/esp8266/esp-open-sdk/sdk/lib/libmain.a(user_interface.o)
phy_get_mactime                                   /home/stoffer/esp8266/esp-open-sdk/sdk/lib/libphy.a(phy.o)
phy_get_rand                                      /home/stoffer/esp8266/esp-open-sdk/sdk/lib/libphy.a(phy_chip_v6.o)
                                                  /home/stoffer/esp8266/esp-open-sdk/sdk/lib/libwpa.a(os_xtensa.o)
phy_get_romfuncs                                  /home/stoffer/esp8266/esp-open-sdk/sdk/lib/libphy.a(phy_chip_v6.o)
phy_get_vdd33                                     /home/stoffer/esp8266/esp-open-sdk/sdk/lib/libphy.a(phy_chip_v6_ana.o)
                                                  /home/stoffer/esp8266/esp-open-sdk/sdk/lib/libmain.a(user_interface.o)
phy_gpio_cfg                                      /home/stoffer/esp8266/esp-open-sdk/sdk/lib/libphy.a(phy_chip_v6.o)
phy_in_most_power                                 /home/stoffer/esp8266/esp-open-sdk/sdk/lib/libphy.a(phy_chip_v6.o)
phy_in_vdd33_offset                               /home/stoffer/esp8266/esp-open-sdk/sdk/lib/libphy.a(phy_chip_v6.o)
                                                  /home/stoffer/esp8266/esp-open-sdk/sdk/lib/libphy.a(phy_chip_v6_cal.o)
phy_init                                          /home/stoffer/esp8266/esp-open-sdk/sdk/lib/libphy.a(phy.o)
phy_initialize_bb                                 /home/stoffer/esp8266/esp-open-sdk/sdk/lib/libphy.a(phy.o)
phy_pbus_soc_cfg                                  /home/stoffer/esp8266/esp-open-sdk/sdk/lib/libphy.a(phy_chip_v6.o)
phy_rx_gain_dc_flag                               /home/stoffer/esp8266/esp-open-sdk/sdk/lib/libphy.a(phy_chip_v6.o)
                                                  /home/stoffer/esp8266/esp-open-sdk/sdk/lib/libpp.a(pm_for_bcn_only_mode.o)
                                                  /home/stoffer/esp8266/esp-open-sdk/sdk/lib/libpp.a(pm.o)
                                                  /home/stoffer/esp8266/esp-open-sdk/sdk/lib/libmain.a(app_main.o)
phy_rx_gain_dc_table                              /home/stoffer/esp8266/esp-open-sdk/sdk/lib/libphy.a(phy_chip_v6.o)
                                                  /home/stoffer/esp8266/esp-open-sdk/sdk/lib/libpp.a(pm_for_bcn_only_mode.o)
                                                  /home/stoffer/esp8266/esp-open-sdk/sdk/lib/libpp.a(pm.o)
                                                  /home/stoffer/esp8266/esp-open-sdk/sdk/lib/libmain.a(app_main.o)
phy_set_most_tpw                                  /home/stoffer/esp8266/esp-open-sdk/sdk/lib/libphy.a(phy_chip_v6.o)
                                                  /home/stoffer/esp8266/esp-open-sdk/sdk/lib/libmain.a(user_interface.o)
phy_set_most_tpw_disbg                            /home/stoffer/esp8266/esp-open-sdk/sdk/lib/libphy.a(phy_chip_v6.o)
                                                  /home/stoffer/esp8266/esp-open-sdk/sdk/lib/libphy.a(phy_chip_v6_cal.o)
phy_set_most_tpw_index                            /home/stoffer/esp8266/esp-open-sdk/sdk/lib/libphy.a(phy_chip_v6.o)
                                                  /home/stoffer/esp8266/esp-open-sdk/sdk/lib/libphy.a(phy_chip_v6_cal.o)
phy_set_powerup_option                            /home/stoffer/esp8266/esp-open-sdk/sdk/lib/libphy.a(phy_chip_v6.o)
                                                  /home/stoffer/esp8266/esp-open-sdk/sdk/lib/libmain.a(user_interface.o)
phy_set_rx11b_reg                                 /home/stoffer/esp8266/esp-open-sdk/sdk/lib/libphy.a(phy_chip_v6.o)
phy_set_sense                                     /home/stoffer/esp8266/esp-open-sdk/sdk/lib/libphy.a(phy.o)
phy_tx_power_out                                  /home/stoffer/esp8266/esp-open-sdk/sdk/lib/libphy.a(phy_chip_v6_cal.o)
phy_tx_pwctrl_cali                                /home/stoffer/esp8266/esp-open-sdk/sdk/lib/libphy.a(phy_chip_v6.o)
phy_vdd33_set_tpw                                 /home/stoffer/esp8266/esp-open-sdk/sdk/lib/libphy.a(phy_chip_v6.o)
                                                  /home/stoffer/esp8266/esp-open-sdk/sdk/lib/libmain.a(user_interface.o)
phytype2mode                                      /home/stoffer/esp8266/esp-open-sdk/sdk/lib/libpp.a(trc.o)
pktinfo                                           /home/stoffer/esp8266/esp-open-sdk/sdk/lib/liblwip.a(espconn.o)
                                                  /home/stoffer/esp8266/esp-open-sdk/sdk/lib/liblwip.a(espconn_tcp.o)
plink_active                                      /home/stoffer/esp8266/esp-open-sdk/sdk/lib/liblwip.a(espconn.o)
                                                  /home/stoffer/esp8266/esp-open-sdk/sdk/lib/liblwip.a(espconn_udp.o)
                                                  /home/stoffer/esp8266/esp-open-sdk/sdk/lib/liblwip.a(espconn_tcp.o)
pm_allow_tx                                       /home/stoffer/esp8266/esp-open-sdk/sdk/lib/libpp.a(pm.o)
                                                  /home/stoffer/esp8266/esp-open-sdk/sdk/lib/libpp.a(pp.o)
pm_assoc_parse                                    /home/stoffer/esp8266/esp-open-sdk/sdk/lib/libpp.a(pm.o)
                                                  /home/stoffer/esp8266/esp-open-sdk/sdk/lib/libpp.a(pp.o)
pm_attach                                         /home/stoffer/esp8266/esp-open-sdk/sdk/lib/libpp.a(pm.o)
                                                  /home/stoffer/esp8266/esp-open-sdk/sdk/lib/libmain.a(app_main.o)
pm_check_mac_idle                                 /home/stoffer/esp8266/esp-open-sdk/sdk/lib/libphy.a(phy_sleep.o)
pm_enable_gpio_wakeup                             /home/stoffer/esp8266/esp-open-sdk/sdk/lib/libpp.a(pm.o)
                                                  /home/stoffer/esp8266/esp-open-sdk/sdk/lib/libpp.a(pp.o)
pm_force_scan_unlock                              /home/stoffer/esp8266/esp-open-sdk/sdk/lib/libpp.a(pm.o)
                                                  /home/stoffer/esp8266/esp-open-sdk/sdk/lib/libnet80211.a(ieee80211_scan.o)
                                                  /home/stoffer/esp8266/esp-open-sdk/sdk/lib/libpp.a(if_hwctrl.o)
pm_get_ck170_period                               /home/stoffer/esp8266/esp-open-sdk/sdk/lib/libpp.a(pm.o)
                                                  /home/stoffer/esp8266/esp-open-sdk/sdk/lib/libpp.a(pm_for_bcn_only_mode.o)
pm_get_idle_wait_time                             /home/stoffer/esp8266/esp-open-sdk/sdk/lib/libpp.a(pm.o)
pm_get_sleep_type                                 /home/stoffer/esp8266/esp-open-sdk/sdk/lib/libpp.a(pm.o)
                                                  /home/stoffer/esp8266/esp-open-sdk/sdk/lib/libmain.a(user_interface.o)
pm_goto_sleep                                     /home/stoffer/esp8266/esp-open-sdk/sdk/lib/libphy.a(phy_sleep.o)
                                                  /home/stoffer/esp8266/esp-open-sdk/sdk/lib/libpp.a(pm_for_bcn_only_mode.o)
                                                  /home/stoffer/esp8266/esp-open-sdk/sdk/lib/libpp.a(pm.o)
pm_idle_sleep                                     /home/stoffer/esp8266/esp-open-sdk/sdk/lib/libpp.a(pm.o)
pm_is_open                                        /home/stoffer/esp8266/esp-open-sdk/sdk/lib/libpp.a(pm.o)
                                                  /home/stoffer/esp8266/esp-open-sdk/sdk/lib/libnet80211.a(ieee80211_scan.o)
                                                  /home/stoffer/esp8266/esp-open-sdk/sdk/lib/libpp.a(pm_for_bcn_only_mode.o)
                                                  /home/stoffer/esp8266/esp-open-sdk/sdk/lib/libmain.a(user_interface.o)
pm_is_waked                                       /home/stoffer/esp8266/esp-open-sdk/sdk/lib/libpp.a(pm.o)
                                                  /home/stoffer/esp8266/esp-open-sdk/sdk/lib/libnet80211.a(ieee80211_scan.o)
                                                  /home/stoffer/esp8266/esp-open-sdk/sdk/lib/libpp.a(pp.o)
                                                  /home/stoffer/esp8266/esp-open-sdk/sdk/lib/libmain.a(user_interface.o)
pm_onBcnRx                                        /home/stoffer/esp8266/esp-open-sdk/sdk/lib/libpp.a(pm.o)
                                                  /home/stoffer/esp8266/esp-open-sdk/sdk/lib/libpp.a(pp.o)
pm_open                                           /home/stoffer/esp8266/esp-open-sdk/sdk/lib/libpp.a(pm.o)
                                                  /home/stoffer/esp8266/esp-open-sdk/sdk/lib/libpp.a(if_hwctrl.o)
pm_open_rf                                        /home/stoffer/esp8266/esp-open-sdk/sdk/lib/libphy.a(phy_sleep.o)
                                                  /home/stoffer/esp8266/esp-open-sdk/sdk/lib/libmain.a(user_interface.o)
pm_post                                           /home/stoffer/esp8266/esp-open-sdk/sdk/lib/libpp.a(pm.o)
                                                  /home/stoffer/esp8266/esp-open-sdk/sdk/lib/libnet80211.a(ieee80211_scan.o)
                                                  /home/stoffer/esp8266/esp-open-sdk/sdk/lib/libpp.a(pp.o)
                                                  /home/stoffer/esp8266/esp-open-sdk/sdk/lib/libmain.a(user_interface.o)
pm_prepare_to_sleep                               /home/stoffer/esp8266/esp-open-sdk/sdk/lib/libphy.a(phy_sleep.o)
pm_reset_idle_sleep                               /home/stoffer/esp8266/esp-open-sdk/sdk/lib/libpp.a(pm.o)
pm_rf_is_closed                                   /home/stoffer/esp8266/esp-open-sdk/sdk/lib/libpp.a(pm.o)
                                                  /home/stoffer/esp8266/esp-open-sdk/sdk/lib/libpp.a(pp.o)
pm_rtc2usec                                       /home/stoffer/esp8266/esp-open-sdk/sdk/lib/libphy.a(phy_sleep.o)
                                                  /home/stoffer/esp8266/esp-open-sdk/sdk/lib/libpp.a(pm_for_bcn_only_mode.o)
                                                  /home/stoffer/esp8266/esp-open-sdk/sdk/lib/libpp.a(pm.o)
pm_rtc_clock_cali                                 /home/stoffer/esp8266/esp-open-sdk/sdk/lib/libphy.a(phy_sleep.o)
                                                  /home/stoffer/esp8266/esp-open-sdk/sdk/lib/libpp.a(pm.o)
pm_rtc_clock_cali_proc                            /home/stoffer/esp8266/esp-open-sdk/sdk/lib/libpp.a(pm.o)
                                                  /home/stoffer/esp8266/esp-open-sdk/sdk/lib/libpp.a(pm_for_bcn_only_mode.o)
                                                  /home/stoffer/esp8266/esp-open-sdk/sdk/lib/libmain.a(user_interface.o)
pm_scan_lock                                      /home/stoffer/esp8266/esp-open-sdk/sdk/lib/libpp.a(pm.o)
                                                  /home/stoffer/esp8266/esp-open-sdk/sdk/lib/libnet80211.a(ieee80211_scan.o)
pm_scan_unlocked                                  /home/stoffer/esp8266/esp-open-sdk/sdk/lib/libpp.a(pm.o)
                                                  /home/stoffer/esp8266/esp-open-sdk/sdk/lib/libpp.a(pp.o)
pm_sdio_nidle                                     /home/stoffer/esp8266/esp-open-sdk/sdk/lib/libphy.a(phy_sleep.o)
pm_send_nullfunc                                  /home/stoffer/esp8266/esp-open-sdk/sdk/lib/libpp.a(pm.o)
pm_set_addr                                       /home/stoffer/esp8266/esp-open-sdk/sdk/lib/libpp.a(pm.o)
                                                  /home/stoffer/esp8266/esp-open-sdk/sdk/lib/libpp.a(pp.o)
pm_set_pll_xtal_wait_time                         /home/stoffer/esp8266/esp-open-sdk/sdk/lib/libphy.a(phy_sleep.o)
pm_set_sleep_btco                                 /home/stoffer/esp8266/esp-open-sdk/sdk/lib/libphy.a(phy_sleep.o)
pm_set_sleep_cycles                               /home/stoffer/esp8266/esp-open-sdk/sdk/lib/libphy.a(phy_sleep.o)
                                                  /home/stoffer/esp8266/esp-open-sdk/sdk/lib/libpp.a(pm_for_bcn_only_mode.o)
                                                  /home/stoffer/esp8266/esp-open-sdk/sdk/lib/libpp.a(pm.o)
                                                  /home/stoffer/esp8266/esp-open-sdk/sdk/lib/libphy.a(phy_chip_v6.o)
pm_set_sleep_mode                                 /home/stoffer/esp8266/esp-open-sdk/sdk/lib/libphy.a(phy_sleep.o)
                                                  /home/stoffer/esp8266/esp-open-sdk/sdk/lib/libpp.a(pm_for_bcn_only_mode.o)
                                                  /home/stoffer/esp8266/esp-open-sdk/sdk/lib/libpp.a(pm.o)
                                                  /home/stoffer/esp8266/esp-open-sdk/sdk/lib/libphy.a(phy_chip_v6.o)
                                                  /home/stoffer/esp8266/esp-open-sdk/sdk/lib/libphy.a(phy_chip_v6_ana.o)
pm_set_sleep_time                                 /home/stoffer/esp8266/esp-open-sdk/sdk/lib/libpp.a(pm.o)
                                                  /home/stoffer/esp8266/esp-open-sdk/sdk/lib/libmain.a(user_interface.o)
pm_set_sleep_type_from_upper                      /home/stoffer/esp8266/esp-open-sdk/sdk/lib/libpp.a(pm.o)
                                                  /home/stoffer/esp8266/esp-open-sdk/sdk/lib/libmain.a(user_interface.o)
pm_set_wakeup_btco                                /home/stoffer/esp8266/esp-open-sdk/sdk/lib/libphy.a(phy_sleep.o)
pm_set_wakeup_mac                                 /home/stoffer/esp8266/esp-open-sdk/sdk/lib/libphy.a(phy_sleep.o)
pm_shutdown                                       /home/stoffer/esp8266/esp-open-sdk/sdk/lib/libpp.a(pm.o)
                                                  /home/stoffer/esp8266/esp-open-sdk/sdk/lib/libpp.a(pm_for_bcn_only_mode.o)
                                                  /home/stoffer/esp8266/esp-open-sdk/sdk/lib/libpp.a(if_hwctrl.o)
pm_sleep_for                                      /home/stoffer/esp8266/esp-open-sdk/sdk/lib/libpp.a(pm.o)
                                                  /home/stoffer/esp8266/esp-open-sdk/sdk/lib/libpp.a(pp.o)
pm_sleep_opt                                      /home/stoffer/esp8266/esp-open-sdk/sdk/lib/libphy.a(phy_sleep.o)
pm_sleep_opt_bb_off                               /home/stoffer/esp8266/esp-open-sdk/sdk/lib/libphy.a(phy_sleep.o)
pm_sleep_opt_bb_on                                /home/stoffer/esp8266/esp-open-sdk/sdk/lib/libphy.a(phy_sleep.o)
pm_sleep_set_mac                                  /home/stoffer/esp8266/esp-open-sdk/sdk/lib/libphy.a(phy_sleep.o)
pm_suspend                                        /home/stoffer/esp8266/esp-open-sdk/sdk/lib/libpp.a(pm.o)
pm_try_scan_unlock                                /home/stoffer/esp8266/esp-open-sdk/sdk/lib/libpp.a(pm.o)
pm_unmask_bt                                      /home/stoffer/esp8266/esp-open-sdk/sdk/lib/libphy.a(phy_sleep.o)
pm_usec2rtc                                       /home/stoffer/esp8266/esp-open-sdk/sdk/lib/libphy.a(phy_sleep.o)
                                                  /home/stoffer/esp8266/esp-open-sdk/sdk/lib/libpp.a(pm_for_bcn_only_mode.o)
                                                  /home/stoffer/esp8266/esp-open-sdk/sdk/lib/libpp.a(pm.o)
pm_wait4wakeup                                    /home/stoffer/esp8266/esp-open-sdk/sdk/lib/libphy.a(phy_sleep.o)
                                                  /home/stoffer/esp8266/esp-open-sdk/sdk/lib/libpp.a(pm_for_bcn_only_mode.o)
                                                  /home/stoffer/esp8266/esp-open-sdk/sdk/lib/libpp.a(pm.o)
                                                  /home/stoffer/esp8266/esp-open-sdk/sdk/lib/libphy.a(phy_chip_v6.o)
pm_wakeup_init                                    /home/stoffer/esp8266/esp-open-sdk/sdk/lib/libphy.a(phy_sleep.o)
                                                  /home/stoffer/esp8266/esp-open-sdk/sdk/lib/libpp.a(pm_for_bcn_only_mode.o)
                                                  /home/stoffer/esp8266/esp-open-sdk/sdk/lib/libpp.a(pm.o)
                                                  /home/stoffer/esp8266/esp-open-sdk/sdk/lib/libphy.a(phy_chip_v6.o)
                                                  /home/stoffer/esp8266/esp-open-sdk/sdk/lib/libphy.a(phy_chip_v6_ana.o)
pm_wakeup_opt                                     /home/stoffer/esp8266/esp-open-sdk/sdk/lib/libphy.a(phy_sleep.o)
                                                  /home/stoffer/esp8266/esp-open-sdk/sdk/lib/libpp.a(pm_for_bcn_only_mode.o)
                                                  /home/stoffer/esp8266/esp-open-sdk/sdk/lib/libpp.a(pm.o)
                                                  /home/stoffer/esp8266/esp-open-sdk/sdk/lib/libphy.a(phy_chip_v6.o)
pmc                                               /home/stoffer/esp8266/esp-open-sdk/sdk/lib/libpp.a(pm.o)
ppCalFrameTimes                                   /home/stoffer/esp8266/esp-open-sdk/sdk/lib/libpp.a(pp.o)
                                                  /home/stoffer/esp8266/esp-open-sdk/sdk/lib/libpp.a(lmac.o)
ppCalTxop                                         /home/stoffer/esp8266/esp-open-sdk/sdk/lib/libpp.a(pp.o)
                                                  /home/stoffer/esp8266/esp-open-sdk/sdk/lib/libpp.a(lmac.o)
ppCheckTxIdle                                     /home/stoffer/esp8266/esp-open-sdk/sdk/lib/libpp.a(pp.o)
                                                  /home/stoffer/esp8266/esp-open-sdk/sdk/lib/libnet80211.a(ieee80211_scan.o)
                                                  /home/stoffer/esp8266/esp-open-sdk/sdk/lib/libpp.a(pm_for_bcn_only_mode.o)
                                                  /home/stoffer/esp8266/esp-open-sdk/sdk/lib/libpp.a(pm.o)
ppDequeueTxQ                                      /home/stoffer/esp8266/esp-open-sdk/sdk/lib/libpp.a(pp.o)
                                                  /home/stoffer/esp8266/esp-open-sdk/sdk/lib/libpp.a(lmac.o)
ppDiscardMPDU                                     /home/stoffer/esp8266/esp-open-sdk/sdk/lib/libpp.a(pp.o)
ppEnqueueRxq                                      /home/stoffer/esp8266/esp-open-sdk/sdk/lib/libpp.a(pp.o)
                                                  /home/stoffer/esp8266/esp-open-sdk/sdk/lib/libpp.a(lmac.o)
ppEnqueueTxDone                                   /home/stoffer/esp8266/esp-open-sdk/sdk/lib/libpp.a(pp.o)
                                                  /home/stoffer/esp8266/esp-open-sdk/sdk/lib/libpp.a(lmac.o)
ppFetchTxQFirstAvail                              /home/stoffer/esp8266/esp-open-sdk/sdk/lib/libpp.a(pp.o)
                                                  /home/stoffer/esp8266/esp-open-sdk/sdk/lib/libpp.a(lmac.o)
ppGetTxQFirstAvail_Locked                         /home/stoffer/esp8266/esp-open-sdk/sdk/lib/libpp.a(pp.o)
                                                  /home/stoffer/esp8266/esp-open-sdk/sdk/lib/libpp.a(lmac.o)
ppInstallKey                                      /home/stoffer/esp8266/esp-open-sdk/sdk/lib/libwpa.a(wpa_main.o)
                                                  /home/stoffer/esp8266/esp-open-sdk/sdk/lib/libnet80211.a(wl_cnx.o)
ppPeocessRxPktHdr                                 /home/stoffer/esp8266/esp-open-sdk/sdk/lib/libpp.a(pp.o)
ppProcessTxQ                                      /home/stoffer/esp8266/esp-open-sdk/sdk/lib/libpp.a(pp.o)
                                                  /home/stoffer/esp8266/esp-open-sdk/sdk/lib/libpp.a(lmac.o)
ppProcessWaitQ                                    /home/stoffer/esp8266/esp-open-sdk/sdk/lib/libpp.a(pp.o)
                                                  /home/stoffer/esp8266/esp-open-sdk/sdk/lib/libpp.a(pm_for_bcn_only_mode.o)
                                                  /home/stoffer/esp8266/esp-open-sdk/sdk/lib/libpp.a(pm.o)
ppRecordBarRRC                                    /home/stoffer/esp8266/esp-open-sdk/sdk/lib/libpp.a(pp.o)
                                                  /home/stoffer/esp8266/esp-open-sdk/sdk/lib/libpp.a(lmac.o)
ppRecycleRxPkt                                    /home/stoffer/esp8266/esp-open-sdk/sdk/lib/libpp.a(pp.o)
                                                  /home/stoffer/esp8266/esp-open-sdk/sdk/lib/libnet80211.a(ieee80211_sta.o)
                                                  /home/stoffer/esp8266/esp-open-sdk/sdk/lib/libnet80211.a(ieee80211_input.o)
                                                  /home/stoffer/esp8266/esp-open-sdk/sdk/lib/libnet80211.a(ieee80211_hostap.o)
                                                  /home/stoffer/esp8266/esp-open-sdk/sdk/lib/libmain.a(eagle_lwip_if.o)
                                                  /home/stoffer/esp8266/esp-open-sdk/sdk/lib/libmain.a(user_interface.o)
ppRegisterTxCallback                              /home/stoffer/esp8266/esp-open-sdk/sdk/lib/libpp.a(pp.o)
                                                  /home/stoffer/esp8266/esp-open-sdk/sdk/lib/libwpa.a(wpa_main.o)
                                                  /home/stoffer/esp8266/esp-open-sdk/sdk/lib/libnet80211.a(wl_cnx.o)
                                                  /home/stoffer/esp8266/esp-open-sdk/sdk/lib/libnet80211.a(ieee80211_proto.o)
                                                  /home/stoffer/esp8266/esp-open-sdk/sdk/lib/libnet80211.a(ieee80211_hostap.o)
                                                  /home/stoffer/esp8266/esp-open-sdk/sdk/lib/libnet80211.a(ieee80211.o)
                                                  /home/stoffer/esp8266/esp-open-sdk/sdk/lib/libpp.a(pm.o)
ppRollBackTxQ                                     /home/stoffer/esp8266/esp-open-sdk/sdk/lib/libpp.a(pp.o)
                                                  /home/stoffer/esp8266/esp-open-sdk/sdk/lib/libpp.a(lmac.o)
ppTxPkt                                           /home/stoffer/esp8266/esp-open-sdk/sdk/lib/libpp.a(pp.o)
                                                  /home/stoffer/esp8266/esp-open-sdk/sdk/lib/libnet80211.a(ieee80211_action_vendor.o)
                                                  /home/stoffer/esp8266/esp-open-sdk/sdk/lib/libnet80211.a(ieee80211_scan.o)
                                                  /home/stoffer/esp8266/esp-open-sdk/sdk/lib/libnet80211.a(ieee80211_power.o)
                                                  /home/stoffer/esp8266/esp-open-sdk/sdk/lib/libnet80211.a(ieee80211_output.o)
                                                  /home/stoffer/esp8266/esp-open-sdk/sdk/lib/libnet80211.a(ieee80211_hostap.o)
                                                  /home/stoffer/esp8266/esp-open-sdk/sdk/lib/libpp.a(pm.o)
ppTxqUpdateBitmap                                 /home/stoffer/esp8266/esp-open-sdk/sdk/lib/libpp.a(pp.o)
                                                  /home/stoffer/esp8266/esp-open-sdk/sdk/lib/libpp.a(lmac.o)
ppUnregisterTxCallback                            /home/stoffer/esp8266/esp-open-sdk/sdk/lib/libpp.a(pp.o)
pp_attach                                         /home/stoffer/esp8266/esp-open-sdk/sdk/lib/libpp.a(pp.o)
                                                  /home/stoffer/esp8266/esp-open-sdk/sdk/lib/libmain.a(app_main.o)
pp_disable_idle_timer                             /home/stoffer/esp8266/esp-open-sdk/sdk/lib/libpp.a(pp.o)
                                                  /home/stoffer/esp8266/esp-open-sdk/sdk/lib/libpp.a(pm.o)
pp_disable_noise_timer                            /home/stoffer/esp8266/esp-open-sdk/sdk/lib/libpp.a(pp.o)
                                                  /home/stoffer/esp8266/esp-open-sdk/sdk/lib/libnet80211.a(ieee80211_hostap.o)
                                                  /home/stoffer/esp8266/esp-open-sdk/sdk/lib/libpp.a(pm_for_bcn_only_mode.o)
pp_enable_idle_timer                              /home/stoffer/esp8266/esp-open-sdk/sdk/lib/libpp.a(pp.o)
                                                  /home/stoffer/esp8266/esp-open-sdk/sdk/lib/libpp.a(pm.o)
pp_enable_noise_timer                             /home/stoffer/esp8266/esp-open-sdk/sdk/lib/libpp.a(pp.o)
pp_michael_mic_failure                            /home/stoffer/esp8266/esp-open-sdk/sdk/lib/libwpa.a(wpa.o)
pp_noise_test                                     /home/stoffer/esp8266/esp-open-sdk/sdk/lib/libpp.a(pp.o)
pp_post                                           /home/stoffer/esp8266/esp-open-sdk/sdk/lib/libpp.a(pp.o)
                                                  /home/stoffer/esp8266/esp-open-sdk/sdk/lib/libpp.a(lmac.o)
pp_post2                                          /home/stoffer/esp8266/esp-open-sdk/sdk/lib/libpp.a(pp.o)
                                                  /home/stoffer/esp8266/esp-open-sdk/sdk/lib/libpp.a(wdev.o)
pp_soft_wdt_feed                                  /home/stoffer/esp8266/esp-open-sdk/sdk/lib/libpp.a(pp.o)
                                                  /home/stoffer/esp8266/esp-open-sdk/sdk/lib/libmain.a(spi_flash.o)
pp_soft_wdt_feed_local                            /home/stoffer/esp8266/esp-open-sdk/sdk/lib/libpp.a(pp.o)
pp_soft_wdt_init                                  /home/stoffer/esp8266/esp-open-sdk/sdk/lib/libpp.a(pp.o)
                                                  /home/stoffer/esp8266/esp-open-sdk/sdk/lib/libmain.a(app_main.o)
pp_soft_wdt_restart                               /home/stoffer/esp8266/esp-open-sdk/sdk/lib/libpp.a(pp.o)
                                                  /home/stoffer/esp8266/esp-open-sdk/sdk/lib/libpp.a(pm_for_bcn_only_mode.o)
                                                  /home/stoffer/esp8266/esp-open-sdk/sdk/lib/libpp.a(pm.o)
pp_soft_wdt_stop                                  /home/stoffer/esp8266/esp-open-sdk/sdk/lib/libpp.a(pp.o)
                                                  /home/stoffer/esp8266/esp-open-sdk/sdk/lib/libpp.a(pm_for_bcn_only_mode.o)
                                                  /home/stoffer/esp8266/esp-open-sdk/sdk/lib/libpp.a(pm.o)
pp_try_enable_idle_timer                          /home/stoffer/esp8266/esp-open-sdk/sdk/lib/libpp.a(pp.o)
                                                  /home/stoffer/esp8266/esp-open-sdk/sdk/lib/libpp.a(pm.o)
pp_tx_idle_timeout                                /home/stoffer/esp8266/esp-open-sdk/sdk/lib/libpp.a(pp.o)
premot                                            /home/stoffer/esp8266/esp-open-sdk/sdk/lib/liblwip.a(espconn.o)
promiscuous_cb                                    /home/stoffer/esp8266/esp-open-sdk/sdk/lib/libmain.a(user_interface.o)
                                                  /home/stoffer/esp8266/esp-open-sdk/sdk/lib/libpp.a(pp.o)
prvInsertBlockIntoUsedList                        /home/stoffer/esp8266/esp-open-sdk/sdk/lib/libmain.a(mem_manager.o)
prvRemoveBlockFromUsedList                        /home/stoffer/esp8266/esp-open-sdk/sdk/lib/libmain.a(mem_manager.o)
pserver_list                                      /home/stoffer/esp8266/esp-open-sdk/sdk/lib/liblwip.a(espconn.o)
                                                  /home/stoffer/esp8266/esp-open-sdk/sdk/lib/liblwip.a(espconn_tcp.o)
pvPortCalloc                                      /home/stoffer/esp8266/esp-open-sdk/sdk/lib/libmain.a(mem_manager.o)
pvPortMalloc                                      /home/stoffer/esp8266/esp-open-sdk/sdk/lib/libmain.a(mem_manager.o)
                                                  /home/stoffer/esp8266/esp-open-sdk/sdk/lib/libwpa.a(aes-internal-enc.o)
                                                  /home/stoffer/esp8266/esp-open-sdk/sdk/lib/libwpa.a(wpa_main.o)
                                                  /home/stoffer/esp8266/esp-open-sdk/sdk/lib/libwpa.a(wpa_auth_ie.o)
                                                  /home/stoffer/esp8266/esp-open-sdk/sdk/lib/libwpa.a(wpa_auth.o)
                                                  /home/stoffer/esp8266/esp-open-sdk/sdk/lib/libwpa.a(os_xtensa.o)
                                                  /home/stoffer/esp8266/esp-open-sdk/sdk/lib/libwpa.a(common.o)
                                                  /home/stoffer/esp8266/esp-open-sdk/sdk/lib/liblwip.a(udp.o)
                                                  /home/stoffer/esp8266/esp-open-sdk/sdk/lib/liblwip.a(timers.o)
                                                  /home/stoffer/esp8266/esp-open-sdk/sdk/lib/liblwip.a(tcp_out.o)
                                                  /home/stoffer/esp8266/esp-open-sdk/sdk/lib/liblwip.a(tcp.o)
                                                  /home/stoffer/esp8266/esp-open-sdk/sdk/lib/liblwip.a(raw.o)
                                                  /home/stoffer/esp8266/esp-open-sdk/sdk/lib/liblwip.a(pbuf.o)
                                                  /home/stoffer/esp8266/esp-open-sdk/sdk/lib/liblwip.a(igmp.o)
                                                  /home/stoffer/esp8266/esp-open-sdk/sdk/lib/liblwip.a(etharp.o)
                                                  /home/stoffer/esp8266/esp-open-sdk/sdk/lib/liblwip.a(dhcp.o)
                                                  /home/stoffer/esp8266/esp-open-sdk/sdk/lib/libnet80211.a(ieee80211_input.o)
                                                  /home/stoffer/esp8266/esp-open-sdk/sdk/lib/libpp.a(esf_buf.o)
                                                  /home/stoffer/esp8266/esp-open-sdk/sdk/lib/libpp.a(wdev.o)
                                                  build/app_app.a(heatshrink_decoder.o)
                                                  build/app_app.a(espfs.o)
                                                  build/app_app.a(cgiwifi.o)
                                                  build/app_app.a(httpdespfs.o)
                                                  build/app_app.a(httpd.o)
                                                  /home/stoffer/esp8266/esp-open-sdk/sdk/lib/libmain.a(eagle_lwip_if.o)
                                                  /home/stoffer/esp8266/esp-open-sdk/sdk/lib/libmain.a(user_interface.o)
                                                  /home/stoffer/esp8266/esp-open-sdk/sdk/lib/libmain.a(app_main.o)
pvPortRealloc                                     /home/stoffer/esp8266/esp-open-sdk/sdk/lib/libmain.a(mem_manager.o)
pvPortZalloc                                      /home/stoffer/esp8266/esp-open-sdk/sdk/lib/libmain.a(mem_manager.o)
                                                  /home/stoffer/esp8266/esp-open-sdk/sdk/lib/libwpa.a(wpa_main.o)
                                                  /home/stoffer/esp8266/esp-open-sdk/sdk/lib/libwpa.a(wpa_auth.o)
                                                  /home/stoffer/esp8266/esp-open-sdk/sdk/lib/libwpa.a(ap_config.o)
                                                  /home/stoffer/esp8266/esp-open-sdk/sdk/lib/liblwip.a(espconn_udp.o)
                                                  /home/stoffer/esp8266/esp-open-sdk/sdk/lib/liblwip.a(espconn_tcp.o)
                                                  /home/stoffer/esp8266/esp-open-sdk/sdk/lib/liblwip.a(espconn.o)
                                                  /home/stoffer/esp8266/esp-open-sdk/sdk/lib/liblwip.a(dns.o)
                                                  /home/stoffer/esp8266/esp-open-sdk/sdk/lib/liblwip.a(dhcpserver.o)
                                                  /home/stoffer/esp8266/esp-open-sdk/sdk/lib/libnet80211.a(wl_cnx.o)
                                                  /home/stoffer/esp8266/esp-open-sdk/sdk/lib/libnet80211.a(ieee80211_sta.o)
                                                  /home/stoffer/esp8266/esp-open-sdk/sdk/lib/libnet80211.a(ieee80211_scan.o)
                                                  /home/stoffer/esp8266/esp-open-sdk/sdk/lib/libnet80211.a(ieee80211_phy.o)
                                                  /home/stoffer/esp8266/esp-open-sdk/sdk/lib/libnet80211.a(ieee80211_mesh_quick.o)
                                                  /home/stoffer/esp8266/esp-open-sdk/sdk/lib/libnet80211.a(ieee80211_hostap.o)
                                                  /home/stoffer/esp8266/esp-open-sdk/sdk/lib/libnet80211.a(ieee80211.o)
                                                  /home/stoffer/esp8266/esp-open-sdk/sdk/lib/libpp.a(esf_buf.o)
                                                  /home/stoffer/esp8266/esp-open-sdk/sdk/lib/libpp.a(pm_for_bcn_only_mode.o)
                                                  /home/stoffer/esp8266/esp-open-sdk/sdk/lib/libpp.a(pm.o)
                                                  build/app_app.a(unix_time.o)
                                                  build/app_app.a(queue.o)
                                                  build/app_app.a(mqtt.o)
                                                  /home/stoffer/esp8266/esp-open-sdk/sdk/lib/libmain.a(user_interface.o)
                                                  /home/stoffer/esp8266/esp-open-sdk/sdk/lib/libmain.a(app_main.o)
pvShowMalloc                                      /home/stoffer/esp8266/esp-open-sdk/sdk/lib/libmain.a(mem_manager.o)
pwctrl_debug                                      /home/stoffer/esp8266/esp-open-sdk/sdk/lib/libphy.a(phy_chip_v6.o)
                                                  /home/stoffer/esp8266/esp-open-sdk/sdk/lib/libphy.a(phy_chip_v6_cal.o)
pwrsave_flushq                                    /home/stoffer/esp8266/esp-open-sdk/sdk/lib/libnet80211.a(ieee80211_power.o)
                                                  /home/stoffer/esp8266/esp-open-sdk/sdk/lib/libnet80211.a(wl_cnx.o)
                                                  /home/stoffer/esp8266/esp-open-sdk/sdk/lib/libnet80211.a(ieee80211_hostap.o)
r_rand                                            /home/stoffer/esp8266/esp-open-sdk/sdk/lib/libwpa.a(os_xtensa.o)
                                                  /home/stoffer/esp8266/esp-open-sdk/sdk/lib/liblwip.a(igmp.o)
ram_ana_inf_gating_en                             /home/stoffer/esp8266/esp-open-sdk/sdk/lib/libphy.a(phy_chip_v6_ana.o)
                                                  /home/stoffer/esp8266/esp-open-sdk/sdk/lib/libphy.a(phy_chip_v6.o)
ram_cal_tos_v60                                   /home/stoffer/esp8266/esp-open-sdk/sdk/lib/libphy.a(phy_chip_v6_cal.o)
                                                  /home/stoffer/esp8266/esp-open-sdk/sdk/lib/libphy.a(phy_chip_v6.o)
ram_chip_v6_rx_init                               /home/stoffer/esp8266/esp-open-sdk/sdk/lib/libphy.a(phy_chip_v6_ana.o)
                                                  /home/stoffer/esp8266/esp-open-sdk/sdk/lib/libphy.a(phy_chip_v6.o)
ram_get_bb_atten                                  /home/stoffer/esp8266/esp-open-sdk/sdk/lib/libphy.a(phy_chip_v6_cal.o)
ram_get_corr_power                                /home/stoffer/esp8266/esp-open-sdk/sdk/lib/libphy.a(phy_chip_v6.o)
ram_get_fm_sar_dout                               /home/stoffer/esp8266/esp-open-sdk/sdk/lib/libphy.a(phy_chip_v6_cal.o)
                                                  /home/stoffer/esp8266/esp-open-sdk/sdk/lib/libphy.a(phy_chip_v6.o)
ram_get_noisefloor                                /home/stoffer/esp8266/esp-open-sdk/sdk/lib/libphy.a(phy_chip_v6.o)
ram_pbus_debugmode                                /home/stoffer/esp8266/esp-open-sdk/sdk/lib/libphy.a(phy_chip_v6_ana.o)
                                                  /home/stoffer/esp8266/esp-open-sdk/sdk/lib/libphy.a(phy_chip_v6.o)
ram_pbus_set_rxgain                               /home/stoffer/esp8266/esp-open-sdk/sdk/lib/libphy.a(phy_chip_v6_ana.o)
                                                  /home/stoffer/esp8266/esp-open-sdk/sdk/lib/libphy.a(phy_chip_v6.o)
ram_pbus_xpd_tx_on                                /home/stoffer/esp8266/esp-open-sdk/sdk/lib/libphy.a(phy_chip_v6_ana.o)
                                                  /home/stoffer/esp8266/esp-open-sdk/sdk/lib/libphy.a(phy_chip_v6_cal.o)
                                                  /home/stoffer/esp8266/esp-open-sdk/sdk/lib/libphy.a(phy_chip_v6.o)
ram_restart_cal                                   /home/stoffer/esp8266/esp-open-sdk/sdk/lib/libphy.a(phy_chip_v6_ana.o)
                                                  /home/stoffer/esp8266/esp-open-sdk/sdk/lib/libphy.a(phy_chip_v6.o)
ram_rfcal_pwrctrl                                 /home/stoffer/esp8266/esp-open-sdk/sdk/lib/libphy.a(phy_chip_v6_cal.o)
                                                  /home/stoffer/esp8266/esp-open-sdk/sdk/lib/libphy.a(phy_chip_v6.o)
ram_rfcal_rxiq                                    /home/stoffer/esp8266/esp-open-sdk/sdk/lib/libphy.a(phy_chip_v6_cal.o)
                                                  /home/stoffer/esp8266/esp-open-sdk/sdk/lib/libphy.a(phy_chip_v6.o)
ram_rfcal_txcap                                   /home/stoffer/esp8266/esp-open-sdk/sdk/lib/libphy.a(phy_chip_v6_cal.o)
                                                  /home/stoffer/esp8266/esp-open-sdk/sdk/lib/libphy.a(phy_chip_v6.o)
ram_rfcal_txiq                                    /home/stoffer/esp8266/esp-open-sdk/sdk/lib/libphy.a(phy_chip_v6_cal.o)
                                                  /home/stoffer/esp8266/esp-open-sdk/sdk/lib/libphy.a(phy_chip_v6.o)
ram_rfpll_set_freq                                /home/stoffer/esp8266/esp-open-sdk/sdk/lib/libphy.a(phy_chip_v6_ana.o)
ram_rxiq_cover_mg_mp                              /home/stoffer/esp8266/esp-open-sdk/sdk/lib/libphy.a(phy_chip_v6_cal.o)
                                                  /home/stoffer/esp8266/esp-open-sdk/sdk/lib/libphy.a(phy_chip_v6.o)
ram_rxiq_get_mis                                  /home/stoffer/esp8266/esp-open-sdk/sdk/lib/libphy.a(phy_chip_v6_cal.o)
                                                  /home/stoffer/esp8266/esp-open-sdk/sdk/lib/libphy.a(phy_chip_v6.o)
ram_set_channel_freq                              /home/stoffer/esp8266/esp-open-sdk/sdk/lib/libphy.a(phy_chip_v6_ana.o)
ram_set_noise_floor                               /home/stoffer/esp8266/esp-open-sdk/sdk/lib/libphy.a(phy_chip_v6.o)
ram_set_txbb_atten                                /home/stoffer/esp8266/esp-open-sdk/sdk/lib/libphy.a(phy_chip_v6_cal.o)
                                                  /home/stoffer/esp8266/esp-open-sdk/sdk/lib/libphy.a(phy_chip_v6.o)
ram_start_noisefloor                              /home/stoffer/esp8266/esp-open-sdk/sdk/lib/libphy.a(phy_chip_v6.o)
ram_tx_mac_disable                                /home/stoffer/esp8266/esp-open-sdk/sdk/lib/libphy.a(phy_chip_v6.o)
ram_tx_mac_enable                                 /home/stoffer/esp8266/esp-open-sdk/sdk/lib/libphy.a(phy_chip_v6.o)
raw_bind                                          /home/stoffer/esp8266/esp-open-sdk/sdk/lib/liblwip.a(raw.o)
raw_connect                                       /home/stoffer/esp8266/esp-open-sdk/sdk/lib/liblwip.a(raw.o)
raw_input                                         /home/stoffer/esp8266/esp-open-sdk/sdk/lib/liblwip.a(raw.o)
                                                  /home/stoffer/esp8266/esp-open-sdk/sdk/lib/liblwip.a(ip.o)
raw_new                                           /home/stoffer/esp8266/esp-open-sdk/sdk/lib/liblwip.a(raw.o)
raw_recv                                          /home/stoffer/esp8266/esp-open-sdk/sdk/lib/liblwip.a(raw.o)
raw_remove                                        /home/stoffer/esp8266/esp-open-sdk/sdk/lib/liblwip.a(raw.o)
raw_send                                          /home/stoffer/esp8266/esp-open-sdk/sdk/lib/liblwip.a(raw.o)
raw_sendto                                        /home/stoffer/esp8266/esp-open-sdk/sdk/lib/liblwip.a(raw.o)
rc4_skip                                          /home/stoffer/esp8266/esp-open-sdk/sdk/lib/libwpa.a(wpa.o)
                                                  /home/stoffer/esp8266/esp-open-sdk/sdk/lib/libwpa.a(wpa_auth.o)
rcAttach                                          /home/stoffer/esp8266/esp-open-sdk/sdk/lib/libpp.a(trc.o)
                                                  /home/stoffer/esp8266/esp-open-sdk/sdk/lib/libpp.a(lmac.o)
rcGetRate                                         /home/stoffer/esp8266/esp-open-sdk/sdk/lib/libpp.a(trc.o)
                                                  /home/stoffer/esp8266/esp-open-sdk/sdk/lib/libpp.a(lmac.o)
rcGetSched                                        /home/stoffer/esp8266/esp-open-sdk/sdk/lib/libpp.a(trc.o)
                                                  /home/stoffer/esp8266/esp-open-sdk/sdk/lib/libpp.a(pp.o)
rcGetTrc                                          /home/stoffer/esp8266/esp-open-sdk/sdk/lib/libpp.a(trc.o)
rcReachRetryLimit                                 /home/stoffer/esp8266/esp-open-sdk/sdk/lib/libpp.a(trc.o)
                                                  /home/stoffer/esp8266/esp-open-sdk/sdk/lib/libpp.a(lmac.o)
rcUpdateDataRxDone                                /home/stoffer/esp8266/esp-open-sdk/sdk/lib/libpp.a(trc.o)
                                                  /home/stoffer/esp8266/esp-open-sdk/sdk/lib/libpp.a(wdev.o)
rcUpdatePhyMode                                   /home/stoffer/esp8266/esp-open-sdk/sdk/lib/libpp.a(trc.o)
                                                  /home/stoffer/esp8266/esp-open-sdk/sdk/lib/libpp.a(if_hwctrl.o)
rcUpdateRxDone                                    /home/stoffer/esp8266/esp-open-sdk/sdk/lib/libpp.a(trc.o)
                                                  /home/stoffer/esp8266/esp-open-sdk/sdk/lib/libpp.a(pp.o)
rcUpdateTxDone                                    /home/stoffer/esp8266/esp-open-sdk/sdk/lib/libpp.a(trc.o)
                                                  /home/stoffer/esp8266/esp-open-sdk/sdk/lib/libpp.a(lmac.o)
rc_cal                                            /home/stoffer/esp8266/esp-open-sdk/sdk/lib/libphy.a(phy_chip_v6_cal.o)
                                                  /home/stoffer/esp8266/esp-open-sdk/sdk/lib/libphy.a(phy_chip_v6.o)
rc_disable_trc                                    /home/stoffer/esp8266/esp-open-sdk/sdk/lib/libpp.a(trc.o)
                                                  /home/stoffer/esp8266/esp-open-sdk/sdk/lib/libpp.a(if_hwctrl.o)
rc_disable_trc_by_interface                       /home/stoffer/esp8266/esp-open-sdk/sdk/lib/libpp.a(trc.o)
                                                  /home/stoffer/esp8266/esp-open-sdk/sdk/lib/libpp.a(if_hwctrl.o)
rc_enable_trc                                     /home/stoffer/esp8266/esp-open-sdk/sdk/lib/libpp.a(trc.o)
                                                  /home/stoffer/esp8266/esp-open-sdk/sdk/lib/libpp.a(if_hwctrl.o)
rc_get_mask                                       /home/stoffer/esp8266/esp-open-sdk/sdk/lib/libpp.a(trc.o)
                                                  /home/stoffer/esp8266/esp-open-sdk/sdk/lib/libpp.a(pm.o)
rc_get_sta_trc                                    /home/stoffer/esp8266/esp-open-sdk/sdk/lib/libpp.a(trc.o)
                                                  /home/stoffer/esp8266/esp-open-sdk/sdk/lib/libpp.a(pm.o)
rc_get_trc                                        /home/stoffer/esp8266/esp-open-sdk/sdk/lib/libpp.a(trc.o)
                                                  /home/stoffer/esp8266/esp-open-sdk/sdk/lib/libpp.a(pp.o)
                                                  /home/stoffer/esp8266/esp-open-sdk/sdk/lib/libpp.a(pm.o)
                                                  /home/stoffer/esp8266/esp-open-sdk/sdk/lib/libpp.a(if_hwctrl.o)
rc_get_trc_by_index                               /home/stoffer/esp8266/esp-open-sdk/sdk/lib/libpp.a(trc.o)
                                                  /home/stoffer/esp8266/esp-open-sdk/sdk/lib/libnet80211.a(ieee80211_output.o)
                                                  /home/stoffer/esp8266/esp-open-sdk/sdk/lib/libnet80211.a(ieee80211_ht.o)
rc_only_sta_trc                                   /home/stoffer/esp8266/esp-open-sdk/sdk/lib/libpp.a(trc.o)
                                                  /home/stoffer/esp8266/esp-open-sdk/sdk/lib/libpp.a(if_hwctrl.o)
rc_set_rate_limit_id                              /home/stoffer/esp8266/esp-open-sdk/sdk/lib/libpp.a(trc.o)
                                                  /home/stoffer/esp8266/esp-open-sdk/sdk/lib/libmain.a(user_interface.o)
rcons                                             /home/stoffer/esp8266/esp-open-sdk/sdk/lib/libwpa.a(aes-internal.o)
read_hw_noisefloor                                /home/stoffer/esp8266/esp-open-sdk/sdk/lib/libphy.a(phy_chip_v6.o)
                                                  /home/stoffer/esp8266/esp-open-sdk/sdk/lib/libpp.a(pp.o)
read_sar_dout                                     /home/stoffer/esp8266/esp-open-sdk/sdk/lib/libphy.a(phy_chip_v6_cal.o)
                                                  /home/stoffer/esp8266/esp-open-sdk/sdk/lib/libphy.a(phy_chip_v6_ana.o)
readvdd33                                         /home/stoffer/esp8266/esp-open-sdk/sdk/lib/libphy.a(phy_chip_v6_ana.o)
realtime_stamp                                    /home/stoffer/esp8266/esp-open-sdk/sdk/lib/liblwip.a(sntp.o)
reconnect_flag                                    /home/stoffer/esp8266/esp-open-sdk/sdk/lib/libnet80211.a(wl_cnx.o)
                                                  /home/stoffer/esp8266/esp-open-sdk/sdk/lib/libnet80211.a(ieee80211_sta.o)
reconnect_internal                                /home/stoffer/esp8266/esp-open-sdk/sdk/lib/libmain.a(user_interface.o)
reduce_current_init                               /home/stoffer/esp8266/esp-open-sdk/sdk/lib/libphy.a(phy_chip_v6.o)
register_chipv6_phy                               /home/stoffer/esp8266/esp-open-sdk/sdk/lib/libphy.a(phy_chip_v6.o)
                                                  /home/stoffer/esp8266/esp-open-sdk/sdk/lib/libphy.a(phy_sleep.o)
                                                  /home/stoffer/esp8266/esp-open-sdk/sdk/lib/libmain.a(app_main.o)
register_chipv6_phy_init_param                    /home/stoffer/esp8266/esp-open-sdk/sdk/lib/libphy.a(phy_chip_v6.o)
register_get_phy_addr                             /home/stoffer/esp8266/esp-open-sdk/sdk/lib/libphy.a(phy.o)
                                                  /home/stoffer/esp8266/esp-open-sdk/sdk/lib/libphy.a(phy_chip_v6.o)
register_ieee80211_action_vendor_get_key_cb       /home/stoffer/esp8266/esp-open-sdk/sdk/lib/libnet80211.a(ieee80211_action_vendor.o)
register_ieee80211_action_vendor_spec_cb          /home/stoffer/esp8266/esp-open-sdk/sdk/lib/libnet80211.a(ieee80211_action_vendor.o)
register_ieee80211_rfid_locp_recv_cb              /home/stoffer/esp8266/esp-open-sdk/sdk/lib/libnet80211.a(ieee80211_rfid.o)
                                                  /home/stoffer/esp8266/esp-open-sdk/sdk/lib/libmain.a(user_interface.o)
register_list                                     build/app_app.a(kmp_request.o)
register_phy_ops                                  /home/stoffer/esp8266/esp-open-sdk/sdk/lib/libphy.a(phy.o)
                                                  /home/stoffer/esp8266/esp-open-sdk/sdk/lib/libphy.a(phy_chip_v6.o)
res_buf                                           /home/stoffer/esp8266/esp-open-sdk/sdk/lib/liblwip.a(sntp.o)
reset_noise_timer                                 /home/stoffer/esp8266/esp-open-sdk/sdk/lib/libpp.a(pp.o)
                                                  /home/stoffer/esp8266/esp-open-sdk/sdk/lib/libnet80211.a(ieee80211_hostap.o)
                                                  /home/stoffer/esp8266/esp-open-sdk/sdk/lib/libpp.a(pm_for_bcn_only_mode.o)
                                                  /home/stoffer/esp8266/esp-open-sdk/sdk/lib/libpp.a(pm.o)
response                                          build/app_app.a(kmp_request.o)
reult                                             /home/stoffer/esp8266/esp-open-sdk/sdk/lib/liblwip.a(sntp.o)
rf_init                                           /home/stoffer/esp8266/esp-open-sdk/sdk/lib/libphy.a(phy.o)
rijndaelEncrypt                                   /home/stoffer/esp8266/esp-open-sdk/sdk/lib/libwpa.a(aes-internal-enc.o)
rijndaelKeySetupEnc                               /home/stoffer/esp8266/esp-open-sdk/sdk/lib/libwpa.a(aes-internal.o)
                                                  /home/stoffer/esp8266/esp-open-sdk/sdk/lib/libwpa.a(aes-internal-enc.o)
rom_chip_v5_disable_cca                           /home/stoffer/esp8266/esp-open-sdk/sdk/lib/libphy.a(phy_chip_v6.o)
rom_chip_v5_enable_cca                            /home/stoffer/esp8266/esp-open-sdk/sdk/lib/libphy.a(phy_chip_v6.o)
roundup2                                          /home/stoffer/esp8266/esp-open-sdk/sdk/lib/libnet80211.a(ieee80211_ets.o)
                                                  /home/stoffer/esp8266/esp-open-sdk/sdk/lib/libpp.a(wdev.o)
rsn_cipher_put_suites                             /home/stoffer/esp8266/esp-open-sdk/sdk/lib/libwpa.a(wpa_common.o)
                                                  /home/stoffer/esp8266/esp-open-sdk/sdk/lib/libwpa.a(wpa_auth_ie.o)
rsn_pmkid                                         /home/stoffer/esp8266/esp-open-sdk/sdk/lib/libwpa.a(wpa_common.o)
                                                  /home/stoffer/esp8266/esp-open-sdk/sdk/lib/libwpa.a(wpa_auth.o)
rst_if                                            /home/stoffer/esp8266/esp-open-sdk/sdk/lib/libmain.a(user_interface.o)
                                                  /home/stoffer/esp8266/esp-open-sdk/sdk/lib/libmain.a(app_main.o)
rtc_get_reset_reason                              /home/stoffer/esp8266/esp-open-sdk/sdk/lib/libmain.a(app_main.o)
rtc_info                                          build/app_app.a(user_main.o)
rtc_mem_backup                                    /home/stoffer/esp8266/esp-open-sdk/sdk/lib/libphy.a(phy_chip_v6.o)
                                                  /home/stoffer/esp8266/esp-open-sdk/sdk/lib/libphy.a(phy_chip_v6_cal.o)
rtc_mem_check                                     /home/stoffer/esp8266/esp-open-sdk/sdk/lib/libphy.a(phy_chip_v6.o)
rtc_mem_recovery                                  /home/stoffer/esp8266/esp-open-sdk/sdk/lib/libphy.a(phy_chip_v6.o)
rx_gain_swp                                       /home/stoffer/esp8266/esp-open-sdk/sdk/lib/libphy.a(phy_chip_v6.o)
rx_table_renew_en                                 /home/stoffer/esp8266/esp-open-sdk/sdk/lib/libphy.a(phy_chip_v6.o)
rxiq_compute_num                                  /home/stoffer/esp8266/esp-open-sdk/sdk/lib/libphy.a(phy_chip_v6.o)
rxiq_cover_fail_num                               /home/stoffer/esp8266/esp-open-sdk/sdk/lib/libphy.a(phy_chip_v6_cal.o)
rxmax_ext_level                                   /home/stoffer/esp8266/esp-open-sdk/sdk/lib/libphy.a(phy_chip_v6.o)
                                                  /home/stoffer/esp8266/esp-open-sdk/sdk/lib/libphy.a(phy_chip_v6_ana.o)
saveFlag                                          build/app_app.a(config.o)
scan_add_bssid                                    /home/stoffer/esp8266/esp-open-sdk/sdk/lib/libnet80211.a(ieee80211_scan.o)
                                                  /home/stoffer/esp8266/esp-open-sdk/sdk/lib/libnet80211.a(wl_cnx.o)
scan_add_probe_ssid                               /home/stoffer/esp8266/esp-open-sdk/sdk/lib/libnet80211.a(ieee80211_scan.o)
                                                  /home/stoffer/esp8266/esp-open-sdk/sdk/lib/libnet80211.a(wl_cnx.o)
scan_cancel                                       /home/stoffer/esp8266/esp-open-sdk/sdk/lib/libnet80211.a(ieee80211_scan.o)
                                                  /home/stoffer/esp8266/esp-open-sdk/sdk/lib/libmain.a(user_interface.o)
scan_check_hidden                                 /home/stoffer/esp8266/esp-open-sdk/sdk/lib/libnet80211.a(ieee80211_scan.o)
scan_clear_channles                               /home/stoffer/esp8266/esp-open-sdk/sdk/lib/libnet80211.a(ieee80211_scan.o)
scan_connect_state                                /home/stoffer/esp8266/esp-open-sdk/sdk/lib/libnet80211.a(ieee80211_scan.o)
                                                  /home/stoffer/esp8266/esp-open-sdk/sdk/lib/libpp.a(pp.o)
scan_get_type                                     /home/stoffer/esp8266/esp-open-sdk/sdk/lib/libnet80211.a(ieee80211_scan.o)
                                                  /home/stoffer/esp8266/esp-open-sdk/sdk/lib/libnet80211.a(wl_cnx.o)
scan_hidden_ssid                                  /home/stoffer/esp8266/esp-open-sdk/sdk/lib/libnet80211.a(ieee80211_scan.o)
                                                  /home/stoffer/esp8266/esp-open-sdk/sdk/lib/libnet80211.a(wl_cnx.o)
scan_parse_beacon                                 /home/stoffer/esp8266/esp-open-sdk/sdk/lib/libnet80211.a(ieee80211_scan.o)
                                                  /home/stoffer/esp8266/esp-open-sdk/sdk/lib/libnet80211.a(ieee80211_sta.o)
scan_pm_channel_op_cb                             /home/stoffer/esp8266/esp-open-sdk/sdk/lib/libnet80211.a(ieee80211_scan.o)
scan_profile_check                                /home/stoffer/esp8266/esp-open-sdk/sdk/lib/libnet80211.a(ieee80211_scan.o)
scan_remove_bssid                                 /home/stoffer/esp8266/esp-open-sdk/sdk/lib/libnet80211.a(ieee80211_scan.o)
                                                  /home/stoffer/esp8266/esp-open-sdk/sdk/lib/libnet80211.a(wl_cnx.o)
scan_remove_probe_ssid                            /home/stoffer/esp8266/esp-open-sdk/sdk/lib/libnet80211.a(ieee80211_scan.o)
                                                  /home/stoffer/esp8266/esp-open-sdk/sdk/lib/libnet80211.a(wl_cnx.o)
scan_set_desChan                                  /home/stoffer/esp8266/esp-open-sdk/sdk/lib/libnet80211.a(ieee80211_scan.o)
                                                  /home/stoffer/esp8266/esp-open-sdk/sdk/lib/libnet80211.a(wl_cnx.o)
scan_start                                        /home/stoffer/esp8266/esp-open-sdk/sdk/lib/libnet80211.a(ieee80211_scan.o)
                                                  /home/stoffer/esp8266/esp-open-sdk/sdk/lib/libnet80211.a(wl_cnx.o)
scannum                                           /home/stoffer/esp8266/esp-open-sdk/sdk/lib/libnet80211.a(ieee80211_scan.o)
                                                  /home/stoffer/esp8266/esp-open-sdk/sdk/lib/libmain.a(user_interface.o)
sdt_on_noise_start                                /home/stoffer/esp8266/esp-open-sdk/sdk/lib/libphy.a(phy_chip_v6.o)
sec_drift                                         build/app_app.a(cron.o)
set_cal_rxdc                                      /home/stoffer/esp8266/esp-open-sdk/sdk/lib/libphy.a(phy_chip_v6.o)
set_crystal_uart                                  /home/stoffer/esp8266/esp-open-sdk/sdk/lib/libphy.a(phy_chip_v6.o)
set_dpd_bypass                                    /home/stoffer/esp8266/esp-open-sdk/sdk/lib/libphy.a(phy_chip_v6.o)
set_most_pwr_reg                                  /home/stoffer/esp8266/esp-open-sdk/sdk/lib/libphy.a(phy_chip_v6.o)
set_rf_freq_offset                                /home/stoffer/esp8266/esp-open-sdk/sdk/lib/libphy.a(phy_chip_v6_ana.o)
set_rf_gain_stage10                               /home/stoffer/esp8266/esp-open-sdk/sdk/lib/libphy.a(phy_chip_v6.o)
set_rfanagain_dc_reg                              /home/stoffer/esp8266/esp-open-sdk/sdk/lib/libphy.a(phy_chip_v6_cal.o)
                                                  /home/stoffer/esp8266/esp-open-sdk/sdk/lib/libphy.a(phy_chip_v6.o)
set_rx_gain_cal_iq                                /home/stoffer/esp8266/esp-open-sdk/sdk/lib/libphy.a(phy_chip_v6.o)
set_rx_gain_testchip_50                           /home/stoffer/esp8266/esp-open-sdk/sdk/lib/libphy.a(phy_chip_v6.o)
set_txcap_reg                                     /home/stoffer/esp8266/esp-open-sdk/sdk/lib/libphy.a(phy_chip_v6_ana.o)
                                                  /home/stoffer/esp8266/esp-open-sdk/sdk/lib/libphy.a(phy_chip_v6.o)
set_txdc_pbus                                     /home/stoffer/esp8266/esp-open-sdk/sdk/lib/libphy.a(phy_chip_v6_cal.o)
                                                  /home/stoffer/esp8266/esp-open-sdk/sdk/lib/libphy.a(phy_chip_v6.o)
sha1_prf                                          /home/stoffer/esp8266/esp-open-sdk/sdk/lib/libwpa.a(wpa_common.o)
                                                  /home/stoffer/esp8266/esp-open-sdk/sdk/lib/libwpa.a(wpa_auth.o)
sha256_data                                       build/app_app.a(sha256.o)
sha256_end                                        build/app_app.a(sha256.o)
sha256_final                                      build/app_app.a(sha256.o)
                                                  build/app_app.a(hmac-sha256.o)
sha256_hash                                       build/app_app.a(crypto.o)
sha256_init                                       build/app_app.a(sha256.o)
                                                  build/app_app.a(hmac-sha256.o)
sha256_raw                                        build/app_app.a(sha256.o)
                                                  build/app_app.a(hmac-sha256.o)
                                                  build/app_app.a(crypto.o)
sha256_transform                                  build/app_app.a(sha256.o)
sha256_update                                     build/app_app.a(sha256.o)
                                                  build/app_app.a(hmac-sha256.o)
skip_atoi                                         /home/stoffer/esp8266/esp-open-sdk/sdk/lib/libmain.a(eagle_lib.o)
sleep_mode_flag                                   /home/stoffer/esp8266/esp-open-sdk/sdk/lib/libphy.a(phy_chip_v6_ana.o)
                                                  /home/stoffer/esp8266/esp-open-sdk/sdk/lib/libphy.a(phy_sleep.o)
sleep_opt_8266                                    /home/stoffer/esp8266/esp-open-sdk/sdk/lib/libphy.a(phy_sleep.o)
sleep_opt_bb_on_8266                              /home/stoffer/esp8266/esp-open-sdk/sdk/lib/libphy.a(phy_sleep.o)
sleep_reset_analog_rtcreg_8266                    /home/stoffer/esp8266/esp-open-sdk/sdk/lib/libphy.a(phy_sleep.o)
                                                  /home/stoffer/esp8266/esp-open-sdk/sdk/lib/libmain.a(app_main.o)
sleep_start_wait_time                             /home/stoffer/esp8266/esp-open-sdk/sdk/lib/libpp.a(pp.o)
                                                  /home/stoffer/esp8266/esp-open-sdk/sdk/lib/libpp.a(pm.o)
sntp__tzcalc_limits                               /home/stoffer/esp8266/esp-open-sdk/sdk/lib/liblwip.a(sntp.o)
sntp__tzrule                                      /home/stoffer/esp8266/esp-open-sdk/sdk/lib/liblwip.a(sntp.o)
sntp_asctime                                      /home/stoffer/esp8266/esp-open-sdk/sdk/lib/liblwip.a(sntp.o)
sntp_asctime_r                                    /home/stoffer/esp8266/esp-open-sdk/sdk/lib/liblwip.a(sntp.o)
sntp_get_current_timestamp                        /home/stoffer/esp8266/esp-open-sdk/sdk/lib/liblwip.a(sntp.o)
                                                  build/app_app.a(unix_time.o)
sntp_get_real_time                                /home/stoffer/esp8266/esp-open-sdk/sdk/lib/liblwip.a(sntp.o)
sntp_get_timezone                                 /home/stoffer/esp8266/esp-open-sdk/sdk/lib/liblwip.a(sntp.o)
sntp_getserver                                    /home/stoffer/esp8266/esp-open-sdk/sdk/lib/liblwip.a(sntp.o)
sntp_getservername                                /home/stoffer/esp8266/esp-open-sdk/sdk/lib/liblwip.a(sntp.o)
sntp_init                                         /home/stoffer/esp8266/esp-open-sdk/sdk/lib/liblwip.a(sntp.o)
                                                  build/app_app.a(unix_time.o)
sntp_localtime                                    /home/stoffer/esp8266/esp-open-sdk/sdk/lib/liblwip.a(sntp.o)
sntp_localtime_r                                  /home/stoffer/esp8266/esp-open-sdk/sdk/lib/liblwip.a(sntp.o)
sntp_mktm_r                                       /home/stoffer/esp8266/esp-open-sdk/sdk/lib/liblwip.a(sntp.o)
sntp_set_timezone                                 /home/stoffer/esp8266/esp-open-sdk/sdk/lib/liblwip.a(sntp.o)
                                                  build/app_app.a(unix_time.o)
sntp_setserver                                    /home/stoffer/esp8266/esp-open-sdk/sdk/lib/liblwip.a(sntp.o)
sntp_setservername                                /home/stoffer/esp8266/esp-open-sdk/sdk/lib/liblwip.a(sntp.o)
                                                  build/app_app.a(unix_time.o)
sntp_stop                                         /home/stoffer/esp8266/esp-open-sdk/sdk/lib/liblwip.a(sntp.o)
sntp_time_inc                                     /home/stoffer/esp8266/esp-open-sdk/sdk/lib/liblwip.a(sntp.o)
soft_wdt_interval                                 /home/stoffer/esp8266/esp-open-sdk/sdk/lib/libpp.a(pp.o)
software_slp_reject                               /home/stoffer/esp8266/esp-open-sdk/sdk/lib/libphy.a(phy_sleep.o)
spi_flash_erase_sector                            /home/stoffer/esp8266/esp-open-sdk/sdk/lib/libmain.a(spi_flash.o)
                                                  build/app_app.a(config.o)
                                                  /home/stoffer/esp8266/esp-open-sdk/sdk/lib/libmain.a(user_interface.o)
spi_flash_get_id                                  /home/stoffer/esp8266/esp-open-sdk/sdk/lib/libmain.a(spi_flash.o)
spi_flash_read                                    /home/stoffer/esp8266/esp-open-sdk/sdk/lib/libmain.a(spi_flash.o)
                                                  /home/stoffer/esp8266/esp-open-sdk/sdk/lib/libpp.a(pm_for_bcn_only_mode.o)
                                                  /home/stoffer/esp8266/esp-open-sdk/sdk/lib/libpp.a(pm.o)
                                                  build/app_app.a(config.o)
                                                  /home/stoffer/esp8266/esp-open-sdk/sdk/lib/libmain.a(user_interface.o)
                                                  /home/stoffer/esp8266/esp-open-sdk/sdk/lib/libmain.a(app_main.o)
spi_flash_read_status                             /home/stoffer/esp8266/esp-open-sdk/sdk/lib/libmain.a(spi_flash.o)
spi_flash_set_read_func                           /home/stoffer/esp8266/esp-open-sdk/sdk/lib/libmain.a(spi_flash.o)
spi_flash_write                                   /home/stoffer/esp8266/esp-open-sdk/sdk/lib/libmain.a(spi_flash.o)
                                                  build/app_app.a(config.o)
                                                  /home/stoffer/esp8266/esp-open-sdk/sdk/lib/libmain.a(user_interface.o)
spi_flash_write_status                            /home/stoffer/esp8266/esp-open-sdk/sdk/lib/libmain.a(spi_flash.o)
sta_con_timer                                     /home/stoffer/esp8266/esp-open-sdk/sdk/lib/libnet80211.a(wl_cnx.o)
                                                  /home/stoffer/esp8266/esp-open-sdk/sdk/lib/libmain.a(user_interface.o)
sta_input                                         /home/stoffer/esp8266/esp-open-sdk/sdk/lib/libnet80211.a(ieee80211_sta.o)
                                                  /home/stoffer/esp8266/esp-open-sdk/sdk/lib/libpp.a(pp.o)
sta_status_set                                    /home/stoffer/esp8266/esp-open-sdk/sdk/lib/libnet80211.a(ieee80211_sta.o)
                                                  /home/stoffer/esp8266/esp-open-sdk/sdk/lib/libnet80211.a(wl_cnx.o)
start_dig_rx                                      /home/stoffer/esp8266/esp-open-sdk/sdk/lib/libphy.a(phy_chip_v6.o)
                                                  /home/stoffer/esp8266/esp-open-sdk/sdk/lib/libphy.a(phy_chip_v6_ana.o)
status_led_output_level                           /home/stoffer/esp8266/esp-open-sdk/sdk/lib/libmain.a(user_interface.o)
stop_dig_rx                                       /home/stoffer/esp8266/esp-open-sdk/sdk/lib/libphy.a(phy_chip_v6.o)
                                                  /home/stoffer/esp8266/esp-open-sdk/sdk/lib/libphy.a(phy_chip_v6_ana.o)
strcat                                            /home/stoffer/esp8266/esp-open-sdk/xtensa-lx106-elf/bin/../lib/gcc/xtensa-lx106-elf/4.8.2/../../../../xtensa-lx106-elf/lib/libc.a(lib_a-strcat.o)
                                                  build/app_app.a(kmp_request.o)
strlen                                            /home/stoffer/esp8266/esp-open-sdk/xtensa-lx106-elf/bin/../lib/gcc/xtensa-lx106-elf/4.8.2/../../../../xtensa-lx106-elf/lib/libc.a(lib_a-strlen.o)
                                                  build/app_app.a(mqtt_msg.o)
                                                  build/app_app.a(kmp.o)
strtok                                            /home/stoffer/esp8266/esp-open-sdk/xtensa-lx106-elf/bin/../lib/gcc/xtensa-lx106-elf/4.8.2/../../../../xtensa-lx106-elf/lib/libc.a(lib_a-strtok.o)
                                                  build/app_app.a(user_main.o)
strtok_r                                          /home/stoffer/esp8266/esp-open-sdk/xtensa-lx106-elf/bin/../lib/gcc/xtensa-lx106-elf/4.8.2/../../../../xtensa-lx106-elf/lib/libc.a(lib_a-strtok_r.o)
                                                  build/app_app.a(cron.o)
strtol                                            /home/stoffer/esp8266/esp-open-sdk/xtensa-lx106-elf/bin/../lib/gcc/xtensa-lx106-elf/4.8.2/../../../../xtensa-lx106-elf/lib/libc.a(lib_a-strtol.o)
                                                  /home/stoffer/esp8266/esp-open-sdk/xtensa-lx106-elf/bin/../lib/gcc/xtensa-lx106-elf/4.8.2/../../../../xtensa-lx106-elf/lib/libc.a(lib_a-atoi.o)
sw_scan_mode                                      /home/stoffer/esp8266/esp-open-sdk/sdk/lib/libphy.a(phy_chip_v6.o)
sys_cfg                                           build/app_app.a(config.o)
                                                  build/app_app.a(cgiwifi.o)
                                                  build/app_app.a(ac_out.o)
                                                  build/app_app.a(cron.o)
                                                  build/app_app.a(user_main.o)
sys_check_timeouts                                /home/stoffer/esp8266/esp-open-sdk/sdk/lib/liblwip.a(timers.o)
                                                  /home/stoffer/esp8266/esp-open-sdk/sdk/lib/libmain.a(app_main.o)
sys_restart_timeouts                              /home/stoffer/esp8266/esp-open-sdk/sdk/lib/liblwip.a(timers.o)
sys_timeout                                       /home/stoffer/esp8266/esp-open-sdk/sdk/lib/liblwip.a(timers.o)
                                                  /home/stoffer/esp8266/esp-open-sdk/sdk/lib/liblwip.a(sntp.o)
sys_timeouts_init                                 /home/stoffer/esp8266/esp-open-sdk/sdk/lib/liblwip.a(timers.o)
                                                  /home/stoffer/esp8266/esp-open-sdk/sdk/lib/liblwip.a(init.o)
sys_untimeout                                     /home/stoffer/esp8266/esp-open-sdk/sdk/lib/liblwip.a(timers.o)
                                                  /home/stoffer/esp8266/esp-open-sdk/sdk/lib/liblwip.a(sntp.o)
system_adc_read                                   /home/stoffer/esp8266/esp-open-sdk/sdk/lib/libmain.a(user_interface.o)
system_deep_sleep                                 /home/stoffer/esp8266/esp-open-sdk/sdk/lib/libmain.a(user_interface.o)
system_deep_sleep_instant                         /home/stoffer/esp8266/esp-open-sdk/sdk/lib/libmain.a(user_interface.o)
system_deep_sleep_local_2                         /home/stoffer/esp8266/esp-open-sdk/sdk/lib/libmain.a(user_interface.o)
system_deep_sleep_set_option                      /home/stoffer/esp8266/esp-open-sdk/sdk/lib/libmain.a(user_interface.o)
system_get_boot_mode                              /home/stoffer/esp8266/esp-open-sdk/sdk/lib/libmain.a(user_interface.o)
system_get_boot_version                           /home/stoffer/esp8266/esp-open-sdk/sdk/lib/libmain.a(user_interface.o)
system_get_checksum                               /home/stoffer/esp8266/esp-open-sdk/sdk/lib/libmain.a(user_interface.o)
                                                  /home/stoffer/esp8266/esp-open-sdk/sdk/lib/libmain.a(app_main.o)
system_get_chip_id                                /home/stoffer/esp8266/esp-open-sdk/sdk/lib/libmain.a(user_interface.o)
                                                  build/app_app.a(config.o)
system_get_cpu_freq                               /home/stoffer/esp8266/esp-open-sdk/sdk/lib/libmain.a(user_interface.o)
system_get_data_of_array_16                       /home/stoffer/esp8266/esp-open-sdk/sdk/lib/libmain.a(user_interface.o)
system_get_data_of_array_8                        /home/stoffer/esp8266/esp-open-sdk/sdk/lib/libmain.a(user_interface.o)
                                                  /home/stoffer/esp8266/esp-open-sdk/sdk/lib/liblwip.a(tcp.o)
system_get_flash_size_map                         /home/stoffer/esp8266/esp-open-sdk/sdk/lib/libmain.a(user_interface.o)
system_get_free_heap_size                         /home/stoffer/esp8266/esp-open-sdk/sdk/lib/libmain.a(user_interface.o)
                                                  /home/stoffer/esp8266/esp-open-sdk/sdk/lib/liblwip.a(dhcpserver.o)
                                                  build/app_app.a(kmp_request.o)
                                                  build/app_app.a(user_main.o)
system_get_os_print                               /home/stoffer/esp8266/esp-open-sdk/sdk/lib/libmain.a(user_interface.o)
system_get_rst_info                               /home/stoffer/esp8266/esp-open-sdk/sdk/lib/libmain.a(user_interface.o)
                                                  build/app_app.a(user_main.o)
system_get_rtc_time                               /home/stoffer/esp8266/esp-open-sdk/sdk/lib/libmain.a(user_interface.o)
system_get_sdk_version                            /home/stoffer/esp8266/esp-open-sdk/sdk/lib/libmain.a(user_interface.o)
                                                  build/app_app.a(user_main.o)
system_get_string_from_flash                      /home/stoffer/esp8266/esp-open-sdk/sdk/lib/libmain.a(user_interface.o)
                                                  /home/stoffer/esp8266/esp-open-sdk/sdk/lib/libwpa.a(wpa_common.o)
                                                  /home/stoffer/esp8266/esp-open-sdk/sdk/lib/libwpa.a(wpa.o)
                                                  /home/stoffer/esp8266/esp-open-sdk/sdk/lib/libwpa.a(wpa_auth.o)
                                                  /home/stoffer/esp8266/esp-open-sdk/sdk/lib/libmain.a(mem_manager.o)
system_get_test_result                            /home/stoffer/esp8266/esp-open-sdk/sdk/lib/libmain.a(user_interface.o)
system_get_time                                   /home/stoffer/esp8266/esp-open-sdk/sdk/lib/libmain.a(user_interface.o)
                                                  /home/stoffer/esp8266/esp-open-sdk/sdk/lib/libmain.a(app_main.o)
system_get_userbin_addr                           /home/stoffer/esp8266/esp-open-sdk/sdk/lib/libmain.a(user_interface.o)
system_get_vdd33                                  /home/stoffer/esp8266/esp-open-sdk/sdk/lib/libmain.a(user_interface.o)
system_init_done                                  build/app_app.a(user_main.o)
system_init_done_cb                               /home/stoffer/esp8266/esp-open-sdk/sdk/lib/libmain.a(user_interface.o)
                                                  build/app_app.a(user_main.o)
system_mktime                                     /home/stoffer/esp8266/esp-open-sdk/sdk/lib/libmain.a(user_interface.o)
system_os_post                                    /home/stoffer/esp8266/esp-open-sdk/sdk/lib/libmain.a(user_interface.o)
                                                  build/app_app.a(mqtt.o)
                                                  build/app_app.a(uart.o)
system_os_task                                    /home/stoffer/esp8266/esp-open-sdk/sdk/lib/libmain.a(user_interface.o)
                                                  build/app_app.a(mqtt.o)
                                                  build/app_app.a(kmp_request.o)
system_overclock                                  /home/stoffer/esp8266/esp-open-sdk/sdk/lib/libmain.a(user_interface.o)
                                                  /home/stoffer/esp8266/esp-open-sdk/sdk/lib/libwpa.a(wpa.o)
system_param_load                                 /home/stoffer/esp8266/esp-open-sdk/sdk/lib/libmain.a(user_interface.o)
system_param_save_with_protect                    /home/stoffer/esp8266/esp-open-sdk/sdk/lib/libmain.a(user_interface.o)
system_phy_set_max_tpw                            /home/stoffer/esp8266/esp-open-sdk/sdk/lib/libmain.a(user_interface.o)
system_phy_set_powerup_option                     /home/stoffer/esp8266/esp-open-sdk/sdk/lib/libmain.a(user_interface.o)
system_phy_set_rfoption                           /home/stoffer/esp8266/esp-open-sdk/sdk/lib/libmain.a(user_interface.o)
system_phy_set_tpw_via_vdd33                      /home/stoffer/esp8266/esp-open-sdk/sdk/lib/libmain.a(user_interface.o)
system_phy_temperature_alert                      /home/stoffer/esp8266/esp-open-sdk/sdk/lib/libmain.a(user_interface.o)
system_pp_recycle_rx_pkt                          /home/stoffer/esp8266/esp-open-sdk/sdk/lib/libmain.a(user_interface.o)
                                                  /home/stoffer/esp8266/esp-open-sdk/sdk/lib/liblwip.a(pbuf.o)
system_print_meminfo                              /home/stoffer/esp8266/esp-open-sdk/sdk/lib/libmain.a(user_interface.o)
                                                  build/app_app.a(user_main.o)
system_relative_time                              /home/stoffer/esp8266/esp-open-sdk/sdk/lib/libmain.a(user_interface.o)
system_restart                                    /home/stoffer/esp8266/esp-open-sdk/sdk/lib/libmain.a(user_interface.o)
                                                  build/app_app.a(cgiwifi.o)
system_restart_core                               /home/stoffer/esp8266/esp-open-sdk/sdk/lib/libmain.a(user_interface.o)
system_restart_enhance                            /home/stoffer/esp8266/esp-open-sdk/sdk/lib/libmain.a(user_interface.o)
system_restart_hook                               /home/stoffer/esp8266/esp-open-sdk/sdk/lib/libmain.a(user_interface.o)
system_restart_local                              /home/stoffer/esp8266/esp-open-sdk/sdk/lib/libmain.a(user_interface.o)
                                                  /home/stoffer/esp8266/esp-open-sdk/sdk/lib/libpp.a(pp.o)
                                                  /home/stoffer/esp8266/esp-open-sdk/sdk/lib/libmain.a(app_main.o)
system_restore                                    /home/stoffer/esp8266/esp-open-sdk/sdk/lib/libmain.a(user_interface.o)
system_restoreclock                               /home/stoffer/esp8266/esp-open-sdk/sdk/lib/libmain.a(user_interface.o)
                                                  /home/stoffer/esp8266/esp-open-sdk/sdk/lib/libwpa.a(wpa.o)
system_rtc_clock_cali_proc                        /home/stoffer/esp8266/esp-open-sdk/sdk/lib/libmain.a(user_interface.o)
system_rtc_mem_read                               /home/stoffer/esp8266/esp-open-sdk/sdk/lib/libmain.a(user_interface.o)
                                                  /home/stoffer/esp8266/esp-open-sdk/sdk/lib/libmain.a(app_main.o)
system_rtc_mem_write                              /home/stoffer/esp8266/esp-open-sdk/sdk/lib/libmain.a(user_interface.o)
                                                  /home/stoffer/esp8266/esp-open-sdk/sdk/lib/libpp.a(pp.o)
                                                  /home/stoffer/esp8266/esp-open-sdk/sdk/lib/libmain.a(app_main.o)
system_save_sys_param                             /home/stoffer/esp8266/esp-open-sdk/sdk/lib/libmain.a(user_interface.o)
system_set_os_print                               /home/stoffer/esp8266/esp-open-sdk/sdk/lib/libmain.a(user_interface.o)
system_show_malloc                                /home/stoffer/esp8266/esp-open-sdk/sdk/lib/libmain.a(mem_manager.o)
system_soft_wdt_feed                              /home/stoffer/esp8266/esp-open-sdk/sdk/lib/libpp.a(pp.o)
system_soft_wdt_restart                           /home/stoffer/esp8266/esp-open-sdk/sdk/lib/libpp.a(pp.o)
                                                  build/app_app.a(crypto.o)
system_soft_wdt_stop                              /home/stoffer/esp8266/esp-open-sdk/sdk/lib/libpp.a(pp.o)
                                                  build/app_app.a(crypto.o)
system_station_got_ip_set                         /home/stoffer/esp8266/esp-open-sdk/sdk/lib/libmain.a(user_interface.o)
                                                  /home/stoffer/esp8266/esp-open-sdk/sdk/lib/libwpa.a(wpa_main.o)
                                                  /home/stoffer/esp8266/esp-open-sdk/sdk/lib/liblwip.a(dhcp.o)
system_timer_reinit                               /home/stoffer/esp8266/esp-open-sdk/sdk/lib/libmain.a(user_interface.o)
system_uart_de_swap                               /home/stoffer/esp8266/esp-open-sdk/sdk/lib/libmain.a(user_interface.o)
                                                  /home/stoffer/esp8266/esp-open-sdk/sdk/lib/libmain.a(app_main.o)
system_uart_swap                                  /home/stoffer/esp8266/esp-open-sdk/sdk/lib/libmain.a(user_interface.o)
                                                  /home/stoffer/esp8266/esp-open-sdk/sdk/lib/libmain.a(app_main.o)
system_update_cpu_freq                            /home/stoffer/esp8266/esp-open-sdk/sdk/lib/libmain.a(user_interface.o)
system_upgrade_flag_check                         /home/stoffer/esp8266/esp-open-sdk/sdk/lib/libmain.a(user_interface.o)
system_upgrade_flag_set                           /home/stoffer/esp8266/esp-open-sdk/sdk/lib/libmain.a(user_interface.o)
system_upgrade_reboot                             /home/stoffer/esp8266/esp-open-sdk/sdk/lib/libmain.a(user_interface.o)
system_upgrade_userbin_check                      /home/stoffer/esp8266/esp-open-sdk/sdk/lib/libmain.a(user_interface.o)
system_upgrade_userbin_set                        /home/stoffer/esp8266/esp-open-sdk/sdk/lib/libmain.a(user_interface.o)
target_power_add_backoff                          /home/stoffer/esp8266/esp-open-sdk/sdk/lib/libphy.a(phy_chip_v6.o)
target_power_backoff                              /home/stoffer/esp8266/esp-open-sdk/sdk/lib/libphy.a(phy_chip_v6.o)
tcb                                               /home/stoffer/esp8266/esp-open-sdk/sdk/lib/libpp.a(pp.o)
tcp_abandon                                       /home/stoffer/esp8266/esp-open-sdk/sdk/lib/liblwip.a(tcp.o)
                                                  /home/stoffer/esp8266/esp-open-sdk/sdk/lib/liblwip.a(tcp_in.o)
                                                  /home/stoffer/esp8266/esp-open-sdk/sdk/lib/liblwip.a(espconn_tcp.o)
tcp_abort                                         /home/stoffer/esp8266/esp-open-sdk/sdk/lib/liblwip.a(tcp.o)
                                                  /home/stoffer/esp8266/esp-open-sdk/sdk/lib/liblwip.a(tcp_in.o)
                                                  /home/stoffer/esp8266/esp-open-sdk/sdk/lib/liblwip.a(netif.o)
                                                  /home/stoffer/esp8266/esp-open-sdk/sdk/lib/liblwip.a(espconn_tcp.o)
tcp_accept                                        /home/stoffer/esp8266/esp-open-sdk/sdk/lib/liblwip.a(tcp.o)
                                                  /home/stoffer/esp8266/esp-open-sdk/sdk/lib/liblwip.a(espconn_tcp.o)
tcp_active_pcbs                                   /home/stoffer/esp8266/esp-open-sdk/sdk/lib/liblwip.a(tcp.o)
                                                  /home/stoffer/esp8266/esp-open-sdk/sdk/lib/liblwip.a(timers.o)
                                                  /home/stoffer/esp8266/esp-open-sdk/sdk/lib/liblwip.a(tcp_in.o)
                                                  /home/stoffer/esp8266/esp-open-sdk/sdk/lib/liblwip.a(pbuf.o)
                                                  /home/stoffer/esp8266/esp-open-sdk/sdk/lib/liblwip.a(netif.o)
                                                  /home/stoffer/esp8266/esp-open-sdk/sdk/lib/liblwip.a(espconn_tcp.o)
tcp_alloc                                         /home/stoffer/esp8266/esp-open-sdk/sdk/lib/liblwip.a(tcp.o)
                                                  /home/stoffer/esp8266/esp-open-sdk/sdk/lib/liblwip.a(tcp_in.o)
tcp_arg                                           /home/stoffer/esp8266/esp-open-sdk/sdk/lib/liblwip.a(tcp.o)
                                                  /home/stoffer/esp8266/esp-open-sdk/sdk/lib/liblwip.a(espconn_tcp.o)
tcp_backoff                                       /home/stoffer/esp8266/esp-open-sdk/sdk/lib/liblwip.a(tcp.o)
tcp_bind                                          /home/stoffer/esp8266/esp-open-sdk/sdk/lib/liblwip.a(tcp.o)
                                                  /home/stoffer/esp8266/esp-open-sdk/sdk/lib/liblwip.a(espconn_tcp.o)
tcp_bound_pcbs                                    /home/stoffer/esp8266/esp-open-sdk/sdk/lib/liblwip.a(tcp.o)
tcp_close                                         /home/stoffer/esp8266/esp-open-sdk/sdk/lib/liblwip.a(tcp.o)
                                                  /home/stoffer/esp8266/esp-open-sdk/sdk/lib/liblwip.a(espconn_tcp.o)
tcp_connect                                       /home/stoffer/esp8266/esp-open-sdk/sdk/lib/liblwip.a(tcp.o)
                                                  /home/stoffer/esp8266/esp-open-sdk/sdk/lib/liblwip.a(espconn_tcp.o)
tcp_eff_send_mss                                  /home/stoffer/esp8266/esp-open-sdk/sdk/lib/liblwip.a(tcp.o)
                                                  /home/stoffer/esp8266/esp-open-sdk/sdk/lib/liblwip.a(tcp_in.o)
tcp_enqueue_flags                                 /home/stoffer/esp8266/esp-open-sdk/sdk/lib/liblwip.a(tcp_out.o)
                                                  /home/stoffer/esp8266/esp-open-sdk/sdk/lib/liblwip.a(tcp.o)
                                                  /home/stoffer/esp8266/esp-open-sdk/sdk/lib/liblwip.a(tcp_in.o)
tcp_err                                           /home/stoffer/esp8266/esp-open-sdk/sdk/lib/liblwip.a(tcp.o)
                                                  /home/stoffer/esp8266/esp-open-sdk/sdk/lib/liblwip.a(espconn_tcp.o)
tcp_fasttmr                                       /home/stoffer/esp8266/esp-open-sdk/sdk/lib/liblwip.a(tcp.o)
tcp_input                                         /home/stoffer/esp8266/esp-open-sdk/sdk/lib/liblwip.a(tcp_in.o)
                                                  /home/stoffer/esp8266/esp-open-sdk/sdk/lib/liblwip.a(ip.o)
tcp_input_pcb                                     /home/stoffer/esp8266/esp-open-sdk/sdk/lib/liblwip.a(tcp_in.o)
                                                  /home/stoffer/esp8266/esp-open-sdk/sdk/lib/liblwip.a(tcp_out.o)
tcp_keepalive                                     /home/stoffer/esp8266/esp-open-sdk/sdk/lib/liblwip.a(tcp_out.o)
                                                  /home/stoffer/esp8266/esp-open-sdk/sdk/lib/liblwip.a(tcp.o)
tcp_listen_pcbs                                   /home/stoffer/esp8266/esp-open-sdk/sdk/lib/liblwip.a(tcp.o)
                                                  /home/stoffer/esp8266/esp-open-sdk/sdk/lib/liblwip.a(tcp_in.o)
                                                  /home/stoffer/esp8266/esp-open-sdk/sdk/lib/liblwip.a(netif.o)
tcp_listen_with_backlog                           /home/stoffer/esp8266/esp-open-sdk/sdk/lib/liblwip.a(tcp.o)
                                                  /home/stoffer/esp8266/esp-open-sdk/sdk/lib/liblwip.a(espconn_tcp.o)
tcp_new                                           /home/stoffer/esp8266/esp-open-sdk/sdk/lib/liblwip.a(tcp.o)
                                                  /home/stoffer/esp8266/esp-open-sdk/sdk/lib/liblwip.a(espconn_tcp.o)
tcp_next_iss                                      /home/stoffer/esp8266/esp-open-sdk/sdk/lib/liblwip.a(tcp.o)
tcp_output                                        /home/stoffer/esp8266/esp-open-sdk/sdk/lib/liblwip.a(tcp_out.o)
                                                  /home/stoffer/esp8266/esp-open-sdk/sdk/lib/liblwip.a(tcp.o)
                                                  /home/stoffer/esp8266/esp-open-sdk/sdk/lib/liblwip.a(tcp_in.o)
                                                  /home/stoffer/esp8266/esp-open-sdk/sdk/lib/liblwip.a(espconn_tcp.o)
tcp_pcb_lists                                     /home/stoffer/esp8266/esp-open-sdk/sdk/lib/liblwip.a(tcp.o)
                                                  /home/stoffer/esp8266/esp-open-sdk/sdk/lib/liblwip.a(espconn_tcp.o)
tcp_pcb_purge                                     /home/stoffer/esp8266/esp-open-sdk/sdk/lib/liblwip.a(tcp.o)
                                                  /home/stoffer/esp8266/esp-open-sdk/sdk/lib/liblwip.a(tcp_in.o)
                                                  /home/stoffer/esp8266/esp-open-sdk/sdk/lib/liblwip.a(espconn_tcp.o)
tcp_pcb_remove                                    /home/stoffer/esp8266/esp-open-sdk/sdk/lib/liblwip.a(tcp.o)
                                                  /home/stoffer/esp8266/esp-open-sdk/sdk/lib/liblwip.a(tcp_in.o)
                                                  /home/stoffer/esp8266/esp-open-sdk/sdk/lib/liblwip.a(espconn_tcp.o)
tcp_persist_backoff                               /home/stoffer/esp8266/esp-open-sdk/sdk/lib/liblwip.a(tcp.o)
tcp_poll                                          /home/stoffer/esp8266/esp-open-sdk/sdk/lib/liblwip.a(tcp.o)
                                                  /home/stoffer/esp8266/esp-open-sdk/sdk/lib/liblwip.a(espconn_tcp.o)
tcp_recv                                          /home/stoffer/esp8266/esp-open-sdk/sdk/lib/liblwip.a(tcp.o)
                                                  /home/stoffer/esp8266/esp-open-sdk/sdk/lib/liblwip.a(espconn_tcp.o)
tcp_recv_null                                     /home/stoffer/esp8266/esp-open-sdk/sdk/lib/liblwip.a(tcp.o)
                                                  /home/stoffer/esp8266/esp-open-sdk/sdk/lib/liblwip.a(tcp_in.o)
tcp_recved                                        /home/stoffer/esp8266/esp-open-sdk/sdk/lib/liblwip.a(tcp.o)
                                                  /home/stoffer/esp8266/esp-open-sdk/sdk/lib/liblwip.a(espconn_tcp.o)
tcp_rexmit                                        /home/stoffer/esp8266/esp-open-sdk/sdk/lib/liblwip.a(tcp_out.o)
                                                  /home/stoffer/esp8266/esp-open-sdk/sdk/lib/liblwip.a(tcp_in.o)
tcp_rexmit_fast                                   /home/stoffer/esp8266/esp-open-sdk/sdk/lib/liblwip.a(tcp_out.o)
                                                  /home/stoffer/esp8266/esp-open-sdk/sdk/lib/liblwip.a(tcp_in.o)
tcp_rexmit_rto                                    /home/stoffer/esp8266/esp-open-sdk/sdk/lib/liblwip.a(tcp_out.o)
                                                  /home/stoffer/esp8266/esp-open-sdk/sdk/lib/liblwip.a(tcp.o)
tcp_rst                                           /home/stoffer/esp8266/esp-open-sdk/sdk/lib/liblwip.a(tcp_out.o)
                                                  /home/stoffer/esp8266/esp-open-sdk/sdk/lib/liblwip.a(tcp.o)
                                                  /home/stoffer/esp8266/esp-open-sdk/sdk/lib/liblwip.a(tcp_in.o)
tcp_seg_copy                                      /home/stoffer/esp8266/esp-open-sdk/sdk/lib/liblwip.a(tcp.o)
                                                  /home/stoffer/esp8266/esp-open-sdk/sdk/lib/liblwip.a(tcp_in.o)
tcp_seg_free                                      /home/stoffer/esp8266/esp-open-sdk/sdk/lib/liblwip.a(tcp.o)
                                                  /home/stoffer/esp8266/esp-open-sdk/sdk/lib/liblwip.a(tcp_out.o)
                                                  /home/stoffer/esp8266/esp-open-sdk/sdk/lib/liblwip.a(tcp_in.o)
                                                  /home/stoffer/esp8266/esp-open-sdk/sdk/lib/liblwip.a(pbuf.o)
tcp_segs_free                                     /home/stoffer/esp8266/esp-open-sdk/sdk/lib/liblwip.a(tcp.o)
                                                  /home/stoffer/esp8266/esp-open-sdk/sdk/lib/liblwip.a(tcp_out.o)
                                                  /home/stoffer/esp8266/esp-open-sdk/sdk/lib/liblwip.a(tcp_in.o)
tcp_send_empty_ack                                /home/stoffer/esp8266/esp-open-sdk/sdk/lib/liblwip.a(tcp_out.o)
                                                  /home/stoffer/esp8266/esp-open-sdk/sdk/lib/liblwip.a(tcp_in.o)
tcp_send_fin                                      /home/stoffer/esp8266/esp-open-sdk/sdk/lib/liblwip.a(tcp_out.o)
                                                  /home/stoffer/esp8266/esp-open-sdk/sdk/lib/liblwip.a(tcp.o)
tcp_sent                                          /home/stoffer/esp8266/esp-open-sdk/sdk/lib/liblwip.a(tcp.o)
                                                  /home/stoffer/esp8266/esp-open-sdk/sdk/lib/liblwip.a(espconn_tcp.o)
tcp_setprio                                       /home/stoffer/esp8266/esp-open-sdk/sdk/lib/liblwip.a(tcp.o)
tcp_shutdown                                      /home/stoffer/esp8266/esp-open-sdk/sdk/lib/liblwip.a(tcp.o)
tcp_slowtmr                                       /home/stoffer/esp8266/esp-open-sdk/sdk/lib/liblwip.a(tcp.o)
tcp_ticks                                         /home/stoffer/esp8266/esp-open-sdk/sdk/lib/liblwip.a(tcp.o)
                                                  /home/stoffer/esp8266/esp-open-sdk/sdk/lib/liblwip.a(tcp_out.o)
                                                  /home/stoffer/esp8266/esp-open-sdk/sdk/lib/liblwip.a(tcp_in.o)
                                                  /home/stoffer/esp8266/esp-open-sdk/sdk/lib/liblwip.a(espconn_tcp.o)
tcp_timer_needed                                  /home/stoffer/esp8266/esp-open-sdk/sdk/lib/liblwip.a(timers.o)
                                                  /home/stoffer/esp8266/esp-open-sdk/sdk/lib/liblwip.a(tcp.o)
                                                  /home/stoffer/esp8266/esp-open-sdk/sdk/lib/liblwip.a(tcp_in.o)
tcp_tmp_pcb                                       /home/stoffer/esp8266/esp-open-sdk/sdk/lib/liblwip.a(tcp.o)
                                                  /home/stoffer/esp8266/esp-open-sdk/sdk/lib/liblwip.a(tcp_in.o)
tcp_tmr                                           /home/stoffer/esp8266/esp-open-sdk/sdk/lib/liblwip.a(tcp.o)
                                                  /home/stoffer/esp8266/esp-open-sdk/sdk/lib/liblwip.a(timers.o)
tcp_tw_pcbs                                       /home/stoffer/esp8266/esp-open-sdk/sdk/lib/liblwip.a(tcp.o)
                                                  /home/stoffer/esp8266/esp-open-sdk/sdk/lib/liblwip.a(timers.o)
                                                  /home/stoffer/esp8266/esp-open-sdk/sdk/lib/liblwip.a(tcp_in.o)
                                                  /home/stoffer/esp8266/esp-open-sdk/sdk/lib/liblwip.a(espconn_tcp.o)
tcp_update_rcv_ann_wnd                            /home/stoffer/esp8266/esp-open-sdk/sdk/lib/liblwip.a(tcp.o)
                                                  /home/stoffer/esp8266/esp-open-sdk/sdk/lib/liblwip.a(tcp_in.o)
tcp_write                                         /home/stoffer/esp8266/esp-open-sdk/sdk/lib/liblwip.a(tcp_out.o)
                                                  /home/stoffer/esp8266/esp-open-sdk/sdk/lib/liblwip.a(espconn_tcp.o)
tcp_zero_window_probe                             /home/stoffer/esp8266/esp-open-sdk/sdk/lib/liblwip.a(tcp_out.o)
                                                  /home/stoffer/esp8266/esp-open-sdk/sdk/lib/liblwip.a(tcp.o)
test_print_time                                   /home/stoffer/esp8266/esp-open-sdk/sdk/lib/libphy.a(phy_chip_v6.o)
test_rffreq_txcap                                 /home/stoffer/esp8266/esp-open-sdk/sdk/lib/libphy.a(phy_chip_v6.o)
test_tout                                         /home/stoffer/esp8266/esp-open-sdk/sdk/lib/libphy.a(phy_chip_v6_ana.o)
                                                  /home/stoffer/esp8266/esp-open-sdk/sdk/lib/libmain.a(user_interface.o)
tfp_format                                        build/app_app.a(tinyprintf.o)
tfp_printf                                        build/app_app.a(tinyprintf.o)
tfp_snprintf                                      build/app_app.a(tinyprintf.o)
                                                  build/app_app.a(utils.o)
                                                  build/app_app.a(cgiwifi.o)
                                                  build/app_app.a(cgi.o)
                                                  build/app_app.a(wifi.o)
                                                  build/app_app.a(config.o)
                                                  build/app_app.a(kmp.o)
                                                  build/app_app.a(kmp_request.o)
                                                  build/app_app.a(httpd.o)
                                                  build/app_app.a(user_main.o)
tfp_sprintf                                       build/app_app.a(tinyprintf.o)
tfp_vsnprintf                                     build/app_app.a(tinyprintf.o)
tfp_vsprintf                                      build/app_app.a(tinyprintf.o)
time_zone                                         /home/stoffer/esp8266/esp-open-sdk/sdk/lib/liblwip.a(sntp.o)
timer2_ms_flag                                    /home/stoffer/esp8266/esp-open-sdk/sdk/lib/libmain.a(user_interface.o)
                                                  /home/stoffer/esp8266/esp-open-sdk/sdk/lib/liblwip.a(timers.o)
                                                  /home/stoffer/esp8266/esp-open-sdk/sdk/lib/libpp.a(pm_for_bcn_only_mode.o)
                                                  /home/stoffer/esp8266/esp-open-sdk/sdk/lib/libpp.a(pm.o)
                                                  /home/stoffer/esp8266/esp-open-sdk/sdk/lib/libmain.a(ets_timer.o)
timer_list                                        /home/stoffer/esp8266/esp-open-sdk/sdk/lib/libmain.a(ets_timer.o)
                                                  /home/stoffer/esp8266/esp-open-sdk/sdk/lib/libpp.a(pm_for_bcn_only_mode.o)
                                                  /home/stoffer/esp8266/esp-open-sdk/sdk/lib/libpp.a(pm.o)
tkip                                              /home/stoffer/esp8266/esp-open-sdk/sdk/lib/libnet80211.a(ieee80211_crypto_tkip.o)
                                                  /home/stoffer/esp8266/esp-open-sdk/sdk/lib/libwpa.a(wpa_main.o)
                                                  /home/stoffer/esp8266/esp-open-sdk/sdk/lib/libwpa.a(wpa_auth.o)
total_buffed_eb_num                               /home/stoffer/esp8266/esp-open-sdk/sdk/lib/libpp.a(pp.o)
                                                  /home/stoffer/esp8266/esp-open-sdk/sdk/lib/libnet80211.a(ieee80211_hostap.o)
tout_dis_txpwr_track                              /home/stoffer/esp8266/esp-open-sdk/sdk/lib/libphy.a(phy_chip_v6_ana.o)
                                                  /home/stoffer/esp8266/esp-open-sdk/sdk/lib/libphy.a(phy_chip_v6_cal.o)
tplCounter                                        build/app_app.a(cgi.o)
                                                  build/app_app.a(httpd_user_init.o)
tplLed                                            build/app_app.a(cgi.o)
                                                  build/app_app.a(httpd_user_init.o)
tplSetup                                          build/app_app.a(cgiwifi.o)
                                                  build/app_app.a(httpd_user_init.o)
trc_NeedRTS                                       /home/stoffer/esp8266/esp-open-sdk/sdk/lib/libpp.a(trc.o)
trc_onDisconnect                                  /home/stoffer/esp8266/esp-open-sdk/sdk/lib/libpp.a(trc.o)
trc_onScanDone                                    /home/stoffer/esp8266/esp-open-sdk/sdk/lib/libpp.a(trc.o)
trc_onScanStart                                   /home/stoffer/esp8266/esp-open-sdk/sdk/lib/libpp.a(trc.o)
tsen_meas                                         /home/stoffer/esp8266/esp-open-sdk/sdk/lib/libphy.a(phy_chip_v6_ana.o)
tx_atten_set_interp                               /home/stoffer/esp8266/esp-open-sdk/sdk/lib/libphy.a(phy_chip_v6.o)
                                                  /home/stoffer/esp8266/esp-open-sdk/sdk/lib/libphy.a(phy_chip_v6_cal.o)
                                                  /home/stoffer/esp8266/esp-open-sdk/sdk/lib/libphy.a(phy_chip_v6_ana.o)
tx_cap_init                                       /home/stoffer/esp8266/esp-open-sdk/sdk/lib/libphy.a(phy_chip_v6.o)
tx_cont_cfg                                       /home/stoffer/esp8266/esp-open-sdk/sdk/lib/libphy.a(phy_chip_v6.o)
tx_cont_dis                                       /home/stoffer/esp8266/esp-open-sdk/sdk/lib/libphy.a(phy_chip_v6.o)
tx_cont_en                                        /home/stoffer/esp8266/esp-open-sdk/sdk/lib/libphy.a(phy_chip_v6.o)
tx_pwctrl_background                              /home/stoffer/esp8266/esp-open-sdk/sdk/lib/libphy.a(phy_chip_v6_cal.o)
                                                  /home/stoffer/esp8266/esp-open-sdk/sdk/lib/libpp.a(pp.o)
tx_pwctrl_bg_init                                 /home/stoffer/esp8266/esp-open-sdk/sdk/lib/libphy.a(phy_chip_v6_cal.o)
                                                  /home/stoffer/esp8266/esp-open-sdk/sdk/lib/libphy.a(phy_chip_v6.o)
tx_pwctrl_cal                                     /home/stoffer/esp8266/esp-open-sdk/sdk/lib/libphy.a(phy_chip_v6_cal.o)
tx_pwctrl_init                                    /home/stoffer/esp8266/esp-open-sdk/sdk/lib/libphy.a(phy_chip_v6.o)
tx_pwctrl_init_cal                                /home/stoffer/esp8266/esp-open-sdk/sdk/lib/libphy.a(phy_chip_v6.o)
tx_pwctrl_pk_num                                  /home/stoffer/esp8266/esp-open-sdk/sdk/lib/libphy.a(phy_chip_v6_cal.o)
tx_pwctrl_track_num                               /home/stoffer/esp8266/esp-open-sdk/sdk/lib/libphy.a(phy_chip_v6_cal.o)
tx_pwr_backoff                                    /home/stoffer/esp8266/esp-open-sdk/sdk/lib/libphy.a(phy_chip_v6_cal.o)
                                                  /home/stoffer/esp8266/esp-open-sdk/sdk/lib/libphy.a(phy_chip_v6.o)
tx_rf_ana_gain                                    /home/stoffer/esp8266/esp-open-sdk/sdk/lib/libphy.a(phy_chip_v6.o)
                                                  /home/stoffer/esp8266/esp-open-sdk/sdk/lib/libphy.a(phy_chip_v6_cal.o)
txbbgain2dcoindex                                 /home/stoffer/esp8266/esp-open-sdk/sdk/lib/libphy.a(phy_chip_v6_cal.o)
txbk_dpdby_flag                                   /home/stoffer/esp8266/esp-open-sdk/sdk/lib/libphy.a(phy_chip_v6.o)
txiq_cover                                        /home/stoffer/esp8266/esp-open-sdk/sdk/lib/libphy.a(phy_chip_v6_cal.o)
txiq_get_mis_pwr                                  /home/stoffer/esp8266/esp-open-sdk/sdk/lib/libphy.a(phy_chip_v6_cal.o)
txpwr_offset                                      /home/stoffer/esp8266/esp-open-sdk/sdk/lib/libphy.a(phy_chip_v6_ana.o)
                                                  /home/stoffer/esp8266/esp-open-sdk/sdk/lib/libphy.a(phy_chip_v6.o)
uart0_sendStr                                     build/app_app.a(uart.o)
uart0_tx_buffer                                   build/app_app.a(uart.o)
                                                  build/app_app.a(kmp_request.o)
uart0_write_char                                  build/app_app.a(uart.o)
uart1_write_char                                  build/app_app.a(uart.o)
uart_buff_switch                                  /home/stoffer/esp8266/esp-open-sdk/sdk/lib/libphy.a(phy_chip_v6.o)
uart_div_modify                                   build/app_app.a(uart.o)
                                                  /home/stoffer/esp8266/esp-open-sdk/sdk/lib/libmain.a(app_main.o)
uart_init                                         build/app_app.a(uart.o)
                                                  build/app_app.a(user_main.o)
uart_reattach                                     build/app_app.a(uart.o)
uart_tx_flush                                     /home/stoffer/esp8266/esp-open-sdk/sdk/lib/libpp.a(pm.o)
                                                  /home/stoffer/esp8266/esp-open-sdk/sdk/lib/libphy.a(phy_chip_v6.o)
uart_tx_one_char                                  build/app_app.a(uart.o)
uart_wait_idle                                    /home/stoffer/esp8266/esp-open-sdk/sdk/lib/libphy.a(phy_chip_v6.o)
udp_bind                                          /home/stoffer/esp8266/esp-open-sdk/sdk/lib/liblwip.a(udp.o)
                                                  /home/stoffer/esp8266/esp-open-sdk/sdk/lib/liblwip.a(espconn_udp.o)
                                                  /home/stoffer/esp8266/esp-open-sdk/sdk/lib/liblwip.a(dns.o)
                                                  /home/stoffer/esp8266/esp-open-sdk/sdk/lib/liblwip.a(dhcpserver.o)
                                                  /home/stoffer/esp8266/esp-open-sdk/sdk/lib/liblwip.a(dhcp.o)
udp_connect                                       /home/stoffer/esp8266/esp-open-sdk/sdk/lib/liblwip.a(udp.o)
                                                  /home/stoffer/esp8266/esp-open-sdk/sdk/lib/liblwip.a(dns.o)
                                                  /home/stoffer/esp8266/esp-open-sdk/sdk/lib/liblwip.a(dhcp.o)
udp_disconnect                                    /home/stoffer/esp8266/esp-open-sdk/sdk/lib/liblwip.a(udp.o)
                                                  /home/stoffer/esp8266/esp-open-sdk/sdk/lib/liblwip.a(espconn_udp.o)
                                                  /home/stoffer/esp8266/esp-open-sdk/sdk/lib/liblwip.a(dhcpserver.o)
udp_input                                         /home/stoffer/esp8266/esp-open-sdk/sdk/lib/liblwip.a(udp.o)
                                                  /home/stoffer/esp8266/esp-open-sdk/sdk/lib/liblwip.a(ip.o)
udp_new                                           /home/stoffer/esp8266/esp-open-sdk/sdk/lib/liblwip.a(udp.o)
                                                  /home/stoffer/esp8266/esp-open-sdk/sdk/lib/liblwip.a(sntp.o)
                                                  /home/stoffer/esp8266/esp-open-sdk/sdk/lib/liblwip.a(espconn_udp.o)
                                                  /home/stoffer/esp8266/esp-open-sdk/sdk/lib/liblwip.a(dns.o)
                                                  /home/stoffer/esp8266/esp-open-sdk/sdk/lib/liblwip.a(dhcpserver.o)
                                                  /home/stoffer/esp8266/esp-open-sdk/sdk/lib/liblwip.a(dhcp.o)
udp_pcbs                                          /home/stoffer/esp8266/esp-open-sdk/sdk/lib/liblwip.a(udp.o)
udp_recv                                          /home/stoffer/esp8266/esp-open-sdk/sdk/lib/liblwip.a(udp.o)
                                                  /home/stoffer/esp8266/esp-open-sdk/sdk/lib/liblwip.a(sntp.o)
                                                  /home/stoffer/esp8266/esp-open-sdk/sdk/lib/liblwip.a(espconn_udp.o)
                                                  /home/stoffer/esp8266/esp-open-sdk/sdk/lib/liblwip.a(dns.o)
                                                  /home/stoffer/esp8266/esp-open-sdk/sdk/lib/liblwip.a(dhcpserver.o)
                                                  /home/stoffer/esp8266/esp-open-sdk/sdk/lib/liblwip.a(dhcp.o)
udp_remove                                        /home/stoffer/esp8266/esp-open-sdk/sdk/lib/liblwip.a(udp.o)
                                                  /home/stoffer/esp8266/esp-open-sdk/sdk/lib/liblwip.a(sntp.o)
                                                  /home/stoffer/esp8266/esp-open-sdk/sdk/lib/liblwip.a(espconn_udp.o)
                                                  /home/stoffer/esp8266/esp-open-sdk/sdk/lib/liblwip.a(dhcpserver.o)
                                                  /home/stoffer/esp8266/esp-open-sdk/sdk/lib/liblwip.a(dhcp.o)
udp_send                                          /home/stoffer/esp8266/esp-open-sdk/sdk/lib/liblwip.a(udp.o)
                                                  /home/stoffer/esp8266/esp-open-sdk/sdk/lib/liblwip.a(espconn_udp.o)
udp_sendto                                        /home/stoffer/esp8266/esp-open-sdk/sdk/lib/liblwip.a(udp.o)
                                                  /home/stoffer/esp8266/esp-open-sdk/sdk/lib/liblwip.a(sntp.o)
                                                  /home/stoffer/esp8266/esp-open-sdk/sdk/lib/liblwip.a(espconn_udp.o)
                                                  /home/stoffer/esp8266/esp-open-sdk/sdk/lib/liblwip.a(dns.o)
                                                  /home/stoffer/esp8266/esp-open-sdk/sdk/lib/liblwip.a(dhcpserver.o)
udp_sendto_if                                     /home/stoffer/esp8266/esp-open-sdk/sdk/lib/liblwip.a(udp.o)
                                                  /home/stoffer/esp8266/esp-open-sdk/sdk/lib/liblwip.a(dhcp.o)
unregister_ieee80211_action_vendor_get_key_cb     /home/stoffer/esp8266/esp-open-sdk/sdk/lib/libnet80211.a(ieee80211_action_vendor.o)
unregister_ieee80211_action_vendor_spec_cb        /home/stoffer/esp8266/esp-open-sdk/sdk/lib/libnet80211.a(ieee80211_action_vendor.o)
unregister_ieee80211_rfid_locp_recv_cb            /home/stoffer/esp8266/esp-open-sdk/sdk/lib/libnet80211.a(ieee80211_rfid.o)
                                                  /home/stoffer/esp8266/esp-open-sdk/sdk/lib/libmain.a(user_interface.o)
unsign_to_sign                                    /home/stoffer/esp8266/esp-open-sdk/sdk/lib/libphy.a(phy_chip_v6_cal.o)
uptime                                            build/app_app.a(unix_time.o)
                                                  build/app_app.a(user_main.o)
user_init                                         build/app_app.a(user_main.o)
                                                  /home/stoffer/esp8266/esp-open-sdk/sdk/lib/libmain.a(app_main.o)
user_init_flag                                    /home/stoffer/esp8266/esp-open-sdk/sdk/lib/libmain.a(app_main.o)
                                                  /home/stoffer/esp8266/esp-open-sdk/sdk/lib/libmain.a(user_interface.o)
user_rf_pre_init                                  /home/stoffer/esp8266/esp-open-sdk/sdk/lib/libmain.a(app_main.o)
user_uart_wait_tx_fifo_empty                      /home/stoffer/esp8266/esp-open-sdk/sdk/lib/libmain.a(app_main.o)
                                                  /home/stoffer/esp8266/esp-open-sdk/sdk/lib/libmain.a(user_interface.o)
vPortFree                                         /home/stoffer/esp8266/esp-open-sdk/sdk/lib/libmain.a(mem_manager.o)
                                                  /home/stoffer/esp8266/esp-open-sdk/sdk/lib/libwpa.a(aes-internal-enc.o)
                                                  /home/stoffer/esp8266/esp-open-sdk/sdk/lib/libwpa.a(wpa_main.o)
                                                  /home/stoffer/esp8266/esp-open-sdk/sdk/lib/libwpa.a(wpa_auth_ie.o)
                                                  /home/stoffer/esp8266/esp-open-sdk/sdk/lib/libwpa.a(wpa_auth.o)
                                                  /home/stoffer/esp8266/esp-open-sdk/sdk/lib/libwpa.a(common.o)
                                                  /home/stoffer/esp8266/esp-open-sdk/sdk/lib/libwpa.a(ap_config.o)
                                                  /home/stoffer/esp8266/esp-open-sdk/sdk/lib/liblwip.a(udp.o)
                                                  /home/stoffer/esp8266/esp-open-sdk/sdk/lib/liblwip.a(timers.o)
                                                  /home/stoffer/esp8266/esp-open-sdk/sdk/lib/liblwip.a(tcp.o)
                                                  /home/stoffer/esp8266/esp-open-sdk/sdk/lib/liblwip.a(tcp_in.o)
                                                  /home/stoffer/esp8266/esp-open-sdk/sdk/lib/liblwip.a(raw.o)
                                                  /home/stoffer/esp8266/esp-open-sdk/sdk/lib/liblwip.a(pbuf.o)
                                                  /home/stoffer/esp8266/esp-open-sdk/sdk/lib/liblwip.a(igmp.o)
                                                  /home/stoffer/esp8266/esp-open-sdk/sdk/lib/liblwip.a(etharp.o)
                                                  /home/stoffer/esp8266/esp-open-sdk/sdk/lib/liblwip.a(espconn_udp.o)
                                                  /home/stoffer/esp8266/esp-open-sdk/sdk/lib/liblwip.a(espconn_tcp.o)
                                                  /home/stoffer/esp8266/esp-open-sdk/sdk/lib/liblwip.a(dns.o)
                                                  /home/stoffer/esp8266/esp-open-sdk/sdk/lib/liblwip.a(dhcpserver.o)
                                                  /home/stoffer/esp8266/esp-open-sdk/sdk/lib/liblwip.a(dhcp.o)
                                                  /home/stoffer/esp8266/esp-open-sdk/sdk/lib/libnet80211.a(wl_cnx.o)
                                                  /home/stoffer/esp8266/esp-open-sdk/sdk/lib/libnet80211.a(ieee80211_sta.o)
                                                  /home/stoffer/esp8266/esp-open-sdk/sdk/lib/libnet80211.a(ieee80211_scan.o)
                                                  /home/stoffer/esp8266/esp-open-sdk/sdk/lib/libnet80211.a(ieee80211_phy.o)
                                                  /home/stoffer/esp8266/esp-open-sdk/sdk/lib/libnet80211.a(ieee80211_mesh_quick.o)
                                                  /home/stoffer/esp8266/esp-open-sdk/sdk/lib/libnet80211.a(ieee80211_hostap.o)
                                                  /home/stoffer/esp8266/esp-open-sdk/sdk/lib/libnet80211.a(ieee80211.o)
                                                  /home/stoffer/esp8266/esp-open-sdk/sdk/lib/libpp.a(esf_buf.o)
                                                  /home/stoffer/esp8266/esp-open-sdk/sdk/lib/libpp.a(wdev.o)
                                                  /home/stoffer/esp8266/esp-open-sdk/sdk/lib/libpp.a(pp.o)
                                                  /home/stoffer/esp8266/esp-open-sdk/sdk/lib/libpp.a(pm_for_bcn_only_mode.o)
                                                  /home/stoffer/esp8266/esp-open-sdk/sdk/lib/libpp.a(pm.o)
                                                  build/app_app.a(heatshrink_decoder.o)
                                                  build/app_app.a(espfs.o)
                                                  build/app_app.a(cgiwifi.o)
                                                  build/app_app.a(httpdespfs.o)
                                                  build/app_app.a(unix_time.o)
                                                  build/app_app.a(mqtt.o)
                                                  build/app_app.a(httpd.o)
                                                  /home/stoffer/esp8266/esp-open-sdk/sdk/lib/libmain.a(eagle_lwip_if.o)
                                                  /home/stoffer/esp8266/esp-open-sdk/sdk/lib/libmain.a(user_interface.o)
                                                  /home/stoffer/esp8266/esp-open-sdk/sdk/lib/libmain.a(app_main.o)
vPortInitialiseBlocks                             /home/stoffer/esp8266/esp-open-sdk/sdk/lib/libmain.a(mem_manager.o)
wDevCtrl                                          /home/stoffer/esp8266/esp-open-sdk/sdk/lib/libpp.a(wdev.o)
                                                  /home/stoffer/esp8266/esp-open-sdk/sdk/lib/libpp.a(esf_buf.o)
                                                  /home/stoffer/esp8266/esp-open-sdk/sdk/lib/libpp.a(pp.o)
wDevDisableRx                                     /home/stoffer/esp8266/esp-open-sdk/sdk/lib/libpp.a(wdev.o)
                                                  /home/stoffer/esp8266/esp-open-sdk/sdk/lib/libnet80211.a(ieee80211_hostap.o)
                                                  /home/stoffer/esp8266/esp-open-sdk/sdk/lib/libpp.a(if_hwctrl.o)
                                                  /home/stoffer/esp8266/esp-open-sdk/sdk/lib/libmain.a(user_interface.o)
wDevEnableRx                                      /home/stoffer/esp8266/esp-open-sdk/sdk/lib/libpp.a(wdev.o)
                                                  /home/stoffer/esp8266/esp-open-sdk/sdk/lib/libpp.a(if_hwctrl.o)
                                                  /home/stoffer/esp8266/esp-open-sdk/sdk/lib/libmain.a(user_interface.o)
                                                  /home/stoffer/esp8266/esp-open-sdk/sdk/lib/libmain.a(app_main.o)
wDevForceAck6M                                    /home/stoffer/esp8266/esp-open-sdk/sdk/lib/libpp.a(wdev.o)
wDev_AppendRxAmpduLensBlocks                      /home/stoffer/esp8266/esp-open-sdk/sdk/lib/libpp.a(wdev.o)
wDev_AppendRxBlocks                               /home/stoffer/esp8266/esp-open-sdk/sdk/lib/libpp.a(wdev.o)
                                                  /home/stoffer/esp8266/esp-open-sdk/sdk/lib/libpp.a(pp.o)
wDev_ClearBssid                                   /home/stoffer/esp8266/esp-open-sdk/sdk/lib/libpp.a(wdev.o)
wDev_ClearTxqCollisions                           /home/stoffer/esp8266/esp-open-sdk/sdk/lib/libpp.a(wdev.o)
                                                  /home/stoffer/esp8266/esp-open-sdk/sdk/lib/libpp.a(lmac.o)
wDev_ClearWaitingQueue                            /home/stoffer/esp8266/esp-open-sdk/sdk/lib/libpp.a(wdev.o)
                                                  /home/stoffer/esp8266/esp-open-sdk/sdk/lib/libpp.a(lmac.o)
wDev_Crypto_Conf                                  /home/stoffer/esp8266/esp-open-sdk/sdk/lib/libpp.a(wdev.o)
                                                  /home/stoffer/esp8266/esp-open-sdk/sdk/lib/libpp.a(if_hwctrl.o)
wDev_Crypto_Disable                               /home/stoffer/esp8266/esp-open-sdk/sdk/lib/libpp.a(wdev.o)
                                                  /home/stoffer/esp8266/esp-open-sdk/sdk/lib/libpp.a(if_hwctrl.o)
wDev_DisableTransmit                              /home/stoffer/esp8266/esp-open-sdk/sdk/lib/libpp.a(wdev.o)
wDev_Disable_Beacon_Tsf                           /home/stoffer/esp8266/esp-open-sdk/sdk/lib/libpp.a(wdev.o)
wDev_EnableTransmit                               /home/stoffer/esp8266/esp-open-sdk/sdk/lib/libpp.a(wdev.o)
                                                  /home/stoffer/esp8266/esp-open-sdk/sdk/lib/libpp.a(lmac.o)
wDev_Enable_Beacon_Tsf                            /home/stoffer/esp8266/esp-open-sdk/sdk/lib/libpp.a(wdev.o)
wDev_GetBAInfo                                    /home/stoffer/esp8266/esp-open-sdk/sdk/lib/libpp.a(wdev.o)
                                                  /home/stoffer/esp8266/esp-open-sdk/sdk/lib/libpp.a(lmac.o)
wDev_GetTxqCollisions                             /home/stoffer/esp8266/esp-open-sdk/sdk/lib/libpp.a(wdev.o)
                                                  /home/stoffer/esp8266/esp-open-sdk/sdk/lib/libpp.a(lmac.o)
wDev_Get_Next_TBTT                                /home/stoffer/esp8266/esp-open-sdk/sdk/lib/libpp.a(wdev.o)
                                                  /home/stoffer/esp8266/esp-open-sdk/sdk/lib/libnet80211.a(ieee80211_hostap.o)
wDev_Initialize                                   /home/stoffer/esp8266/esp-open-sdk/sdk/lib/libpp.a(wdev.o)
                                                  /home/stoffer/esp8266/esp-open-sdk/sdk/lib/libmain.a(app_main.o)
wDev_Insert_KeyEntry                              /home/stoffer/esp8266/esp-open-sdk/sdk/lib/libpp.a(wdev.o)
                                                  /home/stoffer/esp8266/esp-open-sdk/sdk/lib/libpp.a(if_hwctrl.o)
wDev_MacTim1Arm                                   /home/stoffer/esp8266/esp-open-sdk/sdk/lib/libpp.a(wdev.o)
                                                  /home/stoffer/esp8266/esp-open-sdk/sdk/lib/libpp.a(pp.o)
wDev_MacTim1SetFunc                               /home/stoffer/esp8266/esp-open-sdk/sdk/lib/libpp.a(wdev.o)
                                                  /home/stoffer/esp8266/esp-open-sdk/sdk/lib/libpp.a(pp.o)
wDev_Option_Init                                  /home/stoffer/esp8266/esp-open-sdk/sdk/lib/libpp.a(wdev.o)
wDev_ProcessCollision                             /home/stoffer/esp8266/esp-open-sdk/sdk/lib/libpp.a(wdev.o)
                                                  /home/stoffer/esp8266/esp-open-sdk/sdk/lib/libpp.a(lmac.o)
wDev_ProcessFiq                                   /home/stoffer/esp8266/esp-open-sdk/sdk/lib/libpp.a(wdev.o)
                                                  /home/stoffer/esp8266/esp-open-sdk/sdk/lib/libmain.a(app_main.o)
wDev_Reset_TBTT                                   /home/stoffer/esp8266/esp-open-sdk/sdk/lib/libpp.a(wdev.o)
                                                  /home/stoffer/esp8266/esp-open-sdk/sdk/lib/libnet80211.a(ieee80211_hostap.o)
wDev_SetBssid                                     /home/stoffer/esp8266/esp-open-sdk/sdk/lib/libpp.a(wdev.o)
wDev_SetFrameAckType                              /home/stoffer/esp8266/esp-open-sdk/sdk/lib/libpp.a(wdev.o)
                                                  /home/stoffer/esp8266/esp-open-sdk/sdk/lib/libpp.a(lmac.o)
wDev_SetMacAddress                                /home/stoffer/esp8266/esp-open-sdk/sdk/lib/libpp.a(wdev.o)
                                                  /home/stoffer/esp8266/esp-open-sdk/sdk/lib/libpp.a(if_hwctrl.o)
                                                  /home/stoffer/esp8266/esp-open-sdk/sdk/lib/libmain.a(user_interface.o)
wDev_SetRxPolicy                                  /home/stoffer/esp8266/esp-open-sdk/sdk/lib/libpp.a(wdev.o)
                                                  /home/stoffer/esp8266/esp-open-sdk/sdk/lib/libnet80211.a(wl_cnx.o)
                                                  /home/stoffer/esp8266/esp-open-sdk/sdk/lib/libnet80211.a(ieee80211_scan.o)
                                                  /home/stoffer/esp8266/esp-open-sdk/sdk/lib/libnet80211.a(ieee80211_hostap.o)
                                                  /home/stoffer/esp8266/esp-open-sdk/sdk/lib/libpp.a(if_hwctrl.o)
wDev_SetWaitingQueue                              /home/stoffer/esp8266/esp-open-sdk/sdk/lib/libpp.a(wdev.o)
                                                  /home/stoffer/esp8266/esp-open-sdk/sdk/lib/libpp.a(lmac.o)
wDev_Set_Beacon_Int                               /home/stoffer/esp8266/esp-open-sdk/sdk/lib/libpp.a(wdev.o)
                                                  /home/stoffer/esp8266/esp-open-sdk/sdk/lib/libnet80211.a(ieee80211_hostap.o)
                                                  /home/stoffer/esp8266/esp-open-sdk/sdk/lib/libmain.a(user_interface.o)
                                                  /home/stoffer/esp8266/esp-open-sdk/sdk/lib/libmain.a(app_main.o)
wDev_remove_KeyEntry                              /home/stoffer/esp8266/esp-open-sdk/sdk/lib/libpp.a(wdev.o)
                                                  /home/stoffer/esp8266/esp-open-sdk/sdk/lib/libwpa.a(wpa_main.o)
                                                  /home/stoffer/esp8266/esp-open-sdk/sdk/lib/libnet80211.a(wl_cnx.o)
                                                  /home/stoffer/esp8266/esp-open-sdk/sdk/lib/libpp.a(if_hwctrl.o)
wDev_remove_KeyEntry_all_cnx                      /home/stoffer/esp8266/esp-open-sdk/sdk/lib/libpp.a(wdev.o)
                                                  /home/stoffer/esp8266/esp-open-sdk/sdk/lib/libnet80211.a(wl_cnx.o)
                                                  /home/stoffer/esp8266/esp-open-sdk/sdk/lib/libnet80211.a(ieee80211_hostap.o)
w_to_kw_str                                       build/app_app.a(utils.o)
wait_rfpll_cal_end                                /home/stoffer/esp8266/esp-open-sdk/sdk/lib/libphy.a(phy_chip_v6_ana.o)
                                                  /home/stoffer/esp8266/esp-open-sdk/sdk/lib/libphy.a(phy_chip_v6.o)
wdev_exit_sniffer                                 /home/stoffer/esp8266/esp-open-sdk/sdk/lib/libpp.a(wdev.o)
                                                  /home/stoffer/esp8266/esp-open-sdk/sdk/lib/libmain.a(user_interface.o)
wdev_go_sniffer                                   /home/stoffer/esp8266/esp-open-sdk/sdk/lib/libpp.a(wdev.o)
                                                  /home/stoffer/esp8266/esp-open-sdk/sdk/lib/libmain.a(user_interface.o)
wdev_set_sniffer_addr                             /home/stoffer/esp8266/esp-open-sdk/sdk/lib/libpp.a(wdev.o)
wdt_feed                                          /home/stoffer/esp8266/esp-open-sdk/sdk/lib/libmain.a(app_main.o)
wdt_init                                          /home/stoffer/esp8266/esp-open-sdk/sdk/lib/libmain.a(app_main.o)
wep                                               /home/stoffer/esp8266/esp-open-sdk/sdk/lib/libnet80211.a(ieee80211_crypto_wep.o)
                                                  /home/stoffer/esp8266/esp-open-sdk/sdk/lib/libwpa.a(wpa_main.o)
                                                  /home/stoffer/esp8266/esp-open-sdk/sdk/lib/libwpa.a(wpa_auth.o)
wifiScanDoneCb                                    build/app_app.a(cgiwifi.o)
wifi_cb                                           build/app_app.a(wifi.o)
wifi_changed_cb                                   build/app_app.a(user_main.o)
wifi_connect                                      build/app_app.a(wifi.o)
                                                  build/app_app.a(user_main.o)
wifi_default                                      build/app_app.a(wifi.o)
wifi_enable_6m_rate                               /home/stoffer/esp8266/esp-open-sdk/sdk/lib/libmain.a(user_interface.o)
wifi_fallback                                     build/app_app.a(wifi.o)
wifi_fallback_last_present                        build/app_app.a(wifi.o)
wifi_fallback_present                             build/app_app.a(wifi.o)
wifi_fpm_close                                    /home/stoffer/esp8266/esp-open-sdk/sdk/lib/libpp.a(pm_for_bcn_only_mode.o)
wifi_fpm_do_sleep                                 /home/stoffer/esp8266/esp-open-sdk/sdk/lib/libpp.a(pm_for_bcn_only_mode.o)
wifi_fpm_do_wakeup                                /home/stoffer/esp8266/esp-open-sdk/sdk/lib/libpp.a(pm_for_bcn_only_mode.o)
wifi_fpm_get_sleep_type                           /home/stoffer/esp8266/esp-open-sdk/sdk/lib/libpp.a(pm_for_bcn_only_mode.o)
wifi_fpm_open                                     /home/stoffer/esp8266/esp-open-sdk/sdk/lib/libpp.a(pm_for_bcn_only_mode.o)
wifi_fpm_set_sleep_type                           /home/stoffer/esp8266/esp-open-sdk/sdk/lib/libpp.a(pm_for_bcn_only_mode.o)
wifi_fpm_set_wakeup_cb                            /home/stoffer/esp8266/esp-open-sdk/sdk/lib/libpp.a(pm_for_bcn_only_mode.o)
wifi_get_broadcast_if                             /home/stoffer/esp8266/esp-open-sdk/sdk/lib/libmain.a(user_interface.o)
wifi_get_channel                                  /home/stoffer/esp8266/esp-open-sdk/sdk/lib/libmain.a(user_interface.o)
wifi_get_ip_info                                  /home/stoffer/esp8266/esp-open-sdk/sdk/lib/libmain.a(user_interface.o)
                                                  /home/stoffer/esp8266/esp-open-sdk/sdk/lib/liblwip.a(espconn_udp.o)
                                                  /home/stoffer/esp8266/esp-open-sdk/sdk/lib/liblwip.a(espconn.o)
                                                  /home/stoffer/esp8266/esp-open-sdk/sdk/lib/liblwip.a(dhcpserver.o)
                                                  build/app_app.a(wifi.o)
                                                  build/app_app.a(captdns.o)
wifi_get_macaddr                                  /home/stoffer/esp8266/esp-open-sdk/sdk/lib/libmain.a(user_interface.o)
                                                  /home/stoffer/esp8266/esp-open-sdk/sdk/lib/libnet80211.a(ieee80211_output.o)
                                                  /home/stoffer/esp8266/esp-open-sdk/sdk/lib/libnet80211.a(ieee80211_hostap.o)
wifi_get_opmode                                   /home/stoffer/esp8266/esp-open-sdk/sdk/lib/libmain.a(user_interface.o)
                                                  /home/stoffer/esp8266/esp-open-sdk/sdk/lib/liblwip.a(espconn_udp.o)
                                                  /home/stoffer/esp8266/esp-open-sdk/sdk/lib/liblwip.a(espconn.o)
                                                  /home/stoffer/esp8266/esp-open-sdk/sdk/lib/liblwip.a(dhcpserver.o)
                                                  /home/stoffer/esp8266/esp-open-sdk/sdk/lib/libnet80211.a(wl_cnx.o)
                                                  /home/stoffer/esp8266/esp-open-sdk/sdk/lib/libnet80211.a(ieee80211_scan.o)
                                                  /home/stoffer/esp8266/esp-open-sdk/sdk/lib/libnet80211.a(ieee80211_hostap.o)
                                                  build/app_app.a(cgiwifi.o)
wifi_get_opmode_default                           /home/stoffer/esp8266/esp-open-sdk/sdk/lib/libmain.a(user_interface.o)
wifi_get_phy_mode                                 /home/stoffer/esp8266/esp-open-sdk/sdk/lib/libmain.a(user_interface.o)
wifi_get_sleep_type                               /home/stoffer/esp8266/esp-open-sdk/sdk/lib/libmain.a(user_interface.o)
wifi_get_user_fixed_rate                          /home/stoffer/esp8266/esp-open-sdk/sdk/lib/libmain.a(user_interface.o)
wifi_get_user_ie                                  /home/stoffer/esp8266/esp-open-sdk/sdk/lib/libmain.a(user_interface.o)
wifi_get_user_limit_rate_mask                     /home/stoffer/esp8266/esp-open-sdk/sdk/lib/libmain.a(user_interface.o)
wifi_handle_event_cb                              build/app_app.a(wifi.o)
wifi_mode_set                                     /home/stoffer/esp8266/esp-open-sdk/sdk/lib/libnet80211.a(ieee80211.o)
                                                  /home/stoffer/esp8266/esp-open-sdk/sdk/lib/libmain.a(user_interface.o)
                                                  /home/stoffer/esp8266/esp-open-sdk/sdk/lib/libmain.a(app_main.o)
wifi_param_save_protect_with_check                /home/stoffer/esp8266/esp-open-sdk/sdk/lib/libmain.a(user_interface.o)
                                                  /home/stoffer/esp8266/esp-open-sdk/sdk/lib/libpp.a(pm_for_bcn_only_mode.o)
                                                  /home/stoffer/esp8266/esp-open-sdk/sdk/lib/libpp.a(pm.o)
                                                  /home/stoffer/esp8266/esp-open-sdk/sdk/lib/libmain.a(app_main.o)
wifi_promiscuous_enable                           /home/stoffer/esp8266/esp-open-sdk/sdk/lib/libmain.a(user_interface.o)
wifi_promiscuous_set_mac                          /home/stoffer/esp8266/esp-open-sdk/sdk/lib/libmain.a(user_interface.o)
wifi_reconnect                                    build/app_app.a(wifi.o)
wifi_register_rfid_locp_recv_cb                   /home/stoffer/esp8266/esp-open-sdk/sdk/lib/libmain.a(user_interface.o)
wifi_register_send_pkt_freedom_cb                 /home/stoffer/esp8266/esp-open-sdk/sdk/lib/libmain.a(user_interface.o)
wifi_register_user_ie_manufacturer_recv_cb        /home/stoffer/esp8266/esp-open-sdk/sdk/lib/libmain.a(user_interface.o)
wifi_rfid_locp_recv_close                         /home/stoffer/esp8266/esp-open-sdk/sdk/lib/libmain.a(user_interface.o)
wifi_rfid_locp_recv_open                          /home/stoffer/esp8266/esp-open-sdk/sdk/lib/libmain.a(user_interface.o)
wifi_scan_done_cb                                 build/app_app.a(wifi.o)
wifi_scan_runnning                                build/app_app.a(wifi.o)
wifi_send_pkt_freedom                             /home/stoffer/esp8266/esp-open-sdk/sdk/lib/libmain.a(user_interface.o)
wifi_set_broadcast_if                             /home/stoffer/esp8266/esp-open-sdk/sdk/lib/libmain.a(user_interface.o)
wifi_set_channel                                  /home/stoffer/esp8266/esp-open-sdk/sdk/lib/libmain.a(user_interface.o)
wifi_set_event_handler_cb                         /home/stoffer/esp8266/esp-open-sdk/sdk/lib/libmain.a(user_interface.o)
                                                  build/app_app.a(wifi.o)
wifi_set_ip_info                                  /home/stoffer/esp8266/esp-open-sdk/sdk/lib/libmain.a(user_interface.o)
wifi_set_macaddr                                  /home/stoffer/esp8266/esp-open-sdk/sdk/lib/libmain.a(user_interface.o)
wifi_set_opmode                                   /home/stoffer/esp8266/esp-open-sdk/sdk/lib/libmain.a(user_interface.o)
                                                  build/app_app.a(cgiwifi.o)
                                                  build/app_app.a(wifi.o)
wifi_set_opmode_current                           /home/stoffer/esp8266/esp-open-sdk/sdk/lib/libmain.a(user_interface.o)
                                                  build/app_app.a(wifi.o)
                                                  build/app_app.a(user_main.o)
wifi_set_phy_mode                                 /home/stoffer/esp8266/esp-open-sdk/sdk/lib/libmain.a(user_interface.o)
wifi_set_promiscuous_rx_cb                        /home/stoffer/esp8266/esp-open-sdk/sdk/lib/libmain.a(user_interface.o)
wifi_set_sleep_type                               /home/stoffer/esp8266/esp-open-sdk/sdk/lib/libmain.a(user_interface.o)
wifi_set_status_led_output_level                  /home/stoffer/esp8266/esp-open-sdk/sdk/lib/libmain.a(user_interface.o)
wifi_set_user_fixed_rate                          /home/stoffer/esp8266/esp-open-sdk/sdk/lib/libmain.a(user_interface.o)
wifi_set_user_ie                                  /home/stoffer/esp8266/esp-open-sdk/sdk/lib/libmain.a(user_interface.o)
wifi_set_user_limit_rate_mask                     /home/stoffer/esp8266/esp-open-sdk/sdk/lib/libmain.a(user_interface.o)
wifi_set_user_rate_limit                          /home/stoffer/esp8266/esp-open-sdk/sdk/lib/libmain.a(user_interface.o)
wifi_set_user_sup_rate                            /home/stoffer/esp8266/esp-open-sdk/sdk/lib/libmain.a(user_interface.o)
wifi_softap_cacl_mac                              /home/stoffer/esp8266/esp-open-sdk/sdk/lib/libmain.a(user_interface.o)
                                                  /home/stoffer/esp8266/esp-open-sdk/sdk/lib/libmain.a(app_main.o)
wifi_softap_deauth                                /home/stoffer/esp8266/esp-open-sdk/sdk/lib/libmain.a(user_interface.o)
                                                  /home/stoffer/esp8266/esp-open-sdk/sdk/lib/libnet80211.a(ieee80211_scan.o)
wifi_softap_dhcps_start                           /home/stoffer/esp8266/esp-open-sdk/sdk/lib/libmain.a(user_interface.o)
wifi_softap_dhcps_status                          /home/stoffer/esp8266/esp-open-sdk/sdk/lib/libmain.a(user_interface.o)
                                                  /home/stoffer/esp8266/esp-open-sdk/sdk/lib/liblwip.a(dhcpserver.o)
wifi_softap_dhcps_stop                            /home/stoffer/esp8266/esp-open-sdk/sdk/lib/libmain.a(user_interface.o)
wifi_softap_free_station_info                     /home/stoffer/esp8266/esp-open-sdk/sdk/lib/libmain.a(user_interface.o)
wifi_softap_get_beacon_only_mode                  /home/stoffer/esp8266/esp-open-sdk/sdk/lib/libmain.a(user_interface.o)
wifi_softap_get_config                            /home/stoffer/esp8266/esp-open-sdk/sdk/lib/libmain.a(user_interface.o)
                                                  build/app_app.a(user_main.o)
wifi_softap_get_config_default                    /home/stoffer/esp8266/esp-open-sdk/sdk/lib/libmain.a(user_interface.o)
wifi_softap_get_dhcps_lease                       /home/stoffer/esp8266/esp-open-sdk/sdk/lib/liblwip.a(dhcpserver.o)
wifi_softap_get_dhcps_lease_time                  /home/stoffer/esp8266/esp-open-sdk/sdk/lib/liblwip.a(dhcpserver.o)
wifi_softap_get_station_info                      /home/stoffer/esp8266/esp-open-sdk/sdk/lib/libmain.a(user_interface.o)
wifi_softap_get_station_num                       /home/stoffer/esp8266/esp-open-sdk/sdk/lib/libmain.a(user_interface.o)
wifi_softap_reset_dhcps_lease_time                /home/stoffer/esp8266/esp-open-sdk/sdk/lib/liblwip.a(dhcpserver.o)
wifi_softap_set_beacon_only_mode                  /home/stoffer/esp8266/esp-open-sdk/sdk/lib/libmain.a(user_interface.o)
wifi_softap_set_config                            /home/stoffer/esp8266/esp-open-sdk/sdk/lib/libmain.a(user_interface.o)
wifi_softap_set_config_current                    /home/stoffer/esp8266/esp-open-sdk/sdk/lib/libmain.a(user_interface.o)
                                                  build/app_app.a(user_main.o)
wifi_softap_set_default_ssid                      /home/stoffer/esp8266/esp-open-sdk/sdk/lib/libmain.a(user_interface.o)
                                                  /home/stoffer/esp8266/esp-open-sdk/sdk/lib/libmain.a(app_main.o)
wifi_softap_set_dhcps_lease                       /home/stoffer/esp8266/esp-open-sdk/sdk/lib/liblwip.a(dhcpserver.o)
wifi_softap_set_dhcps_lease_time                  /home/stoffer/esp8266/esp-open-sdk/sdk/lib/liblwip.a(dhcpserver.o)
wifi_softap_set_dhcps_offer_option                /home/stoffer/esp8266/esp-open-sdk/sdk/lib/liblwip.a(dhcpserver.o)
wifi_softap_set_station_info                      /home/stoffer/esp8266/esp-open-sdk/sdk/lib/libmain.a(user_interface.o)
                                                  /home/stoffer/esp8266/esp-open-sdk/sdk/lib/liblwip.a(dhcpserver.o)
wifi_softap_staconnected_event_policy             /home/stoffer/esp8266/esp-open-sdk/sdk/lib/libnet80211.a(wl_cnx.o)
wifi_softap_start                                 /home/stoffer/esp8266/esp-open-sdk/sdk/lib/libnet80211.a(ieee80211_hostap.o)
                                                  /home/stoffer/esp8266/esp-open-sdk/sdk/lib/libmain.a(user_interface.o)
                                                  /home/stoffer/esp8266/esp-open-sdk/sdk/lib/libmain.a(app_main.o)
wifi_softap_stop                                  /home/stoffer/esp8266/esp-open-sdk/sdk/lib/libnet80211.a(ieee80211_hostap.o)
                                                  /home/stoffer/esp8266/esp-open-sdk/sdk/lib/libmain.a(user_interface.o)
wifi_softap_toomany_deny                          /home/stoffer/esp8266/esp-open-sdk/sdk/lib/libnet80211.a(wl_cnx.o)
wifi_station_ap_change                            /home/stoffer/esp8266/esp-open-sdk/sdk/lib/libmain.a(user_interface.o)
wifi_station_ap_check                             /home/stoffer/esp8266/esp-open-sdk/sdk/lib/libmain.a(user_interface.o)
wifi_station_ap_number_set                        /home/stoffer/esp8266/esp-open-sdk/sdk/lib/libmain.a(user_interface.o)
wifi_station_connect                              /home/stoffer/esp8266/esp-open-sdk/sdk/lib/libmain.a(user_interface.o)
                                                  build/app_app.a(wifi.o)
                                                  /home/stoffer/esp8266/esp-open-sdk/sdk/lib/libmain.a(app_main.o)
wifi_station_dhcpc_event                          /home/stoffer/esp8266/esp-open-sdk/sdk/lib/libmain.a(user_interface.o)
                                                  /home/stoffer/esp8266/esp-open-sdk/sdk/lib/libmain.a(eagle_lwip_if.o)
wifi_station_dhcpc_set_maxtry                     /home/stoffer/esp8266/esp-open-sdk/sdk/lib/libmain.a(user_interface.o)
wifi_station_dhcpc_start                          /home/stoffer/esp8266/esp-open-sdk/sdk/lib/libmain.a(user_interface.o)
wifi_station_dhcpc_status                         /home/stoffer/esp8266/esp-open-sdk/sdk/lib/libmain.a(user_interface.o)
                                                  /home/stoffer/esp8266/esp-open-sdk/sdk/lib/libmain.a(eagle_lwip_if.o)
wifi_station_dhcpc_stop                           /home/stoffer/esp8266/esp-open-sdk/sdk/lib/libmain.a(user_interface.o)
wifi_station_disconnect                           /home/stoffer/esp8266/esp-open-sdk/sdk/lib/libmain.a(user_interface.o)
                                                  /home/stoffer/esp8266/esp-open-sdk/sdk/lib/libnet80211.a(ieee80211_sta.o)
                                                  /home/stoffer/esp8266/esp-open-sdk/sdk/lib/libnet80211.a(ieee80211_scan.o)
                                                  build/app_app.a(wifi.o)
wifi_station_get_ap_info                          /home/stoffer/esp8266/esp-open-sdk/sdk/lib/libmain.a(user_interface.o)
wifi_station_get_auto_connect                     /home/stoffer/esp8266/esp-open-sdk/sdk/lib/libmain.a(user_interface.o)
                                                  /home/stoffer/esp8266/esp-open-sdk/sdk/lib/libmain.a(app_main.o)
wifi_station_get_config                           /home/stoffer/esp8266/esp-open-sdk/sdk/lib/libmain.a(user_interface.o)
                                                  /home/stoffer/esp8266/esp-open-sdk/sdk/lib/libnet80211.a(wl_cnx.o)
                                                  build/app_app.a(wifi.o)
wifi_station_get_config_default                   /home/stoffer/esp8266/esp-open-sdk/sdk/lib/libmain.a(user_interface.o)
wifi_station_get_connect_status                   /home/stoffer/esp8266/esp-open-sdk/sdk/lib/libmain.a(user_interface.o)
                                                  /home/stoffer/esp8266/esp-open-sdk/sdk/lib/liblwip.a(espconn.o)
                                                  build/app_app.a(wifi.o)
wifi_station_get_current_ap_id                    /home/stoffer/esp8266/esp-open-sdk/sdk/lib/libmain.a(user_interface.o)
wifi_station_get_hostname                         /home/stoffer/esp8266/esp-open-sdk/sdk/lib/libmain.a(user_interface.o)
wifi_station_get_reconnect_policy                 /home/stoffer/esp8266/esp-open-sdk/sdk/lib/libmain.a(user_interface.o)
                                                  /home/stoffer/esp8266/esp-open-sdk/sdk/lib/libnet80211.a(wl_cnx.o)
                                                  /home/stoffer/esp8266/esp-open-sdk/sdk/lib/libnet80211.a(ieee80211_sta.o)
                                                  /home/stoffer/esp8266/esp-open-sdk/sdk/lib/libnet80211.a(ieee80211_scan.o)
wifi_station_get_rssi                             /home/stoffer/esp8266/esp-open-sdk/sdk/lib/libmain.a(user_interface.o)
wifi_station_restore_config                       /home/stoffer/esp8266/esp-open-sdk/sdk/lib/libmain.a(user_interface.o)
wifi_station_save_pmk2cache                       /home/stoffer/esp8266/esp-open-sdk/sdk/lib/libmain.a(user_interface.o)
                                                  /home/stoffer/esp8266/esp-open-sdk/sdk/lib/libwpa.a(wpa.o)
wifi_station_scan                                 /home/stoffer/esp8266/esp-open-sdk/sdk/lib/libmain.a(user_interface.o)
                                                  build/app_app.a(cgiwifi.o)
                                                  build/app_app.a(wifi.o)
wifi_station_set_auto_connect                     /home/stoffer/esp8266/esp-open-sdk/sdk/lib/libmain.a(user_interface.o)
                                                  build/app_app.a(wifi.o)
wifi_station_set_config                           /home/stoffer/esp8266/esp-open-sdk/sdk/lib/libmain.a(user_interface.o)
                                                  build/app_app.a(wifi.o)
wifi_station_set_config_current                   /home/stoffer/esp8266/esp-open-sdk/sdk/lib/libmain.a(user_interface.o)
                                                  /home/stoffer/esp8266/esp-open-sdk/sdk/lib/libnet80211.a(wl_cnx.o)
                                                  build/app_app.a(wifi.o)
wifi_station_set_default_hostname                 /home/stoffer/esp8266/esp-open-sdk/sdk/lib/libmain.a(user_interface.o)
                                                  /home/stoffer/esp8266/esp-open-sdk/sdk/lib/libmain.a(eagle_lwip_if.o)
                                                  /home/stoffer/esp8266/esp-open-sdk/sdk/lib/libmain.a(app_main.o)
wifi_station_set_hostname                         /home/stoffer/esp8266/esp-open-sdk/sdk/lib/libmain.a(user_interface.o)
wifi_station_set_reconnect_policy                 /home/stoffer/esp8266/esp-open-sdk/sdk/lib/libmain.a(user_interface.o)
wifi_station_start                                /home/stoffer/esp8266/esp-open-sdk/sdk/lib/libnet80211.a(ieee80211_sta.o)
                                                  /home/stoffer/esp8266/esp-open-sdk/sdk/lib/libmain.a(user_interface.o)
                                                  /home/stoffer/esp8266/esp-open-sdk/sdk/lib/libmain.a(app_main.o)
wifi_station_stop                                 /home/stoffer/esp8266/esp-open-sdk/sdk/lib/libnet80211.a(ieee80211_sta.o)
                                                  /home/stoffer/esp8266/esp-open-sdk/sdk/lib/libmain.a(user_interface.o)
wifi_status_led_install                           /home/stoffer/esp8266/esp-open-sdk/sdk/lib/libmain.a(user_interface.o)
wifi_status_led_uninstall                         /home/stoffer/esp8266/esp-open-sdk/sdk/lib/libmain.a(user_interface.o)
wifi_unregister_rfid_locp_recv_cb                 /home/stoffer/esp8266/esp-open-sdk/sdk/lib/libmain.a(user_interface.o)
wifi_unregister_send_pkt_freedom_cb               /home/stoffer/esp8266/esp-open-sdk/sdk/lib/libmain.a(user_interface.o)
wifi_unregister_user_ie_manufacturer_recv_cb      /home/stoffer/esp8266/esp-open-sdk/sdk/lib/libmain.a(user_interface.o)
wpa_add_kde                                       /home/stoffer/esp8266/esp-open-sdk/sdk/lib/libwpa.a(wpa_auth_ie.o)
                                                  /home/stoffer/esp8266/esp-open-sdk/sdk/lib/libwpa.a(wpa_auth.o)
wpa_attach                                        /home/stoffer/esp8266/esp-open-sdk/sdk/lib/libwpa.a(wpa_main.o)
                                                  /home/stoffer/esp8266/esp-open-sdk/sdk/lib/libnet80211.a(ieee80211_sta.o)
wpa_auth_for_each_sta                             /home/stoffer/esp8266/esp-open-sdk/sdk/lib/libwpa.a(wpa_auth.o)
wpa_auth_gen_wpa_ie                               /home/stoffer/esp8266/esp-open-sdk/sdk/lib/libwpa.a(wpa_auth_ie.o)
                                                  /home/stoffer/esp8266/esp-open-sdk/sdk/lib/libwpa.a(wpa_auth.o)
wpa_auth_sm_event                                 /home/stoffer/esp8266/esp-open-sdk/sdk/lib/libwpa.a(wpa_auth.o)
wpa_auth_sta_associated                           /home/stoffer/esp8266/esp-open-sdk/sdk/lib/libwpa.a(wpa_auth.o)
                                                  /home/stoffer/esp8266/esp-open-sdk/sdk/lib/libnet80211.a(wl_cnx.o)
wpa_auth_sta_deinit                               /home/stoffer/esp8266/esp-open-sdk/sdk/lib/libwpa.a(wpa_auth.o)
                                                  /home/stoffer/esp8266/esp-open-sdk/sdk/lib/libnet80211.a(wl_cnx.o)
wpa_auth_sta_init                                 /home/stoffer/esp8266/esp-open-sdk/sdk/lib/libwpa.a(wpa_auth.o)
                                                  /home/stoffer/esp8266/esp-open-sdk/sdk/lib/libnet80211.a(wl_cnx.o)
wpa_auth_sta_no_wpa                               /home/stoffer/esp8266/esp-open-sdk/sdk/lib/libwpa.a(wpa_auth.o)
wpa_auth_uses_mfp                                 /home/stoffer/esp8266/esp-open-sdk/sdk/lib/libwpa.a(wpa_auth_ie.o)
wpa_cipher_key_len                                /home/stoffer/esp8266/esp-open-sdk/sdk/lib/libwpa.a(wpa_common.o)
                                                  /home/stoffer/esp8266/esp-open-sdk/sdk/lib/libwpa.a(wpa_auth.o)
wpa_cipher_put_suites                             /home/stoffer/esp8266/esp-open-sdk/sdk/lib/libwpa.a(wpa_common.o)
                                                  /home/stoffer/esp8266/esp-open-sdk/sdk/lib/libwpa.a(wpa_auth_ie.o)
wpa_cipher_to_alg                                 /home/stoffer/esp8266/esp-open-sdk/sdk/lib/libwpa.a(wpa_common.o)
                                                  /home/stoffer/esp8266/esp-open-sdk/sdk/lib/libwpa.a(wpa_auth.o)
wpa_cipher_to_suite                               /home/stoffer/esp8266/esp-open-sdk/sdk/lib/libwpa.a(wpa_common.o)
                                                  /home/stoffer/esp8266/esp-open-sdk/sdk/lib/libwpa.a(wpa_auth_ie.o)
wpa_compare_rsn_ie                                /home/stoffer/esp8266/esp-open-sdk/sdk/lib/libwpa.a(wpa_common.o)
                                                  /home/stoffer/esp8266/esp-open-sdk/sdk/lib/libwpa.a(wpa.o)
                                                  /home/stoffer/esp8266/esp-open-sdk/sdk/lib/libwpa.a(wpa_auth.o)
wpa_config_assoc_ie                               /home/stoffer/esp8266/esp-open-sdk/sdk/lib/libwpa.a(wpa_main.o)
wpa_config_bss                                    /home/stoffer/esp8266/esp-open-sdk/sdk/lib/libwpa.a(wpa_main.o)
                                                  /home/stoffer/esp8266/esp-open-sdk/sdk/lib/libnet80211.a(wl_cnx.o)
                                                  /home/stoffer/esp8266/esp-open-sdk/sdk/lib/libnet80211.a(ieee80211_sta.o)
wpa_config_parse_string                           /home/stoffer/esp8266/esp-open-sdk/sdk/lib/libwpa.a(common.o)
                                                  /home/stoffer/esp8266/esp-open-sdk/sdk/lib/libnet80211.a(ieee80211_scan.o)
wpa_config_profile                                /home/stoffer/esp8266/esp-open-sdk/sdk/lib/libwpa.a(wpa_main.o)
                                                  /home/stoffer/esp8266/esp-open-sdk/sdk/lib/libnet80211.a(wl_cnx.o)
wpa_eapol_key_mic                                 /home/stoffer/esp8266/esp-open-sdk/sdk/lib/libwpa.a(wpa_common.o)
                                                  /home/stoffer/esp8266/esp-open-sdk/sdk/lib/libwpa.a(wpa.o)
                                                  /home/stoffer/esp8266/esp-open-sdk/sdk/lib/libwpa.a(wpa_auth.o)
wpa_gen_wpa_ie                                    /home/stoffer/esp8266/esp-open-sdk/sdk/lib/libwpa.a(wpa_ie.o)
                                                  /home/stoffer/esp8266/esp-open-sdk/sdk/lib/libwpa.a(wpa.o)
wpa_get_ntp_timestamp                             /home/stoffer/esp8266/esp-open-sdk/sdk/lib/libwpa.a(common.o)
                                                  /home/stoffer/esp8266/esp-open-sdk/sdk/lib/libwpa.a(wpa_auth.o)
wpa_init                                          /home/stoffer/esp8266/esp-open-sdk/sdk/lib/libwpa.a(wpa_auth.o)
                                                  /home/stoffer/esp8266/esp-open-sdk/sdk/lib/libnet80211.a(ieee80211_hostap.o)
wpa_neg_complete                                  /home/stoffer/esp8266/esp-open-sdk/sdk/lib/libwpa.a(wpa_main.o)
wpa_parse_kde_ies                                 /home/stoffer/esp8266/esp-open-sdk/sdk/lib/libwpa.a(wpa_auth_ie.o)
                                                  /home/stoffer/esp8266/esp-open-sdk/sdk/lib/libwpa.a(wpa_auth.o)
wpa_parse_wpa_ie                                  /home/stoffer/esp8266/esp-open-sdk/sdk/lib/libwpa.a(wpa_ie.o)
                                                  /home/stoffer/esp8266/esp-open-sdk/sdk/lib/libnet80211.a(ieee80211_scan.o)
wpa_parse_wpa_ie_rsn                              /home/stoffer/esp8266/esp-open-sdk/sdk/lib/libwpa.a(wpa_common.o)
                                                  /home/stoffer/esp8266/esp-open-sdk/sdk/lib/libwpa.a(wpa_ie.o)
                                                  /home/stoffer/esp8266/esp-open-sdk/sdk/lib/libwpa.a(wpa_auth_ie.o)
wpa_parse_wpa_ie_wpa                              /home/stoffer/esp8266/esp-open-sdk/sdk/lib/libwpa.a(wpa_common.o)
                                                  /home/stoffer/esp8266/esp-open-sdk/sdk/lib/libwpa.a(wpa_ie.o)
                                                  /home/stoffer/esp8266/esp-open-sdk/sdk/lib/libwpa.a(wpa_auth_ie.o)
wpa_pmk_to_ptk                                    /home/stoffer/esp8266/esp-open-sdk/sdk/lib/libwpa.a(wpa_common.o)
                                                  /home/stoffer/esp8266/esp-open-sdk/sdk/lib/libwpa.a(wpa.o)
                                                  /home/stoffer/esp8266/esp-open-sdk/sdk/lib/libwpa.a(wpa_auth.o)
wpa_receive                                       /home/stoffer/esp8266/esp-open-sdk/sdk/lib/libwpa.a(wpa_auth.o)
                                                  /home/stoffer/esp8266/esp-open-sdk/sdk/lib/libnet80211.a(ieee80211_hostap.o)
wpa_register                                      /home/stoffer/esp8266/esp-open-sdk/sdk/lib/libwpa.a(wpa.o)
                                                  /home/stoffer/esp8266/esp-open-sdk/sdk/lib/libwpa.a(wpa_main.o)
wpa_remove_ptk                                    /home/stoffer/esp8266/esp-open-sdk/sdk/lib/libwpa.a(wpa_auth.o)
wpa_set_bss                                       /home/stoffer/esp8266/esp-open-sdk/sdk/lib/libwpa.a(wpa.o)
                                                  /home/stoffer/esp8266/esp-open-sdk/sdk/lib/libwpa.a(wpa_main.o)
wpa_set_pmk                                       /home/stoffer/esp8266/esp-open-sdk/sdk/lib/libwpa.a(wpa.o)
wpa_set_profile                                   /home/stoffer/esp8266/esp-open-sdk/sdk/lib/libwpa.a(wpa.o)
                                                  /home/stoffer/esp8266/esp-open-sdk/sdk/lib/libwpa.a(wpa_main.o)
wpa_sm_alloc_eapol                                /home/stoffer/esp8266/esp-open-sdk/sdk/lib/libwpa.a(wpas_glue.o)
                                                  /home/stoffer/esp8266/esp-open-sdk/sdk/lib/libwpa.a(wpa.o)
wpa_sm_deauthenticate                             /home/stoffer/esp8266/esp-open-sdk/sdk/lib/libwpa.a(wpas_glue.o)
                                                  /home/stoffer/esp8266/esp-open-sdk/sdk/lib/libwpa.a(wpa.o)
wpa_sm_disassociate                               /home/stoffer/esp8266/esp-open-sdk/sdk/lib/libwpa.a(wpas_glue.o)
                                                  /home/stoffer/esp8266/esp-open-sdk/sdk/lib/libwpa.a(wpa.o)
wpa_sm_get_beacon_ie                              /home/stoffer/esp8266/esp-open-sdk/sdk/lib/libwpa.a(wpas_glue.o)
                                                  /home/stoffer/esp8266/esp-open-sdk/sdk/lib/libwpa.a(wpa.o)
wpa_sm_mlme_setprotection                         /home/stoffer/esp8266/esp-open-sdk/sdk/lib/libwpa.a(wpas_glue.o)
                                                  /home/stoffer/esp8266/esp-open-sdk/sdk/lib/libwpa.a(wpa.o)
wpa_sm_rx_eapol                                   /home/stoffer/esp8266/esp-open-sdk/sdk/lib/libwpa.a(wpa.o)
                                                  /home/stoffer/esp8266/esp-open-sdk/sdk/lib/libnet80211.a(ieee80211_sta.o)
wpa_sm_set_state                                  /home/stoffer/esp8266/esp-open-sdk/sdk/lib/libwpa.a(wpa.o)
wpa_snprintf_hex                                  /home/stoffer/esp8266/esp-open-sdk/sdk/lib/libwpa.a(wpa_debug.o)
wpa_snprintf_hex_uppercase                        /home/stoffer/esp8266/esp-open-sdk/sdk/lib/libwpa.a(wpa_debug.o)
wpa_supplicant_parse_ies                          /home/stoffer/esp8266/esp-open-sdk/sdk/lib/libwpa.a(wpa_ie.o)
                                                  /home/stoffer/esp8266/esp-open-sdk/sdk/lib/libwpa.a(wpa.o)
wpa_validate_wpa_ie                               /home/stoffer/esp8266/esp-open-sdk/sdk/lib/libwpa.a(wpa_auth_ie.o)
                                                  /home/stoffer/esp8266/esp-open-sdk/sdk/lib/libnet80211.a(wl_cnx.o)
wpa_write_rsn_ie                                  /home/stoffer/esp8266/esp-open-sdk/sdk/lib/libwpa.a(wpa_auth_ie.o)
write_data_to_rtc                                 /home/stoffer/esp8266/esp-open-sdk/sdk/lib/libphy.a(phy_chip_v6.o)
xPortGetFreeHeapSize                              /home/stoffer/esp8266/esp-open-sdk/sdk/lib/libmain.a(mem_manager.o)
                                                  /home/stoffer/esp8266/esp-open-sdk/sdk/lib/libmain.a(user_interface.o)
xPortWantedSizeAlign                              /home/stoffer/esp8266/esp-open-sdk/sdk/lib/libmain.a(mem_manager.o)
                                                  /home/stoffer/esp8266/esp-open-sdk/sdk/lib/libmain.a(user_interface.o)
xthal_set_intclear                                /home/stoffer/esp8266/esp-open-sdk/xtensa-lx106-elf/bin/../xtensa-lx106-elf/sysroot/usr/lib/libhal.a(int_asm--set_intclear.o)
                                                  /home/stoffer/esp8266/esp-open-sdk/sdk/lib/libmain.a(app_main.o)
