Archive member included to satisfy reference by file (symbol)

/home/stoffer/esp8266/esp-open-sdk/sdk/lib/libmain.a(debug-vector.o)
                              (_DebugExceptionVector)
/home/stoffer/esp8266/esp-open-sdk/sdk/lib/libmain.a(double-vector.o)
                              (_DoubleExceptionVector)
/home/stoffer/esp8266/esp-open-sdk/sdk/lib/libmain.a(kernel-vector.o)
                              (_KernelExceptionVector)
/home/stoffer/esp8266/esp-open-sdk/sdk/lib/libmain.a(nmi-vector.o)
                              (_NMIExceptionVector)
/home/stoffer/esp8266/esp-open-sdk/sdk/lib/libmain.a(user-vector.o)
                              (_UserExceptionVector)
/home/stoffer/esp8266/esp-open-sdk/sdk/lib/libmain.a(vector.o)
                              (call_user_start)
/home/stoffer/esp8266/esp-open-sdk/sdk/lib/libmain.a(app_main.o)
                              /home/stoffer/esp8266/esp-open-sdk/sdk/lib/libmain.a(nmi-vector.o) (NMI_Handler)
/home/stoffer/esp8266/esp-open-sdk/sdk/lib/libmain.a(ets_timer.o)
                              /home/stoffer/esp8266/esp-open-sdk/sdk/lib/libmain.a(app_main.o) (ets_timer_setfn)
/home/stoffer/esp8266/esp-open-sdk/sdk/lib/libmain.a(mem_manager.o)
                              /home/stoffer/esp8266/esp-open-sdk/sdk/lib/libmain.a(app_main.o) (vPortFree)
/home/stoffer/esp8266/esp-open-sdk/sdk/lib/libmain.a(spi_flash.o)
                              /home/stoffer/esp8266/esp-open-sdk/sdk/lib/libmain.a(app_main.o) (spi_flash_get_id)
/home/stoffer/esp8266/esp-open-sdk/sdk/lib/libmain.a(user_interface.o)
                              /home/stoffer/esp8266/esp-open-sdk/sdk/lib/libmain.a(app_main.o) (done_cb)
/home/stoffer/esp8266/esp-open-sdk/sdk/lib/libmain.a(user_rf_cal_sector_set.o)
                              /home/stoffer/esp8266/esp-open-sdk/sdk/lib/libmain.a(app_main.o) (user_rf_cal_sector_set)
/home/stoffer/esp8266/esp-open-sdk/sdk/lib/libmain.a(eagle_lib.o)
                              /home/stoffer/esp8266/esp-open-sdk/sdk/lib/libmain.a(user_interface.o) (ets_sprintf)
/home/stoffer/esp8266/esp-open-sdk/sdk/lib/libmain.a(eagle_lwip_if.o)
                              /home/stoffer/esp8266/esp-open-sdk/sdk/lib/libmain.a(user_interface.o) (hostname)
/home/stoffer/esp8266/esp-open-sdk/sdk/lib/libnet80211.a(ieee80211.o)
                              /home/stoffer/esp8266/esp-open-sdk/sdk/lib/libmain.a(app_main.o) (g_ic)
/home/stoffer/esp8266/esp-open-sdk/sdk/lib/libnet80211.a(ieee80211_crypto.o)
                              /home/stoffer/esp8266/esp-open-sdk/sdk/lib/libnet80211.a(ieee80211.o) (ieee80211_crypto_attach)
/home/stoffer/esp8266/esp-open-sdk/sdk/lib/libnet80211.a(ieee80211_hostap.o)
                              /home/stoffer/esp8266/esp-open-sdk/sdk/lib/libmain.a(user_interface.o) (BcnEb_update)
/home/stoffer/esp8266/esp-open-sdk/sdk/lib/libnet80211.a(ieee80211_ht.o)
                              /home/stoffer/esp8266/esp-open-sdk/sdk/lib/libmain.a(user_interface.o) (ieee80211_ht_attach)
/home/stoffer/esp8266/esp-open-sdk/sdk/lib/libnet80211.a(ieee80211_input.o)
                              /home/stoffer/esp8266/esp-open-sdk/sdk/lib/libnet80211.a(ieee80211_hostap.o) (ieee80211_decap)
/home/stoffer/esp8266/esp-open-sdk/sdk/lib/libnet80211.a(ieee80211_mesh_quick.o)
                              /home/stoffer/esp8266/esp-open-sdk/sdk/lib/libnet80211.a(ieee80211_hostap.o) (ieee80211_mesh_quick_get)
/home/stoffer/esp8266/esp-open-sdk/sdk/lib/libnet80211.a(ieee80211_output.o)
                              /home/stoffer/esp8266/esp-open-sdk/sdk/lib/libmain.a(eagle_lwip_if.o) (ieee80211_output_pbuf)
/home/stoffer/esp8266/esp-open-sdk/sdk/lib/libnet80211.a(ieee80211_phy.o)
                              /home/stoffer/esp8266/esp-open-sdk/sdk/lib/libmain.a(app_main.o) (ieee80211_phy_init)
/home/stoffer/esp8266/esp-open-sdk/sdk/lib/libnet80211.a(ieee80211_power.o)
                              /home/stoffer/esp8266/esp-open-sdk/sdk/lib/libnet80211.a(ieee80211_hostap.o) (ieee80211_psq_init)
/home/stoffer/esp8266/esp-open-sdk/sdk/lib/libnet80211.a(ieee80211_proto.o)
                              /home/stoffer/esp8266/esp-open-sdk/sdk/lib/libnet80211.a(ieee80211.o) (ieee80211_proto_attach)
/home/stoffer/esp8266/esp-open-sdk/sdk/lib/libnet80211.a(ieee80211_regdomain.o)
                              /home/stoffer/esp8266/esp-open-sdk/sdk/lib/libnet80211.a(ieee80211_output.o) (ieee80211_alloc_countryie)
/home/stoffer/esp8266/esp-open-sdk/sdk/lib/libnet80211.a(ieee80211_rfid.o)
                              /home/stoffer/esp8266/esp-open-sdk/sdk/lib/libmain.a(user_interface.o) (ieee80211_rfid_locp_recv_open)
/home/stoffer/esp8266/esp-open-sdk/sdk/lib/libnet80211.a(ieee80211_scan.o)
                              /home/stoffer/esp8266/esp-open-sdk/sdk/lib/libnet80211.a(ieee80211_hostap.o) (gScanStruct)
/home/stoffer/esp8266/esp-open-sdk/sdk/lib/libnet80211.a(ieee80211_sta.o)
                              /home/stoffer/esp8266/esp-open-sdk/sdk/lib/libmain.a(user_interface.o) (ieee80211_sta_new_state)
/home/stoffer/esp8266/esp-open-sdk/sdk/lib/libnet80211.a(wl_chm.o)
                              /home/stoffer/esp8266/esp-open-sdk/sdk/lib/libnet80211.a(ieee80211.o) (chm_init)
/home/stoffer/esp8266/esp-open-sdk/sdk/lib/libnet80211.a(wl_cnx.o)
                              /home/stoffer/esp8266/esp-open-sdk/sdk/lib/libmain.a(user_interface.o) (sta_con_timer)
/home/stoffer/esp8266/esp-open-sdk/sdk/lib/libnet80211.a(ieee80211_action.o)
                              /home/stoffer/esp8266/esp-open-sdk/sdk/lib/libnet80211.a(ieee80211_ht.o) (ieee80211_send_action_register)
/home/stoffer/esp8266/esp-open-sdk/sdk/lib/libnet80211.a(ieee80211_action_vendor.o)
                              /home/stoffer/esp8266/esp-open-sdk/sdk/lib/libnet80211.a(ieee80211.o) (ieee80211_action_vendor_spec_attach)
/home/stoffer/esp8266/esp-open-sdk/sdk/lib/libnet80211.a(ieee80211_crypto_ccmp.o)
                              /home/stoffer/esp8266/esp-open-sdk/sdk/lib/libnet80211.a(ieee80211_input.o) (ccmp)
/home/stoffer/esp8266/esp-open-sdk/sdk/lib/libnet80211.a(ieee80211_ets.o)
                              /home/stoffer/esp8266/esp-open-sdk/sdk/lib/libnet80211.a(ieee80211_ht.o) (ieee80211_getmgtframe)
/home/stoffer/esp8266/esp-open-sdk/sdk/lib/libnet80211.a(ieee80211_ie_vendor.o)
                              /home/stoffer/esp8266/esp-open-sdk/sdk/lib/libnet80211.a(ieee80211_mesh_quick.o) (ieee80211_add_ie_vendor_esp_mesh_assoc)
/home/stoffer/esp8266/esp-open-sdk/sdk/lib/libwpa.a(ap_config.o)
                              /home/stoffer/esp8266/esp-open-sdk/sdk/lib/libnet80211.a(ieee80211_hostap.o) (hostapd_setup_wpa_psk)
/home/stoffer/esp8266/esp-open-sdk/sdk/lib/libwpa.a(common.o)
                              /home/stoffer/esp8266/esp-open-sdk/sdk/lib/libmain.a(user_interface.o) (hexstr2bin)
/home/stoffer/esp8266/esp-open-sdk/sdk/lib/libwpa.a(os_xtensa.o)
                              /home/stoffer/esp8266/esp-open-sdk/sdk/lib/libwpa.a(common.o) (os_get_time)
/home/stoffer/esp8266/esp-open-sdk/sdk/lib/libwpa.a(wpa_auth.o)
                              /home/stoffer/esp8266/esp-open-sdk/sdk/lib/libnet80211.a(ieee80211_hostap.o) (wpa_init)
/home/stoffer/esp8266/esp-open-sdk/sdk/lib/libwpa.a(wpa_auth_ie.o)
                              /home/stoffer/esp8266/esp-open-sdk/sdk/lib/libwpa.a(wpa_auth.o) (wpa_auth_gen_wpa_ie)
/home/stoffer/esp8266/esp-open-sdk/sdk/lib/libwpa.a(wpa.o)
                              /home/stoffer/esp8266/esp-open-sdk/sdk/lib/libnet80211.a(ieee80211_sta.o) (wpa_sm_rx_eapol)
/home/stoffer/esp8266/esp-open-sdk/sdk/lib/libwpa.a(wpa_common.o)
                              /home/stoffer/esp8266/esp-open-sdk/sdk/lib/libwpa.a(wpa_auth_ie.o) (wpa_parse_wpa_ie_rsn)
/home/stoffer/esp8266/esp-open-sdk/sdk/lib/libwpa.a(wpa_debug.o)
                              /home/stoffer/esp8266/esp-open-sdk/sdk/lib/libwpa.a(wpa_auth.o) (eloop_cancel_timeout)
/home/stoffer/esp8266/esp-open-sdk/sdk/lib/libwpa.a(wpa_ie.o)
                              /home/stoffer/esp8266/esp-open-sdk/sdk/lib/libnet80211.a(ieee80211_scan.o) (wpa_parse_wpa_ie)
/home/stoffer/esp8266/esp-open-sdk/sdk/lib/libwpa.a(wpa_main.o)
                              /home/stoffer/esp8266/esp-open-sdk/sdk/lib/libnet80211.a(wl_cnx.o) (ppInstallKey)
/home/stoffer/esp8266/esp-open-sdk/sdk/lib/libwpa.a(wpas_glue.o)
                              /home/stoffer/esp8266/esp-open-sdk/sdk/lib/libwpa.a(wpa.o) (wpa_sm_alloc_eapol)
/home/stoffer/esp8266/esp-open-sdk/sdk/lib/libwpa.a(aes-wrap.o)
                              /home/stoffer/esp8266/esp-open-sdk/sdk/lib/libwpa.a(wpa_auth.o) (aes_wrap)
/home/stoffer/esp8266/esp-open-sdk/sdk/lib/libwpa.a(aes-internal-enc.o)
                              /home/stoffer/esp8266/esp-open-sdk/sdk/lib/libwpa.a(aes-wrap.o) (aes_encrypt_init)
/home/stoffer/esp8266/esp-open-sdk/sdk/lib/libwpa.a(aes-internal.o)
                              /home/stoffer/esp8266/esp-open-sdk/sdk/lib/libwpa.a(aes-internal-enc.o) (rijndaelKeySetupEnc)
/home/stoffer/esp8266/esp-open-sdk/sdk/lib/liblwip.a(dhcp.o)
                              /home/stoffer/esp8266/esp-open-sdk/sdk/lib/libnet80211.a(wl_cnx.o) (dhcp_release)
/home/stoffer/esp8266/esp-open-sdk/sdk/lib/liblwip.a(dhcpserver.o)
                              /home/stoffer/esp8266/esp-open-sdk/sdk/lib/libmain.a(user_interface.o) (dhcps_start)
/home/stoffer/esp8266/esp-open-sdk/sdk/lib/liblwip.a(dns.o)
                              /home/stoffer/esp8266/esp-open-sdk/sdk/lib/liblwip.a(dhcp.o) (dns_setserver)
/home/stoffer/esp8266/esp-open-sdk/sdk/lib/liblwip.a(espconn_tcp.o)
                              /home/stoffer/esp8266/esp-open-sdk/sdk/lib/libmain.a(app_main.o) (espconn_init)
/home/stoffer/esp8266/esp-open-sdk/sdk/lib/liblwip.a(etharp.o)
                              /home/stoffer/esp8266/esp-open-sdk/sdk/lib/libmain.a(user_interface.o) (ethbroadcast)
/home/stoffer/esp8266/esp-open-sdk/sdk/lib/liblwip.a(init.o)
                              /home/stoffer/esp8266/esp-open-sdk/sdk/lib/libmain.a(app_main.o) (lwip_init)
/home/stoffer/esp8266/esp-open-sdk/sdk/lib/liblwip.a(ip_addr.o)
                              /home/stoffer/esp8266/esp-open-sdk/sdk/lib/liblwip.a(dhcp.o) (ip_addr_any)
/home/stoffer/esp8266/esp-open-sdk/sdk/lib/liblwip.a(ip.o)
                              /home/stoffer/esp8266/esp-open-sdk/sdk/lib/liblwip.a(etharp.o) (ip_input)
/home/stoffer/esp8266/esp-open-sdk/sdk/lib/liblwip.a(memp.o)
                              /home/stoffer/esp8266/esp-open-sdk/sdk/lib/liblwip.a(etharp.o) (memp_sizes)
/home/stoffer/esp8266/esp-open-sdk/sdk/lib/liblwip.a(netif.o)
                              /home/stoffer/esp8266/esp-open-sdk/sdk/lib/liblwip.a(dhcp.o) (netif_list)
/home/stoffer/esp8266/esp-open-sdk/sdk/lib/liblwip.a(pbuf.o)
                              /home/stoffer/esp8266/esp-open-sdk/sdk/lib/libnet80211.a(ieee80211_hostap.o) (pbuf_alloc)
/home/stoffer/esp8266/esp-open-sdk/sdk/lib/liblwip.a(raw.o)
                              /home/stoffer/esp8266/esp-open-sdk/sdk/lib/liblwip.a(ip.o) (raw_input)
/home/stoffer/esp8266/esp-open-sdk/sdk/lib/liblwip.a(tcp_in.o)
                              /home/stoffer/esp8266/esp-open-sdk/sdk/lib/liblwip.a(ip.o) (tcp_input)
/home/stoffer/esp8266/esp-open-sdk/sdk/lib/liblwip.a(tcp.o)
                              /home/stoffer/esp8266/esp-open-sdk/sdk/lib/liblwip.a(espconn_tcp.o) (tcp_active_pcbs)
/home/stoffer/esp8266/esp-open-sdk/sdk/lib/liblwip.a(tcp_out.o)
                              /home/stoffer/esp8266/esp-open-sdk/sdk/lib/liblwip.a(tcp.o) (tcp_send_fin)
/home/stoffer/esp8266/esp-open-sdk/sdk/lib/liblwip.a(timers.o)
                              /home/stoffer/esp8266/esp-open-sdk/sdk/lib/liblwip.a(tcp_in.o) (tcp_timer_needed)
/home/stoffer/esp8266/esp-open-sdk/sdk/lib/liblwip.a(udp.o)
                              /home/stoffer/esp8266/esp-open-sdk/sdk/lib/liblwip.a(ip.o) (udp_input)
/home/stoffer/esp8266/esp-open-sdk/sdk/lib/liblwip.a(espconn_buf.o)
                              /home/stoffer/esp8266/esp-open-sdk/sdk/lib/liblwip.a(espconn_tcp.o) (ringbuf_new)
/home/stoffer/esp8266/esp-open-sdk/sdk/lib/liblwip.a(espconn.o)
                              /home/stoffer/esp8266/esp-open-sdk/sdk/lib/liblwip.a(espconn_tcp.o) (plink_active)
/home/stoffer/esp8266/esp-open-sdk/sdk/lib/liblwip.a(espconn_udp.o)
                              /home/stoffer/esp8266/esp-open-sdk/sdk/lib/liblwip.a(espconn.o) (espconn_udp_sent)
/home/stoffer/esp8266/esp-open-sdk/sdk/lib/liblwip.a(icmp.o)
                              /home/stoffer/esp8266/esp-open-sdk/sdk/lib/liblwip.a(ip.o) (icmp_input)
/home/stoffer/esp8266/esp-open-sdk/sdk/lib/liblwip.a(igmp.o)
                              /home/stoffer/esp8266/esp-open-sdk/sdk/lib/liblwip.a(init.o) (igmp_init)
/home/stoffer/esp8266/esp-open-sdk/sdk/lib/liblwip.a(inet_chksum.o)
                              /home/stoffer/esp8266/esp-open-sdk/sdk/lib/liblwip.a(tcp_in.o) (inet_chksum_pseudo)
/home/stoffer/esp8266/esp-open-sdk/sdk/lib/libpp.a(esf_buf.o)
                              /home/stoffer/esp8266/esp-open-sdk/sdk/lib/libnet80211.a(ieee80211_output.o) (esf_buf_alloc)
/home/stoffer/esp8266/esp-open-sdk/sdk/lib/libpp.a(if_hwctrl.o)
                              /home/stoffer/esp8266/esp-open-sdk/sdk/lib/libmain.a(user_interface.o) (ic_set_vif)
/home/stoffer/esp8266/esp-open-sdk/sdk/lib/libpp.a(lmac.o)
                              /home/stoffer/esp8266/esp-open-sdk/sdk/lib/libmain.a(app_main.o) (lmacInit)
/home/stoffer/esp8266/esp-open-sdk/sdk/lib/libpp.a(pm.o)
                              /home/stoffer/esp8266/esp-open-sdk/sdk/lib/libmain.a(user_interface.o) (pm_set_gpio_wakeup_pin)
/home/stoffer/esp8266/esp-open-sdk/sdk/lib/libpp.a(pm_for_bcn_only_mode.o)
                              /home/stoffer/esp8266/esp-open-sdk/sdk/lib/libnet80211.a(ieee80211_hostap.o) (fpm_is_open)
/home/stoffer/esp8266/esp-open-sdk/sdk/lib/libpp.a(pp.o)
                              /home/stoffer/esp8266/esp-open-sdk/sdk/lib/libpp.a(pm.o) (pend_flag_noise_check)
/home/stoffer/esp8266/esp-open-sdk/sdk/lib/libpp.a(rate_control.o)
                              /home/stoffer/esp8266/esp-open-sdk/sdk/lib/libpp.a(lmac.o) (RC_SetBasicRate)
/home/stoffer/esp8266/esp-open-sdk/sdk/lib/libpp.a(trc.o)
                              /home/stoffer/esp8266/esp-open-sdk/sdk/lib/libmain.a(user_interface.o) (rc_set_rate_limit_id)
/home/stoffer/esp8266/esp-open-sdk/sdk/lib/libpp.a(wdev.o)
                              /home/stoffer/esp8266/esp-open-sdk/sdk/lib/libpp.a(esf_buf.o) (wDevCtrl)
/home/stoffer/esp8266/esp-open-sdk/sdk/lib/libphy.a(phy.o)
                              /home/stoffer/esp8266/esp-open-sdk/sdk/lib/libnet80211.a(wl_chm.o) (phy_change_channel)
/home/stoffer/esp8266/esp-open-sdk/sdk/lib/libphy.a(phy_chip_v6_ana.o)
                              /home/stoffer/esp8266/esp-open-sdk/sdk/lib/libmain.a(app_main.o) (chip_v6_set_chan_offset)
/home/stoffer/esp8266/esp-open-sdk/sdk/lib/libphy.a(phy_chip_v6.o)
                              /home/stoffer/esp8266/esp-open-sdk/sdk/lib/libpp.a(pm.o) (g_phyFuns)
/home/stoffer/esp8266/esp-open-sdk/sdk/lib/libphy.a(phy_chip_v6_cal.o)
                              /home/stoffer/esp8266/esp-open-sdk/sdk/lib/libphy.a(phy_chip_v6.o) (phy_tx_pwr_error)
/home/stoffer/esp8266/esp-open-sdk/sdk/lib/libphy.a(phy_chip_v6_unused.o)
                              /home/stoffer/esp8266/esp-open-sdk/sdk/lib/libphy.a(phy_chip_v6.o) (chip_v6_set_sense)
/home/stoffer/esp8266/esp-open-sdk/sdk/lib/libphy.a(phy_sleep.o)
                              /home/stoffer/esp8266/esp-open-sdk/sdk/lib/libpp.a(pm.o) (pm_usec2rtc)
/home/stoffer/esp8266/esp-open-sdk/xtensa-lx106-elf/xtensa-lx106-elf/sysroot/usr/lib/libhal.a(int_asm--set_intclear.o)
                              /home/stoffer/esp8266/esp-open-sdk/sdk/lib/libmain.a(app_main.o) (xthal_set_intclear)
/home/stoffer/esp8266/esp-open-sdk/sdk/lib/libgcc.a(_modsi3.o)
                              /home/stoffer/esp8266/esp-open-sdk/sdk/lib/libnet80211.a(ieee80211_ht.o) (__modsi3)
/home/stoffer/esp8266/esp-open-sdk/sdk/lib/libgcc.a(_ashrdi3.o)
                              /home/stoffer/esp8266/esp-open-sdk/sdk/lib/libphy.a(phy_chip_v6.o) (__ashrdi3)
/home/stoffer/esp8266/esp-open-sdk/sdk/lib/libgcc.a(_mulsf3.o)
                              /home/stoffer/esp8266/esp-open-sdk/sdk/lib/libphy.a(phy_chip_v6_ana.o) (__mulsf3)
/home/stoffer/esp8266/esp-open-sdk/sdk/lib/libgcc.a(_divsf3.o)
                              /home/stoffer/esp8266/esp-open-sdk/sdk/lib/libphy.a(phy_chip_v6_ana.o) (__divsf3)
/home/stoffer/esp8266/esp-open-sdk/sdk/lib/libgcc.a(_fixsfsi.o)
                              /home/stoffer/esp8266/esp-open-sdk/sdk/lib/libphy.a(phy_chip_v6.o) (__fixsfsi)
/home/stoffer/esp8266/esp-open-sdk/xtensa-lx106-elf/lib/gcc/xtensa-lx106-elf/4.8.5/../../../../xtensa-lx106-elf/lib/libc.a(lib_a-memchr.o)
                              /home/stoffer/esp8266/esp-open-sdk/sdk/lib/liblwip.a(espconn_buf.o) (memchr)
build/app_app.a(user_main.o)  /home/stoffer/esp8266/esp-open-sdk/sdk/lib/libmain.a(app_main.o) (user_init)
build/app_app.a(captdns.o)    build/app_app.a(user_main.o) (captdnsInit)
build/app_app.a(led.o)        build/app_app.a(user_main.o) (led_init)
build/app_app.a(httpd_user_init.o)
                              build/app_app.a(user_main.o) (httpd_user_init)
build/app_app.a(httpd.o)      build/app_app.a(httpd_user_init.o) (cgiRedirect)
build/app_app.a(crypto.o)     build/app_app.a(user_main.o) (init_aes_hmac_combined)
build/app_app.a(sha256.o)     build/app_app.a(crypto.o) (sha256_raw)
build/app_app.a(aes.o)        build/app_app.a(crypto.o) (AES128_CBC_encrypt_buffer)
build/app_app.a(kmp_request.o)
                              build/app_app.a(user_main.o) (kmp_request_init)
build/app_app.a(kmp.o)        build/app_app.a(kmp_request.o) (kmp_value_to_string)
build/app_app.a(cron.o)       build/app_app.a(user_main.o) (cron_init)
build/app_app.a(ac_out.o)     build/app_app.a(user_main.o) (ac_out_init)
build/app_app.a(uart.o)       build/app_app.a(kmp_request.o) (uart0_tx_buffer)
build/app_app.a(mqtt.o)       build/app_app.a(user_main.o) (MQTT_Publish)
build/app_app.a(mqtt_msg.o)   build/app_app.a(mqtt.o) (mqtt_msg_init)
build/app_app.a(queue.o)      build/app_app.a(mqtt.o) (QUEUE_Init)
build/app_app.a(mqtt_utils.o)
                              build/app_app.a(mqtt.o) (UTILS_StrToIP)
build/app_app.a(proto.o)      build/app_app.a(queue.o) (PROTO_ParseRb)
build/app_app.a(config.o)     build/app_app.a(user_main.o) (sys_cfg)
build/app_app.a(wifi.o)       build/app_app.a(user_main.o) (wifi_get_rssi)
build/app_app.a(watchdog.o)   build/app_app.a(user_main.o) (init_watchdog)
build/app_app.a(cgiwifi.o)    build/app_app.a(httpd_user_init.o) (cgiWiFiScan)
build/app_app.a(tinyprintf.o)
                              build/app_app.a(user_main.o) (tfp_snprintf)
build/app_app.a(unix_time.o)  build/app_app.a(user_main.o) (init_unix_time)
build/app_app.a(cgi.o)        build/app_app.a(httpd_user_init.o) (cgiLed)
build/app_app.a(httpdespfs.o)
                              build/app_app.a(httpd_user_init.o) (cgiEspFsHook)
build/app_app.a(espfs.o)      build/app_app.a(httpdespfs.o) (espFsOpen)
build/app_app.a(heatshrink_decoder.o)
                              build/app_app.a(espfs.o) (heatshrink_decoder_free)
build/app_app.a(utils.o)      build/app_app.a(kmp.o) (ccit_crc16)
build/app_app.a(hmac-sha256.o)
                              build/app_app.a(crypto.o) (hmac_sha256_init)
build/app_app.a(gpio16.o)     build/app_app.a(watchdog.o) (gpio16_output_conf)
build/app_app.a(ringbuf.o)    build/app_app.a(queue.o) (RINGBUF_Init)
/home/stoffer/esp8266/esp-open-sdk/sdk/lib/libnet80211.a(ieee80211_crypto_tkip.o)
                              /home/stoffer/esp8266/esp-open-sdk/sdk/lib/libwpa.a(wpa_auth.o) (tkip)
/home/stoffer/esp8266/esp-open-sdk/sdk/lib/libnet80211.a(ieee80211_crypto_wep.o)
                              /home/stoffer/esp8266/esp-open-sdk/sdk/lib/libwpa.a(wpa_auth.o) (wep)
/home/stoffer/esp8266/esp-open-sdk/sdk/lib/liblwip.a(sntp.o)
                              build/app_app.a(unix_time.o) (sntp_get_current_timestamp)
/home/stoffer/esp8266/esp-open-sdk/xtensa-lx106-elf/lib/gcc/xtensa-lx106-elf/4.8.5/../../../../xtensa-lx106-elf/lib/libc.a(lib_a-atoi.o)
                              build/app_app.a(user_main.o) (atoi)
/home/stoffer/esp8266/esp-open-sdk/xtensa-lx106-elf/lib/gcc/xtensa-lx106-elf/4.8.5/../../../../xtensa-lx106-elf/lib/libc.a(lib_a-gmtime.o)
                              build/app_app.a(cron.o) (gmtime)
/home/stoffer/esp8266/esp-open-sdk/xtensa-lx106-elf/lib/gcc/xtensa-lx106-elf/4.8.5/../../../../xtensa-lx106-elf/lib/libc.a(lib_a-gmtime_r.o)
                              /home/stoffer/esp8266/esp-open-sdk/xtensa-lx106-elf/lib/gcc/xtensa-lx106-elf/4.8.5/../../../../xtensa-lx106-elf/lib/libc.a(lib_a-gmtime.o) (gmtime_r)
/home/stoffer/esp8266/esp-open-sdk/xtensa-lx106-elf/lib/gcc/xtensa-lx106-elf/4.8.5/../../../../xtensa-lx106-elf/lib/libc.a(lib_a-impure.o)
                              /home/stoffer/esp8266/esp-open-sdk/xtensa-lx106-elf/lib/gcc/xtensa-lx106-elf/4.8.5/../../../../xtensa-lx106-elf/lib/libc.a(lib_a-gmtime.o) (_impure_ptr)
/home/stoffer/esp8266/esp-open-sdk/xtensa-lx106-elf/lib/gcc/xtensa-lx106-elf/4.8.5/../../../../xtensa-lx106-elf/lib/libc.a(lib_a-memcpy.o)
                              build/app_app.a(mqtt_msg.o) (memcpy)
/home/stoffer/esp8266/esp-open-sdk/xtensa-lx106-elf/lib/gcc/xtensa-lx106-elf/4.8.5/../../../../xtensa-lx106-elf/lib/libc.a(lib_a-memset.o)
                              build/app_app.a(mqtt_msg.o) (memset)
/home/stoffer/esp8266/esp-open-sdk/xtensa-lx106-elf/lib/gcc/xtensa-lx106-elf/4.8.5/../../../../xtensa-lx106-elf/lib/libc.a(lib_a-mktm_r.o)
                              /home/stoffer/esp8266/esp-open-sdk/xtensa-lx106-elf/lib/gcc/xtensa-lx106-elf/4.8.5/../../../../xtensa-lx106-elf/lib/libc.a(lib_a-gmtime_r.o) (_mktm_r)
/home/stoffer/esp8266/esp-open-sdk/xtensa-lx106-elf/lib/gcc/xtensa-lx106-elf/4.8.5/../../../../xtensa-lx106-elf/lib/libc.a(lib_a-strcat.o)
                              build/app_app.a(kmp_request.o) (strcat)
/home/stoffer/esp8266/esp-open-sdk/xtensa-lx106-elf/lib/gcc/xtensa-lx106-elf/4.8.5/../../../../xtensa-lx106-elf/lib/libc.a(lib_a-strlen.o)
                              build/app_app.a(kmp.o) (strlen)
/home/stoffer/esp8266/esp-open-sdk/xtensa-lx106-elf/lib/gcc/xtensa-lx106-elf/4.8.5/../../../../xtensa-lx106-elf/lib/libc.a(lib_a-strtok.o)
                              build/app_app.a(user_main.o) (strtok)
/home/stoffer/esp8266/esp-open-sdk/xtensa-lx106-elf/lib/gcc/xtensa-lx106-elf/4.8.5/../../../../xtensa-lx106-elf/lib/libc.a(lib_a-strtok_r.o)
                              /home/stoffer/esp8266/esp-open-sdk/xtensa-lx106-elf/lib/gcc/xtensa-lx106-elf/4.8.5/../../../../xtensa-lx106-elf/lib/libc.a(lib_a-strtok.o) (__strtok_r)
/home/stoffer/esp8266/esp-open-sdk/xtensa-lx106-elf/lib/gcc/xtensa-lx106-elf/4.8.5/../../../../xtensa-lx106-elf/lib/libc.a(lib_a-strtol.o)
                              /home/stoffer/esp8266/esp-open-sdk/xtensa-lx106-elf/lib/gcc/xtensa-lx106-elf/4.8.5/../../../../xtensa-lx106-elf/lib/libc.a(lib_a-atoi.o) (_strtol_r)
/home/stoffer/esp8266/esp-open-sdk/xtensa-lx106-elf/lib/gcc/xtensa-lx106-elf/4.8.5/../../../../xtensa-lx106-elf/lib/libc.a(lib_a-tzlock.o)
                              /home/stoffer/esp8266/esp-open-sdk/xtensa-lx106-elf/lib/gcc/xtensa-lx106-elf/4.8.5/../../../../xtensa-lx106-elf/lib/libc.a(lib_a-mktm_r.o) (__tz_lock)
/home/stoffer/esp8266/esp-open-sdk/xtensa-lx106-elf/lib/gcc/xtensa-lx106-elf/4.8.5/../../../../xtensa-lx106-elf/lib/libc.a(lib_a-tzvars.o)
                              /home/stoffer/esp8266/esp-open-sdk/xtensa-lx106-elf/lib/gcc/xtensa-lx106-elf/4.8.5/../../../../xtensa-lx106-elf/lib/libc.a(lib_a-mktm_r.o) (_daylight)
/home/stoffer/esp8266/esp-open-sdk/xtensa-lx106-elf/lib/gcc/xtensa-lx106-elf/4.8.5/../../../../xtensa-lx106-elf/lib/libc.a(lib_a-ctype_.o)
                              /home/stoffer/esp8266/esp-open-sdk/xtensa-lx106-elf/lib/gcc/xtensa-lx106-elf/4.8.5/../../../../xtensa-lx106-elf/lib/libc.a(lib_a-strtol.o) (__ctype_ptr__)
/home/stoffer/esp8266/esp-open-sdk/xtensa-lx106-elf/lib/gcc/xtensa-lx106-elf/4.8.5/../../../../xtensa-lx106-elf/lib/libc.a(lib_a-gettzinfo.o)
                              /home/stoffer/esp8266/esp-open-sdk/xtensa-lx106-elf/lib/gcc/xtensa-lx106-elf/4.8.5/../../../../xtensa-lx106-elf/lib/libc.a(lib_a-mktm_r.o) (__gettzinfo)
/home/stoffer/esp8266/esp-open-sdk/sdk/lib/libmain.a(time.o)
                              /home/stoffer/esp8266/esp-open-sdk/sdk/lib/liblwip.a(sntp.o) (sntp_update_rtc)
/home/stoffer/esp8266/esp-open-sdk/xtensa-lx106-elf/lib/gcc/xtensa-lx106-elf/4.8.5/../../../../xtensa-lx106-elf/lib/libc.a(lib_a-sysgettod.o)
                              /home/stoffer/esp8266/esp-open-sdk/sdk/lib/libmain.a(time.o) (gettimeofday)

Allocating common symbols
Common symbol       size              file

default_private_key
                    0x4               build/app_app.a(mqtt.o)
response            0x6c              build/app_app.a(kmp_request.o)
sys_cfg             0xa38             build/app_app.a(config.o)
fifo_buffer         0x100             build/app_app.a(kmp_request.o)
last_fill_cnt       0x4               build/app_app.a(queue.o)
mqtt_client         0xd0              build/app_app.a(user_main.o)
frame_length        0x4               build/app_app.a(kmp_request.o)
current_unix_time   0x4               build/app_app.a(unix_time.o)
default_certificate
                    0x4               build/app_app.a(mqtt.o)
config_ssid         0x4               build/app_app.a(wifi.o)
cgiWifiAps          0xc               build/app_app.a(cgiwifi.o)
hmac_sha256_key     0x10              build/app_app.a(crypto.o)
fifo_head           0x4               build/app_app.a(kmp_request.o)
kmp_requests_sent   0x4               build/app_app.a(kmp_request.o)
fifo_tail           0x4               build/app_app.a(kmp_request.o)
kmp_response        0x4               build/app_app.a(kmp.o)
kmp_data_length     0x4               build/app_app.a(kmp.o)
register_list       0x10              build/app_app.a(kmp_request.o)
kmp_frame_length    0x4               build/app_app.a(kmp.o)
rtc_info            0x4               build/app_app.a(user_main.o)
sec_drift           0x1               build/app_app.a(cron.o)
config_pass         0x4               build/app_app.a(wifi.o)
aes_key             0x10              build/app_app.a(crypto.o)
frame               0x400             build/app_app.a(kmp_request.o)
watchdog_list_len   0x1               build/app_app.a(watchdog.o)
last_rb_p_r         0x4               build/app_app.a(queue.o)
config_save_timer_running
                    0x1               build/app_app.a(config.o)
kmp_frame           0x4               build/app_app.a(kmp.o)
boot_time           0x8               build/app_app.a(unix_time.o)
kmp_received_task_queue
                    0x200             build/app_app.a(user_main.o)
last_rb_p_w         0x4               build/app_app.a(queue.o)
sha256_hash         0x20              build/app_app.a(crypto.o)
watchdog_list       0x10              build/app_app.a(watchdog.o)
ac_pwm_duty_cycle   0x4               build/app_app.a(ac_out.o)
mqtt_procTaskQueue  0x8               build/app_app.a(mqtt.o)
saveFlag            0x4               build/app_app.a(config.o)

Memory Configuration

Name             Origin             Length             Attributes
dport0_0_seg     0x000000003ff00000 0x0000000000000010
dram0_0_seg      0x000000003ffe8000 0x0000000000014000
iram1_0_seg      0x0000000040100000 0x0000000000008000
irom0_0_seg      0x0000000040210000 0x000000000005c000
*default*        0x0000000000000000 0xffffffffffffffff

Linker script and memory map

START GROUP
LOAD /home/stoffer/esp8266/esp-open-sdk/sdk/lib/libmain.a
LOAD /home/stoffer/esp8266/esp-open-sdk/sdk/lib/libnet80211.a
LOAD /home/stoffer/esp8266/esp-open-sdk/sdk/lib/libwpa.a
LOAD /home/stoffer/esp8266/esp-open-sdk/sdk/lib/liblwip.a
LOAD /home/stoffer/esp8266/esp-open-sdk/sdk/lib/libpp.a
LOAD /home/stoffer/esp8266/esp-open-sdk/sdk/lib/libphy.a
LOAD /home/stoffer/esp8266/esp-open-sdk/xtensa-lx106-elf/xtensa-lx106-elf/sysroot/usr/lib/libhal.a
LOAD /home/stoffer/esp8266/esp-open-sdk/sdk/lib/libssl.a
LOAD /home/stoffer/esp8266/esp-open-sdk/sdk/lib/libgcc.a
LOAD /home/stoffer/esp8266/esp-open-sdk/xtensa-lx106-elf/lib/gcc/xtensa-lx106-elf/4.8.5/../../../../xtensa-lx106-elf/lib/libc.a
LOAD build/app_app.a
END GROUP
                [!provide]                        PROVIDE (_memmap_vecbase_reset, 0x40000000)
                0x0000000000000110                _memmap_cacheattr_wb_base = 0x110
                0x0000000000000110                _memmap_cacheattr_wt_base = 0x110
                0x0000000000000220                _memmap_cacheattr_bp_base = 0x220
                0x00000000fffff00f                _memmap_cacheattr_unused_mask = 0xfffff00f
                0x000000002222211f                _memmap_cacheattr_wb_trapnull = 0x2222211f
                0x000000002222211f                _memmap_cacheattr_wba_trapnull = 0x2222211f
                0x000000002222211f                _memmap_cacheattr_wbna_trapnull = 0x2222211f
                0x000000002222211f                _memmap_cacheattr_wt_trapnull = 0x2222211f
                0x000000002222222f                _memmap_cacheattr_bp_trapnull = 0x2222222f
                0x00000000fffff11f                _memmap_cacheattr_wb_strict = 0xfffff11f
                0x00000000fffff11f                _memmap_cacheattr_wt_strict = 0xfffff11f
                0x00000000fffff22f                _memmap_cacheattr_bp_strict = 0xfffff22f
                0x0000000022222112                _memmap_cacheattr_wb_allvalid = 0x22222112
                0x0000000022222112                _memmap_cacheattr_wt_allvalid = 0x22222112
                0x0000000022222222                _memmap_cacheattr_bp_allvalid = 0x22222222
                [!provide]                        PROVIDE (_memmap_cacheattr_reset, _memmap_cacheattr_wb_trapnull)

.dport0.rodata  0x000000003ff00000        0x0
                0x000000003ff00000                _dport0_rodata_start = ABSOLUTE (.)
 *(.dport0.rodata)
 *(.dport.rodata)
                0x000000003ff00000                _dport0_rodata_end = ABSOLUTE (.)

.dport0.literal
                0x000000003ff00000        0x0
                0x000000003ff00000                _dport0_literal_start = ABSOLUTE (.)
 *(.dport0.literal)
 *(.dport.literal)
                0x000000003ff00000                _dport0_literal_end = ABSOLUTE (.)

.dport0.data    0x000000003ff00000        0x0
                0x000000003ff00000                _dport0_data_start = ABSOLUTE (.)
 *(.dport0.data)
 *(.dport.data)
                0x000000003ff00000                _dport0_data_end = ABSOLUTE (.)

.data           0x000000003ffe8000      0x8a4
                0x000000003ffe8000                _data_start = ABSOLUTE (.)
 *(.data)
 .data          0x000000003ffe8000        0x0 /home/stoffer/esp8266/esp-open-sdk/sdk/lib/libmain.a(debug-vector.o)
 .data          0x000000003ffe8000        0x0 /home/stoffer/esp8266/esp-open-sdk/sdk/lib/libmain.a(double-vector.o)
 .data          0x000000003ffe8000        0x0 /home/stoffer/esp8266/esp-open-sdk/sdk/lib/libmain.a(kernel-vector.o)
 .data          0x000000003ffe8000        0x4 /home/stoffer/esp8266/esp-open-sdk/sdk/lib/libmain.a(nmi-vector.o)
                0x000000003ffe8000                _Pri_3_HandlerAddress
 .data          0x000000003ffe8004        0x0 /home/stoffer/esp8266/esp-open-sdk/sdk/lib/libmain.a(user-vector.o)
 .data          0x000000003ffe8004        0x0 /home/stoffer/esp8266/esp-open-sdk/sdk/lib/libmain.a(vector.o)
 .data          0x000000003ffe8004        0x1 /home/stoffer/esp8266/esp-open-sdk/sdk/lib/libmain.a(app_main.o)
 .data          0x000000003ffe8005        0x0 /home/stoffer/esp8266/esp-open-sdk/sdk/lib/libmain.a(ets_timer.o)
 .data          0x000000003ffe8005        0x0 /home/stoffer/esp8266/esp-open-sdk/sdk/lib/libmain.a(mem_manager.o)
 .data          0x000000003ffe8005        0x0 /home/stoffer/esp8266/esp-open-sdk/sdk/lib/libmain.a(spi_flash.o)
 *fill*         0x000000003ffe8005        0x3 
 .data          0x000000003ffe8008        0x6 /home/stoffer/esp8266/esp-open-sdk/sdk/lib/libmain.a(user_interface.o)
                0x000000003ffe8009                timer2_ms_flag
                0x000000003ffe800a                dhcps_flag
                0x000000003ffe800b                dhcpc_flag
                0x000000003ffe800d                reconnect_internal
 .data          0x000000003ffe800e        0x0 /home/stoffer/esp8266/esp-open-sdk/sdk/lib/libmain.a(user_rf_cal_sector_set.o)
 .data          0x000000003ffe800e        0x0 /home/stoffer/esp8266/esp-open-sdk/sdk/lib/libmain.a(eagle_lib.o)
 *fill*         0x000000003ffe800e        0x2 
 .data          0x000000003ffe8010        0x1 /home/stoffer/esp8266/esp-open-sdk/sdk/lib/libmain.a(eagle_lwip_if.o)
                0x000000003ffe8010                default_hostname
 .data          0x000000003ffe8011        0x0 /home/stoffer/esp8266/esp-open-sdk/sdk/lib/libnet80211.a(ieee80211.o)
 .data          0x000000003ffe8011        0x0 /home/stoffer/esp8266/esp-open-sdk/sdk/lib/libnet80211.a(ieee80211_crypto.o)
 *fill*         0x000000003ffe8011        0x3 
 .data          0x000000003ffe8014        0x1 /home/stoffer/esp8266/esp-open-sdk/sdk/lib/libnet80211.a(ieee80211_hostap.o)
                0x000000003ffe8014                TmpSTAAPCloseAP
 .data          0x000000003ffe8015        0x0 /home/stoffer/esp8266/esp-open-sdk/sdk/lib/libnet80211.a(ieee80211_ht.o)
 .data          0x000000003ffe8015        0x0 /home/stoffer/esp8266/esp-open-sdk/sdk/lib/libnet80211.a(ieee80211_input.o)
 .data          0x000000003ffe8015        0x0 /home/stoffer/esp8266/esp-open-sdk/sdk/lib/libnet80211.a(ieee80211_mesh_quick.o)
 .data          0x000000003ffe8015        0x0 /home/stoffer/esp8266/esp-open-sdk/sdk/lib/libnet80211.a(ieee80211_output.o)
 .data          0x000000003ffe8015        0x0 /home/stoffer/esp8266/esp-open-sdk/sdk/lib/libnet80211.a(ieee80211_phy.o)
 .data          0x000000003ffe8015        0x0 /home/stoffer/esp8266/esp-open-sdk/sdk/lib/libnet80211.a(ieee80211_power.o)
 .data          0x000000003ffe8015        0x0 /home/stoffer/esp8266/esp-open-sdk/sdk/lib/libnet80211.a(ieee80211_proto.o)
 .data          0x000000003ffe8015        0x0 /home/stoffer/esp8266/esp-open-sdk/sdk/lib/libnet80211.a(ieee80211_regdomain.o)
 .data          0x000000003ffe8015        0x0 /home/stoffer/esp8266/esp-open-sdk/sdk/lib/libnet80211.a(ieee80211_rfid.o)
 .data          0x000000003ffe8015        0x0 /home/stoffer/esp8266/esp-open-sdk/sdk/lib/libnet80211.a(ieee80211_scan.o)
 .data          0x000000003ffe8015        0x0 /home/stoffer/esp8266/esp-open-sdk/sdk/lib/libnet80211.a(ieee80211_sta.o)
 .data          0x000000003ffe8015        0x0 /home/stoffer/esp8266/esp-open-sdk/sdk/lib/libnet80211.a(wl_chm.o)
 *fill*         0x000000003ffe8015        0x3 
 .data          0x000000003ffe8018        0x1 /home/stoffer/esp8266/esp-open-sdk/sdk/lib/libnet80211.a(wl_cnx.o)
 *fill*         0x000000003ffe8019        0x7 
 .data          0x000000003ffe8020       0x1c /home/stoffer/esp8266/esp-open-sdk/sdk/lib/libnet80211.a(ieee80211_action.o)
 .data          0x000000003ffe803c        0x0 /home/stoffer/esp8266/esp-open-sdk/sdk/lib/libnet80211.a(ieee80211_action_vendor.o)
 .data          0x000000003ffe803c        0x0 /home/stoffer/esp8266/esp-open-sdk/sdk/lib/libnet80211.a(ieee80211_crypto_ccmp.o)
 .data          0x000000003ffe803c        0x0 /home/stoffer/esp8266/esp-open-sdk/sdk/lib/libnet80211.a(ieee80211_ets.o)
 .data          0x000000003ffe803c        0x0 /home/stoffer/esp8266/esp-open-sdk/sdk/lib/libnet80211.a(ieee80211_ie_vendor.o)
 .data          0x000000003ffe803c        0x0 /home/stoffer/esp8266/esp-open-sdk/sdk/lib/libwpa.a(ap_config.o)
 .data          0x000000003ffe803c        0x0 /home/stoffer/esp8266/esp-open-sdk/sdk/lib/libwpa.a(common.o)
 .data          0x000000003ffe803c        0x0 /home/stoffer/esp8266/esp-open-sdk/sdk/lib/libwpa.a(os_xtensa.o)
 .data          0x000000003ffe803c        0x0 /home/stoffer/esp8266/esp-open-sdk/sdk/lib/libwpa.a(wpa_auth.o)
 .data          0x000000003ffe803c        0x0 /home/stoffer/esp8266/esp-open-sdk/sdk/lib/libwpa.a(wpa_auth_ie.o)
 .data          0x000000003ffe803c        0x0 /home/stoffer/esp8266/esp-open-sdk/sdk/lib/libwpa.a(wpa.o)
 .data          0x000000003ffe803c        0x0 /home/stoffer/esp8266/esp-open-sdk/sdk/lib/libwpa.a(wpa_common.o)
 .data          0x000000003ffe803c        0x0 /home/stoffer/esp8266/esp-open-sdk/sdk/lib/libwpa.a(wpa_debug.o)
 .data          0x000000003ffe803c        0x0 /home/stoffer/esp8266/esp-open-sdk/sdk/lib/libwpa.a(wpa_ie.o)
 .data          0x000000003ffe803c        0x0 /home/stoffer/esp8266/esp-open-sdk/sdk/lib/libwpa.a(wpa_main.o)
 .data          0x000000003ffe803c        0x0 /home/stoffer/esp8266/esp-open-sdk/sdk/lib/libwpa.a(wpas_glue.o)
 .data          0x000000003ffe803c        0x0 /home/stoffer/esp8266/esp-open-sdk/sdk/lib/libwpa.a(aes-wrap.o)
 .data          0x000000003ffe803c        0x0 /home/stoffer/esp8266/esp-open-sdk/sdk/lib/libwpa.a(aes-internal-enc.o)
 .data          0x000000003ffe803c        0x0 /home/stoffer/esp8266/esp-open-sdk/sdk/lib/libwpa.a(aes-internal.o)
 .data          0x000000003ffe803c        0x4 /home/stoffer/esp8266/esp-open-sdk/sdk/lib/liblwip.a(dhcp.o)
 .data          0x000000003ffe8040        0x5 /home/stoffer/esp8266/esp-open-sdk/sdk/lib/liblwip.a(dhcpserver.o)
                0x000000003ffe8040                dhcps_lease_time
 .data          0x000000003ffe8045        0x0 /home/stoffer/esp8266/esp-open-sdk/sdk/lib/liblwip.a(dns.o)
 .data          0x000000003ffe8045        0x0 /home/stoffer/esp8266/esp-open-sdk/sdk/lib/liblwip.a(espconn_tcp.o)
 .data          0x000000003ffe8045        0x0 /home/stoffer/esp8266/esp-open-sdk/sdk/lib/liblwip.a(etharp.o)
 .data          0x000000003ffe8045        0x0 /home/stoffer/esp8266/esp-open-sdk/sdk/lib/liblwip.a(init.o)
 .data          0x000000003ffe8045        0x0 /home/stoffer/esp8266/esp-open-sdk/sdk/lib/liblwip.a(ip_addr.o)
 .data          0x000000003ffe8045        0x0 /home/stoffer/esp8266/esp-open-sdk/sdk/lib/liblwip.a(ip.o)
 *fill*         0x000000003ffe8045        0x3 
 .data          0x000000003ffe8048        0x2 /home/stoffer/esp8266/esp-open-sdk/sdk/lib/liblwip.a(memp.o)
                0x000000003ffe8048                memp_sizes_test
 .data          0x000000003ffe804a        0x0 /home/stoffer/esp8266/esp-open-sdk/sdk/lib/liblwip.a(netif.o)
 .data          0x000000003ffe804a        0x0 /home/stoffer/esp8266/esp-open-sdk/sdk/lib/liblwip.a(pbuf.o)
 .data          0x000000003ffe804a        0x0 /home/stoffer/esp8266/esp-open-sdk/sdk/lib/liblwip.a(raw.o)
 .data          0x000000003ffe804a        0x0 /home/stoffer/esp8266/esp-open-sdk/sdk/lib/liblwip.a(tcp_in.o)
 *fill*         0x000000003ffe804a        0x2 
 .data          0x000000003ffe804c        0x8 /home/stoffer/esp8266/esp-open-sdk/sdk/lib/liblwip.a(tcp.o)
 .data          0x000000003ffe8054        0x0 /home/stoffer/esp8266/esp-open-sdk/sdk/lib/liblwip.a(tcp_out.o)
 .data          0x000000003ffe8054        0x0 /home/stoffer/esp8266/esp-open-sdk/sdk/lib/liblwip.a(timers.o)
 .data          0x000000003ffe8054        0x0 /home/stoffer/esp8266/esp-open-sdk/sdk/lib/liblwip.a(udp.o)
 .data          0x000000003ffe8054        0x0 /home/stoffer/esp8266/esp-open-sdk/sdk/lib/liblwip.a(espconn_buf.o)
 .data          0x000000003ffe8054        0x0 /home/stoffer/esp8266/esp-open-sdk/sdk/lib/liblwip.a(espconn.o)
 .data          0x000000003ffe8054        0x0 /home/stoffer/esp8266/esp-open-sdk/sdk/lib/liblwip.a(espconn_udp.o)
 .data          0x000000003ffe8054        0x0 /home/stoffer/esp8266/esp-open-sdk/sdk/lib/liblwip.a(icmp.o)
 .data          0x000000003ffe8054        0x0 /home/stoffer/esp8266/esp-open-sdk/sdk/lib/liblwip.a(igmp.o)
 .data          0x000000003ffe8054        0x0 /home/stoffer/esp8266/esp-open-sdk/sdk/lib/liblwip.a(inet_chksum.o)
 .data          0x000000003ffe8054        0x0 /home/stoffer/esp8266/esp-open-sdk/sdk/lib/libpp.a(esf_buf.o)
 .data          0x000000003ffe8054        0x0 /home/stoffer/esp8266/esp-open-sdk/sdk/lib/libpp.a(if_hwctrl.o)
 .data          0x000000003ffe8054        0x0 /home/stoffer/esp8266/esp-open-sdk/sdk/lib/libpp.a(lmac.o)
 .data          0x000000003ffe8054        0x1 /home/stoffer/esp8266/esp-open-sdk/sdk/lib/libpp.a(pm.o)
 *fill*         0x000000003ffe8055        0x3 
 .data          0x000000003ffe8058        0x1 /home/stoffer/esp8266/esp-open-sdk/sdk/lib/libpp.a(pm_for_bcn_only_mode.o)
 *fill*         0x000000003ffe8059        0x3 
 .data          0x000000003ffe805c       0x1c /home/stoffer/esp8266/esp-open-sdk/sdk/lib/libpp.a(pp.o)
                0x000000003ffe805c                soft_wdt_interval
                0x000000003ffe8060                NoiseTimerInterval
                0x000000003ffe8068                sleep_start_wait_time
                0x000000003ffe8070                CanDoFreqCal
                0x000000003ffe8074                tcb
 *fill*         0x000000003ffe8078        0x8 
 .data          0x000000003ffe8080       0x40 /home/stoffer/esp8266/esp-open-sdk/sdk/lib/libpp.a(rate_control.o)
 .data          0x000000003ffe80c0      0x24c /home/stoffer/esp8266/esp-open-sdk/sdk/lib/libpp.a(trc.o)
 .data          0x000000003ffe830c        0x8 /home/stoffer/esp8266/esp-open-sdk/sdk/lib/libpp.a(wdev.o)
 .data          0x000000003ffe8314        0x0 /home/stoffer/esp8266/esp-open-sdk/sdk/lib/libphy.a(phy.o)
 .data          0x000000003ffe8314        0x0 /home/stoffer/esp8266/esp-open-sdk/sdk/lib/libphy.a(phy_chip_v6_ana.o)
 *fill*         0x000000003ffe8314        0xc 
 .data          0x000000003ffe8320       0x53 /home/stoffer/esp8266/esp-open-sdk/sdk/lib/libphy.a(phy_chip_v6.o)
                0x000000003ffe8322                tx_rf_ana_gain
                0x000000003ffe8350                rx_gain_swp
                0x000000003ffe8370                test_rffreq_txcap
 *fill*         0x000000003ffe8373        0x1 
 .data          0x000000003ffe8374        0x1 /home/stoffer/esp8266/esp-open-sdk/sdk/lib/libphy.a(phy_chip_v6_cal.o)
                0x000000003ffe8374                rfcal_bb_atten_init
 .data          0x000000003ffe8375        0x0 /home/stoffer/esp8266/esp-open-sdk/sdk/lib/libphy.a(phy_chip_v6_unused.o)
 *fill*         0x000000003ffe8375        0x3 
 .data          0x000000003ffe8378        0x4 /home/stoffer/esp8266/esp-open-sdk/sdk/lib/libphy.a(phy_sleep.o)
                0x000000003ffe8378                chip_version
 .data          0x000000003ffe837c        0x0 /home/stoffer/esp8266/esp-open-sdk/xtensa-lx106-elf/xtensa-lx106-elf/sysroot/usr/lib/libhal.a(int_asm--set_intclear.o)
 .data          0x000000003ffe837c        0x0 /home/stoffer/esp8266/esp-open-sdk/sdk/lib/libgcc.a(_modsi3.o)
 .data          0x000000003ffe837c        0x0 /home/stoffer/esp8266/esp-open-sdk/sdk/lib/libgcc.a(_ashrdi3.o)
 .data          0x000000003ffe837c        0x0 /home/stoffer/esp8266/esp-open-sdk/sdk/lib/libgcc.a(_mulsf3.o)
 .data          0x000000003ffe837c        0x0 /home/stoffer/esp8266/esp-open-sdk/sdk/lib/libgcc.a(_divsf3.o)
 .data          0x000000003ffe837c        0x0 /home/stoffer/esp8266/esp-open-sdk/sdk/lib/libgcc.a(_fixsfsi.o)
 .data          0x000000003ffe837c        0x0 /home/stoffer/esp8266/esp-open-sdk/xtensa-lx106-elf/lib/gcc/xtensa-lx106-elf/4.8.5/../../../../xtensa-lx106-elf/lib/libc.a(lib_a-memchr.o)
 .data          0x000000003ffe837c        0x0 build/app_app.a(user_main.o)
 .data          0x000000003ffe837c        0x0 build/app_app.a(captdns.o)
 .data          0x000000003ffe837c        0x0 build/app_app.a(led.o)
 .data          0x000000003ffe837c       0x9c build/app_app.a(httpd_user_init.o)
                0x000000003ffe837c                builtInUrls
 .data          0x000000003ffe8418        0x0 build/app_app.a(httpd.o)
 .data          0x000000003ffe8418        0x0 build/app_app.a(crypto.o)
 .data          0x000000003ffe8418        0x0 build/app_app.a(sha256.o)
 .data          0x000000003ffe8418        0x0 build/app_app.a(aes.o)
 .data          0x000000003ffe8418        0x0 build/app_app.a(kmp_request.o)
 .data          0x000000003ffe8418        0x0 build/app_app.a(kmp.o)
 .data          0x000000003ffe8418        0x0 build/app_app.a(cron.o)
 .data          0x000000003ffe8418        0x4 build/app_app.a(ac_out.o)
                0x000000003ffe8418                ac_pwm_state
 .data          0x000000003ffe841c        0x0 build/app_app.a(uart.o)
 .data          0x000000003ffe841c        0x0 build/app_app.a(mqtt.o)
 .data          0x000000003ffe841c        0x0 build/app_app.a(mqtt_msg.o)
 .data          0x000000003ffe841c        0x0 build/app_app.a(queue.o)
 .data          0x000000003ffe841c        0x0 build/app_app.a(mqtt_utils.o)
 .data          0x000000003ffe841c        0x0 build/app_app.a(proto.o)
 .data          0x000000003ffe841c        0x0 build/app_app.a(config.o)
 .data          0x000000003ffe841c        0x2 build/app_app.a(wifi.o)
                0x000000003ffe841c                rssi
 .data          0x000000003ffe841e        0x0 build/app_app.a(watchdog.o)
 .data          0x000000003ffe841e        0x0 build/app_app.a(cgiwifi.o)
 .data          0x000000003ffe841e        0x0 build/app_app.a(tinyprintf.o)
 .data          0x000000003ffe841e        0x0 build/app_app.a(unix_time.o)
 .data          0x000000003ffe841e        0x0 build/app_app.a(cgi.o)
 .data          0x000000003ffe841e        0x0 build/app_app.a(httpdespfs.o)
 .data          0x000000003ffe841e        0x0 build/app_app.a(espfs.o)
 .data          0x000000003ffe841e        0x0 build/app_app.a(heatshrink_decoder.o)
 .data          0x000000003ffe841e        0x0 build/app_app.a(utils.o)
 .data          0x000000003ffe841e        0x0 build/app_app.a(hmac-sha256.o)
 .data          0x000000003ffe841e        0x0 build/app_app.a(gpio16.o)
 .data          0x000000003ffe841e        0x0 build/app_app.a(ringbuf.o)
 .data          0x000000003ffe841e        0x0 /home/stoffer/esp8266/esp-open-sdk/sdk/lib/libnet80211.a(ieee80211_crypto_tkip.o)
 .data          0x000000003ffe841e        0x0 /home/stoffer/esp8266/esp-open-sdk/sdk/lib/libnet80211.a(ieee80211_crypto_wep.o)
 *fill*         0x000000003ffe841e        0x2 
 .data          0x000000003ffe8420        0x8 /home/stoffer/esp8266/esp-open-sdk/sdk/lib/liblwip.a(sntp.o)
                0x000000003ffe8420                time_zone
                0x000000003ffe8421                sntp_receive_time_size
 .data          0x000000003ffe8428        0x0 /home/stoffer/esp8266/esp-open-sdk/xtensa-lx106-elf/lib/gcc/xtensa-lx106-elf/4.8.5/../../../../xtensa-lx106-elf/lib/libc.a(lib_a-atoi.o)
 .data          0x000000003ffe8428        0x0 /home/stoffer/esp8266/esp-open-sdk/xtensa-lx106-elf/lib/gcc/xtensa-lx106-elf/4.8.5/../../../../xtensa-lx106-elf/lib/libc.a(lib_a-gmtime.o)
 .data          0x000000003ffe8428        0x0 /home/stoffer/esp8266/esp-open-sdk/xtensa-lx106-elf/lib/gcc/xtensa-lx106-elf/4.8.5/../../../../xtensa-lx106-elf/lib/libc.a(lib_a-gmtime_r.o)
 .data          0x000000003ffe8428      0x430 /home/stoffer/esp8266/esp-open-sdk/xtensa-lx106-elf/lib/gcc/xtensa-lx106-elf/4.8.5/../../../../xtensa-lx106-elf/lib/libc.a(lib_a-impure.o)
                0x000000003ffe8428                _impure_ptr
 .data          0x000000003ffe8858        0x0 /home/stoffer/esp8266/esp-open-sdk/xtensa-lx106-elf/lib/gcc/xtensa-lx106-elf/4.8.5/../../../../xtensa-lx106-elf/lib/libc.a(lib_a-memcpy.o)
 .data          0x000000003ffe8858        0x0 /home/stoffer/esp8266/esp-open-sdk/xtensa-lx106-elf/lib/gcc/xtensa-lx106-elf/4.8.5/../../../../xtensa-lx106-elf/lib/libc.a(lib_a-memset.o)
 .data          0x000000003ffe8858        0x0 /home/stoffer/esp8266/esp-open-sdk/xtensa-lx106-elf/lib/gcc/xtensa-lx106-elf/4.8.5/../../../../xtensa-lx106-elf/lib/libc.a(lib_a-mktm_r.o)
 .data          0x000000003ffe8858        0x0 /home/stoffer/esp8266/esp-open-sdk/xtensa-lx106-elf/lib/gcc/xtensa-lx106-elf/4.8.5/../../../../xtensa-lx106-elf/lib/libc.a(lib_a-strcat.o)
 .data          0x000000003ffe8858        0x0 /home/stoffer/esp8266/esp-open-sdk/xtensa-lx106-elf/lib/gcc/xtensa-lx106-elf/4.8.5/../../../../xtensa-lx106-elf/lib/libc.a(lib_a-strlen.o)
 .data          0x000000003ffe8858        0x0 /home/stoffer/esp8266/esp-open-sdk/xtensa-lx106-elf/lib/gcc/xtensa-lx106-elf/4.8.5/../../../../xtensa-lx106-elf/lib/libc.a(lib_a-strtok.o)
 .data          0x000000003ffe8858        0x0 /home/stoffer/esp8266/esp-open-sdk/xtensa-lx106-elf/lib/gcc/xtensa-lx106-elf/4.8.5/../../../../xtensa-lx106-elf/lib/libc.a(lib_a-strtok_r.o)
 .data          0x000000003ffe8858        0x0 /home/stoffer/esp8266/esp-open-sdk/xtensa-lx106-elf/lib/gcc/xtensa-lx106-elf/4.8.5/../../../../xtensa-lx106-elf/lib/libc.a(lib_a-strtol.o)
 .data          0x000000003ffe8858        0x0 /home/stoffer/esp8266/esp-open-sdk/xtensa-lx106-elf/lib/gcc/xtensa-lx106-elf/4.8.5/../../../../xtensa-lx106-elf/lib/libc.a(lib_a-tzlock.o)
 .data          0x000000003ffe8858        0x8 /home/stoffer/esp8266/esp-open-sdk/xtensa-lx106-elf/lib/gcc/xtensa-lx106-elf/4.8.5/../../../../xtensa-lx106-elf/lib/libc.a(lib_a-tzvars.o)
                0x000000003ffe8858                _tzname
 .data          0x000000003ffe8860        0x4 /home/stoffer/esp8266/esp-open-sdk/xtensa-lx106-elf/lib/gcc/xtensa-lx106-elf/4.8.5/../../../../xtensa-lx106-elf/lib/libc.a(lib_a-ctype_.o)
                0x000000003ffe8860                __ctype_ptr__
 .data          0x000000003ffe8864       0x40 /home/stoffer/esp8266/esp-open-sdk/xtensa-lx106-elf/lib/gcc/xtensa-lx106-elf/4.8.5/../../../../xtensa-lx106-elf/lib/libc.a(lib_a-gettzinfo.o)
 .data          0x000000003ffe88a4        0x0 /home/stoffer/esp8266/esp-open-sdk/sdk/lib/libmain.a(time.o)
 .data          0x000000003ffe88a4        0x0 /home/stoffer/esp8266/esp-open-sdk/xtensa-lx106-elf/lib/gcc/xtensa-lx106-elf/4.8.5/../../../../xtensa-lx106-elf/lib/libc.a(lib_a-sysgettod.o)
 *(.data.*)
 *(.gnu.linkonce.d.*)
 *(.data1)
 *(.sdata)
 *(.sdata.*)
 *(.gnu.linkonce.s.*)
 *(.sdata2)
 *(.sdata2.*)
 *(.gnu.linkonce.s2.*)
 *(.jcr)
                0x000000003ffe88a4                _data_end = ABSOLUTE (.)

.rodata         0x000000003ffe88b0     0x20c8
                0x000000003ffe88b0                _rodata_start = ABSOLUTE (.)
 *(.sdk.version)
 .sdk.version   0x000000003ffe88b0        0xf /home/stoffer/esp8266/esp-open-sdk/sdk/lib/libmain.a(app_main.o)
                0x000000003ffe88b0                SDK_VERSION
 *(.rodata)
 *fill*         0x000000003ffe88bf        0x1 
 .rodata        0x000000003ffe88c0        0x8 /home/stoffer/esp8266/esp-open-sdk/sdk/lib/libnet80211.a(ieee80211_hostap.o)
 .rodata        0x000000003ffe88c8        0x9 /home/stoffer/esp8266/esp-open-sdk/sdk/lib/libnet80211.a(ieee80211_output.o)
 *fill*         0x000000003ffe88d1        0x3 
 .rodata        0x000000003ffe88d4        0x6 /home/stoffer/esp8266/esp-open-sdk/sdk/lib/liblwip.a(etharp.o)
                0x000000003ffe88d4                ethbroadcast
 *fill*         0x000000003ffe88da        0x6 
 .rodata        0x000000003ffe88e0       0x74 /home/stoffer/esp8266/esp-open-sdk/sdk/lib/liblwip.a(espconn_buf.o)
 .rodata        0x000000003ffe8954        0x4 /home/stoffer/esp8266/esp-open-sdk/sdk/lib/libpp.a(pp.o)
 .rodata        0x000000003ffe8958        0x8 /home/stoffer/esp8266/esp-open-sdk/sdk/lib/libphy.a(phy_chip_v6_ana.o)
 .rodata        0x000000003ffe8960        0x8 /home/stoffer/esp8266/esp-open-sdk/sdk/lib/libphy.a(phy_chip_v6.o)
 .rodata        0x000000003ffe8968       0x1c build/app_app.a(user_main.o)
 .rodata        0x000000003ffe8984       0x48 build/app_app.a(httpd.o)
 .rodata        0x000000003ffe89cc      0x120 build/app_app.a(sha256.o)
 .rodata        0x000000003ffe8aec      0x300 build/app_app.a(aes.o)
 .rodata        0x000000003ffe8dec       0xd4 build/app_app.a(kmp.o)
 .rodata        0x000000003ffe8ec0       0x70 build/app_app.a(mqtt.o)
 .rodata        0x000000003ffe8f30       0x10 build/app_app.a(config.o)
 .rodata        0x000000003ffe8f40       0x24 build/app_app.a(heatshrink_decoder.o)
 .rodata        0x000000003ffe8f64      0x200 build/app_app.a(utils.o)
                0x000000003ffe8f64                ccit_crc16_table
 *fill*         0x000000003ffe9164        0xc 
 .rodata        0x000000003ffe9170       0xc0 /home/stoffer/esp8266/esp-open-sdk/sdk/lib/liblwip.a(sntp.o)
 .rodata        0x000000003ffe9230        0x4 /home/stoffer/esp8266/esp-open-sdk/xtensa-lx106-elf/lib/gcc/xtensa-lx106-elf/4.8.5/../../../../xtensa-lx106-elf/lib/libc.a(lib_a-impure.o)
                0x000000003ffe9230                _global_impure_ptr
 .rodata        0x000000003ffe9234       0x68 /home/stoffer/esp8266/esp-open-sdk/xtensa-lx106-elf/lib/gcc/xtensa-lx106-elf/4.8.5/../../../../xtensa-lx106-elf/lib/libc.a(lib_a-mktm_r.o)
 .rodata        0x000000003ffe929c      0x101 /home/stoffer/esp8266/esp-open-sdk/xtensa-lx106-elf/lib/gcc/xtensa-lx106-elf/4.8.5/../../../../xtensa-lx106-elf/lib/libc.a(lib_a-ctype_.o)
                0x000000003ffe929c                _ctype_
 *(.rodata.*)
 *fill*         0x000000003ffe939d        0x3 
 .rodata.str1.4
                0x000000003ffe93a0        0xc /home/stoffer/esp8266/esp-open-sdk/sdk/lib/libmain.a(app_main.o)
 .rodata.str1.4
                0x000000003ffe93ac        0x4 /home/stoffer/esp8266/esp-open-sdk/sdk/lib/libmain.a(ets_timer.o)
                                          0xc (size before relaxing)
 .rodata.str1.4
                0x000000003ffe93b0       0x1a /home/stoffer/esp8266/esp-open-sdk/sdk/lib/libmain.a(mem_manager.o)
 *fill*         0x000000003ffe93ca        0x2 
 .rodata.str1.4
                0x000000003ffe93cc        0x8 /home/stoffer/esp8266/esp-open-sdk/sdk/lib/libnet80211.a(ieee80211_hostap.o)
 .rodata.str1.4
                0x000000003ffe93d4        0x7 /home/stoffer/esp8266/esp-open-sdk/sdk/lib/libnet80211.a(ieee80211_mesh_quick.o)
 .rodata.str1.4
                0x000000003ffe93db        0x4 /home/stoffer/esp8266/esp-open-sdk/sdk/lib/libnet80211.a(ieee80211_sta.o)
 .rodata.str1.4
                0x000000003ffe93db        0x4 /home/stoffer/esp8266/esp-open-sdk/sdk/lib/libnet80211.a(ieee80211_action_vendor.o)
 .rodata.str1.4
                0x000000003ffe93db        0x4 /home/stoffer/esp8266/esp-open-sdk/sdk/lib/libnet80211.a(ieee80211_ie_vendor.o)
 *fill*         0x000000003ffe93db        0x1 
 .rodata.str1.4
                0x000000003ffe93dc        0xd /home/stoffer/esp8266/esp-open-sdk/sdk/lib/libwpa.a(wpa_debug.o)
 .rodata.str1.4
                0x000000003ffe93e9        0xd /home/stoffer/esp8266/esp-open-sdk/sdk/lib/liblwip.a(espconn_tcp.o)
                                          0x1 (size before relaxing)
 *fill*         0x000000003ffe93e9        0x3 
 .rodata.str1.4
                0x000000003ffe93ec        0x4 /home/stoffer/esp8266/esp-open-sdk/sdk/lib/libpp.a(lmac.o)
                                          0xc (size before relaxing)
 .rodata.str1.4
                0x000000003ffe93f0        0x3 /home/stoffer/esp8266/esp-open-sdk/sdk/lib/libpp.a(pm.o)
                                          0xb (size before relaxing)
 *fill*         0x000000003ffe93f3        0x1 
 .rodata.str1.4
                0x000000003ffe93f4        0x4 /home/stoffer/esp8266/esp-open-sdk/sdk/lib/libpp.a(pm_for_bcn_only_mode.o)
                                          0xc (size before relaxing)
 .rodata.str1.4
                0x000000003ffe93f8        0x3 /home/stoffer/esp8266/esp-open-sdk/sdk/lib/libpp.a(pp.o)
                                         0x10 (size before relaxing)
 *fill*         0x000000003ffe93fb        0x1 
 .rodata.str1.4
                0x000000003ffe93fc        0x4 /home/stoffer/esp8266/esp-open-sdk/sdk/lib/libpp.a(wdev.o)
                                          0xc (size before relaxing)
 .rodata.str1.4
                0x000000003ffe9400      0x36b build/app_app.a(user_main.o)
                                        0x37f (size before relaxing)
 *fill*         0x000000003ffe976b        0x1 
 .rodata.str1.4
                0x000000003ffe976c       0x11 build/app_app.a(captdns.o)
 *fill*         0x000000003ffe977d        0x3 
 .rodata.str1.4
                0x000000003ffe9780       0xaa build/app_app.a(httpd_user_init.o)
                                         0xae (size before relaxing)
 *fill*         0x000000003ffe982a        0x2 
 .rodata.str1.4
                0x000000003ffe982c      0x33e build/app_app.a(httpd.o)
                                        0x34e (size before relaxing)
 *fill*         0x000000003ffe9b6a        0x2 
 .rodata.str1.4
                0x000000003ffe9b6c       0x2e build/app_app.a(crypto.o)
                                         0x3a (size before relaxing)
 *fill*         0x000000003ffe9b9a        0x2 
 .rodata.str1.4
                0x000000003ffe9b9c       0x11 build/app_app.a(sha256.o)
 *fill*         0x000000003ffe9bad        0x3 
 .rodata.str1.4
                0x000000003ffe9bb0       0xfb build/app_app.a(kmp_request.o)
                                        0x10b (size before relaxing)
 *fill*         0x000000003ffe9cab        0x1 
 .rodata.str1.4
                0x000000003ffe9cac       0x8c build/app_app.a(kmp.o)
                                         0x9c (size before relaxing)
 .rodata.str1.4
                0x000000003ffe9d38       0xb9 build/app_app.a(cron.o)
                                         0xe1 (size before relaxing)
 *fill*         0x000000003ffe9df1        0x3 
 .rodata.str1.4
                0x000000003ffe9df4       0x6c build/app_app.a(ac_out.o)
 .rodata.str1.4
                0x000000003ffe9e60      0x45b build/app_app.a(mqtt.o)
                                        0x45f (size before relaxing)
 *fill*         0x000000003ffea2bb        0x1 
 .rodata.str1.4
                0x000000003ffea2bc        0x7 build/app_app.a(mqtt_msg.o)
 .rodata.str1.4
                0x000000003ffea2c3        0x1 build/app_app.a(queue.o)
 *fill*         0x000000003ffea2c3        0x1 
 .rodata.str1.4
                0x000000003ffea2c4       0xab build/app_app.a(config.o)
                                         0xb3 (size before relaxing)
 *fill*         0x000000003ffea36f        0x1 
 .rodata.str1.4
                0x000000003ffea370       0x98 build/app_app.a(wifi.o)
                                         0x9c (size before relaxing)
 .rodata.str1.4
                0x000000003ffea408      0x198 build/app_app.a(watchdog.o)
 .rodata.str1.4
                0x000000003ffea5a0      0x279 build/app_app.a(cgiwifi.o)
                                        0x285 (size before relaxing)
 *fill*         0x000000003ffea819        0x3 
 .rodata.str1.4
                0x000000003ffea81c       0x20 build/app_app.a(unix_time.o)
 .rodata.str1.4
                0x000000003ffea83c       0x4c build/app_app.a(cgi.o)
                                         0x6c (size before relaxing)
 .rodata.str1.4
                0x000000003ffea888       0x32 build/app_app.a(httpdespfs.o)
                                         0x46 (size before relaxing)
 *fill*         0x000000003ffea8ba        0x2 
 .rodata.str1.4
                0x000000003ffea8bc       0x81 build/app_app.a(espfs.o)
                                         0x85 (size before relaxing)
 .rodata.str1.4
                0x000000003ffea93d        0x1 build/app_app.a(heatshrink_decoder.o)
 *fill*         0x000000003ffea93d        0x3 
 .rodata.str1.4
                0x000000003ffea940        0x8 build/app_app.a(utils.o)
                                          0xb (size before relaxing)
 .rodata.str1.4
                0x000000003ffea948       0x20 /home/stoffer/esp8266/esp-open-sdk/sdk/lib/liblwip.a(sntp.o)
 .rodata.str1.1
                0x000000003ffea968        0x2 /home/stoffer/esp8266/esp-open-sdk/xtensa-lx106-elf/lib/gcc/xtensa-lx106-elf/4.8.5/../../../../xtensa-lx106-elf/lib/libc.a(lib_a-impure.o)
 .rodata.str1.1
                0x000000003ffea96a        0x4 /home/stoffer/esp8266/esp-open-sdk/xtensa-lx106-elf/lib/gcc/xtensa-lx106-elf/4.8.5/../../../../xtensa-lx106-elf/lib/libc.a(lib_a-tzvars.o)
 *(.gnu.linkonce.r.*)
 *(.rodata1)
                0x000000003ffea96e                __XT_EXCEPTION_TABLE__ = ABSOLUTE (.)
 *(.xt_except_table)
 *(.gcc_except_table)
 *(.gnu.linkonce.e.*)
 *(.gnu.version_r)
 *(.eh_frame)
 *crtbegin.o(.ctors)
 *(EXCLUDE_FILE(*crtend.o) .ctors)
 *(SORT(.ctors.*))
 *(.ctors)
 *crtbegin.o(.dtors)
 *(EXCLUDE_FILE(*crtend.o) .dtors)
 *(SORT(.dtors.*))
 *(.dtors)
                0x000000003ffea96e                __XT_EXCEPTION_DESCS__ = ABSOLUTE (.)
 *(.xt_except_desc)
 *(.gnu.linkonce.h.*)
                0x000000003ffea96e                __XT_EXCEPTION_DESCS_END__ = ABSOLUTE (.)
 *(.xt_except_desc_end)
 *(.dynamic)
 *(.gnu.version_d)
                0x000000003ffea970                . = ALIGN (0x4)
 *fill*         0x000000003ffea96e        0x2 
                0x000000003ffea970                _bss_table_start = ABSOLUTE (.)
                0x000000003ffea970        0x4 LONG 0x3ffea978 _bss_start
                0x000000003ffea974        0x4 LONG 0x3fff4558 _bss_end
                0x000000003ffea978                _bss_table_end = ABSOLUTE (.)
                0x000000003ffea978                _rodata_end = ABSOLUTE (.)

.bss            0x000000003ffea978     0x9be0
                0x000000003ffea978                . = ALIGN (0x8)
                0x000000003ffea978                _bss_start = ABSOLUTE (.)
 *(.dynsbss)
 *(.sbss)
 *(.sbss.*)
 *(.gnu.linkonce.sb.*)
 *(.scommon)
 *(.sbss2)
 *(.sbss2.*)
 *(.gnu.linkonce.sb2.*)
 *(.dynbss)
 *(.bss)
 .bss           0x000000003ffea978        0x0 /home/stoffer/esp8266/esp-open-sdk/sdk/lib/libmain.a(debug-vector.o)
 .bss           0x000000003ffea978        0x0 /home/stoffer/esp8266/esp-open-sdk/sdk/lib/libmain.a(double-vector.o)
 .bss           0x000000003ffea978        0x0 /home/stoffer/esp8266/esp-open-sdk/sdk/lib/libmain.a(kernel-vector.o)
 *fill*         0x000000003ffea978        0x8 
 .bss           0x000000003ffea980      0x1c0 /home/stoffer/esp8266/esp-open-sdk/sdk/lib/libmain.a(nmi-vector.o)
 .bss           0x000000003ffeab40        0x0 /home/stoffer/esp8266/esp-open-sdk/sdk/lib/libmain.a(user-vector.o)
 .bss           0x000000003ffeab40        0x0 /home/stoffer/esp8266/esp-open-sdk/sdk/lib/libmain.a(vector.o)
 .bss           0x000000003ffeab40       0x45 /home/stoffer/esp8266/esp-open-sdk/sdk/lib/libmain.a(app_main.o)
                0x000000003ffeab44                info
                0x000000003ffeab68                freq_trace_enable
                0x000000003ffeab6a                lwip_timer_interval
                0x000000003ffeab6c                check_timeouts_timer
                0x000000003ffeab80                rf_cal_sec
                0x000000003ffeab84                user_init_flag
 *fill*         0x000000003ffeab85        0xb 
 .bss           0x000000003ffeab90       0x30 /home/stoffer/esp8266/esp-open-sdk/sdk/lib/libmain.a(ets_timer.o)
                0x000000003ffeab90                dbg_timer_flag
                0x000000003ffeab94                timer_list
                0x000000003ffeab98                debug_timer
                0x000000003ffeab9c                debug_timerfn
 .bss           0x000000003ffeabc0       0x3c /home/stoffer/esp8266/esp-open-sdk/sdk/lib/libmain.a(mem_manager.o)
 .bss           0x000000003ffeabfc        0x4 /home/stoffer/esp8266/esp-open-sdk/sdk/lib/libmain.a(spi_flash.o)
                0x000000003ffeabfc                flash_read
 .bss           0x000000003ffeac00      0x242 /home/stoffer/esp8266/esp-open-sdk/sdk/lib/libmain.a(user_interface.o)
                0x000000003ffeacf7                deep_sleep_flag
                0x000000003ffeacf8                cpu_overclock
                0x000000003ffeacfc                event_cb
                0x000000003ffead00                status_led_output_level
                0x000000003ffead04                done_cb
                0x000000003ffead08                rst_if
                0x000000003ffead24                default_interface
                0x000000003ffead25                OpmodChgIsOnGoing
                0x000000003ffead28                promiscuous_cb
                0x000000003ffead40                event_TaskQueue
 .bss           0x000000003ffeae42        0x0 /home/stoffer/esp8266/esp-open-sdk/sdk/lib/libmain.a(user_rf_cal_sector_set.o)
 .bss           0x000000003ffeae42        0x0 /home/stoffer/esp8266/esp-open-sdk/sdk/lib/libmain.a(eagle_lib.o)
 *fill*         0x000000003ffeae42        0x2 
 .bss           0x000000003ffeae44        0xc /home/stoffer/esp8266/esp-open-sdk/sdk/lib/libmain.a(eagle_lwip_if.o)
                0x000000003ffeae44                hostname
 .bss           0x000000003ffeae50      0x6a8 /home/stoffer/esp8266/esp-open-sdk/sdk/lib/libnet80211.a(ieee80211.o)
                0x000000003ffeae50                g_ic
 .bss           0x000000003ffeb4f8        0x0 /home/stoffer/esp8266/esp-open-sdk/sdk/lib/libnet80211.a(ieee80211_crypto.o)
 .bss           0x000000003ffeb4f8       0x54 /home/stoffer/esp8266/esp-open-sdk/sdk/lib/libnet80211.a(ieee80211_hostap.o)
                0x000000003ffeb4f8                BcnEb_update
                0x000000003ffeb505                BcnWithMcastSendStart
                0x000000003ffeb506                BcnWithMcastSendCnt
                0x000000003ffeb520                PendFreeBcnEb
                0x000000003ffeb524                ApFreqCalTimer
                0x000000003ffeb538                APRecvBcnStartTick
 .bss           0x000000003ffeb54c        0x0 /home/stoffer/esp8266/esp-open-sdk/sdk/lib/libnet80211.a(ieee80211_ht.o)
 .bss           0x000000003ffeb54c        0x0 /home/stoffer/esp8266/esp-open-sdk/sdk/lib/libnet80211.a(ieee80211_input.o)
 .bss           0x000000003ffeb54c        0x0 /home/stoffer/esp8266/esp-open-sdk/sdk/lib/libnet80211.a(ieee80211_mesh_quick.o)
 .bss           0x000000003ffeb54c        0x0 /home/stoffer/esp8266/esp-open-sdk/sdk/lib/libnet80211.a(ieee80211_output.o)
 .bss           0x000000003ffeb54c        0x0 /home/stoffer/esp8266/esp-open-sdk/sdk/lib/libnet80211.a(ieee80211_phy.o)
 .bss           0x000000003ffeb54c        0x0 /home/stoffer/esp8266/esp-open-sdk/sdk/lib/libnet80211.a(ieee80211_power.o)
 .bss           0x000000003ffeb54c        0x0 /home/stoffer/esp8266/esp-open-sdk/sdk/lib/libnet80211.a(ieee80211_proto.o)
 .bss           0x000000003ffeb54c        0x0 /home/stoffer/esp8266/esp-open-sdk/sdk/lib/libnet80211.a(ieee80211_regdomain.o)
 .bss           0x000000003ffeb54c        0x0 /home/stoffer/esp8266/esp-open-sdk/sdk/lib/libnet80211.a(ieee80211_rfid.o)
 .bss           0x000000003ffeb54c       0xc8 /home/stoffer/esp8266/esp-open-sdk/sdk/lib/libnet80211.a(ieee80211_scan.o)
                0x000000003ffeb54c                gScanStruct
                0x000000003ffeb5f8                connect_scan_flag
                0x000000003ffeb5f9                FreqCalCntForScan
                0x000000003ffeb5fa                TestStaFreqCalValInput
                0x000000003ffeb5fc                auth_type
                0x000000003ffeb5fe                scannum
 *fill*         0x000000003ffeb614        0x4 
 .bss           0x000000003ffeb618       0x28 /home/stoffer/esp8266/esp-open-sdk/sdk/lib/libnet80211.a(ieee80211_sta.o)
 .bss           0x000000003ffeb640       0x3c /home/stoffer/esp8266/esp-open-sdk/sdk/lib/libnet80211.a(wl_chm.o)
 *fill*         0x000000003ffeb67c        0x4 
 .bss           0x000000003ffeb680      0x394 /home/stoffer/esp8266/esp-open-sdk/sdk/lib/libnet80211.a(wl_cnx.o)
                0x000000003ffeb9e0                sta_con_timer
                0x000000003ffeb9f4                backup_ni_connect_status
                0x000000003ffeb9f8                g_cnx_probe_rc_list_cb
                0x000000003ffeb9fc                reconnect_flag
                0x000000003ffeb9fd                no_ap_found_index
 .bss           0x000000003ffeba14        0x0 /home/stoffer/esp8266/esp-open-sdk/sdk/lib/libnet80211.a(ieee80211_action.o)
 *fill*         0x000000003ffeba14        0x4 
 .bss           0x000000003ffeba18       0x18 /home/stoffer/esp8266/esp-open-sdk/sdk/lib/libnet80211.a(ieee80211_action_vendor.o)
 .bss           0x000000003ffeba30        0x0 /home/stoffer/esp8266/esp-open-sdk/sdk/lib/libnet80211.a(ieee80211_crypto_ccmp.o)
 .bss           0x000000003ffeba30        0x0 /home/stoffer/esp8266/esp-open-sdk/sdk/lib/libnet80211.a(ieee80211_ets.o)
 .bss           0x000000003ffeba30        0x0 /home/stoffer/esp8266/esp-open-sdk/sdk/lib/libnet80211.a(ieee80211_ie_vendor.o)
 .bss           0x000000003ffeba30        0x0 /home/stoffer/esp8266/esp-open-sdk/sdk/lib/libwpa.a(ap_config.o)
 .bss           0x000000003ffeba30        0x0 /home/stoffer/esp8266/esp-open-sdk/sdk/lib/libwpa.a(common.o)
 .bss           0x000000003ffeba30        0x0 /home/stoffer/esp8266/esp-open-sdk/sdk/lib/libwpa.a(os_xtensa.o)
 .bss           0x000000003ffeba30        0x0 /home/stoffer/esp8266/esp-open-sdk/sdk/lib/libwpa.a(wpa_auth.o)
 .bss           0x000000003ffeba30        0x0 /home/stoffer/esp8266/esp-open-sdk/sdk/lib/libwpa.a(wpa_auth_ie.o)
 .bss           0x000000003ffeba30      0x26a /home/stoffer/esp8266/esp-open-sdk/sdk/lib/libwpa.a(wpa.o)
 .bss           0x000000003ffebc9a        0x0 /home/stoffer/esp8266/esp-open-sdk/sdk/lib/libwpa.a(wpa_common.o)
 .bss           0x000000003ffebc9a        0x0 /home/stoffer/esp8266/esp-open-sdk/sdk/lib/libwpa.a(wpa_debug.o)
 .bss           0x000000003ffebc9a        0x0 /home/stoffer/esp8266/esp-open-sdk/sdk/lib/libwpa.a(wpa_ie.o)
 .bss           0x000000003ffebc9a        0x0 /home/stoffer/esp8266/esp-open-sdk/sdk/lib/libwpa.a(wpa_main.o)
 .bss           0x000000003ffebc9a        0x0 /home/stoffer/esp8266/esp-open-sdk/sdk/lib/libwpa.a(wpas_glue.o)
 .bss           0x000000003ffebc9a        0x0 /home/stoffer/esp8266/esp-open-sdk/sdk/lib/libwpa.a(aes-wrap.o)
 .bss           0x000000003ffebc9a        0x0 /home/stoffer/esp8266/esp-open-sdk/sdk/lib/libwpa.a(aes-internal-enc.o)
 .bss           0x000000003ffebc9a        0x0 /home/stoffer/esp8266/esp-open-sdk/sdk/lib/libwpa.a(aes-internal.o)
 *fill*         0x000000003ffebc9a        0x6 
 .bss           0x000000003ffebca0       0x38 /home/stoffer/esp8266/esp-open-sdk/sdk/lib/liblwip.a(dhcp.o)
                0x000000003ffebca0                dhcp_rx_options_given
                0x000000003ffebcb0                dhcp_rx_options_val
 .bss           0x000000003ffebcd8       0x24 /home/stoffer/esp8266/esp-open-sdk/sdk/lib/liblwip.a(dhcpserver.o)
 *fill*         0x000000003ffebcfc        0x4 
 .bss           0x000000003ffebd00      0x480 /home/stoffer/esp8266/esp-open-sdk/sdk/lib/liblwip.a(dns.o)
 .bss           0x000000003ffec180       0x78 /home/stoffer/esp8266/esp-open-sdk/sdk/lib/liblwip.a(espconn_tcp.o)
                0x000000003ffec180                espconn_TaskQueue
 *fill*         0x000000003ffec1f8        0x8 
 .bss           0x000000003ffec200      0x100 /home/stoffer/esp8266/esp-open-sdk/sdk/lib/liblwip.a(etharp.o)
                0x000000003ffec204                ethzero
 .bss           0x000000003ffec300        0x0 /home/stoffer/esp8266/esp-open-sdk/sdk/lib/liblwip.a(init.o)
 .bss           0x000000003ffec300       0x10 /home/stoffer/esp8266/esp-open-sdk/sdk/lib/liblwip.a(ip_addr.o)
 .bss           0x000000003ffec310       0x12 /home/stoffer/esp8266/esp-open-sdk/sdk/lib/liblwip.a(ip.o)
                0x000000003ffec310                current_iphdr_dest
                0x000000003ffec314                current_iphdr_src
                0x000000003ffec318                current_netif
                0x000000003ffec31c                current_header
 .bss           0x000000003ffec322        0x0 /home/stoffer/esp8266/esp-open-sdk/sdk/lib/liblwip.a(memp.o)
 *fill*         0x000000003ffec322        0x2 
 .bss           0x000000003ffec324        0x9 /home/stoffer/esp8266/esp-open-sdk/sdk/lib/liblwip.a(netif.o)
                0x000000003ffec324                netif_list
                0x000000003ffec328                netif_default
 .bss           0x000000003ffec32d        0x0 /home/stoffer/esp8266/esp-open-sdk/sdk/lib/liblwip.a(pbuf.o)
 *fill*         0x000000003ffec32d        0x3 
 .bss           0x000000003ffec330        0x4 /home/stoffer/esp8266/esp-open-sdk/sdk/lib/liblwip.a(raw.o)
 .bss           0x000000003ffec334       0x34 /home/stoffer/esp8266/esp-open-sdk/sdk/lib/liblwip.a(tcp_in.o)
                0x000000003ffec364                tcp_input_pcb
 .bss           0x000000003ffec368       0x1c /home/stoffer/esp8266/esp-open-sdk/sdk/lib/liblwip.a(tcp.o)
                0x000000003ffec36c                tcp_active_pcbs
                0x000000003ffec370                tcp_tmp_pcb
                0x000000003ffec374                tcp_tw_pcbs
                0x000000003ffec378                tcp_bound_pcbs
                0x000000003ffec37c                tcp_listen_pcbs
                0x000000003ffec380                tcp_ticks
 .bss           0x000000003ffec384        0x0 /home/stoffer/esp8266/esp-open-sdk/sdk/lib/liblwip.a(tcp_out.o)
 .bss           0x000000003ffec384        0xc /home/stoffer/esp8266/esp-open-sdk/sdk/lib/liblwip.a(timers.o)
 .bss           0x000000003ffec390        0x4 /home/stoffer/esp8266/esp-open-sdk/sdk/lib/liblwip.a(udp.o)
                0x000000003ffec390                udp_pcbs
 .bss           0x000000003ffec394        0x0 /home/stoffer/esp8266/esp-open-sdk/sdk/lib/liblwip.a(espconn_buf.o)
 *fill*         0x000000003ffec394        0xc 
 .bss           0x000000003ffec3a0      0x104 /home/stoffer/esp8266/esp-open-sdk/sdk/lib/liblwip.a(espconn.o)
                0x000000003ffec3a0                plink_active
                0x000000003ffec3a4                pserver_list
                0x000000003ffec3b0                premot
                0x000000003ffec470                pktinfo
 .bss           0x000000003ffec4a4        0x0 /home/stoffer/esp8266/esp-open-sdk/sdk/lib/liblwip.a(espconn_udp.o)
 .bss           0x000000003ffec4a4        0x0 /home/stoffer/esp8266/esp-open-sdk/sdk/lib/liblwip.a(icmp.o)
 .bss           0x000000003ffec4a4        0xc /home/stoffer/esp8266/esp-open-sdk/sdk/lib/liblwip.a(igmp.o)
 .bss           0x000000003ffec4b0        0x0 /home/stoffer/esp8266/esp-open-sdk/sdk/lib/liblwip.a(inet_chksum.o)
 .bss           0x000000003ffec4b0      0xaa4 /home/stoffer/esp8266/esp-open-sdk/sdk/lib/libpp.a(esf_buf.o)
 *fill*         0x000000003ffecf54        0xc 
 .bss           0x000000003ffecf60       0x40 /home/stoffer/esp8266/esp-open-sdk/sdk/lib/libpp.a(if_hwctrl.o)
                0x000000003ffecf60                interface_mask
                0x000000003ffecf80                if_ctrl
 .bss           0x000000003ffecfa0      0x150 /home/stoffer/esp8266/esp-open-sdk/sdk/lib/libpp.a(lmac.o)
                0x000000003ffecfa4                lmacConfMib
                0x000000003ffecfc8                our_tx_eb
 .bss           0x000000003ffed0f0      0x12a /home/stoffer/esp8266/esp-open-sdk/sdk/lib/libpp.a(pm.o)
                0x000000003ffed0f0                pmc
 *fill*         0x000000003ffed21a        0x2 
 .bss           0x000000003ffed21c       0x38 /home/stoffer/esp8266/esp-open-sdk/sdk/lib/libpp.a(pm_for_bcn_only_mode.o)
 *fill*         0x000000003ffed254        0xc 
 .bss           0x000000003ffed260      0x322 /home/stoffer/esp8266/esp-open-sdk/sdk/lib/libpp.a(pp.o)
                0x000000003ffed278                pend_flag_noise_check
                0x000000003ffed280                pend_flag_periodic_cal
                0x000000003ffed298                idle_timer_reopen_flag
                0x000000003ffed29a                dbg_stop_sw_wdt
                0x000000003ffed29b                dbg_stop_hw_wdt
                0x000000003ffed29d                total_buffed_eb_num
                0x000000003ffed2a0                HighestFreqOffsetInOneChk
                0x000000003ffed2a2                LowestFreqOffsetInOneChk
                0x000000003ffed2a4                DefFreqCalTimer
                0x000000003ffed2b8                PktNumInOneChk
                0x000000003ffed440                buffed_eb_arr
 *fill*         0x000000003ffed582        0xe 
 .bss           0x000000003ffed590      0x100 /home/stoffer/esp8266/esp-open-sdk/sdk/lib/libpp.a(rate_control.o)
 .bss           0x000000003ffed690      0x46c /home/stoffer/esp8266/esp-open-sdk/sdk/lib/libpp.a(trc.o)
 *fill*         0x000000003ffedafc        0x4 
 .bss           0x000000003ffedb00     0x2f88 /home/stoffer/esp8266/esp-open-sdk/sdk/lib/libpp.a(wdev.o)
                0x000000003ffedb00                wDevCtrl
                0x000000003ffedca8                WdevTimOffSet
 .bss           0x000000003fff0a88        0x4 /home/stoffer/esp8266/esp-open-sdk/sdk/lib/libphy.a(phy.o)
 .bss           0x000000003fff0a8c        0x2 /home/stoffer/esp8266/esp-open-sdk/sdk/lib/libphy.a(phy_chip_v6_ana.o)
                0x000000003fff0a8c                tout_dis_txpwr_track
                0x000000003fff0a8d                sleep_mode_flag
 *fill*         0x000000003fff0a8e        0x2 
 .bss           0x000000003fff0a90      0x153 /home/stoffer/esp8266/esp-open-sdk/sdk/lib/libphy.a(phy_chip_v6.o)
                0x000000003fff0a90                g_phyFuns
                0x000000003fff0a94                rxiq_compute_num
                0x000000003fff0a98                rx_table_renew_en
                0x000000003fff0a9c                check_result
                0x000000003fff0aa0                chip6_sleep_params
                0x000000003fff0b34                chip6_phy_init_ctrl
                0x000000003fff0ba8                phy_freq_offset
                0x000000003fff0baa                do_pwctrl_flag
                0x000000003fff0bab                txbk_dpdby_flag
                0x000000003fff0bad                sw_scan_mode
                0x000000003fff0bae                rxmax_ext_level
                0x000000003fff0bb0                phy_rx_gain_dc_table
                0x000000003fff0bc4                periodic_cal_flag
                0x000000003fff0bc5                bbpll_cal_flag
                0x000000003fff0bc6                phy_in_most_power
                0x000000003fff0bc7                init_rf_no_cal
                0x000000003fff0bc8                test_print_time
                0x000000003fff0bcc                phy_in_vdd33_offset
                0x000000003fff0bcd                phy_set_most_tpw_disbg
                0x000000003fff0bce                phy_set_most_tpw_index
                0x000000003fff0bd0                adc_rand_noise
                0x000000003fff0bd4                phy_rx_gain_dc_flag
                0x000000003fff0bd5                dpd_bypass_original
                0x000000003fff0bd6                phy_txpwr_diff_flash
                0x000000003fff0bd8                noise_array
 *fill*         0x000000003fff0be3        0x1 
 .bss           0x000000003fff0be4        0x9 /home/stoffer/esp8266/esp-open-sdk/sdk/lib/libphy.a(phy_chip_v6_cal.o)
                0x000000003fff0be4                phy_tx_power_out
                0x000000003fff0be6                phy_tx_pwr_error
                0x000000003fff0be8                tx_pwctrl_track_num
                0x000000003fff0be9                rxiq_cover_fail_num
                0x000000003fff0bea                phy_meas_freq_offset
                0x000000003fff0bec                tx_pwctrl_pk_num
 .bss           0x000000003fff0bed        0x0 /home/stoffer/esp8266/esp-open-sdk/sdk/lib/libphy.a(phy_chip_v6_unused.o)
 *fill*         0x000000003fff0bed        0x3 
 .bss           0x000000003fff0bf0        0x7 /home/stoffer/esp8266/esp-open-sdk/sdk/lib/libphy.a(phy_sleep.o)
                0x000000003fff0bf0                periodic_cal_sat
                0x000000003fff0bf2                lslp_mem_opt_8266
                0x000000003fff0bf4                software_slp_reject
                0x000000003fff0bf5                SDIO_slp_reject
                0x000000003fff0bf6                hardware_reject
 .bss           0x000000003fff0bf7        0x0 /home/stoffer/esp8266/esp-open-sdk/xtensa-lx106-elf/xtensa-lx106-elf/sysroot/usr/lib/libhal.a(int_asm--set_intclear.o)
 .bss           0x000000003fff0bf7        0x0 /home/stoffer/esp8266/esp-open-sdk/sdk/lib/libgcc.a(_modsi3.o)
 .bss           0x000000003fff0bf7        0x0 /home/stoffer/esp8266/esp-open-sdk/sdk/lib/libgcc.a(_ashrdi3.o)
 .bss           0x000000003fff0bf7        0x0 /home/stoffer/esp8266/esp-open-sdk/sdk/lib/libgcc.a(_mulsf3.o)
 .bss           0x000000003fff0bf7        0x0 /home/stoffer/esp8266/esp-open-sdk/sdk/lib/libgcc.a(_divsf3.o)
 .bss           0x000000003fff0bf7        0x0 /home/stoffer/esp8266/esp-open-sdk/sdk/lib/libgcc.a(_fixsfsi.o)
 .bss           0x000000003fff0bf7        0x0 /home/stoffer/esp8266/esp-open-sdk/xtensa-lx106-elf/lib/gcc/xtensa-lx106-elf/4.8.5/../../../../xtensa-lx106-elf/lib/libc.a(lib_a-memchr.o)
 *fill*         0x000000003fff0bf7        0x1 
 .bss           0x000000003fff0bf8       0x54 build/app_app.a(user_main.o)
                0x000000003fff0bf8                counter
 .bss           0x000000003fff0c4c       0x2c build/app_app.a(captdns.o)
 .bss           0x000000003fff0c78       0x14 build/app_app.a(led.o)
 .bss           0x000000003fff0c8c        0x0 build/app_app.a(httpd_user_init.o)
 .bss           0x000000003fff0c8c     0x21f4 build/app_app.a(httpd.o)
 .bss           0x000000003fff2e80        0x0 build/app_app.a(crypto.o)
 .bss           0x000000003fff2e80        0x0 build/app_app.a(sha256.o)
 .bss           0x000000003fff2e80       0xbc build/app_app.a(aes.o)
 .bss           0x000000003fff2f3c       0x44 build/app_app.a(kmp_request.o)
                0x000000003fff2f3c                kmp_serial
 .bss           0x000000003fff2f80        0x0 build/app_app.a(kmp.o)
 .bss           0x000000003fff2f80       0x14 build/app_app.a(cron.o)
 .bss           0x000000003fff2f94       0x3c build/app_app.a(ac_out.o)
 .bss           0x000000003fff2fd0        0x0 build/app_app.a(uart.o)
 .bss           0x000000003fff2fd0        0x8 build/app_app.a(mqtt.o)
                0x000000003fff2fd0                default_private_key_len
                0x000000003fff2fd4                default_certificate_len
 .bss           0x000000003fff2fd8        0x0 build/app_app.a(mqtt_msg.o)
 .bss           0x000000003fff2fd8        0x0 build/app_app.a(queue.o)
 .bss           0x000000003fff2fd8        0x0 build/app_app.a(mqtt_utils.o)
 .bss           0x000000003fff2fd8        0x0 build/app_app.a(proto.o)
 .bss           0x000000003fff2fd8       0x14 build/app_app.a(config.o)
 .bss           0x000000003fff2fec       0x38 build/app_app.a(wifi.o)
                0x000000003fff2fec                get_rssi_running
                0x000000003fff2fed                wifi_scan_runnning
                0x000000003fff2fee                wifi_fallback_last_present
                0x000000003fff2fef                wifi_fallback_present
                0x000000003fff2ff0                wifi_present
                0x000000003fff2ff4                wifi_cb
 .bss           0x000000003fff3024       0x3c build/app_app.a(watchdog.o)
 .bss           0x000000003fff3060       0x14 build/app_app.a(cgiwifi.o)
 .bss           0x000000003fff3074        0x8 build/app_app.a(tinyprintf.o)
 .bss           0x000000003fff307c       0x30 build/app_app.a(unix_time.o)
                0x000000003fff307c                ntp_offline_second_counter
                0x000000003fff3080                init_time
 .bss           0x000000003fff30ac        0x5 build/app_app.a(cgi.o)
 .bss           0x000000003fff30b1        0x0 build/app_app.a(httpdespfs.o)
 .bss           0x000000003fff30b1        0x0 build/app_app.a(espfs.o)
 .bss           0x000000003fff30b1        0x0 build/app_app.a(heatshrink_decoder.o)
 .bss           0x000000003fff30b1        0x0 build/app_app.a(utils.o)
 .bss           0x000000003fff30b1        0x0 build/app_app.a(hmac-sha256.o)
 .bss           0x000000003fff30b1        0x0 build/app_app.a(gpio16.o)
 .bss           0x000000003fff30b1        0x0 build/app_app.a(ringbuf.o)
 *fill*         0x000000003fff30b1        0x7 
 .bss           0x000000003fff30b8        0x8 /home/stoffer/esp8266/esp-open-sdk/sdk/lib/libnet80211.a(ieee80211_crypto_tkip.o)
 .bss           0x000000003fff30c0        0x0 /home/stoffer/esp8266/esp-open-sdk/sdk/lib/libnet80211.a(ieee80211_crypto_wep.o)
 .bss           0x000000003fff30c0      0x128 /home/stoffer/esp8266/esp-open-sdk/sdk/lib/liblwip.a(sntp.o)
                0x000000003fff30c0                res_buf
                0x000000003fff30e4                __tzyear
                0x000000003fff30e8                __tznorth
                0x000000003fff3120                sntp__tzrule
                0x000000003fff3160                reult
 .bss           0x000000003fff31e8        0x0 /home/stoffer/esp8266/esp-open-sdk/xtensa-lx106-elf/lib/gcc/xtensa-lx106-elf/4.8.5/../../../../xtensa-lx106-elf/lib/libc.a(lib_a-atoi.o)
 .bss           0x000000003fff31e8        0x0 /home/stoffer/esp8266/esp-open-sdk/xtensa-lx106-elf/lib/gcc/xtensa-lx106-elf/4.8.5/../../../../xtensa-lx106-elf/lib/libc.a(lib_a-gmtime.o)
 .bss           0x000000003fff31e8        0x0 /home/stoffer/esp8266/esp-open-sdk/xtensa-lx106-elf/lib/gcc/xtensa-lx106-elf/4.8.5/../../../../xtensa-lx106-elf/lib/libc.a(lib_a-gmtime_r.o)
 .bss           0x000000003fff31e8        0x0 /home/stoffer/esp8266/esp-open-sdk/xtensa-lx106-elf/lib/gcc/xtensa-lx106-elf/4.8.5/../../../../xtensa-lx106-elf/lib/libc.a(lib_a-impure.o)
 .bss           0x000000003fff31e8        0x0 /home/stoffer/esp8266/esp-open-sdk/xtensa-lx106-elf/lib/gcc/xtensa-lx106-elf/4.8.5/../../../../xtensa-lx106-elf/lib/libc.a(lib_a-memcpy.o)
 .bss           0x000000003fff31e8        0x0 /home/stoffer/esp8266/esp-open-sdk/xtensa-lx106-elf/lib/gcc/xtensa-lx106-elf/4.8.5/../../../../xtensa-lx106-elf/lib/libc.a(lib_a-memset.o)
 .bss           0x000000003fff31e8        0x0 /home/stoffer/esp8266/esp-open-sdk/xtensa-lx106-elf/lib/gcc/xtensa-lx106-elf/4.8.5/../../../../xtensa-lx106-elf/lib/libc.a(lib_a-mktm_r.o)
 .bss           0x000000003fff31e8        0x0 /home/stoffer/esp8266/esp-open-sdk/xtensa-lx106-elf/lib/gcc/xtensa-lx106-elf/4.8.5/../../../../xtensa-lx106-elf/lib/libc.a(lib_a-strcat.o)
 .bss           0x000000003fff31e8        0x0 /home/stoffer/esp8266/esp-open-sdk/xtensa-lx106-elf/lib/gcc/xtensa-lx106-elf/4.8.5/../../../../xtensa-lx106-elf/lib/libc.a(lib_a-strlen.o)
 .bss           0x000000003fff31e8        0x0 /home/stoffer/esp8266/esp-open-sdk/xtensa-lx106-elf/lib/gcc/xtensa-lx106-elf/4.8.5/../../../../xtensa-lx106-elf/lib/libc.a(lib_a-strtok.o)
 .bss           0x000000003fff31e8        0x0 /home/stoffer/esp8266/esp-open-sdk/xtensa-lx106-elf/lib/gcc/xtensa-lx106-elf/4.8.5/../../../../xtensa-lx106-elf/lib/libc.a(lib_a-strtok_r.o)
 .bss           0x000000003fff31e8        0x0 /home/stoffer/esp8266/esp-open-sdk/xtensa-lx106-elf/lib/gcc/xtensa-lx106-elf/4.8.5/../../../../xtensa-lx106-elf/lib/libc.a(lib_a-strtol.o)
 .bss           0x000000003fff31e8        0x0 /home/stoffer/esp8266/esp-open-sdk/xtensa-lx106-elf/lib/gcc/xtensa-lx106-elf/4.8.5/../../../../xtensa-lx106-elf/lib/libc.a(lib_a-tzlock.o)
 .bss           0x000000003fff31e8        0x8 /home/stoffer/esp8266/esp-open-sdk/xtensa-lx106-elf/lib/gcc/xtensa-lx106-elf/4.8.5/../../../../xtensa-lx106-elf/lib/libc.a(lib_a-tzvars.o)
                0x000000003fff31e8                _timezone
                0x000000003fff31ec                _daylight
 .bss           0x000000003fff31f0        0x0 /home/stoffer/esp8266/esp-open-sdk/xtensa-lx106-elf/lib/gcc/xtensa-lx106-elf/4.8.5/../../../../xtensa-lx106-elf/lib/libc.a(lib_a-ctype_.o)
 .bss           0x000000003fff31f0        0x0 /home/stoffer/esp8266/esp-open-sdk/xtensa-lx106-elf/lib/gcc/xtensa-lx106-elf/4.8.5/../../../../xtensa-lx106-elf/lib/libc.a(lib_a-gettzinfo.o)
 .bss           0x000000003fff31f0       0x1c /home/stoffer/esp8266/esp-open-sdk/sdk/lib/libmain.a(time.o)
 .bss           0x000000003fff320c        0x0 /home/stoffer/esp8266/esp-open-sdk/xtensa-lx106-elf/lib/gcc/xtensa-lx106-elf/4.8.5/../../../../xtensa-lx106-elf/lib/libc.a(lib_a-sysgettod.o)
 *(.bss.*)
 *(.gnu.linkonce.b.*)
 *(COMMON)
 COMMON         0x000000003fff320c      0x2d4 build/app_app.a(user_main.o)
                0x000000003fff320c                mqtt_client
                0x000000003fff32dc                rtc_info
                0x000000003fff32e0                kmp_received_task_queue
 COMMON         0x000000003fff34e0       0x40 build/app_app.a(crypto.o)
                0x000000003fff34e0                hmac_sha256_key
                0x000000003fff34f0                aes_key
                0x000000003fff3500                sha256_hash
 COMMON         0x000000003fff3520      0x58c build/app_app.a(kmp_request.o)
                0x000000003fff3520                response
                0x000000003fff358c                fifo_buffer
                0x000000003fff368c                frame_length
                0x000000003fff3690                fifo_head
                0x000000003fff3694                kmp_requests_sent
                0x000000003fff3698                fifo_tail
                0x000000003fff369c                register_list
                0x000000003fff36ac                frame
 COMMON         0x000000003fff3aac       0x10 build/app_app.a(kmp.o)
                0x000000003fff3aac                kmp_response
                0x000000003fff3ab0                kmp_data_length
                0x000000003fff3ab4                kmp_frame_length
                0x000000003fff3ab8                kmp_frame
 COMMON         0x000000003fff3abc        0x1 build/app_app.a(cron.o)
                0x000000003fff3abc                sec_drift
 *fill*         0x000000003fff3abd        0x3 
 COMMON         0x000000003fff3ac0        0x4 build/app_app.a(ac_out.o)
                0x000000003fff3ac0                ac_pwm_duty_cycle
 COMMON         0x000000003fff3ac4       0x10 build/app_app.a(mqtt.o)
                0x000000003fff3ac4                default_private_key
                0x000000003fff3ac8                default_certificate
                0x000000003fff3acc                mqtt_procTaskQueue
 COMMON         0x000000003fff3ad4        0xc build/app_app.a(queue.o)
                0x000000003fff3ad4                last_fill_cnt
                0x000000003fff3ad8                last_rb_p_r
                0x000000003fff3adc                last_rb_p_w
 COMMON         0x000000003fff3ae0      0xa40 build/app_app.a(config.o)
                0x000000003fff3ae0                sys_cfg
                0x000000003fff4518                config_save_timer_running
                0x000000003fff451c                saveFlag
 COMMON         0x000000003fff4520        0x8 build/app_app.a(wifi.o)
                0x000000003fff4520                config_ssid
                0x000000003fff4524                config_pass
 COMMON         0x000000003fff4528       0x14 build/app_app.a(watchdog.o)
                0x000000003fff4528                watchdog_list_len
                0x000000003fff452c                watchdog_list
 COMMON         0x000000003fff453c        0xc build/app_app.a(cgiwifi.o)
                0x000000003fff453c                cgiWifiAps
 COMMON         0x000000003fff4548       0x10 build/app_app.a(unix_time.o)
                0x000000003fff4548                current_unix_time
                0x000000003fff4550                boot_time
                0x000000003fff4558                . = ALIGN (0x8)
                0x000000003fff4558                _bss_end = ABSOLUTE (.)
                0x000000003fff4558                _heap_start = ABSOLUTE (.)

.irom0.text     0x0000000040210000    0x38bfc
                0x0000000040210000                _irom0_text_start = ABSOLUTE (.)
 *libmbedtls.a:(.literal .text .literal.* .text.*)
 *(.irom0.literal .irom.literal .irom.text.literal .irom0.text .irom.text)
 .irom0.text    0x0000000040210000      0xce5 /home/stoffer/esp8266/esp-open-sdk/sdk/lib/libmain.a(app_main.o)
                                        0xf3d (size before relaxing)
                0x00000000402102d4                wdt_init
                0x000000004021037c                user_uart_wait_tx_fifo_empty
                0x0000000040210630                user_rf_pre_init
                0x0000000040210638                system_phy_freq_trace_enable
                0x0000000040210650                flash_data_check
 *fill*         0x0000000040210ce5        0x3 
 .irom0.text    0x0000000040210ce8      0x186 /home/stoffer/esp8266/esp-open-sdk/sdk/lib/libmain.a(ets_timer.o)
                                        0x1b2 (size before relaxing)
                0x0000000040210cf0                ets_timer_done
                0x0000000040210d3c                ets_timer_handler_isr
                0x0000000040210e0c                ets_timer_init
 *fill*         0x0000000040210e6e        0x2 
 .irom0.text    0x0000000040210e70       0xf0 /home/stoffer/esp8266/esp-open-sdk/sdk/lib/libmain.a(mem_manager.o)
                                         0xf8 (size before relaxing)
                0x0000000040210e70                check_memleak_debug_enable
                0x0000000040210ee0                xPortGetFreeHeapSize
                0x0000000040210ee8                vPortInitialiseBlocks
 .irom0.text    0x0000000040210f60        0xb /home/stoffer/esp8266/esp-open-sdk/sdk/lib/libmain.a(spi_flash.o)
                0x0000000040210f64                spi_flash_set_read_func
 *fill*         0x0000000040210f6b        0x1 
 .irom0.text    0x0000000040210f6c     0x3d2d /home/stoffer/esp8266/esp-open-sdk/sdk/lib/libmain.a(user_interface.o)
                                       0x48dd (size before relaxing)
                0x0000000040210f70                system_set_os_print
                0x0000000040210f80                system_get_os_print
                0x0000000040211148                system_pp_recycle_rx_pkt
                0x0000000040211164                system_adc_read
                0x00000000402111a4                system_adc_read_fast
                0x0000000040211204                system_get_vdd33
                0x0000000040211230                system_restart_hook
                0x0000000040211248                system_restart_local
                0x0000000040211328                system_restart
                0x0000000040211388                system_restore
                0x00000000402113f0                system_get_flash_size_map
                0x0000000040211410                system_get_boot_version
                0x0000000040211448                system_get_test_result
                0x0000000040211470                system_get_userbin_addr
                0x0000000040211508                system_get_boot_mode
                0x0000000040211538                system_restart_enhance
                0x00000000402116e4                system_upgrade_userbin_set
                0x0000000040211730                system_upgrade_userbin_check
                0x0000000040211770                system_upgrade_flag_set
                0x0000000040211784                system_upgrade_flag_check
                0x00000000402117ac                system_upgrade_reboot
                0x000000004021190c                system_deep_sleep_instant
                0x0000000040211aa4                system_deep_sleep
                0x0000000040211b04                system_deep_sleep_set_option
                0x0000000040211b20                system_phy_temperature_alert
                0x0000000040211b34                system_phy_set_max_tpw
                0x0000000040211b48                system_phy_set_tpw_via_vdd33
                0x0000000040211b5c                system_phy_set_rfoption
                0x0000000040211b70                system_phy_set_powerup_option
                0x0000000040211b88                system_update_cpu_freq
                0x0000000040211be4                system_get_cpu_freq
                0x0000000040211bfc                system_overclock
                0x0000000040211c28                system_restoreclock
                0x0000000040211c58                system_timer_reinit
                0x0000000040211c70                system_relative_time
                0x0000000040211c94                system_station_got_ip_set
                0x0000000040211dc0                system_print_meminfo
                0x0000000040211e20                system_get_free_heap_size
                0x0000000040211e34                system_get_chip_id
                0x0000000040211e58                system_rtc_clock_cali_proc
                0x0000000040211e6c                system_get_rtc_time
                0x0000000040211e80                system_mktime
                0x0000000040211f50                system_init_done_cb
                0x0000000040211f58                system_get_rst_info
                0x0000000040211f60                system_get_data_of_array_8
                0x0000000040211f84                system_get_data_of_array_16
                0x0000000040211fac                system_get_string_from_flash
                0x0000000040212018                wifi_softap_dhcps_start
                0x0000000040212060                wifi_softap_dhcps_stop
                0x00000000402120a0                wifi_softap_dhcps_status
                0x00000000402120a8                wifi_station_dhcpc_start
                0x0000000040212100                wifi_station_dhcpc_stop
                0x0000000040212140                wifi_station_dhcpc_event
                0x00000000402121b4                wifi_station_dhcpc_set_maxtry
                0x00000000402121c4                wifi_station_dhcpc_status
                0x0000000040212244                wifi_get_opmode
                0x0000000040212258                wifi_get_opmode_default
                0x00000000402122d4                wifi_get_broadcast_if
                0x0000000040212310                wifi_set_broadcast_if
                0x000000004021248c                wifi_set_opmode
                0x00000000402124a0                wifi_set_opmode_current
                0x00000000402124b4                system_get_checksum
                0x00000000402124fc                wifi_param_save_protect_with_check
                0x00000000402125bc                system_param_save_with_protect
                0x0000000040212670                system_save_sys_param
                0x000000004021269c                system_param_load
                0x00000000402127d8                wifi_station_get_config
                0x00000000402127ec                wifi_station_get_config_default
                0x000000004021280c                wifi_station_get_ap_info
                0x00000000402128c4                wifi_station_ap_number_set
                0x0000000040212d7c                wifi_station_set_config
                0x0000000040212d94                wifi_station_set_config_current
                0x0000000040212dac                wifi_station_restore_config
                0x0000000040212dc4                wifi_station_get_current_ap_id
                0x0000000040212dd8                wifi_station_ap_check
                0x0000000040212e28                wifi_station_ap_change
                0x0000000040212f40                wifi_station_scan
                0x0000000040212f8c                wifi_station_get_auto_connect
                0x0000000040212fac                wifi_station_set_auto_connect
                0x0000000040213064                wifi_station_save_pmk2cache
                0x0000000040213194                wifi_station_save_bssid
                0x0000000040213234                wifi_station_connect
                0x00000000402132c8                wifi_station_disconnect
                0x0000000040213388                wifi_station_get_connect_status
                0x00000000402133b8                wifi_station_set_reconnect_policy
                0x00000000402133d0                wifi_station_get_reconnect_policy
                0x00000000402133d8                wifi_station_get_rssi
                0x0000000040213428                wifi_station_set_default_hostname
                0x0000000040213490                wifi_station_get_hostname
                0x00000000402134c0                wifi_station_set_hostname
                0x0000000040213560                wifi_softap_cacl_mac
                0x00000000402135d0                wifi_softap_set_default_ssid
                0x00000000402137b0                wifi_softap_get_config
                0x00000000402137c4                wifi_softap_get_config_default
                0x0000000040213b00                wifi_softap_set_config
                0x0000000040213b14                wifi_softap_set_config_current
                0x0000000040213b28                wifi_softap_set_station_info
                0x0000000040213b98                wifi_softap_get_station_info
                0x0000000040213c44                wifi_softap_free_station_info
                0x0000000040213c84                wifi_softap_get_station_num
                0x0000000040213cd8                wifi_softap_deauth
                0x0000000040213d88                wifi_softap_get_beacon_only_mode
                0x0000000040213d9c                wifi_softap_set_beacon_only_mode
                0x0000000040213e00                wifi_register_user_ie_manufacturer_recv_cb
                0x0000000040213e14                wifi_unregister_user_ie_manufacturer_recv_cb
                0x0000000040213e44                wifi_set_user_ie
                0x0000000040213f54                wifi_get_user_ie
                0x0000000040213f88                wifi_get_phy_mode
                0x0000000040213f9c                wifi_set_phy_mode
                0x0000000040214150                wifi_check_regdomain_param
                0x00000000402141d4                wifi_regdomain_need_update
                0x00000000402142b0                wifi_set_regdomain
                0x00000000402143e8                wifi_get_regdomain
                0x0000000040214498                wifi_set_sleep_type
                0x00000000402144b8                wifi_enable_gpio_wakeup
                0x00000000402144e4                wifi_disable_gpio_wakeup
                0x00000000402144fc                wifi_get_sleep_type
                0x0000000040214514                wifi_get_channel
                0x000000004021452c                wifi_set_channel
                0x0000000040214584                wifi_promiscuous_set_mac
                0x00000000402145e4                wifi_promiscuous_enable
                0x00000000402146c8                wifi_set_promiscuous_rx_cb
                0x00000000402146d8                wifi_get_ip_info
                0x0000000040214758                wifi_set_ip_info
                0x00000000402147cc                wifi_get_macaddr
                0x000000004021482c                wifi_set_macaddr
                0x0000000040214948                wifi_enable_6m_rate
                0x0000000040214950                wifi_get_user_fixed_rate
                0x0000000040214970                wifi_set_user_fixed_rate
                0x0000000040214990                wifi_set_user_sup_rate
                0x00000000402149cc                wifi_set_user_rate_limit
                0x00000000402149f0                wifi_get_user_limit_rate_mask
                0x00000000402149f8                wifi_set_user_limit_rate_mask
                0x0000000040214a10                wifi_register_send_pkt_freedom_cb
                0x0000000040214a24                wifi_unregister_send_pkt_freedom_cb
                0x0000000040214a30                wifi_send_pkt_freedom
                0x0000000040214a7c                wifi_rfid_locp_recv_open
                0x0000000040214a90                wifi_rfid_locp_recv_close
                0x0000000040214aa4                wifi_register_rfid_locp_recv_cb
                0x0000000040214ab8                wifi_unregister_rfid_locp_recv_cb
                0x0000000040214ad0                wifi_status_led_install
                0x0000000040214b04                wifi_status_led_uninstall
                0x0000000040214b28                wifi_set_status_led_output_level
                0x0000000040214b7c                wifi_set_event_handler_cb
                0x0000000040214bc4                system_os_task
                0x0000000040214c00                system_uart_swap
                0x0000000040214c60                system_uart_de_swap
                0x0000000040214c94                system_get_sdk_version
 *fill*         0x0000000040214c99        0x3 
 .irom0.text    0x0000000040214c9c      0x610 /home/stoffer/esp8266/esp-open-sdk/sdk/lib/libmain.a(eagle_lib.o)
                                        0x620 (size before relaxing)
                0x0000000040214ca0                divide
                0x0000000040214cdc                skip_atoi
                0x0000000040214e5c                ets_vsnprintf
                0x00000000402151bc                ets_vsprintf
                0x00000000402151e0                ets_sprintf
                0x0000000040215208                ets_strcat
                0x0000000040215228                ets_strrchr
                0x0000000040215254                ets_strchr
                0x000000004021526c                bit_popcount
                0x0000000040215288                ets_snprintf
 .irom0.text    0x00000000402152ac      0x31e /home/stoffer/esp8266/esp-open-sdk/sdk/lib/libmain.a(eagle_lwip_if.o)
                                        0x3e6 (size before relaxing)
                0x0000000040215364                eagle_lwip_if_alloc
                0x0000000040215524                eagle_lwip_if_free
                0x00000000402155a8                eagle_lwip_getif
 *fill*         0x00000000402155ca        0x2 
 .irom0.text    0x00000000402155cc      0x481 /home/stoffer/esp8266/esp-open-sdk/sdk/lib/libnet80211.a(ieee80211.o)
                                        0x545 (size before relaxing)
                0x0000000040215658                ieee80211_rate_ref_init
                0x0000000040215670                ieee80211_freedom_inside_cb
                0x00000000402156a0                ieee80211_freedom_init
                0x00000000402156c4                ieee80211_user_ie_init
                0x00000000402156e0                ieee80211_ifattach
                0x0000000040215744                ieee80211_mhz2ieee
                0x00000000402157a0                ieee80211_chan2ieee
                0x00000000402157bc                ieee80211_ieee2mhz
                0x00000000402157fc                ieee80211_find_channel
                0x0000000040215828                ieee80211_find_channel_byieee
                0x0000000040215878                wifi_mode_set
 *fill*         0x0000000040215a4d        0x3 
 .irom0.text    0x0000000040215a50       0xcf /home/stoffer/esp8266/esp-open-sdk/sdk/lib/libnet80211.a(ieee80211_crypto.o)
                                         0xd7 (size before relaxing)
                0x0000000040215a50                ieee80211_crypto_attach
                0x0000000040215a54                ieee80211_crypto_available
                0x0000000040215a58                ieee80211_crypto_setkey
                0x0000000040215a5c                ieee80211_crypto_encap
                0x0000000040215ab4                ieee80211_crypto_decap
 *fill*         0x0000000040215b1f        0x1 
 .irom0.text    0x0000000040215b20     0x1a1c /home/stoffer/esp8266/esp-open-sdk/sdk/lib/libnet80211.a(ieee80211_hostap.o)
                                       0x1f3b (size before relaxing)
                0x0000000040216170                ieee80211_hostap_attach
                0x000000004021626c                hostap_handle_timer
                0x0000000040216304                hostap_input
                0x000000004021721c                wifi_softap_start
                0x00000000402173a0                wifi_softap_stop
 *fill*         0x000000004021753c        0x0 
 .irom0.text    0x000000004021753c      0xa7e /home/stoffer/esp8266/esp-open-sdk/sdk/lib/libnet80211.a(ieee80211_ht.o)
                                        0xb36 (size before relaxing)
                0x000000004021754c                ieee80211_ht_attach
                0x000000004021759c                ieee80211_ht_node_init
                0x00000000402175dc                ieee80211_ht_node_cleanup
                0x0000000040217614                ieee80211_parse_htcap
                0x000000004021770c                ieee80211_ht_updateparams
                0x0000000040217820                ieee80211_setup_htrates
                0x00000000402178ec                ieee80211_setup_basic_htrates
                0x0000000040217c24                ieee80211_add_htcap
                0x0000000040217c40                ieee80211_add_htcap_vendor
                0x0000000040217d60                ieee80211_add_htinfo
                0x0000000040217d7c                ieee80211_add_htinfo_vendor
 *fill*         0x0000000040217fba        0x2 
 .irom0.text    0x0000000040217fbc      0xae0 /home/stoffer/esp8266/esp-open-sdk/sdk/lib/libnet80211.a(ieee80211_input.o)
                                        0xb70 (size before relaxing)
                0x0000000040217fbc                ieee80211_deliver_data
                0x0000000040218010                ieee80211_decap
                0x0000000040218114                ieee80211_setup_rates
                0x0000000040218184                ieee80211_alloc_challenge
                0x00000000402181c4                ieee80211_parse_beacon
                0x00000000402187e8                ieee80211_parse_wpa
                0x00000000402188fc                ieee80211_parse_rsn
                0x00000000402189fc                ieee80211_parse_action
                0x0000000040218a98                ieee80211_setup_rateset
 .irom0.text    0x0000000040218a9c      0x2a6 /home/stoffer/esp8266/esp-open-sdk/sdk/lib/libnet80211.a(ieee80211_mesh_quick.o)
                                        0x302 (size before relaxing)
                0x0000000040218aa8                ieee80211_mesh_quick_init
                0x0000000040218b18                ieee80211_mesh_quick_deinit
                0x0000000040218b48                ieee80211_mesh_quick_set
                0x0000000040218c44                ieee80211_mesh_quick_get
                0x0000000040218d10                ieee80211_mesh_quick_ie_add
 *fill*         0x0000000040218d42        0x2 
 .irom0.text    0x0000000040218d44     0x1e68 /home/stoffer/esp8266/esp-open-sdk/sdk/lib/libnet80211.a(ieee80211_output.o)
                                       0x220c (size before relaxing)
                0x0000000040218d60                ieee80211_output_pbuf
                0x0000000040218fd0                ieee80211_send_setup
                0x0000000040219104                ieee80211_mgmt_output
                0x00000000402191ec                ieee80211_tx_mgt_cb
                0x00000000402191f4                ieee80211_send_nulldata
                0x0000000040219664                ieee80211_add_rates
                0x00000000402196b4                ieee80211_add_xrates
                0x00000000402197e4                ieee80211_send_probereq
                0x0000000040219a54                ieee80211_getcapinfo
                0x0000000040219ab0                ieee80211_send_mgmt
                0x000000004021a05c                ieee80211_alloc_proberesp
                0x000000004021a2c8                ieee80211_send_proberesp
                0x000000004021a410                ieee80211_alloc_deauth
                0x000000004021a450                ieee80211_send_deauth
                0x000000004021a58c                ieee80211_freedom_output
                0x000000004021a9d0                ieee80211_beacon_alloc
 .irom0.text    0x000000004021abac       0xe0 /home/stoffer/esp8266/esp-open-sdk/sdk/lib/libnet80211.a(ieee80211_phy.o)
                                        0x108 (size before relaxing)
                0x000000004021abac                ieee80211_phy_init
                0x000000004021abe0                ieee80211_phy_type_get
                0x000000004021abfc                ieee80211_setup_ratetable
 .irom0.text    0x000000004021ac8c      0x1b6 /home/stoffer/esp8266/esp-open-sdk/sdk/lib/libnet80211.a(ieee80211_power.o)
                                        0x1f2 (size before relaxing)
                0x000000004021ac8c                ieee80211_psq_init
                0x000000004021acac                ieee80211_psq_cleanup
                0x000000004021acb4                ieee80211_set_tim
                0x000000004021acf4                ieee80211_pwrsave
                0x000000004021ad5c                pwrsave_flushq
                0x000000004021ae0c                ieee80211_node_pwrsave
 *fill*         0x000000004021ae42        0x2 
 .irom0.text    0x000000004021ae44      0x121 /home/stoffer/esp8266/esp-open-sdk/sdk/lib/libnet80211.a(ieee80211_proto.o)
                                        0x159 (size before relaxing)
                0x000000004021ae48                ieee80211_proto_attach
                0x000000004021ae70                ieee80211_set_shortslottime
                0x000000004021ae8c                ieee80211_iserp_rateset
                0x000000004021aec0                ieee80211_wme_initparams
                0x000000004021aec4                ieee80211_wme_updateparams
                0x000000004021aecc                ieee80211_mlme_connect_bss
 *fill*         0x000000004021af65        0x3 
 .irom0.text    0x000000004021af68      0x1bc /home/stoffer/esp8266/esp-open-sdk/sdk/lib/libnet80211.a(ieee80211_regdomain.o)
                                        0x1dc (size before relaxing)
                0x000000004021af68                ieee80211_regdomain_attach
                0x000000004021af70                ieee80211_regdomain_detach
                0x000000004021af98                ieee80211_alloc_countryie
                0x000000004021b038                ieee80211_chan_in_regdomain
                0x000000004021b07c                ieee80211_update_regdomain
 .irom0.text    0x000000004021b124       0xb2 /home/stoffer/esp8266/esp-open-sdk/sdk/lib/libnet80211.a(ieee80211_rfid.o)
                                         0xd6 (size before relaxing)
                0x000000004021b128                ieee80211_rfid_locp_recv_open
                0x000000004021b164                ieee80211_rfid_locp_recv_close
                0x000000004021b17c                ieee80211_rfid_locp_recv_reset
                0x000000004021b19c                ieee80211_rfid_locp_recv
                0x000000004021b1b8                register_ieee80211_rfid_locp_recv_cb
                0x000000004021b1cc                unregister_ieee80211_rfid_locp_recv_cb
 *fill*         0x000000004021b1d6        0x2 
 .irom0.text    0x000000004021b1d8      0xf51 /home/stoffer/esp8266/esp-open-sdk/sdk/lib/libnet80211.a(ieee80211_scan.o)
                                       0x129d (size before relaxing)
                0x000000004021b1e4                ieee80211_scan_attach
                0x000000004021b278                scan_start
                0x000000004021b438                scan_pm_channel_op_cb
                0x000000004021b5d8                scan_cancel
                0x000000004021b734                scan_add_bssid
                0x000000004021b758                scan_remove_bssid
                0x000000004021b764                scan_hidden_ssid
                0x000000004021b76c                scan_add_probe_ssid
                0x000000004021b7c0                scan_remove_probe_ssid
                0x000000004021b900                scan_clear_channles
                0x000000004021b974                scan_set_desChan
                0x000000004021b980                scan_get_type
                0x000000004021b988                cannel_scan_connect_state
                0x000000004021b9a0                scan_connect_state
                0x000000004021b9e8                scan_check_hidden
                0x000000004021ba14                scan_profile_check
                0x000000004021bdb8                scan_parse_beacon
 *fill*         0x000000004021c129        0x3 
 .irom0.text    0x000000004021c12c     0x10fd /home/stoffer/esp8266/esp-open-sdk/sdk/lib/libnet80211.a(ieee80211_sta.o)
                                       0x139d (size before relaxing)
                0x000000004021c188                sta_status_set
                0x000000004021c1f4                ieee80211_sta_new_state
                0x000000004021c584                sta_input
                0x000000004021cad0                ieee80211_parse_wmeparams
                0x000000004021d174                wifi_station_start
                0x000000004021d1e8                wifi_station_stop
 *fill*         0x000000004021d229        0x3 
 .irom0.text    0x000000004021d22c      0x2aa /home/stoffer/esp8266/esp-open-sdk/sdk/lib/libnet80211.a(wl_chm.o)
                                        0x32e (size before relaxing)
                0x000000004021d238                chm_init
                0x000000004021d2a8                chm_acquire_lock
                0x000000004021d2ec                chm_release_lock
                0x000000004021d300                chm_start_op
                0x000000004021d3a4                chm_end_op
                0x000000004021d3ec                chm_cancel_op
                0x000000004021d420                chm_return_home_channel
                0x000000004021d450                chm_set_current_channel
                0x000000004021d480                chm_freq2index
                0x000000004021d4a8                chm_check_same_channel
 *fill*         0x000000004021d4d6        0x2 
 .irom0.text    0x000000004021d4d8     0x193d /home/stoffer/esp8266/esp-open-sdk/sdk/lib/libnet80211.a(wl_cnx.o)
                                       0x1f2d (size before relaxing)
                0x000000004021d4e4                cnx_attach
                0x000000004021d524                cnx_sta_connect_led_timer_cb
                0x000000004021d578                cnx_sta_connect_cmd
                0x000000004021d654                cnx_sta_scan_cmd
                0x000000004021d8bc                cnx_connect_timeout
                0x000000004021d938                cnx_auth_timeout
                0x000000004021d95c                cnx_assoc_timeout
                0x000000004021d980                cnx_handshake_timeout
                0x000000004021d9c0                cnx_start_handoff_cb
                0x000000004021db58                cnx_csa_fn
                0x000000004021df64                cnx_bss_alloc
                0x000000004021e004                cnx_rc_search
                0x000000004021e084                cnx_add_rc
                0x000000004021e0f0                cnx_remove_all_rc
                0x000000004021e13c                cnx_remove_rc
                0x000000004021e20c                cnx_rc_update_rssi
                0x000000004021e294                cnx_rc_update_state_metric
                0x000000004021e300                cnx_rc_update_age
                0x000000004021e324                cnx_update_bss
                0x000000004021e358                cnx_update_bss_more
                0x000000004021e544                cnx_sta_leave
                0x000000004021e7d8                cnx_sta_associated
                0x000000004021e8e0                cnx_node_alloc
                0x000000004021e954                cnx_node_remove
                0x000000004021e9e0                cnx_node_search
                0x000000004021ea5c                cnx_node_leave
                0x000000004021eb5c                wifi_softap_staconnected_event_policy
                0x000000004021eb84                wifi_softap_toomany_deny
                0x000000004021ebc0                cnx_node_join
 *fill*         0x000000004021ee15        0x3 
 .irom0.text    0x000000004021ee18      0x16f /home/stoffer/esp8266/esp-open-sdk/sdk/lib/libnet80211.a(ieee80211_action.o)
                                        0x193 (size before relaxing)
                0x000000004021ee28                ieee80211_send_action_register
                0x000000004021ee5c                ieee80211_send_action_unregister
                0x000000004021ee70                ieee80211_send_action
                0x000000004021eedc                ieee80211_recv_action_register
                0x000000004021ef10                ieee80211_recv_action_unregister
                0x000000004021ef24                ieee80211_recv_action
 *fill*         0x000000004021ef87        0x1 
 .irom0.text    0x000000004021ef88      0x56c /home/stoffer/esp8266/esp-open-sdk/sdk/lib/libnet80211.a(ieee80211_action_vendor.o)
                                        0x5fc (size before relaxing)
                0x000000004021ef88                ieee80211_avs_fetch_key_idx
                0x000000004021efdc                ieee80211_avs_clear_key_idx
                0x000000004021f004                get_iav_key
                0x000000004021f028                register_ieee80211_action_vendor_get_key_cb
                0x000000004021f040                unregister_ieee80211_action_vendor_get_key_cb
                0x000000004021f058                ieee80211_add_action_vendor_spec_esp
                0x000000004021f09c                ieee80211_alloc_action_vendor_spec
                0x000000004021f18c                ieee80211_send_action_vendor_spec
                0x000000004021f33c                ieee80211_recv_action_vendor_spec
                0x000000004021f498                ieee80211_action_vendor_spec_attach
                0x000000004021f4d0                register_ieee80211_action_vendor_spec_cb
                0x000000004021f4e8                unregister_ieee80211_action_vendor_spec_cb
 .irom0.text    0x000000004021f4f4      0x15d /home/stoffer/esp8266/esp-open-sdk/sdk/lib/libnet80211.a(ieee80211_crypto_ccmp.o)
                                        0x165 (size before relaxing)
 *fill*         0x000000004021f651        0x3 
 .irom0.text    0x000000004021f654       0x4c /home/stoffer/esp8266/esp-open-sdk/sdk/lib/libnet80211.a(ieee80211_ets.o)
                                         0x50 (size before relaxing)
                0x000000004021f658                ieee80211_getmgtframe
 .irom0.text    0x000000004021f6a0      0x24d /home/stoffer/esp8266/esp-open-sdk/sdk/lib/libnet80211.a(ieee80211_ie_vendor.o)
                                        0x26d (size before relaxing)
                0x000000004021f6a4                ieee80211_add_ie_vendor_esp_head
                0x000000004021f6dc                ieee80211_add_ie_vendor_esp_mesh_assoc
                0x000000004021f760                ieee80211_add_ie_vendor_esp_mesh_group
                0x000000004021f794                ieee80211_add_ie_vendor_esp_simple_pair
                0x000000004021f7f0                ieee80211_add_ie_vendor_esp_freq_annon
                0x000000004021f828                ieee80211_add_ie_vendor_esp_now
                0x000000004021f860                ieee80211_add_ie_vendor_esp_ssid
                0x000000004021f8a0                ieee80211_add_ie_vendor_esp_manufacturer
 *fill*         0x000000004021f8ed        0x3 
 .irom0.text    0x000000004021f8f0      0x2aa /home/stoffer/esp8266/esp-open-sdk/sdk/lib/libwpa.a(ap_config.o)
                                        0x2ee (size before relaxing)
                0x000000004021f8f4                hostapd_config_defaults_bss
                0x000000004021f940                hostapd_config_defaults
                0x000000004021f9c4                hostapd_mac_comp
                0x000000004021f9d8                hostapd_mac_comp_empty
                0x000000004021fa44                hostapd_setup_wpa_psk
                0x000000004021fa74                hostapd_wep_key_cmp
                0x000000004021fac4                hostapd_maclist_found
                0x000000004021fb2c                hostapd_rate_found
                0x000000004021fb48                hostapd_get_psk
 *fill*         0x000000004021fb9a        0x2 
 .irom0.text    0x000000004021fb9c      0x2b6 /home/stoffer/esp8266/esp-open-sdk/sdk/lib/libwpa.a(common.o)
                                        0x302 (size before relaxing)
                0x000000004021fb9c                inc_byte_array
                0x000000004021fbf0                hex2byte
                0x000000004021fc24                hexstr2bin
                0x000000004021fc70                wpa_get_ntp_timestamp
                0x000000004021fd08                wpa_config_parse_string
                0x000000004021fe0c                dup_binstr
 *fill*         0x000000004021fe52        0x2 
 .irom0.text    0x000000004021fe54       0xcc /home/stoffer/esp8266/esp-open-sdk/sdk/lib/libwpa.a(os_xtensa.o)
                                         0xdc (size before relaxing)
                0x000000004021fe58                ets_strdup
                0x000000004021fe9c                os_get_time
                0x000000004021fea0                r_rand
                0x000000004021feb4                os_random
                0x000000004021fec4                os_get_random
 .irom0.text    0x000000004021ff20     0x1c86 /home/stoffer/esp8266/esp-open-sdk/sdk/lib/libwpa.a(wpa_auth.o)
                                       0x1f66 (size before relaxing)
                0x000000004022006c                wpa_auth_for_each_sta
                0x00000000402201ec                wpa_init
                0x000000004022027c                wpa_auth_sta_init
                0x00000000402202c4                wpa_auth_sta_associated
                0x0000000040220330                wpa_auth_sta_no_wpa
                0x000000004022038c                wpa_auth_sta_deinit
                0x000000004022045c                wpa_receive
                0x00000000402208c0                __wpa_send_eapol
                0x0000000040220de4                wpa_remove_ptk
                0x0000000040220e30                wpa_auth_sm_event
 *fill*         0x0000000040221ba6        0x2 
 .irom0.text    0x0000000040221ba8      0x582 /home/stoffer/esp8266/esp-open-sdk/sdk/lib/libwpa.a(wpa_auth_ie.o)
                                        0x5f6 (size before relaxing)
                0x0000000040221c6c                wpa_write_rsn_ie
                0x0000000040221d78                wpa_auth_gen_wpa_ie
                0x0000000040221e08                wpa_add_kde
                0x0000000040221e74                wpa_validate_wpa_ie
                0x0000000040222080                wpa_parse_kde_ies
                0x000000004022211c                wpa_auth_uses_mfp
 *fill*         0x000000004022212a        0x2 
 .irom0.text    0x000000004022212c     0x14d0 /home/stoffer/esp8266/esp-open-sdk/sdk/lib/libwpa.a(wpa.o)
                                       0x1708 (size before relaxing)
                0x00000000402230b8                wpa_sm_rx_eapol
                0x0000000040223230                wpa_register
                0x000000004022325c                wpa_set_profile
                0x0000000040223274                wpa_set_pmk
                0x00000000402232a0                wpa_set_bss
                0x00000000402234a4                pp_michael_mic_failure
                0x0000000040223548                eapol_txcb
                0x00000000402235d4                wpa_sm_set_state
 .irom0.text    0x00000000402235fc      0x76a /home/stoffer/esp8266/esp-open-sdk/sdk/lib/libwpa.a(wpa_common.o)
                                        0x7fa (size before relaxing)
                0x0000000040223744                wpa_parse_wpa_ie_rsn
                0x00000000402238d8                wpa_parse_wpa_ie_wpa
                0x0000000040223a68                wpa_eapol_key_mic
                0x0000000040223aa8                wpa_compare_rsn_ie
                0x0000000040223ad0                wpa_pmk_to_ptk
                0x0000000040223bc0                rsn_pmkid
                0x0000000040223c1c                wpa_cipher_key_len
                0x0000000040223c40                wpa_cipher_to_alg
                0x0000000040223c68                wpa_cipher_to_suite
                0x0000000040223cbc                rsn_cipher_put_suites
                0x0000000040223d1c                wpa_cipher_put_suites
 *fill*         0x0000000040223d66        0x2 
 .irom0.text    0x0000000040223d68       0xa8 /home/stoffer/esp8266/esp-open-sdk/sdk/lib/libwpa.a(wpa_debug.o)
                                         0xac (size before relaxing)
                0x0000000040223de0                wpa_snprintf_hex_uppercase
                0x0000000040223df4                wpa_snprintf_hex
                0x0000000040223e08                eloop_cancel_timeout
                0x0000000040223e0c                eloop_register_timeout
 .irom0.text    0x0000000040223e10      0x325 /home/stoffer/esp8266/esp-open-sdk/sdk/lib/libwpa.a(wpa_ie.o)
                                        0x341 (size before relaxing)
                0x0000000040223e10                wpa_parse_wpa_ie
                0x0000000040223f04                wpa_supplicant_parse_ies
                0x0000000040224104                wpa_gen_wpa_ie
 *fill*         0x0000000040224135        0x3 
 .irom0.text    0x0000000040224138      0x420 /home/stoffer/esp8266/esp-open-sdk/sdk/lib/libwpa.a(wpa_main.o)
                                        0x538 (size before relaxing)
                0x000000004022413c                ppInstallKey
                0x00000000402242cc                wpa_config_profile
                0x0000000040224300                wpa_config_bss
                0x0000000040224330                wpa_config_assoc_ie
                0x0000000040224344                dhcp_bind_check
                0x0000000040224378                eagle_auth_done
                0x00000000402244f8                wpa_neg_complete
                0x0000000040224520                wpa_attach
 .irom0.text    0x0000000040224558       0xd6 /home/stoffer/esp8266/esp-open-sdk/sdk/lib/libwpa.a(wpas_glue.o)
                                         0xe2 (size before relaxing)
                0x00000000402245c8                wpa_sm_alloc_eapol
                0x0000000040224608                wpa_sm_deauthenticate
                0x0000000040224624                wpa_sm_mlme_setprotection
                0x0000000040224628                wpa_sm_get_beacon_ie
                0x000000004022462c                wpa_sm_disassociate
 *fill*         0x000000004022462e        0x2 
 .irom0.text    0x0000000040224630       0xdf /home/stoffer/esp8266/esp-open-sdk/sdk/lib/libwpa.a(aes-wrap.o)
                                        0x103 (size before relaxing)
                0x0000000040224630                aes_wrap
 *fill*         0x000000004022470f        0x1 
 .irom0.text    0x0000000040224710      0x4b7 /home/stoffer/esp8266/esp-open-sdk/sdk/lib/libwpa.a(aes-internal-enc.o)
                                        0x4df (size before relaxing)
                0x0000000040224714                rijndaelEncrypt
                0x0000000040224b30                aes_encrypt_init
                0x0000000040224b84                aes_encrypt
                0x0000000040224b9c                aes_encrypt_deinit
 *fill*         0x0000000040224bc7        0x1 
 .irom0.text    0x0000000040224bc8      0x304 /home/stoffer/esp8266/esp-open-sdk/sdk/lib/libwpa.a(aes-internal.o)
                                        0x31c (size before relaxing)
                0x0000000040224bcc                rijndaelKeySetupEnc
 .irom0.text    0x0000000040224ecc     0x146a /home/stoffer/esp8266/esp-open-sdk/sdk/lib/liblwip.a(dhcp.o)
                                       0x1666 (size before relaxing)
                0x0000000040225148                dhcp_coarse_tmr
                0x0000000040225194                dhcp_fine_tmr
                0x00000000402253ec                dhcp_set_struct
                0x0000000040225414                dhcp_cleanup
                0x0000000040225440                dhcp_start
                0x00000000402254f8                dhcp_inform
                0x00000000402255a4                dhcp_network_changed
                0x00000000402255ec                dhcp_arp_reply
                0x00000000402258e8                dhcp_renew
                0x0000000040225c14                dhcp_release
                0x0000000040225cd4                dhcp_stop
 *fill*         0x0000000040226336        0x2 
 .irom0.text    0x0000000040226338      0xe0a /home/stoffer/esp8266/esp-open-sdk/sdk/lib/liblwip.a(dhcpserver.o)
                                       0x104a (size before relaxing)
                0x0000000040226338                node_insert_to_list
                0x0000000040226370                node_remove_from_list
                0x0000000040226a80                dhcps_start
                0x0000000040226ae8                dhcps_stop
                0x0000000040226b6c                wifi_softap_set_dhcps_lease
                0x0000000040226c58                wifi_softap_get_dhcps_lease
                0x0000000040226cf8                dhcps_coarse_tmr
                0x0000000040226d6c                wifi_softap_set_dhcps_offer_option
                0x0000000040226db0                wifi_softap_set_dhcps_lease_time
                0x0000000040226de0                wifi_softap_reset_dhcps_lease_time
                0x0000000040226e0c                wifi_softap_get_dhcps_lease_time
                0x0000000040226e14                wifi_softap_dhcps_client_leave
                0x0000000040226ebc                wifi_softap_dhcps_client_update
 *fill*         0x0000000040227142        0x2 
 .irom0.text    0x0000000040227144      0x5cf /home/stoffer/esp8266/esp-open-sdk/sdk/lib/liblwip.a(dns.o)
                                        0x68b (size before relaxing)
                0x0000000040227150                dns_init
                0x0000000040227190                dns_setserver
                0x00000000402271b0                dns_getserver
                0x00000000402271c4                dns_tmr
                0x00000000402276bc                dns_gethostbyname
 *fill*         0x0000000040227713        0x1 
 .irom0.text    0x0000000040227714     0x10ec /home/stoffer/esp8266/esp-open-sdk/sdk/lib/liblwip.a(espconn_tcp.o)
                                       0x1414 (size before relaxing)
                0x00000000402277fc                espconn_kill_oldest_pcb
                0x0000000040227880                espconn_kill_pcb
                0x00000000402278fc                espconn_find_current_pcb
                0x000000004022799c                espconn_tcp_memp_free
                0x0000000040227c2c                espconn_tcp_sent
                0x0000000040227cf0                espconn_tcp_disconnect
                0x0000000040227d98                espconn_recv_hold
                0x0000000040227ddc                espconn_recv_unhold
                0x0000000040227e38                espconn_lock_recv
                0x0000000040227e84                espconn_unlock_recv
                0x0000000040227f94                espconn_tcp_write
                0x00000000402281c4                espconn_tcp_client
                0x000000004022869c                espconn_tcp_server
                0x0000000040228758                espconn_tcp_delete
                0x00000000402287e4                espconn_init
 .irom0.text    0x0000000040228800      0x8cf /home/stoffer/esp8266/esp-open-sdk/sdk/lib/liblwip.a(etharp.o)
                                        0x9b7 (size before relaxing)
                0x0000000040228834                etharp_tmr
                0x0000000040228a60                etharp_cleanup_netif
                0x0000000040228a9c                etharp_find_addr
                0x0000000040228cf0                etharp_output
                0x0000000040228e04                etharp_query
                0x0000000040229034                etharp_request
                0x0000000040229058                ethernet_input
 *fill*         0x00000000402290cf        0x1 
 .irom0.text    0x00000000402290d0       0x40 /home/stoffer/esp8266/esp-open-sdk/sdk/lib/liblwip.a(init.o)
                                         0x60 (size before relaxing)
                0x00000000402290d4                lwip_init
 .irom0.text    0x0000000040229110      0x37a /home/stoffer/esp8266/esp-open-sdk/sdk/lib/liblwip.a(ip_addr.o)
                                        0x3a2 (size before relaxing)
                0x0000000040229110                ip4_addr_isbroadcast
                0x000000004022913c                ip4_addr_netmask_valid
                0x000000004022917c                ipaddr_addr
                0x0000000040229198                ipaddr_aton
                0x00000000402293b4                ipaddr_ntoa
                0x00000000402293c8                ipaddr_ntoa_r
 *fill*         0x000000004022948a        0x2 
 .irom0.text    0x000000004022948c      0x585 /home/stoffer/esp8266/esp-open-sdk/sdk/lib/liblwip.a(ip.o)
                                        0x62d (size before relaxing)
                0x000000004022948c                ip_route
                0x0000000040229508                ip_router
                0x0000000040229584                ip_input
                0x00000000402297dc                ip_output_if
                0x00000000402297fc                ip_output_if_opt
                0x00000000402299d8                ip_output
 *fill*         0x0000000040229a11        0x3 
 .irom0.text    0x0000000040229a14      0x281 /home/stoffer/esp8266/esp-open-sdk/sdk/lib/liblwip.a(netif.o)
                                        0x2c1 (size before relaxing)
                0x0000000040229a14                netif_init
                0x0000000040229a1c                netif_add
                0x0000000040229a84                netif_set_addr
                0x0000000040229aac                netif_remove
                0x0000000040229b08                netif_find
                0x0000000040229b44                netif_set_ipaddr
                0x0000000040229bac                netif_set_gw
                0x0000000040229bbc                netif_set_netmask
                0x0000000040229bcc                netif_set_default
                0x0000000040229bd4                netif_set_up
                0x0000000040229c10                netif_set_down
                0x0000000040229c38                netif_set_link_up
                0x0000000040229c84                netif_set_link_down
 *fill*         0x0000000040229c95        0x3 
 .irom0.text    0x0000000040229c98      0x68e /home/stoffer/esp8266/esp-open-sdk/sdk/lib/liblwip.a(pbuf.o)
                                        0x6f6 (size before relaxing)
                0x0000000040229c98                pbuf_free_ooseq_new
                0x0000000040229cf0                pbuf_alloc
                0x0000000040229e50                pbuf_realloc
                0x0000000040229e98                pbuf_header
                0x0000000040229f04                pbuf_free
                0x0000000040229f90                pbuf_clen
                0x0000000040229fa8                pbuf_ref
                0x0000000040229fb4                pbuf_cat
                0x0000000040229fe0                pbuf_chain
                0x0000000040229ffc                pbuf_dechain
                0x000000004022a038                pbuf_copy
                0x000000004022a0dc                pbuf_copy_partial
                0x000000004022a15c                pbuf_take
                0x000000004022a1bc                pbuf_coalesce
                0x000000004022a1f0                pbuf_get_at
                0x000000004022a218                pbuf_memcmp
                0x000000004022a284                pbuf_memfind
                0x000000004022a2dc                pbuf_strstr
 *fill*         0x000000004022a326        0x2 
 .irom0.text    0x000000004022a328      0x1f1 /home/stoffer/esp8266/esp-open-sdk/sdk/lib/liblwip.a(raw.o)
                                        0x249 (size before relaxing)
                0x000000004022a330                raw_input
                0x000000004022a3b8                raw_bind
                0x000000004022a3c8                raw_connect
                0x000000004022a3d8                raw_recv
                0x000000004022a3e0                raw_sendto
                0x000000004022a47c                raw_send
                0x000000004022a494                raw_remove
                0x000000004022a4d0                raw_new
 *fill*         0x000000004022a519        0x3 
 .irom0.text    0x000000004022a51c     0x157c /home/stoffer/esp8266/esp-open-sdk/sdk/lib/liblwip.a(tcp_in.o)
                                       0x17c0 (size before relaxing)
                0x000000004022a524                tcp_input
 .irom0.text    0x000000004022ba98      0xaeb /home/stoffer/esp8266/esp-open-sdk/sdk/lib/liblwip.a(tcp.o)
                                        0xc23 (size before relaxing)
                0x000000004022ba9c                tcp_tmr
                0x000000004022bac0                tcp_close
                0x000000004022bae4                tcp_shutdown
                0x000000004022bb44                tcp_abandon
                0x000000004022bbec                tcp_abort
                0x000000004022bc04                tcp_bind
                0x000000004022bc80                tcp_listen_with_backlog
                0x000000004022bd40                tcp_update_rcv_ann_wnd
                0x000000004022bd84                tcp_recved
                0x000000004022bde0                tcp_connect
                0x000000004022beec                tcp_slowtmr
                0x000000004022c194                tcp_fasttmr
                0x000000004022c210                tcp_segs_free
                0x000000004022c22c                tcp_seg_free
                0x000000004022c258                tcp_setprio
                0x000000004022c260                tcp_seg_copy
                0x000000004022c2a4                tcp_recv_null
                0x000000004022c35c                tcp_alloc
                0x000000004022c444                tcp_new
                0x000000004022c458                tcp_arg
                0x000000004022c45c                tcp_recv
                0x000000004022c464                tcp_sent
                0x000000004022c46c                tcp_err
                0x000000004022c474                tcp_accept
                0x000000004022c478                tcp_poll
                0x000000004022c480                tcp_pcb_purge
                0x000000004022c4d4                tcp_pcb_remove
                0x000000004022c53c                tcp_next_iss
                0x000000004022c550                tcp_eff_send_mss
 *fill*         0x000000004022c583        0x1 
 .irom0.text    0x000000004022c584      0xf20 /home/stoffer/esp8266/esp-open-sdk/sdk/lib/liblwip.a(tcp_out.o)
                                       0x1028 (size before relaxing)
                0x000000004022c67c                tcp_send_fin
                0x000000004022c864                tcp_write
                0x000000004022cba0                tcp_enqueue_flags
                0x000000004022cc84                tcp_send_empty_ack
                0x000000004022cd18                tcp_output
                0x000000004022d028                tcp_rst
                0x000000004022d168                tcp_rexmit_rto
                0x000000004022d1dc                tcp_rexmit
                0x000000004022d288                tcp_rexmit_fast
                0x000000004022d2e0                tcp_keepalive
                0x000000004022d360                tcp_zero_window_probe
 .irom0.text    0x000000004022d4a4      0x2cb /home/stoffer/esp8266/esp-open-sdk/sdk/lib/liblwip.a(timers.o)
                                        0x357 (size before relaxing)
                0x000000004022d4e4                tcp_timer_needed
                0x000000004022d56c                sys_timeouts_init
                0x000000004022d5d4                sys_timeout
                0x000000004022d650                sys_untimeout
                0x000000004022d6a4                sys_check_timeouts
                0x000000004022d760                sys_restart_timeouts
 *fill*         0x000000004022d76f        0x1 
 .irom0.text    0x000000004022d770      0x573 /home/stoffer/esp8266/esp-open-sdk/sdk/lib/liblwip.a(udp.o)
                                        0x62b (size before relaxing)
                0x000000004022d774                udp_input
                0x000000004022d9cc                udp_send
                0x000000004022d9e0                udp_sendto
                0x000000004022da2c                udp_sendto_if
                0x000000004022db74                udp_bind
                0x000000004022dbf0                udp_connect
                0x000000004022dc4c                udp_disconnect
                0x000000004022dc64                udp_recv
                0x000000004022dc70                udp_remove
                0x000000004022dcac                udp_new
 *fill*         0x000000004022dce3        0x1 
 .irom0.text    0x000000004022dce4      0xaea /home/stoffer/esp8266/esp-open-sdk/sdk/lib/liblwip.a(espconn.o)
                                        0xbf2 (size before relaxing)
                0x000000004022dce4                espconn_copy_partial
                0x000000004022dd74                espconn_list_creat
                0x000000004022dd94                espconn_list_delete
                0x000000004022ddbc                espconn_pbuf_create
                0x000000004022ddd8                espconn_pbuf_delete
                0x000000004022ddfc                espconn_find_connection
                0x000000004022deb8                espconn_connect
                0x000000004022df9c                espconn_create
                0x000000004022dfe4                espconn_sent
                0x000000004022dfe4                espconn_send
                0x000000004022e0b0                espconn_recv
                0x000000004022e124                espconn_sendto
                0x000000004022e16c                espconn_tcp_get_wnd
                0x000000004022e190                espconn_tcp_set_wnd
                0x000000004022e1ac                espconn_tcp_get_mss
                0x000000004022e1b4                espconn_tcp_get_max_con
                0x000000004022e1c4                espconn_tcp_set_max_con
                0x000000004022e1dc                espconn_tcp_get_max_retran
                0x000000004022e1ec                espconn_tcp_set_max_retran
                0x000000004022e204                espconn_tcp_get_max_syn
                0x000000004022e214                espconn_tcp_set_max_syn
                0x000000004022e22c                espconn_tcp_get_max_con_allow
                0x000000004022e254                espconn_tcp_set_max_con_allow
                0x000000004022e284                espconn_tcp_set_buf_count
                0x000000004022e2c8                espconn_regist_sentcb
                0x000000004022e2d4                espconn_regist_write_finish
                0x000000004022e2ec                espconn_regist_connectcb
                0x000000004022e2fc                espconn_regist_recvcb
                0x000000004022e308                espconn_regist_reconcb
                0x000000004022e318                espconn_regist_disconcb
                0x000000004022e32c                espconn_get_connection_info
                0x000000004022e3f4                espconn_accept
                0x000000004022e438                espconn_regist_time
                0x000000004022e478                espconn_disconnect
                0x000000004022e4bc                espconn_abort
                0x000000004022e4fc                espconn_get_packet_info
                0x000000004022e58c                espconn_set_opt
                0x000000004022e5e4                espconn_clear_opt
                0x000000004022e644                espconn_set_keepalive
                0x000000004022e6b0                espconn_get_keepalive
                0x000000004022e720                espconn_delete
                0x000000004022e768                espconn_port
                0x000000004022e7a0                espconn_gethostbyname
                0x000000004022e7bc                espconn_dns_setserver
 *fill*         0x000000004022e7ce        0x2 
 .irom0.text    0x000000004022e7d0      0x4e7 /home/stoffer/esp8266/esp-open-sdk/sdk/lib/liblwip.a(espconn_udp.o)
                                        0x63f (size before relaxing)
                0x000000004022e820                espconn_udp_sent
                0x000000004022e988                espconn_udp_sendto
                0x000000004022ebdc                espconn_udp_disconnect
                0x000000004022ec18                espconn_udp_server
                0x000000004022ec80                espconn_igmp_leave
                0x000000004022ec9c                espconn_igmp_join
 *fill*         0x000000004022ecb7        0x1 
 .irom0.text    0x000000004022ecb8      0x26e /home/stoffer/esp8266/esp-open-sdk/sdk/lib/liblwip.a(icmp.o)
                                        0x312 (size before relaxing)
                0x000000004022ecbc                icmp_input
                0x000000004022ee68                icmp_dest_unreach
 *fill*         0x000000004022ef26        0x2 
 .irom0.text    0x000000004022ef28      0x5f6 /home/stoffer/esp8266/esp-open-sdk/sdk/lib/liblwip.a(igmp.o)
                                        0x68a (size before relaxing)
                0x000000004022ef34                igmp_init
                0x000000004022ef44                igmp_start
                0x000000004022ef88                igmp_stop
                0x000000004022efec                igmp_report_groups
                0x000000004022f01c                igmp_lookfor_group
                0x000000004022f0e4                igmp_input
                0x000000004022f22c                igmp_joingroup
                0x000000004022f2d4                igmp_leavegroup
                0x000000004022f378                igmp_tmr
 *fill*         0x000000004022f51e        0x2 
 .irom0.text    0x000000004022f520      0x3f5 /home/stoffer/esp8266/esp-open-sdk/sdk/lib/libpp.a(esf_buf.o)
                                        0x4c1 (size before relaxing)
                0x000000004022f528                esf_buf_alloc
                0x000000004022f710                esf_buf_recycle
                0x000000004022f858                esf_buf_setup
 *fill*         0x000000004022f915        0x3 
 .irom0.text    0x000000004022f918      0x48d /home/stoffer/esp8266/esp-open-sdk/sdk/lib/libpp.a(if_hwctrl.o)
                                        0x5bd (size before relaxing)
                0x000000004022f938                ic_get_addr
                0x000000004022f944                ic_set_opmode
                0x000000004022f958                ic_enable_interface
                0x000000004022f9a8                ic_interface_enabled
                0x000000004022f9bc                ic_disable_interface
                0x000000004022fa04                ic_is_pure_sta
                0x000000004022fa20                ic_get_ptk_alg
                0x000000004022fa30                ic_get_gtk_alg
                0x000000004022fa40                ic_set_ptk_alg
                0x000000004022fa50                ic_set_gtk_alg
                0x000000004022fa60                ic_interface_is_p2p
                0x000000004022faf8                ic_set_vif
                0x000000004022fbb4                ic_set_sta
                0x000000004022fcb4                ic_bss_info_update
                0x000000004022fd10                ic_set_key
                0x000000004022fd6c                ic_remove_key
                0x000000004022fd80                ic_get_rssi
 *fill*         0x000000004022fda5        0x3 
 .irom0.text    0x000000004022fda8      0x104 /home/stoffer/esp8266/esp-open-sdk/sdk/lib/libpp.a(lmac.o)
                                        0x118 (size before relaxing)
                0x000000004022fdac                lmacInitAc
                0x000000004022fde0                lmacInit
                0x000000004022fe90                lmacSetRetryLimit
 .irom0.text    0x000000004022feac     0x1a8d /home/stoffer/esp8266/esp-open-sdk/sdk/lib/libpp.a(pm.o)
                                       0x2045 (size before relaxing)
                0x000000004022feb0                pm_set_gpio_wakeup_pin
                0x000000004022fee8                pm_clear_gpio_wakeup_pin
                0x000000004022fef8                pm_is_gpio_int_trig
                0x000000004022ff10                pm_rtc_clock_cali_proc
                0x000000004022ff48                pm_get_ck170_period
                0x000000004022ff6c                pm_set_sleep_time
                0x00000000402302e4                pm_rf_is_closed
                0x0000000040230314                pm_set_sleep_type_from_upper
                0x0000000040230404                pm_get_sleep_type
                0x00000000402305c0                uart_tx_flush
                0x00000000402305c4                pm_suspend
                0x00000000402307e0                pm_shutdown
                0x00000000402308c0                pm_reset_idle_sleep
                0x0000000040230900                pm_idle_sleep
                0x0000000040230910                pm_open
                0x0000000040230a14                pm_onBcnRx
                0x0000000040230da8                StopLightSleepSetFunc
                0x0000000040230db0                LightSleepWakedCbSetFunc
                0x000000004023137c                pm_enable_gpio_wakeup
                0x00000000402313b8                pm_attach
                0x00000000402314a4                pm_send_nullfunc
                0x0000000040231648                pm_is_waked
                0x0000000040231660                pm_is_open
                0x0000000040231678                pm_scan_lock
                0x00000000402316a0                pm_try_scan_unlock
                0x00000000402316b8                pm_force_scan_unlock
                0x000000004023175c                pm_scan_unlocked
                0x0000000040231770                pm_allow_tx
                0x000000004023178c                pm_assoc_parse
                0x00000000402317a4                pm_set_addr
                0x00000000402317c4                pm_sleep_for
                0x00000000402317f4                pm_post
                0x00000000402318f8                pm_get_idle_wait_time
 *fill*         0x0000000040231939        0x3 
 .irom0.text    0x000000004023193c      0xb34 /home/stoffer/esp8266/esp-open-sdk/sdk/lib/libpp.a(pm_for_bcn_only_mode.o)
                                        0xee4 (size before relaxing)
                0x0000000040231950                wifi_fpm_set_sleep_type
                0x0000000040231950                fpm_set_type_from_upper
                0x0000000040231a0c                wifi_fpm_get_sleep_type
                0x0000000040231a0c                fpm_get_slp_type
                0x0000000040231a14                fpm_rf_is_closed
                0x0000000040231a28                fpm_is_open
                0x0000000040231a34                fpm_allow_tx
                0x0000000040231a5c                wifi_fpm_close
                0x0000000040231a5c                fpm_close
                0x0000000040231aec                wifi_fpm_open
                0x0000000040231aec                fpm_open
                0x0000000040231b70                fpm_attach
                0x0000000040231d20                wifi_fpm_set_wakeup_cb
                0x0000000040231d20                fpm_set_wakeup_cb
                0x0000000040231e5c                wifi_fpm_do_wakeup
                0x0000000040231e5c                fpm_do_wakeup
                0x0000000040232388                fpm_do_sleep
                0x0000000040232388                wifi_fpm_do_sleep
                0x0000000040232428                fpm_auto_sleep_set_in_null_mode
                0x0000000040232428                wifi_fpm_auto_sleep_set_in_null_mode
                0x0000000040232468                get_fpm_auto_sleep_flag
 .irom0.text    0x0000000040232470     0x15ae /home/stoffer/esp8266/esp-open-sdk/sdk/lib/libpp.a(pp.o)
                                       0x19a2 (size before relaxing)
                0x000000004023247c                PPWdtReset
                0x00000000402324b0                pp_soft_wdt_init
                0x00000000402324d0                system_soft_wdt_feed
                0x00000000402324d0                pp_soft_wdt_feed
                0x00000000402324ec                pp_soft_wdt_stop
                0x00000000402324ec                system_soft_wdt_stop
                0x0000000040232518                pp_soft_wdt_restart
                0x0000000040232518                system_soft_wdt_restart
                0x000000004023254c                RxNodeNum
                0x0000000040232564                TxNodeNum
                0x0000000040232588                pp_disable_noise_timer
                0x00000000402325a8                pp_enable_noise_timer
                0x00000000402326b8                pp_noise_test
                0x00000000402326c8                reset_noise_timer
                0x0000000040232700                pp_disable_idle_timer
                0x0000000040232724                pp_enable_idle_timer
                0x000000004023274c                pp_try_enable_idle_timer
                0x0000000040232788                ppPeocessRxPktHdr
                0x0000000040232abc                HdlAllBuffedEb
                0x0000000040232b44                ppTxPkt
                0x0000000040232cbc                ppProcessWaitQ
                0x0000000040232ccc                ppRegisterTxCallback
                0x0000000040232cf4                ppUnregisterTxCallback
                0x0000000040232d28                ppRecycleRxPkt
                0x0000000040232d88                ppCheckTxIdle
                0x0000000040233000                pp_tx_idle_timeout
                0x00000000402331c0                DefFreqCalTimerCB
                0x0000000040233534                ppGetTxQFirstAvail_Locked
                0x0000000040233614                pp_attach
 *fill*         0x0000000040233a1e        0x2 
 .irom0.text    0x0000000040233a20      0x296 /home/stoffer/esp8266/esp-open-sdk/sdk/lib/libpp.a(rate_control.o)
                                        0x2a2 (size before relaxing)
                0x0000000040233c6c                RC_SetBasicRate
 *fill*         0x0000000040233cb6        0x2 
 .irom0.text    0x0000000040233cb8      0x5e9 /home/stoffer/esp8266/esp-open-sdk/sdk/lib/libpp.a(trc.o)
                                        0x64d (size before relaxing)
                0x0000000040233cb8                phytype2mode
                0x0000000040233cd4                rc_set_rate_limit_id
                0x0000000040233df0                rcUpdatePhyMode
                0x0000000040233fbc                rcAttach
                0x0000000040234008                rcGetTrc
                0x0000000040234010                trc_onDisconnect
                0x0000000040234014                trc_onScanStart
                0x0000000040234028                trc_onScanDone
                0x0000000040234044                rc_enable_trc
                0x000000004023411c                rc_get_mask
                0x0000000040234130                rc_disable_trc
                0x0000000040234184                rc_disable_trc_by_interface
                0x00000000402341a0                rc_get_sta_trc
                0x00000000402341e4                rc_get_trc
                0x0000000040234254                rc_get_trc_by_index
                0x0000000040234274                rc_only_sta_trc
 *fill*         0x00000000402342a1        0x3 
 .irom0.text    0x00000000402342a4      0xbe3 /home/stoffer/esp8266/esp-open-sdk/sdk/lib/libpp.a(wdev.o)
                                        0xd43 (size before relaxing)
                0x00000000402342b4                wDev_Option_Init
                0x00000000402343a8                wDev_Enable_Beacon_Tsf
                0x00000000402343c4                wDev_Disable_Beacon_Tsf
                0x00000000402343e0                wDev_Set_Beacon_Int
                0x00000000402343e8                wDev_Reset_TBTT
                0x0000000040234418                wDev_Get_Next_TBTT
                0x0000000040234698                wDev_Initialize
                0x0000000040234708                wDevForceAck6M
                0x0000000040234724                wDev_SetMacAddress
                0x00000000402347c0                wDev_SetRxPolicy
                0x0000000040234814                wDev_EnableUcRx
                0x0000000040234840                wDev_DisableUcRx
                0x000000004023486c                wDev_SetBssid
                0x0000000040234944                wDev_ClearBssid
                0x0000000040234978                wDev_Is_Mac_Key_Exist
                0x0000000040234a04                wDev_Insert_KeyEntry
                0x0000000040234af4                wDev_remove_KeyEntry
                0x0000000040234b30                wDev_remove_KeyEntry_all_cnx
                0x0000000040234b7c                wDev_Crypto_Conf
                0x0000000040234c1c                wDev_Crypto_Disable
                0x0000000040234c54                wDevEnableRx
                0x0000000040234c80                wdev_go_sniffer
                0x0000000040234d5c                wdev_set_sniffer_addr
                0x0000000040234db8                wdev_exit_sniffer
 *fill*         0x0000000040234e87        0x1 
 .irom0.text    0x0000000040234e88       0xfa /home/stoffer/esp8266/esp-open-sdk/sdk/lib/libphy.a(phy.o)
                                        0x11e (size before relaxing)
                0x0000000040234e8c                rf_init
                0x0000000040234ea8                bb_init
                0x0000000040234ec0                phy_init
                0x0000000040234ef0                RFChannelSel
                0x0000000040234f0c                phy_delete_channel
                0x0000000040234f24                phy_enable_agc
                0x0000000040234f3c                phy_disable_agc
                0x0000000040234f54                phy_initialize_bb
                0x0000000040234f6c                phy_set_sense
 *fill*         0x0000000040234f82        0x2 
 .irom0.text    0x0000000040234f84     0x174f /home/stoffer/esp8266/esp-open-sdk/sdk/lib/libphy.a(phy_chip_v6_ana.o)
                                       0x197f (size before relaxing)
                0x0000000040234f84                ram_pbus_set_rxgain
                0x0000000040235054                ram_pbus_debugmode
                0x0000000040235108                ram_pbus_xpd_tx_on
                0x0000000040235174                set_rf_freq_offset
                0x00000000402351e4                chip_v6_rxmax_ext_ana
                0x0000000040235338                ram_chip_v6_rx_init
                0x0000000040235368                tsen_meas
                0x0000000040235414                readvdd33
                0x00000000402355dc                txpwr_offset
                0x0000000040235698                set_txcap_reg
                0x0000000040235718                ram_ana_inf_gating_en
                0x0000000040235878                ram_restart_cal
                0x00000000402358e4                wait_rfpll_cal_end
                0x000000004023597c                ram_rfpll_set_freq
                0x0000000040235a7c                ram_set_channel_freq
                0x0000000040235d78                chip_60_set_channel
                0x0000000040235f18                chip_v6_set_chan_offset
                0x0000000040235f74                chip_v6_set_chan
                0x0000000040236024                chip_v6_set_chan_wakeup
                0x00000000402360a0                chip_v6_rf_init
                0x0000000040236304                low_power_set
                0x0000000040236354                test_tout
                0x00000000402364cc                check_data_flag
                0x00000000402364ec                phy_get_check_flag
                0x0000000040236620                phy_get_vdd33
 *fill*         0x00000000402366d3        0x1 
 .irom0.text    0x00000000402366d4     0x3e20 /home/stoffer/esp8266/esp-open-sdk/sdk/lib/libphy.a(phy_chip_v6.o)
                                       0x44fc (size before relaxing)
                0x00000000402366d4                ram_tx_mac_enable
                0x00000000402366d8                ram_tx_mac_disable
                0x00000000402366dc                rtc_mem_backup
                0x000000004023670c                rtc_mem_recovery
                0x000000004023673c                set_cal_rxdc
                0x00000000402367f0                set_rx_gain_cal_iq
                0x0000000040236b48                gen_rx_gain_table
                0x0000000040236ca0                pbus_set_rxbbgain
                0x0000000040236d1c                set_rx_gain_testchip_50
                0x0000000040237050                ram_get_corr_power
                0x0000000040237140                check_data_func
                0x0000000040237160                do_noisefloor_lsleep_v50
                0x0000000040237194                do_noisefloor
                0x0000000040237204                start_dig_rx
                0x0000000040237248                stop_dig_rx
                0x0000000040237274                chip_v6_set_chanfreq
                0x00000000402372a0                tx_cap_init
                0x00000000402374c8                target_power_add_backoff
                0x00000000402374f0                tx_pwctrl_init_cal
                0x0000000040237690                tx_atten_set_interp
                0x00000000402378f0                check_tx_pwr_cal
                0x0000000040237a34                tx_pwctrl_init
                0x0000000040237b58                ram_get_noisefloor
                0x0000000040237b74                get_noisefloor_sat
                0x0000000040237ba4                ram_set_noise_floor
                0x0000000040237bfc                ram_start_noisefloor
                0x0000000040237c48                read_hw_noisefloor
                0x0000000040237c70                noise_check_loop
                0x0000000040237dc8                noise_init
                0x0000000040237fc8                target_power_backoff
                0x000000004023801c                sdt_on_noise_start
                0x000000004023809c                chip_v6_set_chan_rx_cmp
                0x0000000040238228                chip_v6_set_chan_misc
                0x00000000402382bc                phy_dig_spur_set
                0x0000000040238614                phy_dig_spur_prot
                0x000000004023884c                chip_v6_rxmax_ext_dig
                0x0000000040238898                chip_v6_rxmax_ext
                0x000000004023893c                phy_bb_rx_cfg
                0x0000000040238d54                uart_wait_idle
                0x0000000040238d88                phy_pbus_soc_cfg
                0x0000000040238e40                phy_gpio_cfg
                0x0000000040239054                tx_cont_en
                0x00000000402390fc                tx_cont_dis
                0x0000000040239150                tx_cont_cfg
                0x0000000040239170                chip_v6_initialize_bb
                0x00000000402392d4                periodic_cal
                0x000000004023930c                bbpll_cal
                0x00000000402393b4                periodic_cal_top
                0x0000000040239418                register_chipv6_phy_init_param
                0x00000000402396c0                change_bbpll160_sleep
                0x0000000040239870                change_bbpll160
                0x00000000402398a8                set_crystal_uart
                0x0000000040239938                ant_switch_init
                0x00000000402399e8                reduce_current_init
                0x0000000040239ad4                rtc_mem_check
                0x0000000040239b10                phy_afterwake_set_rfoption
                0x0000000040239b2c                deep_sleep_set_option
                0x0000000040239b58                write_data_to_rtc
                0x0000000040239b90                get_data_from_rtc
                0x0000000040239c14                register_chipv6_phy
                0x000000004023a0ac                set_dpd_bypass
                0x000000004023a0d4                set_rf_gain_stage10
                0x000000004023a104                get_vdd33_offset
                0x000000004023a178                get_phy_target_power
                0x000000004023a228                set_most_pwr_reg
                0x000000004023a2fc                phy_set_most_tpw
                0x000000004023a31c                phy_vdd33_set_tpw
                0x000000004023a334                get_adc_rand
                0x000000004023a364                phy_get_rand
                0x000000004023a37c                phy_tx_pwctrl_cali
                0x000000004023a3a4                phy_check_data_table
                0x000000004023a3e0                phy_after_init_enrx
                0x000000004023a444                phy_set_rx11b_reg
                0x000000004023a478                phy_set_powerup_option
                0x000000004023a488                phy_get_txpwr_param
                0x000000004023a4d4                phy_get_rxnf_param
                0x000000004023a4e0                phy_get_freq_param
 .irom0.text    0x000000004023a4f4     0x2198 /home/stoffer/esp8266/esp-open-sdk/sdk/lib/libphy.a(phy_chip_v6_cal.o)
                                       0x23d4 (size before relaxing)
                0x000000004023a4f4                txbbgain2dcoindex
                0x000000004023a514                dcoindex2txbbgain
                0x000000004023a538                init_cal_dcoffset
                0x000000004023a5fc                set_rfanagain_dc_reg
                0x000000004023a698                set_txdc_pbus
                0x000000004023a704                get_rf_gain_qdb
                0x000000004023a72c                correct_rf_ana_gain
                0x000000004023a834                get_sar_dout
                0x000000004023a8c4                cal_rf_ana_gain
                0x000000004023a9dc                meas_tone_pwr_db
                0x000000004023aa4c                tx_pwr_backoff
                0x000000004023ac00                get_fcc_1m2m_pwr_offset
                0x000000004023ac3c                ram_set_txbb_atten
                0x000000004023acd0                txiq_get_mis_pwr
                0x000000004023ad74                txiq_cover
                0x000000004023af8c                ram_rfcal_txiq
                0x000000004023b1f8                rc_cal
                0x000000004023b3b8                get_target_power_offset
                0x000000004023b4c0                get_pwctrl_correct
                0x000000004023b518                tx_pwctrl_cal
                0x000000004023b814                tx_pwctrl_bg_init
                0x000000004023b88c                tx_pwctrl_background
                0x000000004023b944                read_sar_dout
                0x000000004023b9a8                ram_get_fm_sar_dout
                0x000000004023ba4c                ram_cal_tos_v60
                0x000000004023bc1c                ram_get_bb_atten
                0x000000004023bc4c                ram_rfcal_txcap
                0x000000004023be10                ram_rfcal_pwrctrl
                0x000000004023c04c                ram_rxiq_get_mis
                0x000000004023c218                ram_rxiq_cover_mg_mp
                0x000000004023c3bc                ram_rfcal_rxiq
                0x000000004023c5c8                dpd_scale_set
                0x000000004023c610                dpd_mem_write
 .irom0.text    0x000000004023c68c      0xc82 /home/stoffer/esp8266/esp-open-sdk/sdk/lib/libphy.a(phy_sleep.o)
                                        0xe9a (size before relaxing)
                0x000000004023c68c                pm_usec2rtc
                0x000000004023c6c0                pm_rtc2usec
                0x000000004023c6cc                pm_set_sleep_cycles
                0x000000004023c6f4                pm_sleep_opt
                0x000000004023c848                pm_wakeup_opt
                0x000000004023c880                get_chip_version
                0x000000004023c8c0                pm_sleep_opt_bb_off
                0x000000004023c90c                pm_sleep_opt_bb_on
                0x000000004023c960                pm_set_pll_xtal_wait_time
                0x000000004023c98c                pm_prepare_to_sleep
                0x000000004023c994                pm_sdio_nidle
                0x000000004023ca08                chg_lslp_mem_opt_8266
                0x000000004023ca28                pm_wait4wakeup
                0x000000004023ca64                pm_open_rf
                0x000000004023caa0                pm_sleep_set_mac
                0x000000004023cb24                pm_set_wakeup_mac
                0x000000004023cbbc                pm_check_mac_idle
                0x000000004023cc14                pm_set_sleep_btco
                0x000000004023ccb4                pm_set_wakeup_btco
                0x000000004023cdcc                pm_set_sleep_mode
                0x000000004023ceec                pm_unmask_bt
                0x000000004023cf58                pm_wakeup_init
                0x000000004023d1b4                sleep_opt_8266
                0x000000004023d1d4                sleep_opt_bb_on_8266
                0x000000004023d20c                sleep_reset_analog_rtcreg_8266
 *fill*         0x000000004023d30e        0x2 
 .irom0.text    0x000000004023d310      0xd22 build/app_app.a(user_main.o)
                                       0x12aa (size before relaxing)
                0x000000004023d310                mqttDisconnectedCb
                0x000000004023d314                mqttTimeoutCb
                0x000000004023d360                mqttConnectedCb
                0x000000004023d578                mqttPublishedCb
                0x000000004023d604                mqttDataCb
                0x000000004023dc34                system_init_done
                0x000000004023de94                wifi_changed_cb
                0x000000004023df18                user_init
 *fill*         0x000000004023e032        0x2 
 .irom0.text    0x000000004023e034      0x4a3 build/app_app.a(captdns.o)
                                        0x4d3 (size before relaxing)
                0x000000004023e4a8                captdnsInit
 *fill*         0x000000004023e4d7        0x1 
 .irom0.text    0x000000004023e4d8      0x14b build/app_app.a(led.o)
                                        0x18b (size before relaxing)
                0x000000004023e518                led_init
                0x000000004023e548                led_on
                0x000000004023e564                led_off
                0x000000004023e588                led_pattern_a
                0x000000004023e5c4                led_pattern_b
                0x000000004023e600                led_stop_pattern
 *fill*         0x000000004023e623        0x1 
 .irom0.text    0x000000004023e624      0xa9b build/app_app.a(httpd.o)
                                        0xbfb (size before relaxing)
                0x000000004023e85c                httpdGetMimetype
                0x000000004023e8ec                httpdFindArg
                0x000000004023e9d8                httpdGetHeader
                0x000000004023eadc                httpdSend
                0x000000004023eb34                httpdStartResponse
                0x000000004023eb74                httpdHeader
                0x000000004023ebb8                httpdEndHeaders
                0x000000004023ebd0                httpdRedirect
                0x000000004023ec10                cgiRedirect
                0x000000004023efc4                httpdInit
                0x000000004023f034                httpdStop
 *fill*         0x000000004023f0bf        0x1 
 .irom0.text    0x000000004023f0c0      0x250 build/app_app.a(crypto.o)
                                        0x314 (size before relaxing)
                0x000000004023f0e4                init_aes_hmac_combined
                0x000000004023f1d8                encrypt_aes_hmac_combined
                0x000000004023f27c                decrypt_aes_hmac_combined
 .irom0.text    0x000000004023f310      0x5a7 build/app_app.a(sha256.o)
                                        0x5db (size before relaxing)
                0x000000004023f318                sha256_init
                0x000000004023f358                sha256_transform
                0x000000004023f654                sha256_update
                0x000000004023f670                sha256_final
                0x000000004023f7c8                sha256_end
                0x000000004023f838                sha256_raw
                0x000000004023f878                sha256_data
 *fill*         0x000000004023f8b7        0x1 
 .irom0.text    0x000000004023f8b8      0x7bf build/app_app.a(aes.o)
                                        0x7f3 (size before relaxing)
                0x000000004023feac                AES128_CBC_encrypt_buffer
                0x000000004023ff94                AES128_CBC_decrypt_buffer
 *fill*         0x0000000040240077        0x1 
 .irom0.text    0x0000000040240078      0x5fb build/app_app.a(kmp_request.o)
                                        0x7cf (size before relaxing)
                0x00000000402404e8                kmp_request_init
                0x000000004024051c                kmp_set_mqtt_client
                0x0000000040240524                kmp_get_received_serial
                0x0000000040240550                kmp_request_send
 *fill*         0x0000000040240673        0x1 
 .irom0.text    0x0000000040240674      0x89e build/app_app.a(kmp.o)
                                        0xa12 (size before relaxing)
                0x0000000040240674                kmp_set_clock
                0x0000000040240680                kmp_crc16
                0x000000004024069c                kmp_value_to_double
                0x0000000040240774                kmp_value_to_string
                0x0000000040240910                kmp_unit_to_string
                0x0000000040240a40                kmp_byte_stuff
                0x0000000040240b2c                kmp_get_type
                0x0000000040240bbc                kmp_get_serial
                0x0000000040240c4c                kmp_get_register
                0x0000000040240d30                kmp_byte_unstuff
                0x0000000040240dbc                kmp_decode_frame
 *fill*         0x0000000040240f12        0x2 
 .irom0.text    0x0000000040240f14      0x67f build/app_app.a(cron.o)
                                        0x79f (size before relaxing)
                0x0000000040241318                cron_init
                0x000000004024138c                add_cron_job_from_query
                0x000000004024156c                clear_cron_jobs
 *fill*         0x0000000040241593        0x1 
 .irom0.text    0x0000000040241594      0x3e5 build/app_app.a(ac_out.o)
                                        0x50d (size before relaxing)
                0x0000000040241710                ac_out_init
                0x000000004024174c                ac_test
                0x00000000402417b4                ac_thermo_open
                0x00000000402417f0                ac_thermo_close
                0x000000004024182c                ac_thermo_pwm
                0x0000000040241880                ac_off
                0x00000000402418c8                ac_motor_valve_open
                0x0000000040241924                ac_motor_valve_close
 *fill*         0x0000000040241979        0x3 
 .irom0.text    0x000000004024197c      0x314 build/app_app.a(uart.o)
                                        0x348 (size before relaxing)
                0x0000000040241b00                uart0_write_char
                0x0000000040241b5c                uart1_write_char
                0x0000000040241bb8                uart0_tx_buffer
                0x0000000040241bec                uart0_sendStr
                0x0000000040241c1c                uart_init
                0x0000000040241c7c                uart_reattach
 .irom0.text    0x0000000040241c90      0xf71 build/app_app.a(mqtt.o)
                                       0x12c1 (size before relaxing)
                0x0000000040241c98                mqtt_tcpclient_sent_cb
                0x0000000040241ce4                mqtt_timer
                0x0000000040241d60                mqtt_tcpclient_discon_cb
                0x0000000040241dbc                mqtt_tcpclient_recon_cb
                0x0000000040241e20                mqtt_tcpclient_recv
                0x00000000402420bc                mqtt_tcpclient_connect_cb
                0x000000004024220c                mqtt_send_keepalive
                0x00000000402422c4                mqtt_tcpclient_delete
                0x0000000040242314                mqtt_client_delete
                0x00000000402423f4                MQTT_Publish
                0x00000000402424b0                MQTT_Subscribe
                0x000000004024254c                MQTT_UnSubscribe
                0x00000000402425e4                MQTT_Ping
                0x0000000040242694                MQTT_InitConnection
                0x0000000040242714                MQTT_InitClient
                0x0000000040242850                MQTT_InitLWT
                0x00000000402428fc                MQTT_Connect
                0x0000000040242a40                MQTT_Task
                0x0000000040242b74                MQTT_Disconnect
                0x0000000040242ba8                MQTT_DeleteClient
                0x0000000040242bdc                MQTT_OnConnected
                0x0000000040242be4                MQTT_OnDisconnected
                0x0000000040242bec                MQTT_OnData
                0x0000000040242bf4                MQTT_OnPublished
                0x0000000040242bfc                MQTT_OnTimeout
 *fill*         0x0000000040242c01        0x3 
 .irom0.text    0x0000000040242c04      0x78b build/app_app.a(mqtt_msg.o)
                                        0x7b3 (size before relaxing)
                0x0000000040242d14                mqtt_msg_init
                0x0000000040242d44                mqtt_get_total_length
                0x0000000040242d90                mqtt_get_publish_topic
                0x0000000040242de8                mqtt_get_publish_data
                0x0000000040242e80                mqtt_get_id
                0x0000000040242f3c                mqtt_msg_connect
                0x000000004024309c                mqtt_msg_publish
                0x0000000040243150                mqtt_msg_puback
                0x000000004024318c                mqtt_msg_pubrec
                0x00000000402431c8                mqtt_msg_pubrel
                0x0000000040243204                mqtt_msg_pubcomp
                0x0000000040243240                mqtt_msg_subscribe
                0x00000000402432cc                mqtt_msg_unsubscribe
                0x000000004024333c                mqtt_msg_pingreq
                0x0000000040243358                mqtt_msg_pingresp
                0x0000000040243374                mqtt_msg_disconnect
 *fill*         0x000000004024338f        0x1 
 .irom0.text    0x0000000040243390       0xcb build/app_app.a(queue.o)
                                         0xdf (size before relaxing)
                0x0000000040243394                QUEUE_Init
                0x00000000402433d4                QUEUE_Puts
                0x0000000040243434                QUEUE_Gets
                0x000000004024344c                QUEUE_IsEmpty
 *fill*         0x000000004024345b        0x1 
 .irom0.text    0x000000004024345c      0x26d build/app_app.a(proto.o)
                                        0x289 (size before relaxing)
                0x000000004024345c                PROTO_Init
                0x0000000040243470                PROTO_ParseByte
                0x00000000402434f4                PROTO_Parse
                0x0000000040243530                PROTO_ParseRb
                0x0000000040243580                PROTO_Add
                0x0000000040243620                PROTO_AddRb
 *fill*         0x00000000402436c9        0x3 
 .irom0.text    0x00000000402436cc      0x209 build/app_app.a(config.o)
                                        0x2c9 (size before relaxing)
                0x00000000402436d4                cfg_save
                0x0000000040243710                config_save_timer_func
                0x0000000040243798                cfg_load
                0x000000004024389c                cfg_save_defered
 *fill*         0x00000000402438d5        0x3 
 .irom0.text    0x00000000402438d8      0x3eb build/app_app.a(wifi.o)
                                        0x53f (size before relaxing)
                0x000000004024398c                wifi_default
                0x0000000040243a24                wifi_fallback
                0x0000000040243a84                wifi_get_rssi
                0x0000000040243aa4                wifi_start_scan
                0x0000000040243af8                wifi_scan_done_cb
                0x0000000040243be8                wifi_connect
                0x0000000040243ca0                wifi_stop_scan
                0x0000000040243cb8                wifi_scan_is_running
 *fill*         0x0000000040243cc3        0x1 
 .irom0.text    0x0000000040243cc4      0x333 build/app_app.a(watchdog.o)
                                        0x43f (size before relaxing)
                0x0000000040243e34                init_watchdog
                0x0000000040243e68                start_watchdog
                0x0000000040243edc                stop_watchdog
                0x0000000040243f04                add_watchdog
                0x0000000040243f74                remove_watchdog
                0x0000000040243fc8                reset_watchdog
 *fill*         0x0000000040243ff7        0x1 
 .irom0.text    0x0000000040243ff8      0x4f4 build/app_app.a(cgiwifi.o)
                                        0x654 (size before relaxing)
                0x000000004024402c                wifiScanDoneCb
                0x0000000040244170                cgiWiFiScan
                0x00000000402442a8                cgiSetup
                0x0000000040244380                cgiWifiSetMode
                0x0000000040244400                tplSetup
 .irom0.text    0x00000000402444ec      0xa63 build/app_app.a(tinyprintf.o)
                                        0xa9b (size before relaxing)
                0x0000000040244908                tfp_format
                0x0000000040244e24                init_printf
                0x0000000040244e30                tfp_printf
                0x0000000040244e70                tfp_vsnprintf
                0x0000000040244ebc                tfp_snprintf
                0x0000000040244eec                tfp_vsprintf
                0x0000000040244f24                tfp_sprintf
 *fill*         0x0000000040244f4f        0x1 
 .irom0.text    0x0000000040244f50      0x165 build/app_app.a(unix_time.o)
                                        0x1cd (size before relaxing)
                0x0000000040244fe4                init_unix_time
                0x0000000040245068                get_unix_time
                0x0000000040245084                uptime
 *fill*         0x00000000402450b5        0x3 
 .irom0.text    0x00000000402450b8      0x1b1 build/app_app.a(cgi.o)
                                        0x209 (size before relaxing)
                0x00000000402450c4                cgiLed
                0x0000000040245120                tplLed
                0x0000000040245198                tplCounter
                0x00000000402451fc                cgiReadFlash
 *fill*         0x0000000040245269        0x3 
 .irom0.text    0x000000004024526c      0x314 build/app_app.a(httpdespfs.o)
                                        0x3a0 (size before relaxing)
                0x0000000040245278                cgiEspFsHook
                0x000000004024531c                cgiEspFsTemplate
 .irom0.text    0x0000000040245580      0x2d7 build/app_app.a(espfs.o)
                                        0x2ff (size before relaxing)
                0x0000000040245580                memcpyAligned
                0x00000000402455dc                espFsOpen
                0x0000000040245724                espFsRead
                0x0000000040245828                espFsClose
 *fill*         0x0000000040245857        0x1 
 .irom0.text    0x0000000040245858      0x178 build/app_app.a(utils.o)
                                        0x19c (size before relaxing)
                0x000000004024585c                ccit_crc16
                0x0000000040245890                w_to_kw_str
                0x00000000402458dc                kw_to_w_str
                0x000000004024598c                decimal_number_length
                0x00000000402459b0                int_pow
 .irom0.text    0x00000000402459d0      0x158 build/app_app.a(hmac-sha256.o)
                                        0x1ac (size before relaxing)
                0x00000000402459d0                hmac_sha256_init
                0x0000000040245a64                hmac_sha256_update
                0x0000000040245a7c                hmac_sha256_final
                0x0000000040245adc                hmac_sha256
 .irom0.text    0x0000000040245b28       0xb5 build/app_app.a(gpio16.o)
                                         0xc1 (size before relaxing)
                0x0000000040245b34                gpio16_output_conf
                0x0000000040245b74                gpio16_output_set
                0x0000000040245b90                gpio16_input_conf
                0x0000000040245bd0                gpio16_input_get
 *fill*         0x0000000040245bdd        0x3 
 .irom0.text    0x0000000040245be0      0x187 /home/stoffer/esp8266/esp-open-sdk/sdk/lib/libnet80211.a(ieee80211_crypto_tkip.o)
                                        0x197 (size before relaxing)
 *fill*         0x0000000040245d67        0x1 
 .irom0.text    0x0000000040245d68       0x78 /home/stoffer/esp8266/esp-open-sdk/sdk/lib/libnet80211.a(ieee80211_crypto_wep.o)
                                         0x7c (size before relaxing)
 .irom0.text    0x0000000040245de0      0x97f /home/stoffer/esp8266/esp-open-sdk/sdk/lib/liblwip.a(sntp.o)
                                        0xb7f (size before relaxing)
                0x0000000040245df4                sntp_mktm_r
                0x00000000402460a0                sntp_localtime_r
                0x00000000402460b4                sntp_localtime
                0x00000000402460d0                sntp__tzcalc_limits
                0x000000004024627c                sntp_asctime_r
                0x00000000402462c8                sntp_asctime
                0x00000000402462e0                sntp_get_timezone
                0x00000000402462f4                sntp_set_timezone
                0x000000004024633c                sntp_set_daylight
                0x0000000040246370                sntp_time_inc
                0x000000004024665c                sntp_init
                0x0000000040246694                sntp_stop
                0x00000000402466d4                sntp_setserver
                0x00000000402466f0                sntp_getserver
                0x0000000040246704                sntp_setservername
                0x0000000040246714                sntp_getservername
                0x0000000040246728                sntp_set_update_delay
                0x0000000040246738                sntp_set_timetype
                0x0000000040246740                sntp_set_receive_time_size
 *fill*         0x000000004024675f        0x1 
 .irom0.text    0x0000000040246760      0x1ee /home/stoffer/esp8266/esp-open-sdk/sdk/lib/libmain.a(time.o)
                                        0x262 (size before relaxing)
                0x00000000402467c8                millis
                0x0000000040246800                micros
                0x0000000040246814                updateTime
                0x000000004024683c                configTime
                0x00000000402468cc                time
                0x00000000402468f4                _gettimeofday_r
                0x0000000040246930                getrealtimeofday
 *fill*         0x000000004024694e        0x2 
 .irom0.literal
                0x0000000040246950        0x0 /home/stoffer/esp8266/esp-open-sdk/sdk/lib/libmain.a(app_main.o)
 *fill*         0x0000000040246950        0x0 
 .irom.text     0x0000000040246950      0x510 /home/stoffer/esp8266/esp-open-sdk/sdk/lib/libmain.a(app_main.o)
 .irom0.literal
                0x0000000040246e60        0x0 /home/stoffer/esp8266/esp-open-sdk/sdk/lib/libmain.a(ets_timer.o)
 *fill*         0x0000000040246e60        0x0 
 .irom.text     0x0000000040246e60      0x14c /home/stoffer/esp8266/esp-open-sdk/sdk/lib/libmain.a(ets_timer.o)
 .irom0.literal
                0x0000000040246fac        0x0 /home/stoffer/esp8266/esp-open-sdk/sdk/lib/libmain.a(mem_manager.o)
 *fill*         0x0000000040246fac        0x4 
 .irom.text     0x0000000040246fb0       0x11 /home/stoffer/esp8266/esp-open-sdk/sdk/lib/libmain.a(mem_manager.o)
 *fill*         0x0000000040246fc1        0x3 
 .irom0.literal
                0x0000000040246fc4        0x0 /home/stoffer/esp8266/esp-open-sdk/sdk/lib/libmain.a(spi_flash.o)
 *fill*         0x0000000040246fc4        0xc 
 .irom.text     0x0000000040246fd0      0x12f /home/stoffer/esp8266/esp-open-sdk/sdk/lib/libmain.a(spi_flash.o)
 *fill*         0x00000000402470ff        0x1 
 .irom0.literal
                0x0000000040247100        0x0 /home/stoffer/esp8266/esp-open-sdk/sdk/lib/libmain.a(user_interface.o)
 *fill*         0x0000000040247100        0x0 
 .irom.text     0x0000000040247100      0x2d5 /home/stoffer/esp8266/esp-open-sdk/sdk/lib/libmain.a(user_interface.o)
                0x0000000040247120                default_ssid
 *fill*         0x00000000402473d5        0x3 
 .irom0.literal
                0x00000000402473d8        0x0 /home/stoffer/esp8266/esp-open-sdk/sdk/lib/libmain.a(eagle_lib.o)
 .irom0.literal
                0x00000000402473d8        0x0 /home/stoffer/esp8266/esp-open-sdk/sdk/lib/libmain.a(eagle_lwip_if.o)
 *fill*         0x00000000402473d8        0x8 
 .irom.text     0x00000000402473e0       0x63 /home/stoffer/esp8266/esp-open-sdk/sdk/lib/libmain.a(eagle_lwip_if.o)
 *fill*         0x0000000040247443        0x1 
 .irom0.literal
                0x0000000040247444        0x0 /home/stoffer/esp8266/esp-open-sdk/sdk/lib/libnet80211.a(ieee80211.o)
 *fill*         0x0000000040247444        0xc 
 .irom.text     0x0000000040247450       0x82 /home/stoffer/esp8266/esp-open-sdk/sdk/lib/libnet80211.a(ieee80211.o)
                0x0000000040247460                ieee80211_opcap
 *fill*         0x00000000402474d2        0x2 
 .irom0.literal
                0x00000000402474d4        0x0 /home/stoffer/esp8266/esp-open-sdk/sdk/lib/libnet80211.a(ieee80211_crypto.o)
 *fill*         0x00000000402474d4        0x0 
 .irom0.literal
                0x00000000402474d4        0x0 /home/stoffer/esp8266/esp-open-sdk/sdk/lib/libnet80211.a(ieee80211_hostap.o)
 *fill*         0x00000000402474d4        0xc 
 .irom.text     0x00000000402474e0       0x4b /home/stoffer/esp8266/esp-open-sdk/sdk/lib/libnet80211.a(ieee80211_hostap.o)
 *fill*         0x000000004024752b        0x1 
 .irom0.literal
                0x000000004024752c        0x0 /home/stoffer/esp8266/esp-open-sdk/sdk/lib/libnet80211.a(ieee80211_ht.o)
 *fill*         0x000000004024752c        0x4 
 .irom.text     0x0000000040247530       0x19 /home/stoffer/esp8266/esp-open-sdk/sdk/lib/libnet80211.a(ieee80211_ht.o)
 *fill*         0x0000000040247549        0x3 
 .irom0.literal
                0x000000004024754c        0x0 /home/stoffer/esp8266/esp-open-sdk/sdk/lib/libnet80211.a(ieee80211_input.o)
 *fill*         0x000000004024754c        0x4 
 .irom.text     0x0000000040247550       0x12 /home/stoffer/esp8266/esp-open-sdk/sdk/lib/libnet80211.a(ieee80211_input.o)
 *fill*         0x0000000040247562        0x2 
 .irom0.literal
                0x0000000040247564        0x0 /home/stoffer/esp8266/esp-open-sdk/sdk/lib/libnet80211.a(ieee80211_mesh_quick.o)
 *fill*         0x0000000040247564        0xc 
 .irom.text     0x0000000040247570       0x43 /home/stoffer/esp8266/esp-open-sdk/sdk/lib/libnet80211.a(ieee80211_mesh_quick.o)
 *fill*         0x00000000402475b3        0x1 
 .irom0.literal
                0x00000000402475b4        0x0 /home/stoffer/esp8266/esp-open-sdk/sdk/lib/libnet80211.a(ieee80211_output.o)
 *fill*         0x00000000402475b4        0xc 
 .irom.text     0x00000000402475c0       0x3d /home/stoffer/esp8266/esp-open-sdk/sdk/lib/libnet80211.a(ieee80211_output.o)
 *fill*         0x00000000402475fd        0x3 
 .irom0.literal
                0x0000000040247600        0x0 /home/stoffer/esp8266/esp-open-sdk/sdk/lib/libnet80211.a(ieee80211_phy.o)
 *fill*         0x0000000040247600        0x0 
 .irom.text     0x0000000040247600      0x1b8 /home/stoffer/esp8266/esp-open-sdk/sdk/lib/libnet80211.a(ieee80211_phy.o)
 .irom0.literal
                0x00000000402477b8        0x0 /home/stoffer/esp8266/esp-open-sdk/sdk/lib/libnet80211.a(ieee80211_power.o)
 *fill*         0x00000000402477b8        0x0 
 .irom0.literal
                0x00000000402477b8        0x0 /home/stoffer/esp8266/esp-open-sdk/sdk/lib/libnet80211.a(ieee80211_proto.o)
 *fill*         0x00000000402477b8        0x8 
 .irom.text     0x00000000402477c0       0x1c /home/stoffer/esp8266/esp-open-sdk/sdk/lib/libnet80211.a(ieee80211_proto.o)
 .irom0.literal
                0x00000000402477dc        0x0 /home/stoffer/esp8266/esp-open-sdk/sdk/lib/libnet80211.a(ieee80211_regdomain.o)
 *fill*         0x00000000402477dc        0x4 
 .irom.text     0x00000000402477e0       0x2b /home/stoffer/esp8266/esp-open-sdk/sdk/lib/libnet80211.a(ieee80211_regdomain.o)
 *fill*         0x000000004024780b        0x1 
 .irom0.literal
                0x000000004024780c        0x0 /home/stoffer/esp8266/esp-open-sdk/sdk/lib/libnet80211.a(ieee80211_rfid.o)
 *fill*         0x000000004024780c        0x0 
 .irom0.literal
                0x000000004024780c        0x0 /home/stoffer/esp8266/esp-open-sdk/sdk/lib/libnet80211.a(ieee80211_scan.o)
 *fill*         0x000000004024780c        0x4 
 .irom.text     0x0000000040247810       0x99 /home/stoffer/esp8266/esp-open-sdk/sdk/lib/libnet80211.a(ieee80211_scan.o)
 *fill*         0x00000000402478a9        0x3 
 .irom0.literal
                0x00000000402478ac        0x0 /home/stoffer/esp8266/esp-open-sdk/sdk/lib/libnet80211.a(ieee80211_sta.o)
 *fill*         0x00000000402478ac        0x4 
 .irom.text     0x00000000402478b0       0x26 /home/stoffer/esp8266/esp-open-sdk/sdk/lib/libnet80211.a(ieee80211_sta.o)
 *fill*         0x00000000402478d6        0x2 
 .irom0.literal
                0x00000000402478d8        0x0 /home/stoffer/esp8266/esp-open-sdk/sdk/lib/libnet80211.a(wl_chm.o)
 *fill*         0x00000000402478d8        0x0 
 .irom0.literal
                0x00000000402478d8        0x0 /home/stoffer/esp8266/esp-open-sdk/sdk/lib/libnet80211.a(wl_cnx.o)
 *fill*         0x00000000402478d8        0x8 
 .irom.text     0x00000000402478e0      0x1a7 /home/stoffer/esp8266/esp-open-sdk/sdk/lib/libnet80211.a(wl_cnx.o)
 *fill*         0x0000000040247a87        0x1 
 .irom0.literal
                0x0000000040247a88        0x0 /home/stoffer/esp8266/esp-open-sdk/sdk/lib/libnet80211.a(ieee80211_action.o)
 *fill*         0x0000000040247a88        0x0 
 .irom0.literal
                0x0000000040247a88        0x0 /home/stoffer/esp8266/esp-open-sdk/sdk/lib/libnet80211.a(ieee80211_action_vendor.o)
 *fill*         0x0000000040247a88        0x8 
 .irom.text     0x0000000040247a90       0xe3 /home/stoffer/esp8266/esp-open-sdk/sdk/lib/libnet80211.a(ieee80211_action_vendor.o)
 *fill*         0x0000000040247b73        0x1 
 .irom0.literal
                0x0000000040247b74        0x0 /home/stoffer/esp8266/esp-open-sdk/sdk/lib/libnet80211.a(ieee80211_crypto_ccmp.o)
 *fill*         0x0000000040247b74        0x0 
 .irom.text     0x0000000040247b74       0x18 /home/stoffer/esp8266/esp-open-sdk/sdk/lib/libnet80211.a(ieee80211_crypto_ccmp.o)
                0x0000000040247b74                ccmp
 .irom0.literal
                0x0000000040247b8c        0x0 /home/stoffer/esp8266/esp-open-sdk/sdk/lib/libnet80211.a(ieee80211_ets.o)
 .irom0.literal
                0x0000000040247b8c        0x0 /home/stoffer/esp8266/esp-open-sdk/sdk/lib/libnet80211.a(ieee80211_ie_vendor.o)
 *fill*         0x0000000040247b8c        0x0 
 .irom0.literal
                0x0000000040247b8c        0x0 /home/stoffer/esp8266/esp-open-sdk/sdk/lib/libwpa.a(ap_config.o)
 *fill*         0x0000000040247b8c        0x4 
 .irom.text     0x0000000040247b90        0xc /home/stoffer/esp8266/esp-open-sdk/sdk/lib/libwpa.a(ap_config.o)
 .irom0.literal
                0x0000000040247b9c        0x0 /home/stoffer/esp8266/esp-open-sdk/sdk/lib/libwpa.a(common.o)
 *fill*         0x0000000040247b9c        0x4 
 .irom.text     0x0000000040247ba0        0x9 /home/stoffer/esp8266/esp-open-sdk/sdk/lib/libwpa.a(common.o)
 *fill*         0x0000000040247ba9        0x3 
 .irom0.literal
                0x0000000040247bac        0x0 /home/stoffer/esp8266/esp-open-sdk/sdk/lib/libwpa.a(os_xtensa.o)
 *fill*         0x0000000040247bac        0x4 
 .irom.text     0x0000000040247bb0        0xc /home/stoffer/esp8266/esp-open-sdk/sdk/lib/libwpa.a(os_xtensa.o)
 .irom0.literal
                0x0000000040247bbc        0x0 /home/stoffer/esp8266/esp-open-sdk/sdk/lib/libwpa.a(wpa_auth.o)
 *fill*         0x0000000040247bbc        0x4 
 .irom.text     0x0000000040247bc0       0x74 /home/stoffer/esp8266/esp-open-sdk/sdk/lib/libwpa.a(wpa_auth.o)
 .irom0.literal
                0x0000000040247c34        0x0 /home/stoffer/esp8266/esp-open-sdk/sdk/lib/libwpa.a(wpa_auth_ie.o)
 *fill*         0x0000000040247c34        0xc 
 .irom.text     0x0000000040247c40        0xe /home/stoffer/esp8266/esp-open-sdk/sdk/lib/libwpa.a(wpa_auth_ie.o)
 *fill*         0x0000000040247c4e        0x2 
 .irom0.literal
                0x0000000040247c50        0x0 /home/stoffer/esp8266/esp-open-sdk/sdk/lib/libwpa.a(wpa.o)
 *fill*         0x0000000040247c50        0x0 
 .irom.text     0x0000000040247c50       0x17 /home/stoffer/esp8266/esp-open-sdk/sdk/lib/libwpa.a(wpa.o)
 *fill*         0x0000000040247c67        0x1 
 .irom0.literal
                0x0000000040247c68        0x0 /home/stoffer/esp8266/esp-open-sdk/sdk/lib/libwpa.a(wpa_common.o)
 *fill*         0x0000000040247c68        0x8 
 .irom.text     0x0000000040247c70       0x1c /home/stoffer/esp8266/esp-open-sdk/sdk/lib/libwpa.a(wpa_common.o)
 .irom0.literal
                0x0000000040247c8c        0x0 /home/stoffer/esp8266/esp-open-sdk/sdk/lib/libwpa.a(wpa_debug.o)
 .irom0.literal
                0x0000000040247c8c        0x0 /home/stoffer/esp8266/esp-open-sdk/sdk/lib/libwpa.a(wpa_ie.o)
 *fill*         0x0000000040247c8c        0x0 
 .irom0.literal
                0x0000000040247c8c        0x0 /home/stoffer/esp8266/esp-open-sdk/sdk/lib/libwpa.a(wpa_main.o)
 *fill*         0x0000000040247c8c        0x4 
 .irom.text     0x0000000040247c90       0x67 /home/stoffer/esp8266/esp-open-sdk/sdk/lib/libwpa.a(wpa_main.o)
 *fill*         0x0000000040247cf7        0x1 
 .irom0.literal
                0x0000000040247cf8        0x0 /home/stoffer/esp8266/esp-open-sdk/sdk/lib/libwpa.a(wpas_glue.o)
 *fill*         0x0000000040247cf8        0x0 
 .irom0.literal
                0x0000000040247cf8        0x0 /home/stoffer/esp8266/esp-open-sdk/sdk/lib/libwpa.a(aes-wrap.o)
 *fill*         0x0000000040247cf8        0x0 
 .irom0.literal
                0x0000000040247cf8        0x0 /home/stoffer/esp8266/esp-open-sdk/sdk/lib/libwpa.a(aes-internal-enc.o)
 *fill*         0x0000000040247cf8        0x8 
 .irom.text     0x0000000040247d00       0x13 /home/stoffer/esp8266/esp-open-sdk/sdk/lib/libwpa.a(aes-internal-enc.o)
 *fill*         0x0000000040247d13        0x1 
 .irom0.literal
                0x0000000040247d14        0x0 /home/stoffer/esp8266/esp-open-sdk/sdk/lib/libwpa.a(aes-internal.o)
 .irom0.literal
                0x0000000040247d14        0x0 /home/stoffer/esp8266/esp-open-sdk/sdk/lib/liblwip.a(dhcp.o)
 *fill*         0x0000000040247d14        0xc 
 .irom.text     0x0000000040247d20       0x1e /home/stoffer/esp8266/esp-open-sdk/sdk/lib/liblwip.a(dhcp.o)
 *fill*         0x0000000040247d3e        0x2 
 .irom0.literal
                0x0000000040247d40        0x0 /home/stoffer/esp8266/esp-open-sdk/sdk/lib/liblwip.a(dhcpserver.o)
 *fill*         0x0000000040247d40        0x0 
 .irom.text     0x0000000040247d40       0x45 /home/stoffer/esp8266/esp-open-sdk/sdk/lib/liblwip.a(dhcpserver.o)
 *fill*         0x0000000040247d85        0x3 
 .irom0.literal
                0x0000000040247d88        0x0 /home/stoffer/esp8266/esp-open-sdk/sdk/lib/liblwip.a(dns.o)
 *fill*         0x0000000040247d88        0x0 
 .irom.text     0x0000000040247d88        0x6 /home/stoffer/esp8266/esp-open-sdk/sdk/lib/liblwip.a(dns.o)
 *fill*         0x0000000040247d8e        0x2 
 .irom0.literal
                0x0000000040247d90        0x0 /home/stoffer/esp8266/esp-open-sdk/sdk/lib/liblwip.a(espconn_tcp.o)
 *fill*         0x0000000040247d90        0x0 
 .irom.text     0x0000000040247d90       0xab /home/stoffer/esp8266/esp-open-sdk/sdk/lib/liblwip.a(espconn_tcp.o)
 *fill*         0x0000000040247e3b        0x1 
 .irom0.literal
                0x0000000040247e3c        0x0 /home/stoffer/esp8266/esp-open-sdk/sdk/lib/liblwip.a(etharp.o)
 *fill*         0x0000000040247e3c        0x4 
 .irom.text     0x0000000040247e40        0x9 /home/stoffer/esp8266/esp-open-sdk/sdk/lib/liblwip.a(etharp.o)
 *fill*         0x0000000040247e49        0x3 
 .irom0.literal
                0x0000000040247e4c        0x0 /home/stoffer/esp8266/esp-open-sdk/sdk/lib/liblwip.a(init.o)
 .irom0.literal
                0x0000000040247e4c        0x0 /home/stoffer/esp8266/esp-open-sdk/sdk/lib/liblwip.a(ip_addr.o)
 *fill*         0x0000000040247e4c        0x0 
 .irom.text     0x0000000040247e4c        0x8 /home/stoffer/esp8266/esp-open-sdk/sdk/lib/liblwip.a(ip_addr.o)
                0x0000000040247e4c                ip_addr_any
                0x0000000040247e50                ip_addr_broadcast
 .irom0.literal
                0x0000000040247e54        0x0 /home/stoffer/esp8266/esp-open-sdk/sdk/lib/liblwip.a(ip.o)
 *fill*         0x0000000040247e54        0xc 
 .irom.text     0x0000000040247e60       0x11 /home/stoffer/esp8266/esp-open-sdk/sdk/lib/liblwip.a(ip.o)
 *fill*         0x0000000040247e71        0xf 
 .irom.text     0x0000000040247e80       0x28 /home/stoffer/esp8266/esp-open-sdk/sdk/lib/liblwip.a(memp.o)
                0x0000000040247e80                memp_sizes
 .irom0.literal
                0x0000000040247ea8        0x0 /home/stoffer/esp8266/esp-open-sdk/sdk/lib/liblwip.a(netif.o)
 *fill*         0x0000000040247ea8        0x0 
 .irom0.literal
                0x0000000040247ea8        0x0 /home/stoffer/esp8266/esp-open-sdk/sdk/lib/liblwip.a(pbuf.o)
 *fill*         0x0000000040247ea8        0x0 
 .irom.text     0x0000000040247ea8        0x7 /home/stoffer/esp8266/esp-open-sdk/sdk/lib/liblwip.a(pbuf.o)
 *fill*         0x0000000040247eaf        0x1 
 .irom0.literal
                0x0000000040247eb0        0x0 /home/stoffer/esp8266/esp-open-sdk/sdk/lib/liblwip.a(raw.o)
 *fill*         0x0000000040247eb0        0x0 
 .irom.text     0x0000000040247eb0        0x6 /home/stoffer/esp8266/esp-open-sdk/sdk/lib/liblwip.a(raw.o)
 *fill*         0x0000000040247eb6        0x2 
 .irom0.literal
                0x0000000040247eb8        0x0 /home/stoffer/esp8266/esp-open-sdk/sdk/lib/liblwip.a(tcp_in.o)
 *fill*         0x0000000040247eb8        0x8 
 .irom.text     0x0000000040247ec0        0x9 /home/stoffer/esp8266/esp-open-sdk/sdk/lib/liblwip.a(tcp_in.o)
 *fill*         0x0000000040247ec9        0x3 
 .irom0.literal
                0x0000000040247ecc        0x0 /home/stoffer/esp8266/esp-open-sdk/sdk/lib/liblwip.a(tcp.o)
 *fill*         0x0000000040247ecc        0x4 
 .irom.text     0x0000000040247ed0       0x3d /home/stoffer/esp8266/esp-open-sdk/sdk/lib/liblwip.a(tcp.o)
                0x0000000040247ee0                tcp_pcb_lists
                0x0000000040247ef0                tcp_persist_backoff
                0x0000000040247f00                tcp_backoff
 *fill*         0x0000000040247f0d        0x3 
 .irom0.literal
                0x0000000040247f10        0x0 /home/stoffer/esp8266/esp-open-sdk/sdk/lib/liblwip.a(tcp_out.o)
 *fill*         0x0000000040247f10        0x0 
 .irom.text     0x0000000040247f10        0xa /home/stoffer/esp8266/esp-open-sdk/sdk/lib/liblwip.a(tcp_out.o)
 *fill*         0x0000000040247f1a        0x2 
 .irom0.literal
                0x0000000040247f1c        0x0 /home/stoffer/esp8266/esp-open-sdk/sdk/lib/liblwip.a(timers.o)
 *fill*         0x0000000040247f1c        0x4 
 .irom.text     0x0000000040247f20        0x9 /home/stoffer/esp8266/esp-open-sdk/sdk/lib/liblwip.a(timers.o)
 *fill*         0x0000000040247f29        0x3 
 .irom0.literal
                0x0000000040247f2c        0x0 /home/stoffer/esp8266/esp-open-sdk/sdk/lib/liblwip.a(udp.o)
 *fill*         0x0000000040247f2c        0x4 
 .irom.text     0x0000000040247f30        0x6 /home/stoffer/esp8266/esp-open-sdk/sdk/lib/liblwip.a(udp.o)
 *fill*         0x0000000040247f36        0xa 
 .irom.text     0x0000000040247f40       0x57 /home/stoffer/esp8266/esp-open-sdk/sdk/lib/liblwip.a(espconn_buf.o)
 *fill*         0x0000000040247f97        0x1 
 .irom0.literal
                0x0000000040247f98        0x0 /home/stoffer/esp8266/esp-open-sdk/sdk/lib/liblwip.a(espconn.o)
 *fill*         0x0000000040247f98        0x8 
 .irom.text     0x0000000040247fa0        0xa /home/stoffer/esp8266/esp-open-sdk/sdk/lib/liblwip.a(espconn.o)
 *fill*         0x0000000040247faa        0x2 
 .irom0.literal
                0x0000000040247fac        0x0 /home/stoffer/esp8266/esp-open-sdk/sdk/lib/liblwip.a(espconn_udp.o)
 *fill*         0x0000000040247fac        0x4 
 .irom.text     0x0000000040247fb0        0xe /home/stoffer/esp8266/esp-open-sdk/sdk/lib/liblwip.a(espconn_udp.o)
 *fill*         0x0000000040247fbe        0x2 
 .irom0.literal
                0x0000000040247fc0        0x0 /home/stoffer/esp8266/esp-open-sdk/sdk/lib/liblwip.a(icmp.o)
 *fill*         0x0000000040247fc0        0x0 
 .irom0.literal
                0x0000000040247fc0        0x0 /home/stoffer/esp8266/esp-open-sdk/sdk/lib/liblwip.a(igmp.o)
 *fill*         0x0000000040247fc0        0x0 
 .irom.text     0x0000000040247fc0        0x7 /home/stoffer/esp8266/esp-open-sdk/sdk/lib/liblwip.a(igmp.o)
 *fill*         0x0000000040247fc7        0x1 
 .irom0.literal
                0x0000000040247fc8        0x0 /home/stoffer/esp8266/esp-open-sdk/sdk/lib/liblwip.a(inet_chksum.o)
 .irom0.text    0x0000000040247fc8      0x298 /home/stoffer/esp8266/esp-open-sdk/sdk/lib/liblwip.a(inet_chksum.o)
                0x0000000040248040                inet_chksum_pseudo
                0x0000000040248100                inet_chksum_pseudo_partial
                0x00000000402481dc                inet_chksum
                0x00000000402481f4                inet_chksum_pbuf
 .irom0.literal
                0x0000000040248260        0x0 /home/stoffer/esp8266/esp-open-sdk/sdk/lib/libpp.a(esf_buf.o)
 *fill*         0x0000000040248260        0x0 
 .irom.text     0x0000000040248260        0xa /home/stoffer/esp8266/esp-open-sdk/sdk/lib/libpp.a(esf_buf.o)
 *fill*         0x000000004024826a        0x2 
 .irom0.literal
                0x000000004024826c        0x0 /home/stoffer/esp8266/esp-open-sdk/sdk/lib/libpp.a(if_hwctrl.o)
 *fill*         0x000000004024826c        0x4 
 .irom.text     0x0000000040248270       0x50 /home/stoffer/esp8266/esp-open-sdk/sdk/lib/libpp.a(if_hwctrl.o)
 .irom0.literal
                0x00000000402482c0        0x0 /home/stoffer/esp8266/esp-open-sdk/sdk/lib/libpp.a(lmac.o)
 *fill*         0x00000000402482c0        0x0 
 .irom.text     0x00000000402482c0       0x2f /home/stoffer/esp8266/esp-open-sdk/sdk/lib/libpp.a(lmac.o)
 *fill*         0x00000000402482ef        0x1 
 .irom0.literal
                0x00000000402482f0        0x0 /home/stoffer/esp8266/esp-open-sdk/sdk/lib/libpp.a(pm.o)
 *fill*         0x00000000402482f0        0x0 
 .irom.text     0x00000000402482f0      0x16d /home/stoffer/esp8266/esp-open-sdk/sdk/lib/libpp.a(pm.o)
 *fill*         0x000000004024845d        0x3 
 .irom0.literal
                0x0000000040248460        0x0 /home/stoffer/esp8266/esp-open-sdk/sdk/lib/libpp.a(pm_for_bcn_only_mode.o)
 *fill*         0x0000000040248460        0x0 
 .irom.text     0x0000000040248460      0x118 /home/stoffer/esp8266/esp-open-sdk/sdk/lib/libpp.a(pm_for_bcn_only_mode.o)
 .irom0.literal
                0x0000000040248578        0x0 /home/stoffer/esp8266/esp-open-sdk/sdk/lib/libpp.a(pp.o)
 *fill*         0x0000000040248578        0x8 
 .irom.text     0x0000000040248580       0x5b /home/stoffer/esp8266/esp-open-sdk/sdk/lib/libpp.a(pp.o)
 *fill*         0x00000000402485db        0x1 
 .irom0.literal
                0x00000000402485dc        0x0 /home/stoffer/esp8266/esp-open-sdk/sdk/lib/libpp.a(rate_control.o)
 *fill*         0x00000000402485dc        0x0 
 .irom0.literal
                0x00000000402485dc        0x0 /home/stoffer/esp8266/esp-open-sdk/sdk/lib/libpp.a(trc.o)
 *fill*         0x00000000402485dc        0x4 
 .irom.text     0x00000000402485e0       0x38 /home/stoffer/esp8266/esp-open-sdk/sdk/lib/libpp.a(trc.o)
 .irom0.literal
                0x0000000040248618        0x0 /home/stoffer/esp8266/esp-open-sdk/sdk/lib/libpp.a(wdev.o)
 *fill*         0x0000000040248618        0x0 
 .irom.text     0x0000000040248618        0x7 /home/stoffer/esp8266/esp-open-sdk/sdk/lib/libpp.a(wdev.o)
 *fill*         0x000000004024861f        0x1 
 .irom0.literal
                0x0000000040248620        0x0 /home/stoffer/esp8266/esp-open-sdk/sdk/lib/libphy.a(phy.o)
 *fill*         0x0000000040248620        0x0 
 .irom0.literal
                0x0000000040248620        0x0 /home/stoffer/esp8266/esp-open-sdk/sdk/lib/libphy.a(phy_chip_v6_ana.o)
 *fill*         0x0000000040248620        0x0 
 .irom.text     0x0000000040248620       0x65 /home/stoffer/esp8266/esp-open-sdk/sdk/lib/libphy.a(phy_chip_v6_ana.o)
 *fill*         0x0000000040248685        0x3 
 .irom0.literal
                0x0000000040248688        0x0 /home/stoffer/esp8266/esp-open-sdk/sdk/lib/libphy.a(phy_chip_v6.o)
 *fill*         0x0000000040248688        0x8 
 .irom.text     0x0000000040248690      0x14c /home/stoffer/esp8266/esp-open-sdk/sdk/lib/libphy.a(phy_chip_v6.o)
 .irom0.literal
                0x00000000402487dc        0x0 /home/stoffer/esp8266/esp-open-sdk/sdk/lib/libphy.a(phy_chip_v6_cal.o)
 *fill*         0x00000000402487dc        0x4 
 .irom.text     0x00000000402487e0      0x1f4 /home/stoffer/esp8266/esp-open-sdk/sdk/lib/libphy.a(phy_chip_v6_cal.o)
 .irom0.literal
                0x00000000402489d4        0x0 /home/stoffer/esp8266/esp-open-sdk/sdk/lib/libphy.a(phy_chip_v6_unused.o)
 .irom0.text    0x00000000402489d4        0xc /home/stoffer/esp8266/esp-open-sdk/sdk/lib/libphy.a(phy_chip_v6_unused.o)
                0x00000000402489d4                chip_v6_set_sense
                0x00000000402489d8                chip_v6_get_sense
                0x00000000402489dc                chip_v6_unset_chanfreq
 .irom0.literal
                0x00000000402489e0        0x0 /home/stoffer/esp8266/esp-open-sdk/sdk/lib/libphy.a(phy_sleep.o)
 *fill*         0x00000000402489e0        0x0 
 .irom0.literal
                0x00000000402489e0        0x0 build/app_app.a(user_main.o)
 *fill*         0x00000000402489e0        0x0 
 .irom0.literal
                0x00000000402489e0        0x0 build/app_app.a(captdns.o)
 *fill*         0x00000000402489e0        0x0 
 .irom0.literal
                0x00000000402489e0        0x0 build/app_app.a(led.o)
 *fill*         0x00000000402489e0        0x0 
 .irom0.literal
                0x00000000402489e0        0x0 build/app_app.a(httpd.o)
 *fill*         0x00000000402489e0        0x0 
 .irom0.literal
                0x00000000402489e0        0x0 build/app_app.a(crypto.o)
 .irom0.literal
                0x00000000402489e0        0x0 build/app_app.a(sha256.o)
 *fill*         0x00000000402489e0        0x0 
 .irom0.literal
                0x00000000402489e0        0x0 build/app_app.a(aes.o)
 *fill*         0x00000000402489e0        0x0 
 .irom0.literal
                0x00000000402489e0        0x0 build/app_app.a(kmp_request.o)
 *fill*         0x00000000402489e0        0x0 
 .irom0.literal
                0x00000000402489e0        0x0 build/app_app.a(kmp.o)
 *fill*         0x00000000402489e0        0x0 
 .irom0.literal
                0x00000000402489e0        0x0 build/app_app.a(cron.o)
 *fill*         0x00000000402489e0        0x0 
 .irom0.literal
                0x00000000402489e0        0x0 build/app_app.a(ac_out.o)
 *fill*         0x00000000402489e0        0x0 
 .irom0.literal
                0x00000000402489e0        0x0 build/app_app.a(uart.o)
 .irom0.literal
                0x00000000402489e0        0x0 build/app_app.a(mqtt.o)
 *fill*         0x00000000402489e0        0x0 
 .irom0.literal
                0x00000000402489e0        0x0 build/app_app.a(mqtt_msg.o)
 *fill*         0x00000000402489e0        0x0 
 .irom0.literal
                0x00000000402489e0        0x0 build/app_app.a(queue.o)
 *fill*         0x00000000402489e0        0x0 
 .irom0.literal
                0x00000000402489e0        0x0 build/app_app.a(mqtt_utils.o)
 .irom0.text    0x00000000402489e0      0x107 build/app_app.a(mqtt_utils.o)
                0x00000000402489e0                UTILS_IsIPV4
                0x0000000040248a34                UTILS_StrToIP
                0x0000000040248a90                UTILS_Atoh
 *fill*         0x0000000040248ae7        0x1 
 .irom0.literal
                0x0000000040248ae8        0x0 build/app_app.a(proto.o)
 *fill*         0x0000000040248ae8        0x0 
 .irom0.literal
                0x0000000040248ae8        0x0 build/app_app.a(config.o)
 *fill*         0x0000000040248ae8        0x0 
 .irom0.literal
                0x0000000040248ae8        0x0 build/app_app.a(wifi.o)
 *fill*         0x0000000040248ae8        0x0 
 .irom0.literal
                0x0000000040248ae8        0x0 build/app_app.a(watchdog.o)
 *fill*         0x0000000040248ae8        0x0 
 .irom0.literal
                0x0000000040248ae8        0x0 build/app_app.a(cgiwifi.o)
 .irom0.literal
                0x0000000040248ae8        0x0 build/app_app.a(tinyprintf.o)
 *fill*         0x0000000040248ae8        0x0 
 .irom0.literal
                0x0000000040248ae8        0x0 build/app_app.a(unix_time.o)
 *fill*         0x0000000040248ae8        0x0 
 .irom0.literal
                0x0000000040248ae8        0x0 build/app_app.a(cgi.o)
 *fill*         0x0000000040248ae8        0x0 
 .irom0.literal
                0x0000000040248ae8        0x0 build/app_app.a(httpdespfs.o)
 .irom0.literal
                0x0000000040248ae8        0x0 build/app_app.a(espfs.o)
 *fill*         0x0000000040248ae8        0x0 
 .irom0.literal
                0x0000000040248ae8        0x0 build/app_app.a(utils.o)
 .irom0.literal
                0x0000000040248ae8        0x0 build/app_app.a(hmac-sha256.o)
 .irom0.literal
                0x0000000040248ae8        0x0 build/app_app.a(gpio16.o)
 *fill*         0x0000000040248ae8        0x0 
 .irom0.literal
                0x0000000040248ae8        0x0 build/app_app.a(ringbuf.o)
 .irom0.text    0x0000000040248ae8       0xbc build/app_app.a(ringbuf.o)
                0x0000000040248ae8                RINGBUF_Init
                0x0000000040248b18                RINGBUF_Put
                0x0000000040248b60                RINGBUF_Get
 .irom0.literal
                0x0000000040248ba4        0x0 /home/stoffer/esp8266/esp-open-sdk/sdk/lib/libnet80211.a(ieee80211_crypto_tkip.o)
 *fill*         0x0000000040248ba4        0x0 
 .irom.text     0x0000000040248ba4       0x18 /home/stoffer/esp8266/esp-open-sdk/sdk/lib/libnet80211.a(ieee80211_crypto_tkip.o)
                0x0000000040248ba4                tkip
 .irom0.literal
                0x0000000040248bbc        0x0 /home/stoffer/esp8266/esp-open-sdk/sdk/lib/libnet80211.a(ieee80211_crypto_wep.o)
 .irom.text     0x0000000040248bbc       0x18 /home/stoffer/esp8266/esp-open-sdk/sdk/lib/libnet80211.a(ieee80211_crypto_wep.o)
                0x0000000040248bbc                wep
 .irom0.literal
                0x0000000040248bd4        0x0 /home/stoffer/esp8266/esp-open-sdk/sdk/lib/liblwip.a(sntp.o)
 *fill*         0x0000000040248bd4        0xc 
 .irom.text     0x0000000040248be0       0x1b /home/stoffer/esp8266/esp-open-sdk/sdk/lib/liblwip.a(sntp.o)
 *fill*         0x0000000040248bfb        0x1 
 .irom0.literal
                0x0000000040248bfc        0x0 /home/stoffer/esp8266/esp-open-sdk/sdk/lib/libmain.a(time.o)
                0x0000000040248bfc                _irom0_text_end = ABSOLUTE (.)

.text           0x0000000040100000     0x7eb4
                0x0000000040100000                _stext = .
                0x0000000040100000                _text_start = ABSOLUTE (.)
 *(.UserEnter.text)
 .UserEnter.text
                0x0000000040100000        0xd /home/stoffer/esp8266/esp-open-sdk/sdk/lib/libmain.a(vector.o)
                                         0x14 (size before relaxing)
                0x0000000040100004                call_user_start
                0x0000000040100010                . = ALIGN (0x10)
 *fill*         0x000000004010000d        0x3 
 *(.DebugExceptionVector.text)
 .DebugExceptionVector.text
                0x0000000040100010        0x6 /home/stoffer/esp8266/esp-open-sdk/sdk/lib/libmain.a(debug-vector.o)
                0x0000000040100010                _DebugExceptionVector
                0x0000000040100020                . = ALIGN (0x10)
 *fill*         0x0000000040100016        0xa 
 *(.NMIExceptionVector.text)
 .NMIExceptionVector.text
                0x0000000040100020        0x6 /home/stoffer/esp8266/esp-open-sdk/sdk/lib/libmain.a(nmi-vector.o)
                                          0xd (size before relaxing)
                0x0000000040100020                _NMIExceptionVector
                0x0000000040100030                . = ALIGN (0x10)
 *fill*         0x0000000040100026        0xa 
 *(.KernelExceptionVector.text)
 .KernelExceptionVector.text
                0x0000000040100030        0x6 /home/stoffer/esp8266/esp-open-sdk/sdk/lib/libmain.a(kernel-vector.o)
                0x0000000040100030                _KernelExceptionVector
                0x0000000040100036        0x4 LONG 0x0
                0x000000004010003a        0x4 LONG 0x0
                0x000000004010003e        0x4 LONG 0x0
                0x0000000040100042        0x4 LONG 0x0
                0x0000000040100050                . = ALIGN (0x10)
 *fill*         0x0000000040100046        0xa 
 *(.UserExceptionVector.text)
 .UserExceptionVector.text
                0x0000000040100050        0x6 /home/stoffer/esp8266/esp-open-sdk/sdk/lib/libmain.a(user-vector.o)
                                          0xd (size before relaxing)
                0x0000000040100050                _UserExceptionVector
                0x0000000040100056        0x4 LONG 0x0
                0x000000004010005a        0x4 LONG 0x0
                0x000000004010005e        0x4 LONG 0x0
                0x0000000040100062        0x4 LONG 0x0
                0x0000000040100070                . = ALIGN (0x10)
 *fill*         0x0000000040100066        0xa 
 *(.DoubleExceptionVector.text)
 .DoubleExceptionVector.text
                0x0000000040100070        0x6 /home/stoffer/esp8266/esp-open-sdk/sdk/lib/libmain.a(double-vector.o)
                0x0000000040100070                _DoubleExceptionVector
                0x0000000040100076        0x4 LONG 0x0
                0x000000004010007a        0x4 LONG 0x0
                0x000000004010007e        0x4 LONG 0x0
                0x0000000040100082        0x4 LONG 0x0
                0x0000000040100090                . = ALIGN (0x10)
 *fill*         0x0000000040100086        0xa 
 *(.entry.text)
 *(.init.literal)
 *(.init)
 *(.literal .text .literal.* .text.* .stub .gnu.warning .gnu.linkonce.literal.* .gnu.linkonce.t.*.literal .gnu.linkonce.t.*)
 .text          0x0000000040100090       0xc7 /home/stoffer/esp8266/esp-open-sdk/sdk/lib/libmain.a(nmi-vector.o)
                                         0xcb (size before relaxing)
                0x000000004010009c                _NMILevelVector
 *fill*         0x0000000040100157        0x1 
 .text          0x0000000040100158       0x1e /home/stoffer/esp8266/esp-open-sdk/sdk/lib/libmain.a(user-vector.o)
                0x000000004010015c                _UserExceptionVector_1
 *fill*         0x0000000040100176        0x2 
 .text          0x0000000040100178      0x67a /home/stoffer/esp8266/esp-open-sdk/sdk/lib/libmain.a(app_main.o)
                                        0x6f6 (size before relaxing)
                0x00000000401001b0                Cache_Read_Enable_New
                0x00000000401001ec                NmiTimSetFunc
                0x0000000040100210                NMI_Handler
                0x0000000040100268                call_user_start_local
                0x00000000401003c8                wdt_feed
 *fill*         0x00000000401007f2        0x2 
 .text          0x00000000401007f4      0x3cc /home/stoffer/esp8266/esp-open-sdk/sdk/lib/libmain.a(ets_timer.o)
                                        0x450 (size before relaxing)
                0x00000000401008c8                ets_timer_setfn
                0x00000000401009a4                ets_timer_disarm
                0x0000000040100a54                ets_timer_arm_new
 .text          0x0000000040100bc0      0x30f /home/stoffer/esp8266/esp-open-sdk/sdk/lib/libmain.a(mem_manager.o)
                                        0x367 (size before relaxing)
                0x0000000040100bc4                prvInsertBlockIntoUsedList
                0x0000000040100bf4                system_show_malloc
                0x0000000040100bf4                pvShowMalloc
                0x0000000040100c80                prvRemoveBlockFromUsedList
                0x0000000040100cac                xPortWantedSizeAlign
                0x0000000040100cd4                pvPortMalloc
                0x0000000040100d9c                vPortFree
                0x0000000040100df4                pvPortCalloc
                0x0000000040100e24                pvPortZalloc
                0x0000000040100e40                pvPortRealloc
 *fill*         0x0000000040100ecf        0x1 
 .text          0x0000000040100ed0      0x9b3 /home/stoffer/esp8266/esp-open-sdk/sdk/lib/libmain.a(spi_flash.o)
                                        0xb1f (size before relaxing)
                0x0000000040100ed4                Cache_Read_Disable_2
                0x0000000040100f14                Cache_Read_Enable_2
                0x0000000040100f64                spi_flash_get_unique_id
                0x00000000401010c8                spi_flash_get_id
                0x0000000040101124                spi_flash_read_status
                0x0000000040101158                spi_flash_write_status
                0x00000000401011c0                flash_gd25q32c_read_status
                0x0000000040101354                flash_gd25q32c_write_status
                0x00000000401014e0                spi_flash_check_wr_protect
                0x0000000040101574                spi_flash_erase_sector
                0x00000000401015a4                spi_flash_enable_qmode
                0x00000000401015d4                spi_flash_write
                0x0000000040101628                spi_flash_read
                0x0000000040101694                spi_flash_issi_enable_QIO_mode
                0x0000000040101834                flash_gd25q32c_enable_QIO_mode
 *fill*         0x0000000040101883        0x1 
 .text          0x0000000040101884      0x336 /home/stoffer/esp8266/esp-open-sdk/sdk/lib/libmain.a(user_interface.o)
                                        0x39e (size before relaxing)
                0x00000000401018a0                os_printf_plus
                0x00000000401019cc                system_restart_core
                0x0000000040101a0c                system_deep_sleep_local_2
                0x0000000040101ac0                system_get_time
                0x0000000040101ad8                system_os_post
                0x0000000040101b0c                system_rtc_mem_write
                0x0000000040101b64                system_rtc_mem_read
 *fill*         0x0000000040101bba        0x2 
 .literal       0x0000000040101bbc        0x0 /home/stoffer/esp8266/esp-open-sdk/sdk/lib/libmain.a(user_rf_cal_sector_set.o)
                                          0x4 (size before relaxing)
 .literal       0x0000000040101bbc        0x4 /home/stoffer/esp8266/esp-open-sdk/sdk/lib/libgcc.a(_mulsf3.o)
                                         0x10 (size before relaxing)
 .literal       0x0000000040101bc0        0x0 /home/stoffer/esp8266/esp-open-sdk/sdk/lib/libgcc.a(_divsf3.o)
                                         0x10 (size before relaxing)
 .literal       0x0000000040101bc0        0x0 /home/stoffer/esp8266/esp-open-sdk/sdk/lib/libgcc.a(_fixsfsi.o)
                                          0x4 (size before relaxing)
 .literal       0x0000000040101bc0        0x0 /home/stoffer/esp8266/esp-open-sdk/xtensa-lx106-elf/lib/gcc/xtensa-lx106-elf/4.8.5/../../../../xtensa-lx106-elf/lib/libc.a(lib_a-atoi.o)
                                          0x8 (size before relaxing)
 .literal       0x0000000040101bc0        0x4 /home/stoffer/esp8266/esp-open-sdk/xtensa-lx106-elf/lib/gcc/xtensa-lx106-elf/4.8.5/../../../../xtensa-lx106-elf/lib/libc.a(lib_a-gmtime.o)
                                          0x8 (size before relaxing)
 .literal       0x0000000040101bc4        0x0 /home/stoffer/esp8266/esp-open-sdk/xtensa-lx106-elf/lib/gcc/xtensa-lx106-elf/4.8.5/../../../../xtensa-lx106-elf/lib/libc.a(lib_a-gmtime_r.o)
                                          0x4 (size before relaxing)
 .literal       0x0000000040101bc4       0x1c /home/stoffer/esp8266/esp-open-sdk/xtensa-lx106-elf/lib/gcc/xtensa-lx106-elf/4.8.5/../../../../xtensa-lx106-elf/lib/libc.a(lib_a-mktm_r.o)
                                         0x88 (size before relaxing)
 .literal       0x0000000040101be0        0x8 /home/stoffer/esp8266/esp-open-sdk/xtensa-lx106-elf/lib/gcc/xtensa-lx106-elf/4.8.5/../../../../xtensa-lx106-elf/lib/libc.a(lib_a-strlen.o)
                                          0xc (size before relaxing)
 .literal       0x0000000040101be8        0x0 /home/stoffer/esp8266/esp-open-sdk/xtensa-lx106-elf/lib/gcc/xtensa-lx106-elf/4.8.5/../../../../xtensa-lx106-elf/lib/libc.a(lib_a-strtok.o)
                                          0x8 (size before relaxing)
 .literal       0x0000000040101be8        0xc /home/stoffer/esp8266/esp-open-sdk/xtensa-lx106-elf/lib/gcc/xtensa-lx106-elf/4.8.5/../../../../xtensa-lx106-elf/lib/libc.a(lib_a-strtol.o)
                                         0x18 (size before relaxing)
 .literal       0x0000000040101bf4        0x4 /home/stoffer/esp8266/esp-open-sdk/xtensa-lx106-elf/lib/gcc/xtensa-lx106-elf/4.8.5/../../../../xtensa-lx106-elf/lib/libc.a(lib_a-gettzinfo.o)
 .literal       0x0000000040101bf8        0x4 /home/stoffer/esp8266/esp-open-sdk/xtensa-lx106-elf/lib/gcc/xtensa-lx106-elf/4.8.5/../../../../xtensa-lx106-elf/lib/libc.a(lib_a-sysgettod.o)
                                          0x8 (size before relaxing)
 .text          0x0000000040101bfc       0x29 /home/stoffer/esp8266/esp-open-sdk/sdk/lib/libmain.a(user_rf_cal_sector_set.o)
                0x0000000040101bfc                user_rf_cal_sector_set
 *fill*         0x0000000040101c25        0x3 
 .text          0x0000000040101c28       0x4a /home/stoffer/esp8266/esp-open-sdk/sdk/lib/libnet80211.a(ieee80211_output.o)
                                         0x4e (size before relaxing)
 *fill*         0x0000000040101c72        0x2 
 .text          0x0000000040101c74        0xb /home/stoffer/esp8266/esp-open-sdk/sdk/lib/libnet80211.a(wl_chm.o)
                0x0000000040101c78                chm_get_current_channel
 *fill*         0x0000000040101c7f        0x1 
 .text          0x0000000040101c80       0x43 /home/stoffer/esp8266/esp-open-sdk/sdk/lib/liblwip.a(etharp.o)
                                         0x47 (size before relaxing)
 *fill*         0x0000000040101cc3        0x1 
 .text          0x0000000040101cc4      0x201 /home/stoffer/esp8266/esp-open-sdk/sdk/lib/liblwip.a(tcp.o)
                                        0x229 (size before relaxing)
 *fill*         0x0000000040101ec5        0x3 
 .text          0x0000000040101ec8      0x159 /home/stoffer/esp8266/esp-open-sdk/sdk/lib/liblwip.a(tcp_out.o)
                                        0x161 (size before relaxing)
 *fill*         0x0000000040102021        0x3 
 .text          0x0000000040102024       0xb4 /home/stoffer/esp8266/esp-open-sdk/sdk/lib/liblwip.a(timers.o)
                                         0xc0 (size before relaxing)
 .text          0x00000000401020d8      0x48f /home/stoffer/esp8266/esp-open-sdk/sdk/lib/liblwip.a(espconn_buf.o)
                                        0x50e (size before relaxing)
                0x00000000401020dc                ringbuf_new
                0x000000004010212c                ringbuf_buffer_size
                0x0000000040102130                ringbuf_reset
                0x0000000040102140                ringbuf_free
                0x0000000040102180                ringbuf_capacity
                0x00000000401021b0                ringbuf_bytes_free
                0x00000000401021e0                ringbuf_bytes_used
                0x0000000040102204                ringbuf_is_full
                0x000000004010221c                ringbuf_is_empty
                0x0000000040102244                ringbuf_tail
                0x0000000040102248                ringbuf_head
                0x00000000401022a4                ringbuf_findchr
                0x0000000040102344                ringbuf_memset
                0x000000004010240c                ringbuf_memcpy_into
                0x00000000401024c4                ringbuf_memcpy_from
 *fill*         0x0000000040102567        0x1 
 .text          0x0000000040102568       0x4c /home/stoffer/esp8266/esp-open-sdk/sdk/lib/libpp.a(esf_buf.o)
                                         0x5c (size before relaxing)
                0x000000004010256c                esf_rx_buf_alloc
 .text          0x00000000401025b4     0x161a /home/stoffer/esp8266/esp-open-sdk/sdk/lib/libpp.a(lmac.o)
                                       0x1982 (size before relaxing)
                0x00000000401025b8                lmacIsActive
                0x00000000401025cc                lmacIsIdle
                0x0000000040102a4c                lmacSetAcParam
                0x0000000040102aa0                lmacProcessTXStartData
                0x0000000040102c4c                lmacProcessTxSuccess
                0x0000000040102d90                GetAccess
                0x0000000040102d9c                lmacDiscardAgedMSDU
                0x0000000040102db0                lmacRecycleMPDU
                0x0000000040103374                lmacProcessTxTimeout
                0x00000000401033dc                lmacProcessAllTxTimeout
                0x00000000401033f0                lmacProcessCollisions
                0x0000000040103450                lmacProcessCollision
                0x00000000401034c0                lmacMSDUAged
                0x0000000040103850                lmacProcessCtsTimeout
                0x0000000040103888                lmacProcessAckTimeout
                0x00000000401038e0                lmacProcessRtsStart
                0x00000000401038ec                lmacProcessTxRtsError
                0x000000004010398c                lmacProcessTxError
                0x0000000040103a1c                lmacTxFrame
                0x0000000040103bb8                lmacRxDone
 *fill*         0x0000000040103bce        0x2 
 .text          0x0000000040103bd0      0x8e1 /home/stoffer/esp8266/esp-open-sdk/sdk/lib/libpp.a(pp.o)
                                        0x9fd (size before relaxing)
                0x0000000040103c04                pp_soft_wdt_feed_local
                0x0000000040103c98                ppProcessTxQ
                0x0000000040103d0c                ppFetchTxQFirstAvail
                0x0000000040103d4c                ppDequeueTxQ
                0x0000000040103d74                ppRollBackTxQ
                0x0000000040103d98                ppRecordBarRRC
                0x0000000040103da8                ppTxqUpdateBitmap
                0x0000000040103dd0                ppEnqueueTxDone
                0x0000000040103e04                ppEnqueueRxq
                0x00000000401042ec                ppDiscardMPDU
                0x0000000040104310                pp_post
                0x000000004010439c                pp_post2
                0x00000000401043c4                ppCalTxop
                0x0000000040104444                ppCalFrameTimes
 *fill*         0x00000000401044b1        0x3 
 .text          0x00000000401044b4       0xf5 /home/stoffer/esp8266/esp-open-sdk/sdk/lib/libpp.a(rate_control.o)
                                        0x109 (size before relaxing)
                0x00000000401044d4                RC_GetAckRate
                0x00000000401044e0                RC_GetRtsRate
                0x00000000401044f0                RC_GetAckTime
                0x0000000040104504                RC_GetCtsTime
                0x000000004010453c                RC_GetBlockAckTime
 *fill*         0x00000000401045a9        0x3 
 .text          0x00000000401045ac      0x99d /home/stoffer/esp8266/esp-open-sdk/sdk/lib/libpp.a(trc.o)
                                        0xa05 (size before relaxing)
                0x000000004010477c                rcUpdateTxDone
                0x0000000040104810                rcUpdateRxDone
                0x000000004010486c                rcUpdateDataRxDone
                0x0000000040104888                rcGetSched
                0x000000004010496c                rcGetRate
                0x0000000040104e7c                rcReachRetryLimit
                0x0000000040104e94                trc_NeedRTS
 *fill*         0x0000000040104f49        0x3 
 .text          0x0000000040104f4c     0x1063 /home/stoffer/esp8266/esp-open-sdk/sdk/lib/libpp.a(wdev.o)
                                       0x1347 (size before relaxing)
                0x00000000401052f8                wDev_MacTim1SetFunc
                0x0000000040105318                wDev_MacTim1Arm
                0x00000000401053ac                wDev_ProcessFiq
                0x00000000401056f0                wDev_EnableTransmit
                0x0000000040105728                wDev_DisableTransmit
                0x0000000040105748                Tx_Copy2Queue
                0x0000000040105790                wDev_ProcessCollision
                0x00000000401057b4                wDev_GetTxqCollisions
                0x00000000401057c4                wDev_ClearTxqCollisions
                0x00000000401057e0                wDev_SetWaitingQueue
                0x0000000040105828                wDev_ClearWaitingQueue
                0x000000004010584c                wDev_SetFrameAckType
                0x00000000401058ac                wDev_AppendRxBlocks
                0x00000000401059f0                wDev_AppendRxAmpduLensBlocks
                0x0000000040105ac4                wDev_GetBAInfo
                0x0000000040105af8                wDevDisableRx
 *fill*         0x0000000040105faf        0x1 
 .text          0x0000000040105fb0       0x53 /home/stoffer/esp8266/esp-open-sdk/sdk/lib/libphy.a(phy.o)
                                         0x5f (size before relaxing)
                0x0000000040105fb8                register_phy_ops
                0x0000000040105fd8                register_get_phy_addr
                0x0000000040105fe0                phy_change_channel
                0x0000000040105ff8                phy_get_mactime
 *fill*         0x0000000040106003        0x1 
 .text          0x0000000040106004      0x262 /home/stoffer/esp8266/esp-open-sdk/sdk/lib/libphy.a(phy_chip_v6_ana.o)
                                        0x276 (size before relaxing)
                0x0000000040106024                phy_adc_read_fast
 *fill*         0x0000000040106266        0x2 
 .text          0x0000000040106268       0x4d /home/stoffer/esp8266/esp-open-sdk/sdk/lib/libphy.a(phy_chip_v6.o)
                                         0x55 (size before relaxing)
                0x0000000040106278                phy_debug_print
 *fill*         0x00000000401062b5        0x3 
 .text          0x00000000401062b8      0x206 /home/stoffer/esp8266/esp-open-sdk/sdk/lib/libphy.a(phy_chip_v6_cal.o)
                                        0x21a (size before relaxing)
                0x00000000401062c4                tx_pwr_backoff_old
                0x0000000040106414                unsign_to_sign
                0x0000000040106448                phy_get_bb_freqoffset
                0x00000000401064b0                phy_get_bb_evm
 *fill*         0x00000000401064be        0x2 
 .text          0x00000000401064c0      0x24b /home/stoffer/esp8266/esp-open-sdk/sdk/lib/libphy.a(phy_sleep.o)
                                        0x287 (size before relaxing)
                0x00000000401064c0                pm_rtc_clock_cali
                0x0000000040106590                pm_goto_sleep
                0x00000000401066e0                clockgate_watchdog
 *fill*         0x000000004010670b        0x1 
 .text          0x000000004010670c      0x15d /home/stoffer/esp8266/esp-open-sdk/sdk/lib/libgcc.a(_mulsf3.o)
                0x0000000040106784                __mulsf3
 *fill*         0x0000000040106869        0x3 
 .text          0x000000004010686c      0x135 /home/stoffer/esp8266/esp-open-sdk/sdk/lib/libgcc.a(_divsf3.o)
                0x00000000401068e8                __divsf3
 *fill*         0x00000000401069a1        0x3 
 .text          0x00000000401069a4       0x40 /home/stoffer/esp8266/esp-open-sdk/sdk/lib/libgcc.a(_fixsfsi.o)
                0x00000000401069a4                __fixsfsi
 .text          0x00000000401069e4       0x68 build/app_app.a(httpd_user_init.o)
                                         0x70 (size before relaxing)
                0x00000000401069f0                myPassFn
                0x0000000040106a2c                httpd_user_init
 .text          0x0000000040106a4c       0xeb build/app_app.a(kmp_request.o)
                                        0x10b (size before relaxing)
                0x0000000040106a54                kmp_fifo_in_use
                0x0000000040106a70                kmp_fifo_put
                0x0000000040106abc                kmp_fifo_get
                0x0000000040106b04                kmp_fifo_snoop
 *fill*         0x0000000040106b37        0x1 
 .text          0x0000000040106b38      0x15d build/app_app.a(uart.o)
                                        0x175 (size before relaxing)
                0x0000000040106c64                uart_tx_one_char
 *fill*         0x0000000040106c95        0x3 
 .text          0x0000000040106c98       0x77 build/app_app.a(wifi.o)
                                         0x83 (size before relaxing)
                0x0000000040106cb0                wifi_handle_event_cb
 *fill*         0x0000000040106d0f        0x1 
 .text          0x0000000040106d10      0x434 build/app_app.a(heatshrink_decoder.o)
                                        0x44c (size before relaxing)
                0x0000000040106dac                heatshrink_decoder_free
                0x0000000040106dc4                heatshrink_decoder_reset
                0x0000000040106e10                heatshrink_decoder_alloc
                0x0000000040106e84                heatshrink_decoder_sink
                0x0000000040106efc                heatshrink_decoder_poll
                0x0000000040107118                heatshrink_decoder_finish
 .text          0x0000000040107144       0xe4 /home/stoffer/esp8266/esp-open-sdk/sdk/lib/liblwip.a(sntp.o)
                                         0xf0 (size before relaxing)
                0x000000004010714c                sntp_get_current_timestamp
                0x0000000040107174                sntp_get_real_time
                0x0000000040107220                sntp_get_timetype
 .text          0x0000000040107228       0x27 /home/stoffer/esp8266/esp-open-sdk/xtensa-lx106-elf/lib/gcc/xtensa-lx106-elf/4.8.5/../../../../xtensa-lx106-elf/lib/libc.a(lib_a-atoi.o)
                                         0x2f (size before relaxing)
                0x0000000040107228                atoi
                0x000000004010723c                _atoi_r
 *fill*         0x000000004010724f        0x1 
 .text          0x0000000040107250       0x17 /home/stoffer/esp8266/esp-open-sdk/xtensa-lx106-elf/lib/gcc/xtensa-lx106-elf/4.8.5/../../../../xtensa-lx106-elf/lib/libc.a(lib_a-gmtime.o)
                                         0x1b (size before relaxing)
                0x0000000040107250                gmtime
 *fill*         0x0000000040107267        0x1 
 .text          0x0000000040107268       0x14 /home/stoffer/esp8266/esp-open-sdk/xtensa-lx106-elf/lib/gcc/xtensa-lx106-elf/4.8.5/../../../../xtensa-lx106-elf/lib/libc.a(lib_a-gmtime_r.o)
                0x0000000040107268                gmtime_r
 .text          0x000000004010727c      0x473 /home/stoffer/esp8266/esp-open-sdk/xtensa-lx106-elf/lib/gcc/xtensa-lx106-elf/4.8.5/../../../../xtensa-lx106-elf/lib/libc.a(lib_a-mktm_r.o)
                                        0x49f (size before relaxing)
                0x000000004010727c                __tzcalc_limits
                0x00000000401073fc                _mktm_r
 *fill*         0x00000000401076ef        0x1 
 .text          0x00000000401076f0       0x5b /home/stoffer/esp8266/esp-open-sdk/xtensa-lx106-elf/lib/gcc/xtensa-lx106-elf/4.8.5/../../../../xtensa-lx106-elf/lib/libc.a(lib_a-strlen.o)
                0x00000000401076f0                strlen
 *fill*         0x000000004010774b        0x1 
 .text          0x000000004010774c       0x1c /home/stoffer/esp8266/esp-open-sdk/xtensa-lx106-elf/lib/gcc/xtensa-lx106-elf/4.8.5/../../../../xtensa-lx106-elf/lib/libc.a(lib_a-strtok.o)
                0x000000004010774c                strtok
 .text          0x0000000040107768      0x15f /home/stoffer/esp8266/esp-open-sdk/xtensa-lx106-elf/lib/gcc/xtensa-lx106-elf/4.8.5/../../../../xtensa-lx106-elf/lib/libc.a(lib_a-strtol.o)
                0x0000000040107768                _strtol_r
                0x00000000401078a8                strtol
 *fill*         0x00000000401078c7        0x1 
 .text          0x00000000401078c8        0x5 /home/stoffer/esp8266/esp-open-sdk/xtensa-lx106-elf/lib/gcc/xtensa-lx106-elf/4.8.5/../../../../xtensa-lx106-elf/lib/libc.a(lib_a-gettzinfo.o)
                0x00000000401078c8                __gettzinfo
 *fill*         0x00000000401078cd        0x3 
 .text          0x00000000401078d0      0x1b7 /home/stoffer/esp8266/esp-open-sdk/sdk/lib/libmain.a(time.o)
                                        0x1fb (size before relaxing)
                0x00000000401078e4                sntp_get_rtc_time
                0x0000000040107990                sntp_update_rtc
 *fill*         0x0000000040107a87        0x1 
 .text          0x0000000040107a88       0x1d /home/stoffer/esp8266/esp-open-sdk/xtensa-lx106-elf/lib/gcc/xtensa-lx106-elf/4.8.5/../../../../xtensa-lx106-elf/lib/libc.a(lib_a-sysgettod.o)
                0x0000000040107a88                gettimeofday
 .text          0x0000000040107aa5        0x0 /home/stoffer/esp8266/esp-open-sdk/sdk/lib/libmain.a(debug-vector.o)
 .text          0x0000000040107aa5        0x0 /home/stoffer/esp8266/esp-open-sdk/sdk/lib/libmain.a(double-vector.o)
 .text          0x0000000040107aa5        0x0 /home/stoffer/esp8266/esp-open-sdk/sdk/lib/libmain.a(kernel-vector.o)
 *fill*         0x0000000040107aa5        0x3 
 .literal       0x0000000040107aa8        0x0 /home/stoffer/esp8266/esp-open-sdk/sdk/lib/libmain.a(nmi-vector.o)
 *fill*         0x0000000040107aa8        0x0 
 .literal       0x0000000040107aa8        0x0 /home/stoffer/esp8266/esp-open-sdk/sdk/lib/libmain.a(user-vector.o)
 .text          0x0000000040107aa8        0x0 /home/stoffer/esp8266/esp-open-sdk/sdk/lib/libmain.a(vector.o)
 *fill*         0x0000000040107aa8        0x0 
 .literal       0x0000000040107aa8        0x0 /home/stoffer/esp8266/esp-open-sdk/sdk/lib/libmain.a(app_main.o)
 *fill*         0x0000000040107aa8        0x0 
 .literal       0x0000000040107aa8        0x0 /home/stoffer/esp8266/esp-open-sdk/sdk/lib/libmain.a(ets_timer.o)
 .literal       0x0000000040107aa8        0x0 /home/stoffer/esp8266/esp-open-sdk/sdk/lib/libmain.a(mem_manager.o)
 *fill*         0x0000000040107aa8        0x0 
 .literal       0x0000000040107aa8        0x0 /home/stoffer/esp8266/esp-open-sdk/sdk/lib/libmain.a(spi_flash.o)
 *fill*         0x0000000040107aa8        0x0 
 .literal       0x0000000040107aa8        0x0 /home/stoffer/esp8266/esp-open-sdk/sdk/lib/libmain.a(user_interface.o)
 *fill*         0x0000000040107aa8        0x0 
 .text          0x0000000040107aa8        0x0 /home/stoffer/esp8266/esp-open-sdk/sdk/lib/libmain.a(eagle_lib.o)
 .text          0x0000000040107aa8        0x0 /home/stoffer/esp8266/esp-open-sdk/sdk/lib/libmain.a(eagle_lwip_if.o)
 .text          0x0000000040107aa8        0x0 /home/stoffer/esp8266/esp-open-sdk/sdk/lib/libnet80211.a(ieee80211.o)
 .text          0x0000000040107aa8        0x0 /home/stoffer/esp8266/esp-open-sdk/sdk/lib/libnet80211.a(ieee80211_crypto.o)
 *fill*         0x0000000040107aa8        0x0 
 .literal       0x0000000040107aa8        0x0 /home/stoffer/esp8266/esp-open-sdk/sdk/lib/libnet80211.a(ieee80211_hostap.o)
 .text          0x0000000040107aa8       0x25 /home/stoffer/esp8266/esp-open-sdk/sdk/lib/libnet80211.a(ieee80211_hostap.o)
 .text          0x0000000040107acd        0x0 /home/stoffer/esp8266/esp-open-sdk/sdk/lib/libnet80211.a(ieee80211_ht.o)
 .text          0x0000000040107acd        0x0 /home/stoffer/esp8266/esp-open-sdk/sdk/lib/libnet80211.a(ieee80211_input.o)
 .text          0x0000000040107acd        0x0 /home/stoffer/esp8266/esp-open-sdk/sdk/lib/libnet80211.a(ieee80211_mesh_quick.o)
 *fill*         0x0000000040107acd        0x3 
 .literal       0x0000000040107ad0        0x0 /home/stoffer/esp8266/esp-open-sdk/sdk/lib/libnet80211.a(ieee80211_output.o)
 .text          0x0000000040107ad0        0x0 /home/stoffer/esp8266/esp-open-sdk/sdk/lib/libnet80211.a(ieee80211_phy.o)
 .text          0x0000000040107ad0        0x0 /home/stoffer/esp8266/esp-open-sdk/sdk/lib/libnet80211.a(ieee80211_power.o)
 .text          0x0000000040107ad0        0x0 /home/stoffer/esp8266/esp-open-sdk/sdk/lib/libnet80211.a(ieee80211_proto.o)
 .text          0x0000000040107ad0        0x0 /home/stoffer/esp8266/esp-open-sdk/sdk/lib/libnet80211.a(ieee80211_regdomain.o)
 .text          0x0000000040107ad0        0x0 /home/stoffer/esp8266/esp-open-sdk/sdk/lib/libnet80211.a(ieee80211_rfid.o)
 .text          0x0000000040107ad0        0x0 /home/stoffer/esp8266/esp-open-sdk/sdk/lib/libnet80211.a(ieee80211_scan.o)
 .text          0x0000000040107ad0        0x0 /home/stoffer/esp8266/esp-open-sdk/sdk/lib/libnet80211.a(ieee80211_sta.o)
 *fill*         0x0000000040107ad0        0x0 
 .literal       0x0000000040107ad0        0x0 /home/stoffer/esp8266/esp-open-sdk/sdk/lib/libnet80211.a(wl_chm.o)
 .text          0x0000000040107ad0        0x0 /home/stoffer/esp8266/esp-open-sdk/sdk/lib/libnet80211.a(wl_cnx.o)
 .text          0x0000000040107ad0        0x0 /home/stoffer/esp8266/esp-open-sdk/sdk/lib/libnet80211.a(ieee80211_action.o)
 .text          0x0000000040107ad0        0x0 /home/stoffer/esp8266/esp-open-sdk/sdk/lib/libnet80211.a(ieee80211_action_vendor.o)
 .text          0x0000000040107ad0        0x0 /home/stoffer/esp8266/esp-open-sdk/sdk/lib/libnet80211.a(ieee80211_crypto_ccmp.o)
 .text          0x0000000040107ad0        0x0 /home/stoffer/esp8266/esp-open-sdk/sdk/lib/libnet80211.a(ieee80211_ets.o)
 .text          0x0000000040107ad0        0x0 /home/stoffer/esp8266/esp-open-sdk/sdk/lib/libnet80211.a(ieee80211_ie_vendor.o)
 .text          0x0000000040107ad0        0x0 /home/stoffer/esp8266/esp-open-sdk/sdk/lib/libwpa.a(ap_config.o)
 .text          0x0000000040107ad0        0x0 /home/stoffer/esp8266/esp-open-sdk/sdk/lib/libwpa.a(common.o)
 .text          0x0000000040107ad0        0x0 /home/stoffer/esp8266/esp-open-sdk/sdk/lib/libwpa.a(os_xtensa.o)
 *fill*         0x0000000040107ad0        0x0 
 .literal       0x0000000040107ad0        0x0 /home/stoffer/esp8266/esp-open-sdk/sdk/lib/libwpa.a(wpa_auth.o)
 .text          0x0000000040107ad0       0x11 /home/stoffer/esp8266/esp-open-sdk/sdk/lib/libwpa.a(wpa_auth.o)
 .text          0x0000000040107ae1        0x0 /home/stoffer/esp8266/esp-open-sdk/sdk/lib/libwpa.a(wpa_auth_ie.o)
 .text          0x0000000040107ae1        0x0 /home/stoffer/esp8266/esp-open-sdk/sdk/lib/libwpa.a(wpa.o)
 .text          0x0000000040107ae1        0x0 /home/stoffer/esp8266/esp-open-sdk/sdk/lib/libwpa.a(wpa_common.o)
 .text          0x0000000040107ae1        0x0 /home/stoffer/esp8266/esp-open-sdk/sdk/lib/libwpa.a(wpa_debug.o)
 .text          0x0000000040107ae1        0x0 /home/stoffer/esp8266/esp-open-sdk/sdk/lib/libwpa.a(wpa_ie.o)
 .text          0x0000000040107ae1        0x0 /home/stoffer/esp8266/esp-open-sdk/sdk/lib/libwpa.a(wpa_main.o)
 .text          0x0000000040107ae1        0x0 /home/stoffer/esp8266/esp-open-sdk/sdk/lib/libwpa.a(wpas_glue.o)
 .text          0x0000000040107ae1        0x0 /home/stoffer/esp8266/esp-open-sdk/sdk/lib/libwpa.a(aes-wrap.o)
 .text          0x0000000040107ae1        0x0 /home/stoffer/esp8266/esp-open-sdk/sdk/lib/libwpa.a(aes-internal-enc.o)
 .text          0x0000000040107ae1        0x0 /home/stoffer/esp8266/esp-open-sdk/sdk/lib/libwpa.a(aes-internal.o)
 .text          0x0000000040107ae1        0x0 /home/stoffer/esp8266/esp-open-sdk/sdk/lib/liblwip.a(dhcp.o)
 .text          0x0000000040107ae1        0x0 /home/stoffer/esp8266/esp-open-sdk/sdk/lib/liblwip.a(dhcpserver.o)
 .text          0x0000000040107ae1        0x0 /home/stoffer/esp8266/esp-open-sdk/sdk/lib/liblwip.a(dns.o)
 .text          0x0000000040107ae1        0x0 /home/stoffer/esp8266/esp-open-sdk/sdk/lib/liblwip.a(espconn_tcp.o)
 *fill*         0x0000000040107ae1        0x3 
 .literal       0x0000000040107ae4        0x0 /home/stoffer/esp8266/esp-open-sdk/sdk/lib/liblwip.a(etharp.o)
 .text          0x0000000040107ae4        0x0 /home/stoffer/esp8266/esp-open-sdk/sdk/lib/liblwip.a(init.o)
 .text          0x0000000040107ae4        0x0 /home/stoffer/esp8266/esp-open-sdk/sdk/lib/liblwip.a(ip_addr.o)
 .text          0x0000000040107ae4        0x0 /home/stoffer/esp8266/esp-open-sdk/sdk/lib/liblwip.a(ip.o)
 .text          0x0000000040107ae4        0x0 /home/stoffer/esp8266/esp-open-sdk/sdk/lib/liblwip.a(memp.o)
 .text          0x0000000040107ae4        0x0 /home/stoffer/esp8266/esp-open-sdk/sdk/lib/liblwip.a(netif.o)
 .text          0x0000000040107ae4        0x0 /home/stoffer/esp8266/esp-open-sdk/sdk/lib/liblwip.a(pbuf.o)
 .text          0x0000000040107ae4        0x0 /home/stoffer/esp8266/esp-open-sdk/sdk/lib/liblwip.a(raw.o)
 .text          0x0000000040107ae4        0x0 /home/stoffer/esp8266/esp-open-sdk/sdk/lib/liblwip.a(tcp_in.o)
 *fill*         0x0000000040107ae4        0x0 
 .literal       0x0000000040107ae4        0x0 /home/stoffer/esp8266/esp-open-sdk/sdk/lib/liblwip.a(tcp.o)
 *fill*         0x0000000040107ae4        0x0 
 .literal       0x0000000040107ae4        0x0 /home/stoffer/esp8266/esp-open-sdk/sdk/lib/liblwip.a(tcp_out.o)
 *fill*         0x0000000040107ae4        0x0 
 .literal       0x0000000040107ae4        0x0 /home/stoffer/esp8266/esp-open-sdk/sdk/lib/liblwip.a(timers.o)
 .text          0x0000000040107ae4        0x0 /home/stoffer/esp8266/esp-open-sdk/sdk/lib/liblwip.a(udp.o)
 .literal       0x0000000040107ae4        0x0 /home/stoffer/esp8266/esp-open-sdk/sdk/lib/liblwip.a(espconn_buf.o)
 .text          0x0000000040107ae4        0x0 /home/stoffer/esp8266/esp-open-sdk/sdk/lib/liblwip.a(espconn.o)
 .text          0x0000000040107ae4        0x0 /home/stoffer/esp8266/esp-open-sdk/sdk/lib/liblwip.a(espconn_udp.o)
 .text          0x0000000040107ae4        0x0 /home/stoffer/esp8266/esp-open-sdk/sdk/lib/liblwip.a(icmp.o)
 .text          0x0000000040107ae4        0x0 /home/stoffer/esp8266/esp-open-sdk/sdk/lib/liblwip.a(igmp.o)
 .text          0x0000000040107ae4        0x0 /home/stoffer/esp8266/esp-open-sdk/sdk/lib/liblwip.a(inet_chksum.o)
 *fill*         0x0000000040107ae4        0x0 
 .literal       0x0000000040107ae4        0x0 /home/stoffer/esp8266/esp-open-sdk/sdk/lib/libpp.a(esf_buf.o)
 .text          0x0000000040107ae4        0x0 /home/stoffer/esp8266/esp-open-sdk/sdk/lib/libpp.a(if_hwctrl.o)
 .literal       0x0000000040107ae4        0x0 /home/stoffer/esp8266/esp-open-sdk/sdk/lib/libpp.a(lmac.o)
 .text          0x0000000040107ae4        0x0 /home/stoffer/esp8266/esp-open-sdk/sdk/lib/libpp.a(pm.o)
 .text          0x0000000040107ae4        0x0 /home/stoffer/esp8266/esp-open-sdk/sdk/lib/libpp.a(pm_for_bcn_only_mode.o)
 *fill*         0x0000000040107ae4        0x0 
 .literal       0x0000000040107ae4        0x0 /home/stoffer/esp8266/esp-open-sdk/sdk/lib/libpp.a(pp.o)
 *fill*         0x0000000040107ae4        0x0 
 .literal       0x0000000040107ae4        0x0 /home/stoffer/esp8266/esp-open-sdk/sdk/lib/libpp.a(rate_control.o)
 *fill*         0x0000000040107ae4        0x0 
 .literal       0x0000000040107ae4        0x0 /home/stoffer/esp8266/esp-open-sdk/sdk/lib/libpp.a(trc.o)
 *fill*         0x0000000040107ae4        0x0 
 .literal       0x0000000040107ae4        0x0 /home/stoffer/esp8266/esp-open-sdk/sdk/lib/libpp.a(wdev.o)
 *fill*         0x0000000040107ae4        0x0 
 .literal       0x0000000040107ae4        0x0 /home/stoffer/esp8266/esp-open-sdk/sdk/lib/libphy.a(phy.o)
 *fill*         0x0000000040107ae4        0x0 
 .literal       0x0000000040107ae4        0x0 /home/stoffer/esp8266/esp-open-sdk/sdk/lib/libphy.a(phy_chip_v6_ana.o)
 *fill*         0x0000000040107ae4        0x0 
 .literal       0x0000000040107ae4        0x0 /home/stoffer/esp8266/esp-open-sdk/sdk/lib/libphy.a(phy_chip_v6.o)
 *fill*         0x0000000040107ae4        0x0 
 .literal       0x0000000040107ae4        0x0 /home/stoffer/esp8266/esp-open-sdk/sdk/lib/libphy.a(phy_chip_v6_cal.o)
 .text          0x0000000040107ae4        0x0 /home/stoffer/esp8266/esp-open-sdk/sdk/lib/libphy.a(phy_chip_v6_unused.o)
 *fill*         0x0000000040107ae4        0x0 
 .literal       0x0000000040107ae4        0x0 /home/stoffer/esp8266/esp-open-sdk/sdk/lib/libphy.a(phy_sleep.o)
 *fill*         0x0000000040107ae4        0x0 
 .text          0x0000000040107ae4        0x5 /home/stoffer/esp8266/esp-open-sdk/xtensa-lx106-elf/xtensa-lx106-elf/sysroot/usr/lib/libhal.a(int_asm--set_intclear.o)
                0x0000000040107ae4                xthal_set_intclear
 *fill*         0x0000000040107ae9        0x3 
 .text          0x0000000040107aec       0x49 /home/stoffer/esp8266/esp-open-sdk/sdk/lib/libgcc.a(_modsi3.o)
                0x0000000040107aec                __modsi3
 *fill*         0x0000000040107b35        0x3 
 .text          0x0000000040107b38       0x18 /home/stoffer/esp8266/esp-open-sdk/sdk/lib/libgcc.a(_ashrdi3.o)
                0x0000000040107b38                __ashrdi3
 *fill*         0x0000000040107b50        0x0 
 *fill*         0x0000000040107b50        0x0 
 .text          0x0000000040107b50       0x17 /home/stoffer/esp8266/esp-open-sdk/xtensa-lx106-elf/lib/gcc/xtensa-lx106-elf/4.8.5/../../../../xtensa-lx106-elf/lib/libc.a(lib_a-memchr.o)
                0x0000000040107b50                memchr
 .text          0x0000000040107b67        0x0 build/app_app.a(user_main.o)
 .text          0x0000000040107b67        0x0 build/app_app.a(captdns.o)
 .text          0x0000000040107b67        0x0 build/app_app.a(led.o)
 *fill*         0x0000000040107b67        0x1 
 .literal       0x0000000040107b68        0x0 build/app_app.a(httpd_user_init.o)
 .literal       0x0000000040107b68        0x0 build/app_app.a(httpd.o)
 .text          0x0000000040107b68       0xe9 build/app_app.a(httpd.o)
                0x0000000040107b94                httpdUrlDecode
 .text          0x0000000040107c51        0x0 build/app_app.a(crypto.o)
 .text          0x0000000040107c51        0x0 build/app_app.a(sha256.o)
 .text          0x0000000040107c51        0x0 build/app_app.a(aes.o)
 *fill*         0x0000000040107c51        0x3 
 .literal       0x0000000040107c54        0x0 build/app_app.a(kmp_request.o)
 .text          0x0000000040107c54        0x0 build/app_app.a(kmp.o)
 .text          0x0000000040107c54        0x0 build/app_app.a(cron.o)
 .text          0x0000000040107c54        0x0 build/app_app.a(ac_out.o)
 *fill*         0x0000000040107c54        0x0 
 .literal       0x0000000040107c54        0x0 build/app_app.a(uart.o)
 .text          0x0000000040107c54        0x0 build/app_app.a(mqtt.o)
 .text          0x0000000040107c54        0x0 build/app_app.a(mqtt_msg.o)
 .text          0x0000000040107c54        0x0 build/app_app.a(queue.o)
 .text          0x0000000040107c54        0x0 build/app_app.a(mqtt_utils.o)
 .text          0x0000000040107c54        0x0 build/app_app.a(proto.o)
 .text          0x0000000040107c54        0x0 build/app_app.a(config.o)
 *fill*         0x0000000040107c54        0x0 
 .literal       0x0000000040107c54        0x0 build/app_app.a(wifi.o)
 .text          0x0000000040107c54        0x0 build/app_app.a(watchdog.o)
 .text          0x0000000040107c54        0x0 build/app_app.a(cgiwifi.o)
 .text          0x0000000040107c54        0x0 build/app_app.a(tinyprintf.o)
 .text          0x0000000040107c54        0x0 build/app_app.a(unix_time.o)
 .text          0x0000000040107c54        0x0 build/app_app.a(cgi.o)
 .text          0x0000000040107c54        0x0 build/app_app.a(httpdespfs.o)
 .text          0x0000000040107c54        0x0 build/app_app.a(espfs.o)
 *fill*         0x0000000040107c54        0x0 
 .literal       0x0000000040107c54        0x0 build/app_app.a(heatshrink_decoder.o)
 .text          0x0000000040107c54        0x0 build/app_app.a(utils.o)
 .text          0x0000000040107c54        0x0 build/app_app.a(hmac-sha256.o)
 .text          0x0000000040107c54        0x0 build/app_app.a(gpio16.o)
 .text          0x0000000040107c54        0x0 build/app_app.a(ringbuf.o)
 .text          0x0000000040107c54        0x0 /home/stoffer/esp8266/esp-open-sdk/sdk/lib/libnet80211.a(ieee80211_crypto_tkip.o)
 .text          0x0000000040107c54        0x0 /home/stoffer/esp8266/esp-open-sdk/sdk/lib/libnet80211.a(ieee80211_crypto_wep.o)
 .literal       0x0000000040107c54        0x0 /home/stoffer/esp8266/esp-open-sdk/sdk/lib/liblwip.a(sntp.o)
 *fill*         0x0000000040107c54        0x0 
 *fill*         0x0000000040107c54        0x0 
 .text          0x0000000040107c54        0x0 /home/stoffer/esp8266/esp-open-sdk/xtensa-lx106-elf/lib/gcc/xtensa-lx106-elf/4.8.5/../../../../xtensa-lx106-elf/lib/libc.a(lib_a-impure.o)
 .text          0x0000000040107c54      0x145 /home/stoffer/esp8266/esp-open-sdk/xtensa-lx106-elf/lib/gcc/xtensa-lx106-elf/4.8.5/../../../../xtensa-lx106-elf/lib/libc.a(lib_a-memcpy.o)
                0x0000000040107c98                memcpy
 *fill*         0x0000000040107d99        0x3 
 .text          0x0000000040107d9c       0x7c /home/stoffer/esp8266/esp-open-sdk/xtensa-lx106-elf/lib/gcc/xtensa-lx106-elf/4.8.5/../../../../xtensa-lx106-elf/lib/libc.a(lib_a-memset.o)
                0x0000000040107dc8                memset
 *fill*         0x0000000040107e18        0x0 
 .text          0x0000000040107e18       0x1e /home/stoffer/esp8266/esp-open-sdk/xtensa-lx106-elf/lib/gcc/xtensa-lx106-elf/4.8.5/../../../../xtensa-lx106-elf/lib/libc.a(lib_a-strcat.o)
                0x0000000040107e18                strcat
 *fill*         0x0000000040107e36        0x0 
 *fill*         0x0000000040107e36        0x2 
 .literal       0x0000000040107e38        0x0 /home/stoffer/esp8266/esp-open-sdk/xtensa-lx106-elf/lib/gcc/xtensa-lx106-elf/4.8.5/../../../../xtensa-lx106-elf/lib/libc.a(lib_a-strtok_r.o)
 .text          0x0000000040107e38       0x71 /home/stoffer/esp8266/esp-open-sdk/xtensa-lx106-elf/lib/gcc/xtensa-lx106-elf/4.8.5/../../../../xtensa-lx106-elf/lib/libc.a(lib_a-strtok_r.o)
                0x0000000040107e38                __strtok_r
                0x0000000040107e98                strtok_r
 *fill*         0x0000000040107ea9        0x0 
 *fill*         0x0000000040107ea9        0x3 
 .text          0x0000000040107eac        0x6 /home/stoffer/esp8266/esp-open-sdk/xtensa-lx106-elf/lib/gcc/xtensa-lx106-elf/4.8.5/../../../../xtensa-lx106-elf/lib/libc.a(lib_a-tzlock.o)
                0x0000000040107eac                __tz_lock
                0x0000000040107eb0                __tz_unlock
 .text          0x0000000040107eb2        0x0 /home/stoffer/esp8266/esp-open-sdk/xtensa-lx106-elf/lib/gcc/xtensa-lx106-elf/4.8.5/../../../../xtensa-lx106-elf/lib/libc.a(lib_a-tzvars.o)
 .text          0x0000000040107eb2        0x0 /home/stoffer/esp8266/esp-open-sdk/xtensa-lx106-elf/lib/gcc/xtensa-lx106-elf/4.8.5/../../../../xtensa-lx106-elf/lib/libc.a(lib_a-ctype_.o)
 *fill*         0x0000000040107eb2        0x0 
 *fill*         0x0000000040107eb2        0x2 
 .literal       0x0000000040107eb4        0x0 /home/stoffer/esp8266/esp-open-sdk/sdk/lib/libmain.a(time.o)
 *fill*         0x0000000040107eb4        0x0 
 *(.fini.literal)
 *(.fini)
 *(.gnu.version)
                0x0000000040107eb4                _text_end = ABSOLUTE (.)
                0x0000000040107eb4                _etext = .

.NMIExceptionVector.literal
                0x0000000040107eb4        0x0
 .NMIExceptionVector.literal
                0x0000000040107eb4        0x0 /home/stoffer/esp8266/esp-open-sdk/sdk/lib/libmain.a(nmi-vector.o)

.UserExceptionVector.literal
                0x0000000040107eb4        0x0
 .UserExceptionVector.literal
                0x0000000040107eb4        0x0 /home/stoffer/esp8266/esp-open-sdk/sdk/lib/libmain.a(user-vector.o)

.UserEnter.literal
                0x0000000040107eb4        0x0
 .UserEnter.literal
                0x0000000040107eb4        0x0 /home/stoffer/esp8266/esp-open-sdk/sdk/lib/libmain.a(vector.o)

.lit4           0x0000000040107eb4        0x0
                0x0000000040107eb4                _lit4_start = ABSOLUTE (.)
 *(*.lit4)
 *(.lit4.*)
 *(.gnu.linkonce.lit4.*)
                0x0000000040107eb4                _lit4_end = ABSOLUTE (.)
                0x00000000400047f0                PROVIDE (Cache_Read_Disable, 0x400047f0)
                0x0000000040004678                PROVIDE (Cache_Read_Enable, 0x40004678)
                [!provide]                        PROVIDE (FilePacketSendReqMsgProc, 0x400035a0)
                [!provide]                        PROVIDE (FlashDwnLdParamCfgMsgProc, 0x4000368c)
                [!provide]                        PROVIDE (FlashDwnLdStartMsgProc, 0x40003538)
                [!provide]                        PROVIDE (FlashDwnLdStopReqMsgProc, 0x40003658)
                [!provide]                        PROVIDE (GetUartDevice, 0x40003f4c)
                [!provide]                        PROVIDE (MD5Final, 0x40009900)
                [!provide]                        PROVIDE (MD5Init, 0x40009818)
                [!provide]                        PROVIDE (MD5Update, 0x40009834)
                [!provide]                        PROVIDE (MemDwnLdStartMsgProc, 0x400036c4)
                [!provide]                        PROVIDE (MemDwnLdStopReqMsgProc, 0x4000377c)
                [!provide]                        PROVIDE (MemPacketSendReqMsgProc, 0x400036f0)
                [!provide]                        PROVIDE (RcvMsg, 0x40003eac)
                [!provide]                        PROVIDE (SHA1Final, 0x4000b648)
                [!provide]                        PROVIDE (SHA1Init, 0x4000b584)
                [!provide]                        PROVIDE (SHA1Transform, 0x4000a364)
                [!provide]                        PROVIDE (SHA1Update, 0x4000b5a8)
                0x00000000400043c8                PROVIDE (SPI_read_status, 0x400043c8)
                0x0000000040004400                PROVIDE (SPI_write_status, 0x40004400)
                0x000000004000443c                PROVIDE (SPI_write_enable, 0x4000443c)
                0x000000004000448c                PROVIDE (Wait_SPI_Idle, 0x4000448c)
                0x00000000400044c0                PROVIDE (Enable_QMode, 0x400044c0)
                [!provide]                        PROVIDE (SPIEraseArea, 0x40004b44)
                [!provide]                        PROVIDE (SPIEraseBlock, 0x400049b4)
                [!provide]                        PROVIDE (SPIEraseChip, 0x40004984)
                0x0000000040004a00                PROVIDE (SPIEraseSector, 0x40004a00)
                [!provide]                        PROVIDE (SPILock, 0x400048a8)
                [!provide]                        PROVIDE (SPIParamCfg, 0x40004c2c)
                0x0000000040004b1c                PROVIDE (SPIRead, 0x40004b1c)
                [!provide]                        PROVIDE (SPIReadModeCnfig, 0x400048ec)
                [!provide]                        PROVIDE (SPIUnlock, 0x40004878)
                0x0000000040004a4c                PROVIDE (SPIWrite, 0x40004a4c)
                [!provide]                        PROVIDE (SelectSpiFunction, 0x40003f58)
                [!provide]                        PROVIDE (SendMsg, 0x40003cf4)
                [!provide]                        PROVIDE (UartConnCheck, 0x40003230)
                [!provide]                        PROVIDE (UartConnectProc, 0x400037a0)
                [!provide]                        PROVIDE (UartDwnLdProc, 0x40003368)
                [!provide]                        PROVIDE (UartGetCmdLn, 0x40003ef4)
                [!provide]                        PROVIDE (UartRegReadProc, 0x4000381c)
                [!provide]                        PROVIDE (UartRegWriteProc, 0x400037ac)
                [!provide]                        PROVIDE (UartRxString, 0x40003c30)
                0x0000000040003a14                PROVIDE (Uart_Init, 0x40003a14)
                [!provide]                        PROVIDE (_DebugExceptionVector, 0x40000010)
                [!provide]                        PROVIDE (_DoubleExceptionVector, 0x40000070)
                [!provide]                        PROVIDE (_KernelExceptionVector, 0x40000030)
                [!provide]                        PROVIDE (_NMIExceptionVector, 0x40000020)
                [!provide]                        PROVIDE (_ResetHandler, 0x400000a4)
                [!provide]                        PROVIDE (_ResetVector, 0x40000080)
                [!provide]                        PROVIDE (_UserExceptionVector, 0x40000050)
                [!provide]                        PROVIDE (__adddf3, 0x4000c538)
                0x000000004000c180                PROVIDE (__addsf3, 0x4000c180)
                0x000000004000cb94                PROVIDE (__divdf3, 0x4000cb94)
                0x000000004000ce60                PROVIDE (__divdi3, 0x4000ce60)
                0x000000004000dc88                PROVIDE (__divsi3, 0x4000dc88)
                [!provide]                        PROVIDE (__extendsfdf2, 0x4000cdfc)
                0x000000004000ccb8                PROVIDE (__fixdfsi, 0x4000ccb8)
                [!provide]                        PROVIDE (__fixunsdfsi, 0x4000cd00)
                0x000000004000c4c4                PROVIDE (__fixunssfsi, 0x4000c4c4)
                0x000000004000e2f0                PROVIDE (__floatsidf, 0x4000e2f0)
                0x000000004000e2ac                PROVIDE (__floatsisf, 0x4000e2ac)
                0x000000004000e2e8                PROVIDE (__floatunsidf, 0x4000e2e8)
                0x000000004000e2a4                PROVIDE (__floatunsisf, 0x4000e2a4)
                0x000000004000c8f0                PROVIDE (__muldf3, 0x4000c8f0)
                0x0000000040000650                PROVIDE (__muldi3, 0x40000650)
                [!provide]                        PROVIDE (__mulsf3, 0x4000c3dc)
                [!provide]                        PROVIDE (__subdf3, 0x4000c688)
                0x000000004000c268                PROVIDE (__subsf3, 0x4000c268)
                0x000000004000cd5c                PROVIDE (__truncdfsf2, 0x4000cd5c)
                0x000000004000d310                PROVIDE (__udivdi3, 0x4000d310)
                0x000000004000e21c                PROVIDE (__udivsi3, 0x4000e21c)
                0x000000004000d770                PROVIDE (__umoddi3, 0x4000d770)
                0x000000004000e268                PROVIDE (__umodsi3, 0x4000e268)
                [!provide]                        PROVIDE (__umulsidi3, 0x4000dcf0)
                [!provide]                        PROVIDE (_rom_store, 0x4000e388)
                [!provide]                        PROVIDE (_rom_store_table, 0x4000e328)
                [!provide]                        PROVIDE (_start, 0x4000042c)
                [!provide]                        PROVIDE (_xtos_alloca_handler, 0x4000dbe0)
                [!provide]                        PROVIDE (_xtos_c_wrapper_handler, 0x40000598)
                [!provide]                        PROVIDE (_xtos_cause3_handler, 0x40000590)
                [!provide]                        PROVIDE (_xtos_ints_off, 0x4000bda4)
                [!provide]                        PROVIDE (_xtos_ints_on, 0x4000bd84)
                [!provide]                        PROVIDE (_xtos_l1int_handler, 0x4000048c)
                [!provide]                        PROVIDE (_xtos_p_none, 0x4000dbf8)
                [!provide]                        PROVIDE (_xtos_restore_intlevel, 0x4000056c)
                [!provide]                        PROVIDE (_xtos_return_from_exc, 0x4000dc54)
                0x0000000040000454                PROVIDE (_xtos_set_exception_handler, 0x40000454)
                [!provide]                        PROVIDE (_xtos_set_interrupt_handler, 0x4000bd70)
                [!provide]                        PROVIDE (_xtos_set_interrupt_handler_arg, 0x4000bd28)
                [!provide]                        PROVIDE (_xtos_set_intlevel, 0x4000dbfc)
                [!provide]                        PROVIDE (_xtos_set_min_intlevel, 0x4000dc18)
                [!provide]                        PROVIDE (_xtos_set_vpri, 0x40000574)
                [!provide]                        PROVIDE (_xtos_syscall_handler, 0x4000dbe4)
                [!provide]                        PROVIDE (_xtos_unhandled_exception, 0x4000dc44)
                [!provide]                        PROVIDE (_xtos_unhandled_interrupt, 0x4000dc3c)
                [!provide]                        PROVIDE (aes_decrypt, 0x400092d4)
                [!provide]                        PROVIDE (aes_decrypt_deinit, 0x400092e4)
                [!provide]                        PROVIDE (aes_decrypt_init, 0x40008ea4)
                0x0000000040009410                PROVIDE (aes_unwrap, 0x40009410)
                [!provide]                        PROVIDE (base64_decode, 0x40009648)
                [!provide]                        PROVIDE (base64_encode, 0x400094fc)
                [!provide]                        PROVIDE (bzero, 0x4000de84)
                [!provide]                        PROVIDE (cmd_parse, 0x40000814)
                [!provide]                        PROVIDE (conv_str_decimal, 0x40000b24)
                [!provide]                        PROVIDE (conv_str_hex, 0x40000cb8)
                [!provide]                        PROVIDE (convert_para_str, 0x40000a60)
                [!provide]                        PROVIDE (dtm_get_intr_mask, 0x400026d0)
                [!provide]                        PROVIDE (dtm_params_init, 0x4000269c)
                [!provide]                        PROVIDE (dtm_set_intr_mask, 0x400026c8)
                [!provide]                        PROVIDE (dtm_set_params, 0x400026dc)
                [!provide]                        PROVIDE (eprintf, 0x40001d14)
                [!provide]                        PROVIDE (eprintf_init_buf, 0x40001cb8)
                [!provide]                        PROVIDE (eprintf_to_host, 0x40001d48)
                [!provide]                        PROVIDE (est_get_printf_buf_remain_len, 0x40002494)
                [!provide]                        PROVIDE (est_reset_printf_buf_len, 0x4000249c)
                0x0000000040002ae8                PROVIDE (ets_bzero, 0x40002ae8)
                [!provide]                        PROVIDE (ets_char2xdigit, 0x40002b74)
                0x0000000040002ecc                PROVIDE (ets_delay_us, 0x40002ecc)
                [!provide]                        PROVIDE (ets_enter_sleep, 0x400027b8)
                [!provide]                        PROVIDE (ets_external_printf, 0x40002578)
                0x0000000040002f0c                PROVIDE (ets_get_cpu_frequency, 0x40002f0c)
                [!provide]                        PROVIDE (ets_getc, 0x40002bcc)
                [!provide]                        PROVIDE (ets_install_external_printf, 0x40002450)
                0x000000004000242c                PROVIDE (ets_install_putc1, 0x4000242c)
                [!provide]                        PROVIDE (ets_install_putc2, 0x4000248c)
                [!provide]                        PROVIDE (ets_install_uart_printf, 0x40002438)
                0x0000000040000f74                PROVIDE (ets_intr_lock, 0x40000f74)
                0x0000000040000f80                PROVIDE (ets_intr_unlock, 0x40000f80)
                0x0000000040000f88                PROVIDE (ets_isr_attach, 0x40000f88)
                0x0000000040000f98                PROVIDE (ets_isr_mask, 0x40000f98)
                0x0000000040000fa8                PROVIDE (ets_isr_unmask, 0x40000fa8)
                0x00000000400018d4                PROVIDE (ets_memcmp, 0x400018d4)
                0x00000000400018b4                PROVIDE (ets_memcpy, 0x400018b4)
                [!provide]                        PROVIDE (ets_memmove, 0x400018c4)
                0x00000000400018a4                PROVIDE (ets_memset, 0x400018a4)
                0x0000000040000e24                PROVIDE (ets_post, 0x40000e24)
                0x00000000400024cc                PROVIDE (ets_printf, 0x400024cc)
                [!provide]                        PROVIDE (ets_putc, 0x40002be8)
                [!provide]                        PROVIDE (ets_rtc_int_register, 0x40002a40)
                0x0000000040000e04                PROVIDE (ets_run, 0x40000e04)
                0x0000000040000dc0                PROVIDE (ets_set_idle_cb, 0x40000dc0)
                [!provide]                        PROVIDE (ets_set_user_start, 0x40000fbc)
                [!provide]                        PROVIDE (ets_str2macaddr, 0x40002af8)
                0x0000000040002aa8                PROVIDE (ets_strcmp, 0x40002aa8)
                0x0000000040002a88                PROVIDE (ets_strcpy, 0x40002a88)
                0x0000000040002ac8                PROVIDE (ets_strlen, 0x40002ac8)
                0x0000000040002ab8                PROVIDE (ets_strncmp, 0x40002ab8)
                0x0000000040002a98                PROVIDE (ets_strncpy, 0x40002a98)
                0x0000000040002ad8                PROVIDE (ets_strstr, 0x40002ad8)
                0x0000000040000dd0                PROVIDE (ets_task, 0x40000dd0)
                [!provide]                        PROVIDE (ets_timer_arm, 0x40002cc4)
                [!provide]                        PROVIDE (ets_timer_disarm, 0x40002d40)
                [!provide]                        PROVIDE (ets_timer_done, 0x40002d80)
                [!provide]                        PROVIDE (ets_timer_handler_isr, 0x40002da8)
                [!provide]                        PROVIDE (ets_timer_init, 0x40002e68)
                [!provide]                        PROVIDE (ets_timer_setfn, 0x40002c48)
                [!provide]                        PROVIDE (ets_uart_printf, 0x40002544)
                0x0000000040002f04                PROVIDE (ets_update_cpu_frequency, 0x40002f04)
                0x0000000040001f00                PROVIDE (ets_vprintf, 0x40001f00)
                [!provide]                        PROVIDE (ets_wdt_disable, 0x400030f0)
                [!provide]                        PROVIDE (ets_wdt_enable, 0x40002fa0)
                [!provide]                        PROVIDE (ets_wdt_get_mode, 0x40002f34)
                [!provide]                        PROVIDE (ets_wdt_init, 0x40003170)
                [!provide]                        PROVIDE (ets_wdt_restore, 0x40003158)
                0x0000000040001da0                PROVIDE (ets_write_char, 0x40001da0)
                [!provide]                        PROVIDE (get_first_seg, 0x4000091c)
                0x0000000040004c50                PROVIDE (gpio_init, 0x40004c50)
                0x0000000040004cf0                PROVIDE (gpio_input_get, 0x40004cf0)
                [!provide]                        PROVIDE (gpio_intr_ack, 0x40004dcc)
                [!provide]                        PROVIDE (gpio_intr_handler_register, 0x40004e28)
                [!provide]                        PROVIDE (gpio_intr_pending, 0x40004d88)
                [!provide]                        PROVIDE (gpio_intr_test, 0x40004efc)
                0x0000000040004cd0                PROVIDE (gpio_output_set, 0x40004cd0)
                [!provide]                        PROVIDE (gpio_pin_intr_state_set, 0x40004d90)
                0x0000000040004ed4                PROVIDE (gpio_pin_wakeup_disable, 0x40004ed4)
                0x0000000040004e90                PROVIDE (gpio_pin_wakeup_enable, 0x40004e90)
                [!provide]                        PROVIDE (gpio_register_get, 0x40004d5c)
                [!provide]                        PROVIDE (gpio_register_set, 0x40004d04)
                0x000000004000a2cc                PROVIDE (hmac_md5, 0x4000a2cc)
                [!provide]                        PROVIDE (hmac_md5_vector, 0x4000a160)
                0x000000004000ba28                PROVIDE (hmac_sha1, 0x4000ba28)
                0x000000004000b8b4                PROVIDE (hmac_sha1_vector, 0x4000b8b4)
                0x0000000040004f40                PROVIDE (lldesc_build_chain, 0x40004f40)
                0x0000000040005050                PROVIDE (lldesc_num2link, 0x40005050)
                [!provide]                        PROVIDE (lldesc_set_owner, 0x4000507c)
                [!provide]                        PROVIDE (main, 0x40000fec)
                [!provide]                        PROVIDE (md5_vector, 0x400097ac)
                [!provide]                        PROVIDE (mem_calloc, 0x40001c2c)
                [!provide]                        PROVIDE (mem_free, 0x400019e0)
                [!provide]                        PROVIDE (mem_init, 0x40001998)
                [!provide]                        PROVIDE (mem_malloc, 0x40001b40)
                [!provide]                        PROVIDE (mem_realloc, 0x40001c6c)
                [!provide]                        PROVIDE (mem_trim, 0x40001a14)
                [!provide]                        PROVIDE (mem_zalloc, 0x40001c58)
                [!provide]                        PROVIDE (memcmp, 0x4000dea8)
                [!provide]                        PROVIDE (memcpy, 0x4000df48)
                [!provide]                        PROVIDE (memmove, 0x4000e04c)
                [!provide]                        PROVIDE (memset, 0x4000e190)
                [!provide]                        PROVIDE (multofup, 0x400031c0)
                0x000000004000b840                PROVIDE (pbkdf2_sha1, 0x4000b840)
                0x0000000040006b08                PROVIDE (phy_get_romfuncs, 0x40006b08)
                [!provide]                        PROVIDE (rand, 0x40000600)
                0x000000004000dd68                PROVIDE (rc4_skip, 0x4000dd68)
                [!provide]                        PROVIDE (recv_packet, 0x40003d08)
                [!provide]                        PROVIDE (remove_head_space, 0x40000a04)
                [!provide]                        PROVIDE (rijndaelKeySetupDec, 0x40008dd0)
                [!provide]                        PROVIDE (rijndaelKeySetupEnc, 0x40009300)
                [!provide]                        PROVIDE (rom_abs_temp, 0x400060c0)
                [!provide]                        PROVIDE (rom_ana_inf_gating_en, 0x40006b10)
                [!provide]                        PROVIDE (rom_cal_tos_v50, 0x40007a28)
                [!provide]                        PROVIDE (rom_chip_50_set_channel, 0x40006f84)
                0x00000000400060d0                PROVIDE (rom_chip_v5_disable_cca, 0x400060d0)
                0x00000000400060ec                PROVIDE (rom_chip_v5_enable_cca, 0x400060ec)
                [!provide]                        PROVIDE (rom_chip_v5_rx_init, 0x4000711c)
                [!provide]                        PROVIDE (rom_chip_v5_sense_backoff, 0x4000610c)
                [!provide]                        PROVIDE (rom_chip_v5_tx_init, 0x4000718c)
                [!provide]                        PROVIDE (rom_dc_iq_est, 0x4000615c)
                [!provide]                        PROVIDE (rom_en_pwdet, 0x400061b8)
                [!provide]                        PROVIDE (rom_get_bb_atten, 0x40006238)
                [!provide]                        PROVIDE (rom_get_corr_power, 0x40006260)
                [!provide]                        PROVIDE (rom_get_fm_sar_dout, 0x400062dc)
                [!provide]                        PROVIDE (rom_get_noisefloor, 0x40006394)
                [!provide]                        PROVIDE (rom_get_power_db, 0x400063b0)
                [!provide]                        PROVIDE (rom_i2c_readReg, 0x40007268)
                [!provide]                        PROVIDE (rom_i2c_readReg_Mask, 0x4000729c)
                [!provide]                        PROVIDE (rom_i2c_writeReg, 0x400072d8)
                [!provide]                        PROVIDE (rom_i2c_writeReg_Mask, 0x4000730c)
                [!provide]                        PROVIDE (rom_iq_est_disable, 0x40006400)
                [!provide]                        PROVIDE (rom_iq_est_enable, 0x40006430)
                [!provide]                        PROVIDE (rom_linear_to_db, 0x40006484)
                [!provide]                        PROVIDE (rom_mhz2ieee, 0x400065a4)
                [!provide]                        PROVIDE (rom_pbus_dco___SA2, 0x40007bf0)
                [!provide]                        PROVIDE (rom_pbus_debugmode, 0x4000737c)
                [!provide]                        PROVIDE (rom_pbus_enter_debugmode, 0x40007410)
                [!provide]                        PROVIDE (rom_pbus_exit_debugmode, 0x40007448)
                [!provide]                        PROVIDE (rom_pbus_force_test, 0x4000747c)
                [!provide]                        PROVIDE (rom_pbus_rd, 0x400074d8)
                [!provide]                        PROVIDE (rom_pbus_set_rxgain, 0x4000754c)
                [!provide]                        PROVIDE (rom_pbus_set_txgain, 0x40007610)
                [!provide]                        PROVIDE (rom_pbus_workmode, 0x40007648)
                [!provide]                        PROVIDE (rom_pbus_xpd_rx_off, 0x40007688)
                [!provide]                        PROVIDE (rom_pbus_xpd_rx_on, 0x400076cc)
                [!provide]                        PROVIDE (rom_pbus_xpd_tx_off, 0x400076fc)
                [!provide]                        PROVIDE (rom_pbus_xpd_tx_on, 0x40007740)
                [!provide]                        PROVIDE (rom_pbus_xpd_tx_on__low_gain, 0x400077a0)
                [!provide]                        PROVIDE (rom_phy_reset_req, 0x40007804)
                [!provide]                        PROVIDE (rom_restart_cal, 0x4000781c)
                [!provide]                        PROVIDE (rom_rfcal_pwrctrl, 0x40007eb4)
                [!provide]                        PROVIDE (rom_rfcal_rxiq, 0x4000804c)
                [!provide]                        PROVIDE (rom_rfcal_rxiq_set_reg, 0x40008264)
                [!provide]                        PROVIDE (rom_rfcal_txcap, 0x40008388)
                [!provide]                        PROVIDE (rom_rfcal_txiq, 0x40008610)
                [!provide]                        PROVIDE (rom_rfcal_txiq_cover, 0x400088b8)
                [!provide]                        PROVIDE (rom_rfcal_txiq_set_reg, 0x40008a70)
                [!provide]                        PROVIDE (rom_rfpll_reset, 0x40007868)
                [!provide]                        PROVIDE (rom_rfpll_set_freq, 0x40007968)
                [!provide]                        PROVIDE (rom_rxiq_cover_mg_mp, 0x40008b6c)
                [!provide]                        PROVIDE (rom_rxiq_get_mis, 0x40006628)
                [!provide]                        PROVIDE (rom_sar_init, 0x40006738)
                [!provide]                        PROVIDE (rom_set_ana_inf_tx_scale, 0x4000678c)
                [!provide]                        PROVIDE (rom_set_channel_freq, 0x40006c50)
                [!provide]                        PROVIDE (rom_set_loopback_gain, 0x400067c8)
                [!provide]                        PROVIDE (rom_set_noise_floor, 0x40006830)
                [!provide]                        PROVIDE (rom_set_rxclk_en, 0x40006550)
                [!provide]                        PROVIDE (rom_set_txbb_atten, 0x40008c6c)
                [!provide]                        PROVIDE (rom_set_txclk_en, 0x4000650c)
                [!provide]                        PROVIDE (rom_set_txiq_cal, 0x40008d34)
                [!provide]                        PROVIDE (rom_start_noisefloor, 0x40006874)
                [!provide]                        PROVIDE (rom_start_tx_tone, 0x400068b4)
                [!provide]                        PROVIDE (rom_stop_tx_tone, 0x4000698c)
                [!provide]                        PROVIDE (rom_tx_mac_disable, 0x40006a98)
                [!provide]                        PROVIDE (rom_tx_mac_enable, 0x40006ad4)
                [!provide]                        PROVIDE (rom_txtone_linear_pwr, 0x40006a1c)
                [!provide]                        PROVIDE (rom_write_rfpll_sdm, 0x400078dc)
                0x00000000400031b4                PROVIDE (roundup2, 0x400031b4)
                [!provide]                        PROVIDE (rtc_enter_sleep, 0x40002870)
                0x00000000400025e0                PROVIDE (rtc_get_reset_reason, 0x400025e0)
                [!provide]                        PROVIDE (rtc_intr_handler, 0x400029ec)
                [!provide]                        PROVIDE (rtc_set_sleep_mode, 0x40002668)
                [!provide]                        PROVIDE (save_rxbcn_mactime, 0x400027a4)
                [!provide]                        PROVIDE (save_tsf_us, 0x400027ac)
                [!provide]                        PROVIDE (send_packet, 0x40003c80)
                0x000000004000ba48                PROVIDE (sha1_prf, 0x4000ba48)
                [!provide]                        PROVIDE (sha1_vector, 0x4000a2ec)
                [!provide]                        PROVIDE (sip_alloc_to_host_evt, 0x40005180)
                [!provide]                        PROVIDE (sip_get_ptr, 0x400058a8)
                [!provide]                        PROVIDE (sip_get_state, 0x40005668)
                [!provide]                        PROVIDE (sip_init_attach, 0x4000567c)
                [!provide]                        PROVIDE (sip_install_rx_ctrl_cb, 0x4000544c)
                [!provide]                        PROVIDE (sip_install_rx_data_cb, 0x4000545c)
                [!provide]                        PROVIDE (sip_post, 0x400050fc)
                [!provide]                        PROVIDE (sip_post_init, 0x400056c4)
                [!provide]                        PROVIDE (sip_reclaim_from_host_cmd, 0x4000534c)
                [!provide]                        PROVIDE (sip_reclaim_tx_data_pkt, 0x400052c0)
                [!provide]                        PROVIDE (sip_send, 0x40005808)
                [!provide]                        PROVIDE (sip_to_host_chain_append, 0x40005864)
                [!provide]                        PROVIDE (sip_to_host_evt_send_done, 0x40005234)
                [!provide]                        PROVIDE (slc_add_credits, 0x400060ac)
                [!provide]                        PROVIDE (slc_enable, 0x40005d90)
                [!provide]                        PROVIDE (slc_from_host_chain_fetch, 0x40005f24)
                [!provide]                        PROVIDE (slc_from_host_chain_recycle, 0x40005e94)
                [!provide]                        PROVIDE (slc_init_attach, 0x40005c50)
                [!provide]                        PROVIDE (slc_init_credit, 0x4000608c)
                [!provide]                        PROVIDE (slc_pause_from_host, 0x40006014)
                [!provide]                        PROVIDE (slc_reattach, 0x40005c1c)
                [!provide]                        PROVIDE (slc_resume_from_host, 0x4000603c)
                [!provide]                        PROVIDE (slc_select_tohost_gpio, 0x40005dc0)
                [!provide]                        PROVIDE (slc_select_tohost_gpio_mode, 0x40005db8)
                [!provide]                        PROVIDE (slc_send_to_host_chain, 0x40005de4)
                [!provide]                        PROVIDE (slc_set_host_io_max_window, 0x40006068)
                [!provide]                        PROVIDE (slc_to_host_chain_recycle, 0x40005f10)
                [!provide]                        PROVIDE (software_reset, 0x4000264c)
                [!provide]                        PROVIDE (spi_flash_attach, 0x40004644)
                [!provide]                        PROVIDE (srand, 0x400005f0)
                [!provide]                        PROVIDE (strcmp, 0x4000bdc8)
                [!provide]                        PROVIDE (strcpy, 0x4000bec8)
                [!provide]                        PROVIDE (strlen, 0x4000bf4c)
                [!provide]                        PROVIDE (strncmp, 0x4000bfa8)
                [!provide]                        PROVIDE (strncpy, 0x4000c0a0)
                [!provide]                        PROVIDE (strstr, 0x4000e1e0)
                [!provide]                        PROVIDE (timer_insert, 0x40002c64)
                [!provide]                        PROVIDE (uartAttach, 0x4000383c)
                [!provide]                        PROVIDE (uart_baudrate_detect, 0x40003924)
                0x00000000400038a4                PROVIDE (uart_buff_switch, 0x400038a4)
                0x00000000400039d8                PROVIDE (uart_div_modify, 0x400039d8)
                [!provide]                        PROVIDE (uart_rx_intr_handler, 0x40003bbc)
                [!provide]                        PROVIDE (uart_rx_one_char, 0x40003b8c)
                [!provide]                        PROVIDE (uart_rx_one_char_block, 0x40003b64)
                [!provide]                        PROVIDE (uart_rx_readbuff, 0x40003ec8)
                [!provide]                        PROVIDE (uart_tx_one_char, 0x40003b30)
                [!provide]                        PROVIDE (wepkey_128, 0x4000bc40)
                [!provide]                        PROVIDE (wepkey_64, 0x4000bb3c)
                [!provide]                        PROVIDE (xthal_bcopy, 0x40000688)
                [!provide]                        PROVIDE (xthal_copy123, 0x4000074c)
                [!provide]                        PROVIDE (xthal_get_ccompare, 0x4000dd4c)
                [!provide]                        PROVIDE (xthal_get_ccount, 0x4000dd38)
                [!provide]                        PROVIDE (xthal_get_interrupt, 0x4000dd58)
                [!provide]                        PROVIDE (xthal_get_intread, 0x4000dd58)
                [!provide]                        PROVIDE (xthal_memcpy, 0x400006c4)
                [!provide]                        PROVIDE (xthal_set_ccompare, 0x4000dd40)
                [!provide]                        PROVIDE (xthal_set_intclear, 0x4000dd60)
                [!provide]                        PROVIDE (xthal_spill_registers_into_stack_nw, 0x4000e320)
                [!provide]                        PROVIDE (xthal_window_spill, 0x4000e324)
                [!provide]                        PROVIDE (xthal_window_spill_nw, 0x4000e320)
                0x000000003fffccf0                PROVIDE (Te0, 0x3fffccf0)
                [!provide]                        PROVIDE (Td0, 0x3fffd100)
                [!provide]                        PROVIDE (Td4s, 0x3fffd500)
                0x000000003fffd0f0                PROVIDE (rcons, 0x3fffd0f0)
                0x000000003fffde10                PROVIDE (UartDev, 0x3fffde10)
                0x000000003fffc714                PROVIDE (flashchip, 0x3fffc714)
OUTPUT(build/app.out elf32-xtensa-le)

.xtensa.info    0x0000000000000000       0x38
 .xtensa.info   0x0000000000000000       0x38 /home/stoffer/esp8266/esp-open-sdk/sdk/lib/libmain.a(debug-vector.o)
 .xtensa.info   0x0000000000000038        0x0 /home/stoffer/esp8266/esp-open-sdk/sdk/lib/libmain.a(double-vector.o)
 .xtensa.info   0x0000000000000038        0x0 /home/stoffer/esp8266/esp-open-sdk/sdk/lib/libmain.a(kernel-vector.o)
 .xtensa.info   0x0000000000000038        0x0 /home/stoffer/esp8266/esp-open-sdk/sdk/lib/libmain.a(nmi-vector.o)
 .xtensa.info   0x0000000000000038        0x0 /home/stoffer/esp8266/esp-open-sdk/sdk/lib/libmain.a(user-vector.o)
 .xtensa.info   0x0000000000000038        0x0 /home/stoffer/esp8266/esp-open-sdk/sdk/lib/libmain.a(vector.o)
 .xtensa.info   0x0000000000000038        0x0 /home/stoffer/esp8266/esp-open-sdk/sdk/lib/libmain.a(app_main.o)
 .xtensa.info   0x0000000000000038        0x0 /home/stoffer/esp8266/esp-open-sdk/sdk/lib/libmain.a(ets_timer.o)
 .xtensa.info   0x0000000000000038        0x0 /home/stoffer/esp8266/esp-open-sdk/sdk/lib/libmain.a(mem_manager.o)
 .xtensa.info   0x0000000000000038        0x0 /home/stoffer/esp8266/esp-open-sdk/sdk/lib/libmain.a(spi_flash.o)
 .xtensa.info   0x0000000000000038        0x0 /home/stoffer/esp8266/esp-open-sdk/sdk/lib/libmain.a(user_interface.o)
 .xtensa.info   0x0000000000000038        0x0 /home/stoffer/esp8266/esp-open-sdk/sdk/lib/libmain.a(user_rf_cal_sector_set.o)
 .xtensa.info   0x0000000000000038        0x0 /home/stoffer/esp8266/esp-open-sdk/sdk/lib/libmain.a(eagle_lib.o)
 .xtensa.info   0x0000000000000038        0x0 /home/stoffer/esp8266/esp-open-sdk/sdk/lib/libmain.a(eagle_lwip_if.o)
 .xtensa.info   0x0000000000000038        0x0 /home/stoffer/esp8266/esp-open-sdk/sdk/lib/libnet80211.a(ieee80211.o)
 .xtensa.info   0x0000000000000038        0x0 /home/stoffer/esp8266/esp-open-sdk/sdk/lib/libnet80211.a(ieee80211_crypto.o)
 .xtensa.info   0x0000000000000038        0x0 /home/stoffer/esp8266/esp-open-sdk/sdk/lib/libnet80211.a(ieee80211_hostap.o)
 .xtensa.info   0x0000000000000038        0x0 /home/stoffer/esp8266/esp-open-sdk/sdk/lib/libnet80211.a(ieee80211_ht.o)
 .xtensa.info   0x0000000000000038        0x0 /home/stoffer/esp8266/esp-open-sdk/sdk/lib/libnet80211.a(ieee80211_input.o)
 .xtensa.info   0x0000000000000038        0x0 /home/stoffer/esp8266/esp-open-sdk/sdk/lib/libnet80211.a(ieee80211_mesh_quick.o)
 .xtensa.info   0x0000000000000038        0x0 /home/stoffer/esp8266/esp-open-sdk/sdk/lib/libnet80211.a(ieee80211_output.o)
 .xtensa.info   0x0000000000000038        0x0 /home/stoffer/esp8266/esp-open-sdk/sdk/lib/libnet80211.a(ieee80211_phy.o)
 .xtensa.info   0x0000000000000038        0x0 /home/stoffer/esp8266/esp-open-sdk/sdk/lib/libnet80211.a(ieee80211_power.o)
 .xtensa.info   0x0000000000000038        0x0 /home/stoffer/esp8266/esp-open-sdk/sdk/lib/libnet80211.a(ieee80211_proto.o)
 .xtensa.info   0x0000000000000038        0x0 /home/stoffer/esp8266/esp-open-sdk/sdk/lib/libnet80211.a(ieee80211_regdomain.o)
 .xtensa.info   0x0000000000000038        0x0 /home/stoffer/esp8266/esp-open-sdk/sdk/lib/libnet80211.a(ieee80211_rfid.o)
 .xtensa.info   0x0000000000000038        0x0 /home/stoffer/esp8266/esp-open-sdk/sdk/lib/libnet80211.a(ieee80211_scan.o)
 .xtensa.info   0x0000000000000038        0x0 /home/stoffer/esp8266/esp-open-sdk/sdk/lib/libnet80211.a(ieee80211_sta.o)
 .xtensa.info   0x0000000000000038        0x0 /home/stoffer/esp8266/esp-open-sdk/sdk/lib/libnet80211.a(wl_chm.o)
 .xtensa.info   0x0000000000000038        0x0 /home/stoffer/esp8266/esp-open-sdk/sdk/lib/libnet80211.a(wl_cnx.o)
 .xtensa.info   0x0000000000000038        0x0 /home/stoffer/esp8266/esp-open-sdk/sdk/lib/libnet80211.a(ieee80211_action.o)
 .xtensa.info   0x0000000000000038        0x0 /home/stoffer/esp8266/esp-open-sdk/sdk/lib/libnet80211.a(ieee80211_action_vendor.o)
 .xtensa.info   0x0000000000000038        0x0 /home/stoffer/esp8266/esp-open-sdk/sdk/lib/libnet80211.a(ieee80211_crypto_ccmp.o)
 .xtensa.info   0x0000000000000038        0x0 /home/stoffer/esp8266/esp-open-sdk/sdk/lib/libnet80211.a(ieee80211_ets.o)
 .xtensa.info   0x0000000000000038        0x0 /home/stoffer/esp8266/esp-open-sdk/sdk/lib/libnet80211.a(ieee80211_ie_vendor.o)
 .xtensa.info   0x0000000000000038        0x0 /home/stoffer/esp8266/esp-open-sdk/sdk/lib/libwpa.a(ap_config.o)
 .xtensa.info   0x0000000000000038        0x0 /home/stoffer/esp8266/esp-open-sdk/sdk/lib/libwpa.a(common.o)
 .xtensa.info   0x0000000000000038        0x0 /home/stoffer/esp8266/esp-open-sdk/sdk/lib/libwpa.a(os_xtensa.o)
 .xtensa.info   0x0000000000000038        0x0 /home/stoffer/esp8266/esp-open-sdk/sdk/lib/libwpa.a(wpa_auth.o)
 .xtensa.info   0x0000000000000038        0x0 /home/stoffer/esp8266/esp-open-sdk/sdk/lib/libwpa.a(wpa_auth_ie.o)
 .xtensa.info   0x0000000000000038        0x0 /home/stoffer/esp8266/esp-open-sdk/sdk/lib/libwpa.a(wpa.o)
 .xtensa.info   0x0000000000000038        0x0 /home/stoffer/esp8266/esp-open-sdk/sdk/lib/libwpa.a(wpa_common.o)
 .xtensa.info   0x0000000000000038        0x0 /home/stoffer/esp8266/esp-open-sdk/sdk/lib/libwpa.a(wpa_debug.o)
 .xtensa.info   0x0000000000000038        0x0 /home/stoffer/esp8266/esp-open-sdk/sdk/lib/libwpa.a(wpa_ie.o)
 .xtensa.info   0x0000000000000038        0x0 /home/stoffer/esp8266/esp-open-sdk/sdk/lib/libwpa.a(wpa_main.o)
 .xtensa.info   0x0000000000000038        0x0 /home/stoffer/esp8266/esp-open-sdk/sdk/lib/libwpa.a(wpas_glue.o)
 .xtensa.info   0x0000000000000038        0x0 /home/stoffer/esp8266/esp-open-sdk/sdk/lib/libwpa.a(aes-wrap.o)
 .xtensa.info   0x0000000000000038        0x0 /home/stoffer/esp8266/esp-open-sdk/sdk/lib/libwpa.a(aes-internal-enc.o)
 .xtensa.info   0x0000000000000038        0x0 /home/stoffer/esp8266/esp-open-sdk/sdk/lib/libwpa.a(aes-internal.o)
 .xtensa.info   0x0000000000000038        0x0 /home/stoffer/esp8266/esp-open-sdk/sdk/lib/liblwip.a(dhcp.o)
 .xtensa.info   0x0000000000000038        0x0 /home/stoffer/esp8266/esp-open-sdk/sdk/lib/liblwip.a(dhcpserver.o)
 .xtensa.info   0x0000000000000038        0x0 /home/stoffer/esp8266/esp-open-sdk/sdk/lib/liblwip.a(dns.o)
 .xtensa.info   0x0000000000000038        0x0 /home/stoffer/esp8266/esp-open-sdk/sdk/lib/liblwip.a(espconn_tcp.o)
 .xtensa.info   0x0000000000000038        0x0 /home/stoffer/esp8266/esp-open-sdk/sdk/lib/liblwip.a(etharp.o)
 .xtensa.info   0x0000000000000038        0x0 /home/stoffer/esp8266/esp-open-sdk/sdk/lib/liblwip.a(init.o)
 .xtensa.info   0x0000000000000038        0x0 /home/stoffer/esp8266/esp-open-sdk/sdk/lib/liblwip.a(ip_addr.o)
 .xtensa.info   0x0000000000000038        0x0 /home/stoffer/esp8266/esp-open-sdk/sdk/lib/liblwip.a(ip.o)
 .xtensa.info   0x0000000000000038        0x0 /home/stoffer/esp8266/esp-open-sdk/sdk/lib/liblwip.a(memp.o)
 .xtensa.info   0x0000000000000038        0x0 /home/stoffer/esp8266/esp-open-sdk/sdk/lib/liblwip.a(netif.o)
 .xtensa.info   0x0000000000000038        0x0 /home/stoffer/esp8266/esp-open-sdk/sdk/lib/liblwip.a(pbuf.o)
 .xtensa.info   0x0000000000000038        0x0 /home/stoffer/esp8266/esp-open-sdk/sdk/lib/liblwip.a(raw.o)
 .xtensa.info   0x0000000000000038        0x0 /home/stoffer/esp8266/esp-open-sdk/sdk/lib/liblwip.a(tcp_in.o)
 .xtensa.info   0x0000000000000038        0x0 /home/stoffer/esp8266/esp-open-sdk/sdk/lib/liblwip.a(tcp.o)
 .xtensa.info   0x0000000000000038        0x0 /home/stoffer/esp8266/esp-open-sdk/sdk/lib/liblwip.a(tcp_out.o)
 .xtensa.info   0x0000000000000038        0x0 /home/stoffer/esp8266/esp-open-sdk/sdk/lib/liblwip.a(timers.o)
 .xtensa.info   0x0000000000000038        0x0 /home/stoffer/esp8266/esp-open-sdk/sdk/lib/liblwip.a(udp.o)
 .xtensa.info   0x0000000000000038        0x0 /home/stoffer/esp8266/esp-open-sdk/sdk/lib/liblwip.a(espconn_buf.o)
 .xtensa.info   0x0000000000000038        0x0 /home/stoffer/esp8266/esp-open-sdk/sdk/lib/liblwip.a(espconn.o)
 .xtensa.info   0x0000000000000038        0x0 /home/stoffer/esp8266/esp-open-sdk/sdk/lib/liblwip.a(espconn_udp.o)
 .xtensa.info   0x0000000000000038        0x0 /home/stoffer/esp8266/esp-open-sdk/sdk/lib/liblwip.a(icmp.o)
 .xtensa.info   0x0000000000000038        0x0 /home/stoffer/esp8266/esp-open-sdk/sdk/lib/liblwip.a(igmp.o)
 .xtensa.info   0x0000000000000038        0x0 /home/stoffer/esp8266/esp-open-sdk/sdk/lib/liblwip.a(inet_chksum.o)
 .xtensa.info   0x0000000000000038        0x0 /home/stoffer/esp8266/esp-open-sdk/sdk/lib/libpp.a(esf_buf.o)
 .xtensa.info   0x0000000000000038        0x0 /home/stoffer/esp8266/esp-open-sdk/sdk/lib/libpp.a(if_hwctrl.o)
 .xtensa.info   0x0000000000000038        0x0 /home/stoffer/esp8266/esp-open-sdk/sdk/lib/libpp.a(lmac.o)
 .xtensa.info   0x0000000000000038        0x0 /home/stoffer/esp8266/esp-open-sdk/sdk/lib/libpp.a(pm.o)
 .xtensa.info   0x0000000000000038        0x0 /home/stoffer/esp8266/esp-open-sdk/sdk/lib/libpp.a(pm_for_bcn_only_mode.o)
 .xtensa.info   0x0000000000000038        0x0 /home/stoffer/esp8266/esp-open-sdk/sdk/lib/libpp.a(pp.o)
 .xtensa.info   0x0000000000000038        0x0 /home/stoffer/esp8266/esp-open-sdk/sdk/lib/libpp.a(rate_control.o)
 .xtensa.info   0x0000000000000038        0x0 /home/stoffer/esp8266/esp-open-sdk/sdk/lib/libpp.a(trc.o)
 .xtensa.info   0x0000000000000038        0x0 /home/stoffer/esp8266/esp-open-sdk/sdk/lib/libpp.a(wdev.o)
 .xtensa.info   0x0000000000000038        0x0 /home/stoffer/esp8266/esp-open-sdk/sdk/lib/libphy.a(phy.o)
 .xtensa.info   0x0000000000000038        0x0 /home/stoffer/esp8266/esp-open-sdk/sdk/lib/libphy.a(phy_chip_v6_ana.o)
 .xtensa.info   0x0000000000000038        0x0 /home/stoffer/esp8266/esp-open-sdk/sdk/lib/libphy.a(phy_chip_v6.o)
 .xtensa.info   0x0000000000000038        0x0 /home/stoffer/esp8266/esp-open-sdk/sdk/lib/libphy.a(phy_chip_v6_cal.o)
 .xtensa.info   0x0000000000000038        0x0 /home/stoffer/esp8266/esp-open-sdk/sdk/lib/libphy.a(phy_chip_v6_unused.o)
 .xtensa.info   0x0000000000000038        0x0 /home/stoffer/esp8266/esp-open-sdk/sdk/lib/libphy.a(phy_sleep.o)
 .xtensa.info   0x0000000000000038        0x0 /home/stoffer/esp8266/esp-open-sdk/xtensa-lx106-elf/xtensa-lx106-elf/sysroot/usr/lib/libhal.a(int_asm--set_intclear.o)
 .xtensa.info   0x0000000000000038        0x0 /home/stoffer/esp8266/esp-open-sdk/sdk/lib/libgcc.a(_modsi3.o)
 .xtensa.info   0x0000000000000038        0x0 /home/stoffer/esp8266/esp-open-sdk/sdk/lib/libgcc.a(_ashrdi3.o)
 .xtensa.info   0x0000000000000038        0x0 /home/stoffer/esp8266/esp-open-sdk/sdk/lib/libgcc.a(_mulsf3.o)
 .xtensa.info   0x0000000000000038        0x0 /home/stoffer/esp8266/esp-open-sdk/sdk/lib/libgcc.a(_divsf3.o)
 .xtensa.info   0x0000000000000038        0x0 /home/stoffer/esp8266/esp-open-sdk/sdk/lib/libgcc.a(_fixsfsi.o)
 .xtensa.info   0x0000000000000038        0x0 /home/stoffer/esp8266/esp-open-sdk/xtensa-lx106-elf/lib/gcc/xtensa-lx106-elf/4.8.5/../../../../xtensa-lx106-elf/lib/libc.a(lib_a-memchr.o)
 .xtensa.info   0x0000000000000038        0x0 build/app_app.a(user_main.o)
 .xtensa.info   0x0000000000000038        0x0 build/app_app.a(captdns.o)
 .xtensa.info   0x0000000000000038        0x0 build/app_app.a(led.o)
 .xtensa.info   0x0000000000000038        0x0 build/app_app.a(httpd_user_init.o)
 .xtensa.info   0x0000000000000038        0x0 build/app_app.a(httpd.o)
 .xtensa.info   0x0000000000000038        0x0 build/app_app.a(crypto.o)
 .xtensa.info   0x0000000000000038        0x0 build/app_app.a(sha256.o)
 .xtensa.info   0x0000000000000038        0x0 build/app_app.a(aes.o)
 .xtensa.info   0x0000000000000038        0x0 build/app_app.a(kmp_request.o)
 .xtensa.info   0x0000000000000038        0x0 build/app_app.a(kmp.o)
 .xtensa.info   0x0000000000000038        0x0 build/app_app.a(cron.o)
 .xtensa.info   0x0000000000000038        0x0 build/app_app.a(ac_out.o)
 .xtensa.info   0x0000000000000038        0x0 build/app_app.a(uart.o)
 .xtensa.info   0x0000000000000038        0x0 build/app_app.a(mqtt.o)
 .xtensa.info   0x0000000000000038        0x0 build/app_app.a(mqtt_msg.o)
 .xtensa.info   0x0000000000000038        0x0 build/app_app.a(queue.o)
 .xtensa.info   0x0000000000000038        0x0 build/app_app.a(mqtt_utils.o)
 .xtensa.info   0x0000000000000038        0x0 build/app_app.a(proto.o)
 .xtensa.info   0x0000000000000038        0x0 build/app_app.a(config.o)
 .xtensa.info   0x0000000000000038        0x0 build/app_app.a(wifi.o)
 .xtensa.info   0x0000000000000038        0x0 build/app_app.a(watchdog.o)
 .xtensa.info   0x0000000000000038        0x0 build/app_app.a(cgiwifi.o)
 .xtensa.info   0x0000000000000038        0x0 build/app_app.a(tinyprintf.o)
 .xtensa.info   0x0000000000000038        0x0 build/app_app.a(unix_time.o)
 .xtensa.info   0x0000000000000038        0x0 build/app_app.a(cgi.o)
 .xtensa.info   0x0000000000000038        0x0 build/app_app.a(httpdespfs.o)
 .xtensa.info   0x0000000000000038        0x0 build/app_app.a(espfs.o)
 .xtensa.info   0x0000000000000038        0x0 build/app_app.a(heatshrink_decoder.o)
 .xtensa.info   0x0000000000000038        0x0 build/app_app.a(utils.o)
 .xtensa.info   0x0000000000000038        0x0 build/app_app.a(hmac-sha256.o)
 .xtensa.info   0x0000000000000038        0x0 build/app_app.a(gpio16.o)
 .xtensa.info   0x0000000000000038        0x0 build/app_app.a(ringbuf.o)
 .xtensa.info   0x0000000000000038        0x0 /home/stoffer/esp8266/esp-open-sdk/sdk/lib/libnet80211.a(ieee80211_crypto_tkip.o)
 .xtensa.info   0x0000000000000038        0x0 /home/stoffer/esp8266/esp-open-sdk/sdk/lib/libnet80211.a(ieee80211_crypto_wep.o)
 .xtensa.info   0x0000000000000038        0x0 /home/stoffer/esp8266/esp-open-sdk/sdk/lib/liblwip.a(sntp.o)
 .xtensa.info   0x0000000000000038        0x0 /home/stoffer/esp8266/esp-open-sdk/xtensa-lx106-elf/lib/gcc/xtensa-lx106-elf/4.8.5/../../../../xtensa-lx106-elf/lib/libc.a(lib_a-atoi.o)
 .xtensa.info   0x0000000000000038        0x0 /home/stoffer/esp8266/esp-open-sdk/xtensa-lx106-elf/lib/gcc/xtensa-lx106-elf/4.8.5/../../../../xtensa-lx106-elf/lib/libc.a(lib_a-gmtime.o)
 .xtensa.info   0x0000000000000038        0x0 /home/stoffer/esp8266/esp-open-sdk/xtensa-lx106-elf/lib/gcc/xtensa-lx106-elf/4.8.5/../../../../xtensa-lx106-elf/lib/libc.a(lib_a-gmtime_r.o)
 .xtensa.info   0x0000000000000038        0x0 /home/stoffer/esp8266/esp-open-sdk/xtensa-lx106-elf/lib/gcc/xtensa-lx106-elf/4.8.5/../../../../xtensa-lx106-elf/lib/libc.a(lib_a-impure.o)
 .xtensa.info   0x0000000000000038        0x0 /home/stoffer/esp8266/esp-open-sdk/xtensa-lx106-elf/lib/gcc/xtensa-lx106-elf/4.8.5/../../../../xtensa-lx106-elf/lib/libc.a(lib_a-memcpy.o)
 .xtensa.info   0x0000000000000038        0x0 /home/stoffer/esp8266/esp-open-sdk/xtensa-lx106-elf/lib/gcc/xtensa-lx106-elf/4.8.5/../../../../xtensa-lx106-elf/lib/libc.a(lib_a-memset.o)
 .xtensa.info   0x0000000000000038        0x0 /home/stoffer/esp8266/esp-open-sdk/xtensa-lx106-elf/lib/gcc/xtensa-lx106-elf/4.8.5/../../../../xtensa-lx106-elf/lib/libc.a(lib_a-mktm_r.o)
 .xtensa.info   0x0000000000000038        0x0 /home/stoffer/esp8266/esp-open-sdk/xtensa-lx106-elf/lib/gcc/xtensa-lx106-elf/4.8.5/../../../../xtensa-lx106-elf/lib/libc.a(lib_a-strcat.o)
 .xtensa.info   0x0000000000000038        0x0 /home/stoffer/esp8266/esp-open-sdk/xtensa-lx106-elf/lib/gcc/xtensa-lx106-elf/4.8.5/../../../../xtensa-lx106-elf/lib/libc.a(lib_a-strlen.o)
 .xtensa.info   0x0000000000000038        0x0 /home/stoffer/esp8266/esp-open-sdk/xtensa-lx106-elf/lib/gcc/xtensa-lx106-elf/4.8.5/../../../../xtensa-lx106-elf/lib/libc.a(lib_a-strtok.o)
 .xtensa.info   0x0000000000000038        0x0 /home/stoffer/esp8266/esp-open-sdk/xtensa-lx106-elf/lib/gcc/xtensa-lx106-elf/4.8.5/../../../../xtensa-lx106-elf/lib/libc.a(lib_a-strtok_r.o)
 .xtensa.info   0x0000000000000038        0x0 /home/stoffer/esp8266/esp-open-sdk/xtensa-lx106-elf/lib/gcc/xtensa-lx106-elf/4.8.5/../../../../xtensa-lx106-elf/lib/libc.a(lib_a-strtol.o)
 .xtensa.info   0x0000000000000038        0x0 /home/stoffer/esp8266/esp-open-sdk/xtensa-lx106-elf/lib/gcc/xtensa-lx106-elf/4.8.5/../../../../xtensa-lx106-elf/lib/libc.a(lib_a-tzlock.o)
 .xtensa.info   0x0000000000000038        0x0 /home/stoffer/esp8266/esp-open-sdk/xtensa-lx106-elf/lib/gcc/xtensa-lx106-elf/4.8.5/../../../../xtensa-lx106-elf/lib/libc.a(lib_a-tzvars.o)
 .xtensa.info   0x0000000000000038        0x0 /home/stoffer/esp8266/esp-open-sdk/xtensa-lx106-elf/lib/gcc/xtensa-lx106-elf/4.8.5/../../../../xtensa-lx106-elf/lib/libc.a(lib_a-ctype_.o)
 .xtensa.info   0x0000000000000038        0x0 /home/stoffer/esp8266/esp-open-sdk/xtensa-lx106-elf/lib/gcc/xtensa-lx106-elf/4.8.5/../../../../xtensa-lx106-elf/lib/libc.a(lib_a-gettzinfo.o)
 .xtensa.info   0x0000000000000038        0x0 /home/stoffer/esp8266/esp-open-sdk/sdk/lib/libmain.a(time.o)
 .xtensa.info   0x0000000000000038        0x0 /home/stoffer/esp8266/esp-open-sdk/xtensa-lx106-elf/lib/gcc/xtensa-lx106-elf/4.8.5/../../../../xtensa-lx106-elf/lib/libc.a(lib_a-sysgettod.o)

.xt.prop        0x0000000000000000    0x2f07c
 .xt.prop       0x0000000000000000       0x18 /home/stoffer/esp8266/esp-open-sdk/sdk/lib/libmain.a(debug-vector.o)
 .xt.prop       0x0000000000000018       0x18 /home/stoffer/esp8266/esp-open-sdk/sdk/lib/libmain.a(double-vector.o)
 .xt.prop       0x0000000000000030       0x18 /home/stoffer/esp8266/esp-open-sdk/sdk/lib/libmain.a(kernel-vector.o)
 .xt.prop       0x0000000000000048       0x30 /home/stoffer/esp8266/esp-open-sdk/sdk/lib/libmain.a(nmi-vector.o)
                                         0x3c (size before relaxing)
 .xt.prop       0x0000000000000078       0x30 /home/stoffer/esp8266/esp-open-sdk/sdk/lib/libmain.a(user-vector.o)
                                         0x3c (size before relaxing)
 .xt.prop       0x00000000000000a8       0x18 /home/stoffer/esp8266/esp-open-sdk/sdk/lib/libmain.a(vector.o)
 .xt.prop       0x00000000000000c0     0x10a4 /home/stoffer/esp8266/esp-open-sdk/sdk/lib/libmain.a(app_main.o)
                                       0x114c (size before relaxing)
 .xt.prop       0x0000000000001164      0x5e8 /home/stoffer/esp8266/esp-open-sdk/sdk/lib/libmain.a(ets_timer.o)
                                        0x630 (size before relaxing)
 .xt.prop       0x000000000000174c      0x3e4 /home/stoffer/esp8266/esp-open-sdk/sdk/lib/libmain.a(mem_manager.o)
                                        0x474 (size before relaxing)
 .xt.prop       0x0000000000001b30      0x5ac /home/stoffer/esp8266/esp-open-sdk/sdk/lib/libmain.a(spi_flash.o)
                                        0x5c4 (size before relaxing)
 .xt.prop       0x00000000000020dc     0x3a68 /home/stoffer/esp8266/esp-open-sdk/sdk/lib/libmain.a(user_interface.o)
                                       0x3bf4 (size before relaxing)
 .xt.prop       0x0000000000005b44       0x24 /home/stoffer/esp8266/esp-open-sdk/sdk/lib/libmain.a(user_rf_cal_sector_set.o)
                                         0x30 (size before relaxing)
 .xt.prop       0x0000000000005b68      0x858 /home/stoffer/esp8266/esp-open-sdk/sdk/lib/libmain.a(eagle_lib.o)
 .xt.prop       0x00000000000063c0      0x270 /home/stoffer/esp8266/esp-open-sdk/sdk/lib/libmain.a(eagle_lwip_if.o)
                                        0x2a0 (size before relaxing)
 .xt.prop       0x0000000000006630      0x4a4 /home/stoffer/esp8266/esp-open-sdk/sdk/lib/libnet80211.a(ieee80211.o)
                                        0x4c8 (size before relaxing)
 .xt.prop       0x0000000000006ad4      0x15c /home/stoffer/esp8266/esp-open-sdk/sdk/lib/libnet80211.a(ieee80211_crypto.o)
 .xt.prop       0x0000000000006c30      0xe70 /home/stoffer/esp8266/esp-open-sdk/sdk/lib/libnet80211.a(ieee80211_hostap.o)
                                        0xf54 (size before relaxing)
 .xt.prop       0x0000000000007aa0      0x684 /home/stoffer/esp8266/esp-open-sdk/sdk/lib/libnet80211.a(ieee80211_ht.o)
                                        0x690 (size before relaxing)
 .xt.prop       0x0000000000008124      0x900 /home/stoffer/esp8266/esp-open-sdk/sdk/lib/libnet80211.a(ieee80211_input.o)
                                        0x90c (size before relaxing)
 .xt.prop       0x0000000000008a24      0x468 /home/stoffer/esp8266/esp-open-sdk/sdk/lib/libnet80211.a(ieee80211_mesh_quick.o)
 .xt.prop       0x0000000000008e8c     0x1314 /home/stoffer/esp8266/esp-open-sdk/sdk/lib/libnet80211.a(ieee80211_output.o)
                                       0x1320 (size before relaxing)
 .xt.prop       0x000000000000a1a0      0x108 /home/stoffer/esp8266/esp-open-sdk/sdk/lib/libnet80211.a(ieee80211_phy.o)
 .xt.prop       0x000000000000a2a8      0x1bc /home/stoffer/esp8266/esp-open-sdk/sdk/lib/libnet80211.a(ieee80211_power.o)
 .xt.prop       0x000000000000a464      0x12c /home/stoffer/esp8266/esp-open-sdk/sdk/lib/libnet80211.a(ieee80211_proto.o)
                                        0x138 (size before relaxing)
 .xt.prop       0x000000000000a590      0x234 /home/stoffer/esp8266/esp-open-sdk/sdk/lib/libnet80211.a(ieee80211_regdomain.o)
 .xt.prop       0x000000000000a7c4      0x12c /home/stoffer/esp8266/esp-open-sdk/sdk/lib/libnet80211.a(ieee80211_rfid.o)
 .xt.prop       0x000000000000a8f0      0xc60 /home/stoffer/esp8266/esp-open-sdk/sdk/lib/libnet80211.a(ieee80211_scan.o)
                                        0xcfc (size before relaxing)
 .xt.prop       0x000000000000b550      0xab0 /home/stoffer/esp8266/esp-open-sdk/sdk/lib/libnet80211.a(ieee80211_sta.o)
                                        0xaec (size before relaxing)
 .xt.prop       0x000000000000c000      0x2dc /home/stoffer/esp8266/esp-open-sdk/sdk/lib/libnet80211.a(wl_chm.o)
                                        0x2e8 (size before relaxing)
 .xt.prop       0x000000000000c2dc     0x1260 /home/stoffer/esp8266/esp-open-sdk/sdk/lib/libnet80211.a(wl_cnx.o)
                                       0x12d8 (size before relaxing)
 .xt.prop       0x000000000000d53c      0x33c /home/stoffer/esp8266/esp-open-sdk/sdk/lib/libnet80211.a(ieee80211_action.o)
 .xt.prop       0x000000000000d878      0x480 /home/stoffer/esp8266/esp-open-sdk/sdk/lib/libnet80211.a(ieee80211_action_vendor.o)
                                        0x4c8 (size before relaxing)
 .xt.prop       0x000000000000dcf8       0xcc /home/stoffer/esp8266/esp-open-sdk/sdk/lib/libnet80211.a(ieee80211_crypto_ccmp.o)
                                         0xd8 (size before relaxing)
 .xt.prop       0x000000000000ddc4       0x48 /home/stoffer/esp8266/esp-open-sdk/sdk/lib/libnet80211.a(ieee80211_ets.o)
 .xt.prop       0x000000000000de0c      0x114 /home/stoffer/esp8266/esp-open-sdk/sdk/lib/libnet80211.a(ieee80211_ie_vendor.o)
 .xt.prop       0x000000000000df20      0x2e8 /home/stoffer/esp8266/esp-open-sdk/sdk/lib/libwpa.a(ap_config.o)
                                        0x2f4 (size before relaxing)
 .xt.prop       0x000000000000e208      0x21c /home/stoffer/esp8266/esp-open-sdk/sdk/lib/libwpa.a(common.o)
                                        0x228 (size before relaxing)
 .xt.prop       0x000000000000e424       0xf0 /home/stoffer/esp8266/esp-open-sdk/sdk/lib/libwpa.a(os_xtensa.o)
                                         0xfc (size before relaxing)
 .xt.prop       0x000000000000e514     0x1668 /home/stoffer/esp8266/esp-open-sdk/sdk/lib/libwpa.a(wpa_auth.o)
 .xt.prop       0x000000000000fb7c      0x480 /home/stoffer/esp8266/esp-open-sdk/sdk/lib/libwpa.a(wpa_auth_ie.o)
                                        0x48c (size before relaxing)
 .xt.prop       0x000000000000fffc      0xd8c /home/stoffer/esp8266/esp-open-sdk/sdk/lib/libwpa.a(wpa.o)
                                        0xdb0 (size before relaxing)
 .xt.prop       0x0000000000010d88      0x7a4 /home/stoffer/esp8266/esp-open-sdk/sdk/lib/libwpa.a(wpa_common.o)
 .xt.prop       0x000000000001152c       0xc0 /home/stoffer/esp8266/esp-open-sdk/sdk/lib/libwpa.a(wpa_debug.o)
 .xt.prop       0x00000000000115ec      0x378 /home/stoffer/esp8266/esp-open-sdk/sdk/lib/libwpa.a(wpa_ie.o)
 .xt.prop       0x0000000000011964      0x330 /home/stoffer/esp8266/esp-open-sdk/sdk/lib/libwpa.a(wpa_main.o)
                                        0x33c (size before relaxing)
 .xt.prop       0x0000000000011c94      0x12c /home/stoffer/esp8266/esp-open-sdk/sdk/lib/libwpa.a(wpas_glue.o)
 .xt.prop       0x0000000000011dc0       0x6c /home/stoffer/esp8266/esp-open-sdk/sdk/lib/libwpa.a(aes-wrap.o)
 .xt.prop       0x0000000000011e2c       0xd8 /home/stoffer/esp8266/esp-open-sdk/sdk/lib/libwpa.a(aes-internal-enc.o)
                                         0xe4 (size before relaxing)
 .xt.prop       0x0000000000011f04       0xb4 /home/stoffer/esp8266/esp-open-sdk/sdk/lib/libwpa.a(aes-internal.o)
 .xt.prop       0x0000000000011fb8      0xd98 /home/stoffer/esp8266/esp-open-sdk/sdk/lib/liblwip.a(dhcp.o)
                                        0xdbc (size before relaxing)
 .xt.prop       0x0000000000012d50      0xad4 /home/stoffer/esp8266/esp-open-sdk/sdk/lib/liblwip.a(dhcpserver.o)
                                        0xb34 (size before relaxing)
 .xt.prop       0x0000000000013824      0x45c /home/stoffer/esp8266/esp-open-sdk/sdk/lib/liblwip.a(dns.o)
                                        0x4c8 (size before relaxing)
 .xt.prop       0x0000000000013c80      0xee8 /home/stoffer/esp8266/esp-open-sdk/sdk/lib/liblwip.a(espconn_tcp.o)
                                        0xef4 (size before relaxing)
 .xt.prop       0x0000000000014b68      0x708 /home/stoffer/esp8266/esp-open-sdk/sdk/lib/liblwip.a(etharp.o)
                                        0x750 (size before relaxing)
 .xt.prop       0x0000000000015270       0x24 /home/stoffer/esp8266/esp-open-sdk/sdk/lib/liblwip.a(init.o)
 .xt.prop       0x0000000000015294      0x324 /home/stoffer/esp8266/esp-open-sdk/sdk/lib/liblwip.a(ip_addr.o)
                                        0x330 (size before relaxing)
 .xt.prop       0x00000000000155b8      0x438 /home/stoffer/esp8266/esp-open-sdk/sdk/lib/liblwip.a(ip.o)
                                        0x480 (size before relaxing)
 .xt.prop       0x00000000000159f0        0x0 /home/stoffer/esp8266/esp-open-sdk/sdk/lib/liblwip.a(memp.o)
                                         0x18 (size before relaxing)
 .xt.prop       0x00000000000159f0      0x33c /home/stoffer/esp8266/esp-open-sdk/sdk/lib/liblwip.a(netif.o)
                                        0x360 (size before relaxing)
 .xt.prop       0x0000000000015d2c      0x7a4 /home/stoffer/esp8266/esp-open-sdk/sdk/lib/liblwip.a(pbuf.o)
                                        0x7b0 (size before relaxing)
 .xt.prop       0x00000000000164d0      0x294 /home/stoffer/esp8266/esp-open-sdk/sdk/lib/liblwip.a(raw.o)
                                        0x2ac (size before relaxing)
 .xt.prop       0x0000000000016764      0xc6c /home/stoffer/esp8266/esp-open-sdk/sdk/lib/liblwip.a(tcp_in.o)
                                        0xcfc (size before relaxing)
 .xt.prop       0x00000000000173d0      0xcfc /home/stoffer/esp8266/esp-open-sdk/sdk/lib/liblwip.a(tcp.o)
                                        0xd68 (size before relaxing)
 .xt.prop       0x00000000000180cc      0x960 /home/stoffer/esp8266/esp-open-sdk/sdk/lib/liblwip.a(tcp_out.o)
                                        0x96c (size before relaxing)
 .xt.prop       0x0000000000018a2c      0x354 /home/stoffer/esp8266/esp-open-sdk/sdk/lib/liblwip.a(timers.o)
                                        0x384 (size before relaxing)
 .xt.prop       0x0000000000018d80      0x5a0 /home/stoffer/esp8266/esp-open-sdk/sdk/lib/liblwip.a(udp.o)
                                        0x5b8 (size before relaxing)
 .xt.prop       0x0000000000019320      0x5c4 /home/stoffer/esp8266/esp-open-sdk/sdk/lib/liblwip.a(espconn_buf.o)
                                        0x5d0 (size before relaxing)
 .xt.prop       0x00000000000198e4      0xf90 /home/stoffer/esp8266/esp-open-sdk/sdk/lib/liblwip.a(espconn.o)
                                        0xff0 (size before relaxing)
 .xt.prop       0x000000000001a874      0x330 /home/stoffer/esp8266/esp-open-sdk/sdk/lib/liblwip.a(espconn_udp.o)
                                        0x33c (size before relaxing)
 .xt.prop       0x000000000001aba4      0x114 /home/stoffer/esp8266/esp-open-sdk/sdk/lib/liblwip.a(icmp.o)
 .xt.prop       0x000000000001acb8      0x63c /home/stoffer/esp8266/esp-open-sdk/sdk/lib/liblwip.a(igmp.o)
                                        0x66c (size before relaxing)
 .xt.prop       0x000000000001b2f4      0x168 /home/stoffer/esp8266/esp-open-sdk/sdk/lib/liblwip.a(inet_chksum.o)
 .xt.prop       0x000000000001b45c      0x264 /home/stoffer/esp8266/esp-open-sdk/sdk/lib/libpp.a(esf_buf.o)
                                        0x2e8 (size before relaxing)
 .xt.prop       0x000000000001b6c0      0x528 /home/stoffer/esp8266/esp-open-sdk/sdk/lib/libpp.a(if_hwctrl.o)
                                        0x558 (size before relaxing)
 .xt.prop       0x000000000001bbe8     0x1500 /home/stoffer/esp8266/esp-open-sdk/sdk/lib/libpp.a(lmac.o)
                                       0x1554 (size before relaxing)
 .xt.prop       0x000000000001d0e8     0x1728 /home/stoffer/esp8266/esp-open-sdk/sdk/lib/libpp.a(pm.o)
                                       0x180c (size before relaxing)
 .xt.prop       0x000000000001e810      0x9d8 /home/stoffer/esp8266/esp-open-sdk/sdk/lib/libpp.a(pm_for_bcn_only_mode.o)
                                        0xa08 (size before relaxing)
 .xt.prop       0x000000000001f1e8     0x195c /home/stoffer/esp8266/esp-open-sdk/sdk/lib/libpp.a(pp.o)
                                       0x1b0c (size before relaxing)
 .xt.prop       0x0000000000020b44      0x1bc /home/stoffer/esp8266/esp-open-sdk/sdk/lib/libpp.a(rate_control.o)
                                        0x1d4 (size before relaxing)
 .xt.prop       0x0000000000020d00     0x1140 /home/stoffer/esp8266/esp-open-sdk/sdk/lib/libpp.a(trc.o)
                                       0x11a0 (size before relaxing)
 .xt.prop       0x0000000000021e40     0x1350 /home/stoffer/esp8266/esp-open-sdk/sdk/lib/libpp.a(wdev.o)
                                       0x1428 (size before relaxing)
 .xt.prop       0x0000000000023190      0x1d4 /home/stoffer/esp8266/esp-open-sdk/sdk/lib/libphy.a(phy.o)
                                        0x1e0 (size before relaxing)
 .xt.prop       0x0000000000023364      0xdb0 /home/stoffer/esp8266/esp-open-sdk/sdk/lib/libphy.a(phy_chip_v6_ana.o)
                                        0xdc8 (size before relaxing)
 .xt.prop       0x0000000000024114     0x20e8 /home/stoffer/esp8266/esp-open-sdk/sdk/lib/libphy.a(phy_chip_v6.o)
                                       0x22a4 (size before relaxing)
 .xt.prop       0x00000000000261fc     0x1098 /home/stoffer/esp8266/esp-open-sdk/sdk/lib/libphy.a(phy_chip_v6_cal.o)
                                       0x10f8 (size before relaxing)
 .xt.prop       0x0000000000027294       0x60 /home/stoffer/esp8266/esp-open-sdk/sdk/lib/libphy.a(phy_chip_v6_unused.o)
                                         0x6c (size before relaxing)
 .xt.prop       0x00000000000272f4      0x87c /home/stoffer/esp8266/esp-open-sdk/sdk/lib/libphy.a(phy_sleep.o)
                                        0x8d0 (size before relaxing)
 .xt.prop       0x0000000000027b70       0x24 /home/stoffer/esp8266/esp-open-sdk/xtensa-lx106-elf/xtensa-lx106-elf/sysroot/usr/lib/libhal.a(int_asm--set_intclear.o)
 .xt.prop       0x0000000000027b94       0x84 /home/stoffer/esp8266/esp-open-sdk/sdk/lib/libgcc.a(_modsi3.o)
 .xt.prop       0x0000000000027c18       0x3c /home/stoffer/esp8266/esp-open-sdk/sdk/lib/libgcc.a(_ashrdi3.o)
 .xt.prop       0x0000000000027c54      0x168 /home/stoffer/esp8266/esp-open-sdk/sdk/lib/libgcc.a(_mulsf3.o)
 .xt.prop       0x0000000000027dbc      0x15c /home/stoffer/esp8266/esp-open-sdk/sdk/lib/libgcc.a(_divsf3.o)
                                        0x168 (size before relaxing)
 .xt.prop       0x0000000000027f18       0x60 /home/stoffer/esp8266/esp-open-sdk/sdk/lib/libgcc.a(_fixsfsi.o)
                                         0x6c (size before relaxing)
 .xt.prop       0x0000000000027f78       0x48 /home/stoffer/esp8266/esp-open-sdk/xtensa-lx106-elf/lib/gcc/xtensa-lx106-elf/4.8.5/../../../../xtensa-lx106-elf/lib/libc.a(lib_a-memchr.o)
 .xt.prop       0x0000000000027fc0      0x4a4 build/app_app.a(user_main.o)
                                        0x4ec (size before relaxing)
 .xt.prop       0x0000000000028464      0x180 build/app_app.a(captdns.o)
                                        0x198 (size before relaxing)
 .xt.prop       0x00000000000285e4      0x120 build/app_app.a(led.o)
                                        0x12c (size before relaxing)
 .xt.prop       0x0000000000028704       0x6c build/app_app.a(httpd_user_init.o)
 .xt.prop       0x0000000000028770      0x7b0 build/app_app.a(httpd.o)
                                        0x7f8 (size before relaxing)
 .xt.prop       0x0000000000028f20       0xb4 build/app_app.a(crypto.o)
 .xt.prop       0x0000000000028fd4      0x240 build/app_app.a(sha256.o)
                                        0x24c (size before relaxing)
 .xt.prop       0x0000000000029214      0x3e4 build/app_app.a(aes.o)
                                        0x420 (size before relaxing)
 .xt.prop       0x00000000000295f8      0x2c4 build/app_app.a(kmp_request.o)
                                        0x300 (size before relaxing)
 .xt.prop       0x00000000000298bc      0x5dc build/app_app.a(kmp.o)
 .xt.prop       0x0000000000029e98      0x2c4 build/app_app.a(cron.o)
                                        0x2d0 (size before relaxing)
 .xt.prop       0x000000000002a15c      0x228 build/app_app.a(ac_out.o)
                                        0x24c (size before relaxing)
 .xt.prop       0x000000000002a384      0x324 build/app_app.a(uart.o)
 .xt.prop       0x000000000002a6a8      0x8b8 build/app_app.a(mqtt.o)
                                        0x8c4 (size before relaxing)
 .xt.prop       0x000000000002af60      0x5f4 build/app_app.a(mqtt_msg.o)
 .xt.prop       0x000000000002b554       0x9c build/app_app.a(queue.o)
 .xt.prop       0x000000000002b5f0      0x174 build/app_app.a(mqtt_utils.o)
 .xt.prop       0x000000000002b764      0x210 build/app_app.a(proto.o)
 .xt.prop       0x000000000002b974       0xd8 build/app_app.a(config.o)
                                         0xe4 (size before relaxing)
 .xt.prop       0x000000000002ba4c      0x240 build/app_app.a(wifi.o)
                                        0x2c4 (size before relaxing)
 .xt.prop       0x000000000002bc8c      0x204 build/app_app.a(watchdog.o)
                                        0x228 (size before relaxing)
 .xt.prop       0x000000000002be90      0x2ac build/app_app.a(cgiwifi.o)
                                        0x2b8 (size before relaxing)
 .xt.prop       0x000000000002c13c      0x9b4 build/app_app.a(tinyprintf.o)
                                        0x9cc (size before relaxing)
 .xt.prop       0x000000000002caf0       0xf0 build/app_app.a(unix_time.o)
                                        0x120 (size before relaxing)
 .xt.prop       0x000000000002cbe0      0x138 build/app_app.a(cgi.o)
                                        0x150 (size before relaxing)
 .xt.prop       0x000000000002cd18      0x15c build/app_app.a(httpdespfs.o)
 .xt.prop       0x000000000002ce74      0x24c build/app_app.a(espfs.o)
 .xt.prop       0x000000000002d0c0      0x42c build/app_app.a(heatshrink_decoder.o)
 .xt.prop       0x000000000002d4ec      0x1f8 build/app_app.a(utils.o)
 .xt.prop       0x000000000002d6e4       0xc0 build/app_app.a(hmac-sha256.o)
 .xt.prop       0x000000000002d7a4       0x9c build/app_app.a(gpio16.o)
 .xt.prop       0x000000000002d840       0xb4 build/app_app.a(ringbuf.o)
 .xt.prop       0x000000000002d8f4       0xe4 /home/stoffer/esp8266/esp-open-sdk/sdk/lib/libnet80211.a(ieee80211_crypto_tkip.o)
                                         0xfc (size before relaxing)
 .xt.prop       0x000000000002d9d8       0x6c /home/stoffer/esp8266/esp-open-sdk/sdk/lib/libnet80211.a(ieee80211_crypto_wep.o)
                                         0x78 (size before relaxing)
 .xt.prop       0x000000000002da44      0x93c /home/stoffer/esp8266/esp-open-sdk/sdk/lib/liblwip.a(sntp.o)
                                        0xa08 (size before relaxing)
 .xt.prop       0x000000000002e380       0x3c /home/stoffer/esp8266/esp-open-sdk/xtensa-lx106-elf/lib/gcc/xtensa-lx106-elf/4.8.5/../../../../xtensa-lx106-elf/lib/libc.a(lib_a-atoi.o)
                                         0x48 (size before relaxing)
 .xt.prop       0x000000000002e3bc       0x30 /home/stoffer/esp8266/esp-open-sdk/xtensa-lx106-elf/lib/gcc/xtensa-lx106-elf/4.8.5/../../../../xtensa-lx106-elf/lib/libc.a(lib_a-gmtime.o)
 .xt.prop       0x000000000002e3ec       0x24 /home/stoffer/esp8266/esp-open-sdk/xtensa-lx106-elf/lib/gcc/xtensa-lx106-elf/4.8.5/../../../../xtensa-lx106-elf/lib/libc.a(lib_a-gmtime_r.o)
                                         0x30 (size before relaxing)
 .xt.prop       0x000000000002e410       0x24 /home/stoffer/esp8266/esp-open-sdk/xtensa-lx106-elf/lib/gcc/xtensa-lx106-elf/4.8.5/../../../../xtensa-lx106-elf/lib/libc.a(lib_a-impure.o)
 .xt.prop       0x000000000002e434      0x174 /home/stoffer/esp8266/esp-open-sdk/xtensa-lx106-elf/lib/gcc/xtensa-lx106-elf/4.8.5/../../../../xtensa-lx106-elf/lib/libc.a(lib_a-memcpy.o)
 .xt.prop       0x000000000002e5a8       0xe4 /home/stoffer/esp8266/esp-open-sdk/xtensa-lx106-elf/lib/gcc/xtensa-lx106-elf/4.8.5/../../../../xtensa-lx106-elf/lib/libc.a(lib_a-memset.o)
 .xt.prop       0x000000000002e68c      0x330 /home/stoffer/esp8266/esp-open-sdk/xtensa-lx106-elf/lib/gcc/xtensa-lx106-elf/4.8.5/../../../../xtensa-lx106-elf/lib/libc.a(lib_a-mktm_r.o)
                                        0x33c (size before relaxing)
 .xt.prop       0x000000000002e9bc       0x48 /home/stoffer/esp8266/esp-open-sdk/xtensa-lx106-elf/lib/gcc/xtensa-lx106-elf/4.8.5/../../../../xtensa-lx106-elf/lib/libc.a(lib_a-strcat.o)
 .xt.prop       0x000000000002ea04       0xb4 /home/stoffer/esp8266/esp-open-sdk/xtensa-lx106-elf/lib/gcc/xtensa-lx106-elf/4.8.5/../../../../xtensa-lx106-elf/lib/libc.a(lib_a-strlen.o)
 .xt.prop       0x000000000002eab8       0x24 /home/stoffer/esp8266/esp-open-sdk/xtensa-lx106-elf/lib/gcc/xtensa-lx106-elf/4.8.5/../../../../xtensa-lx106-elf/lib/libc.a(lib_a-strtok.o)
                                         0x30 (size before relaxing)
 .xt.prop       0x000000000002eadc       0xfc /home/stoffer/esp8266/esp-open-sdk/xtensa-lx106-elf/lib/gcc/xtensa-lx106-elf/4.8.5/../../../../xtensa-lx106-elf/lib/libc.a(lib_a-strtok_r.o)
                                        0x108 (size before relaxing)
 .xt.prop       0x000000000002ebd8      0x15c /home/stoffer/esp8266/esp-open-sdk/xtensa-lx106-elf/lib/gcc/xtensa-lx106-elf/4.8.5/../../../../xtensa-lx106-elf/lib/libc.a(lib_a-strtol.o)
 .xt.prop       0x000000000002ed34       0x3c /home/stoffer/esp8266/esp-open-sdk/xtensa-lx106-elf/lib/gcc/xtensa-lx106-elf/4.8.5/../../../../xtensa-lx106-elf/lib/libc.a(lib_a-tzlock.o)
 .xt.prop       0x000000000002ed70        0xc /home/stoffer/esp8266/esp-open-sdk/xtensa-lx106-elf/lib/gcc/xtensa-lx106-elf/4.8.5/../../../../xtensa-lx106-elf/lib/libc.a(lib_a-tzvars.o)
 .xt.prop       0x000000000002ed7c        0xc /home/stoffer/esp8266/esp-open-sdk/xtensa-lx106-elf/lib/gcc/xtensa-lx106-elf/4.8.5/../../../../xtensa-lx106-elf/lib/libc.a(lib_a-ctype_.o)
 .xt.prop       0x000000000002ed88       0x3c /home/stoffer/esp8266/esp-open-sdk/xtensa-lx106-elf/lib/gcc/xtensa-lx106-elf/4.8.5/../../../../xtensa-lx106-elf/lib/libc.a(lib_a-gettzinfo.o)
 .xt.prop       0x000000000002edc4      0x288 /home/stoffer/esp8266/esp-open-sdk/sdk/lib/libmain.a(time.o)
                                        0x2ac (size before relaxing)
 .xt.prop       0x000000000002f04c       0x30 /home/stoffer/esp8266/esp-open-sdk/xtensa-lx106-elf/lib/gcc/xtensa-lx106-elf/4.8.5/../../../../xtensa-lx106-elf/lib/libc.a(lib_a-sysgettod.o)

.xt.lit         0x0000000000000000     0x1860
 .xt.lit        0x0000000000000000        0x8 /home/stoffer/esp8266/esp-open-sdk/sdk/lib/libmain.a(nmi-vector.o)
                                         0x10 (size before relaxing)
 .xt.lit        0x0000000000000008        0x8 /home/stoffer/esp8266/esp-open-sdk/sdk/lib/libmain.a(user-vector.o)
                                         0x10 (size before relaxing)
 .xt.lit        0x0000000000000010        0x8 /home/stoffer/esp8266/esp-open-sdk/sdk/lib/libmain.a(vector.o)
 .xt.lit        0x0000000000000018       0xa8 /home/stoffer/esp8266/esp-open-sdk/sdk/lib/libmain.a(app_main.o)
                                         0xb0 (size before relaxing)
 .xt.lit        0x00000000000000c0       0x48 /home/stoffer/esp8266/esp-open-sdk/sdk/lib/libmain.a(ets_timer.o)
 .xt.lit        0x0000000000000108       0x40 /home/stoffer/esp8266/esp-open-sdk/sdk/lib/libmain.a(mem_manager.o)
                                         0x60 (size before relaxing)
 .xt.lit        0x0000000000000148       0x80 /home/stoffer/esp8266/esp-open-sdk/sdk/lib/libmain.a(spi_flash.o)
 .xt.lit        0x00000000000001c8      0x230 /home/stoffer/esp8266/esp-open-sdk/sdk/lib/libmain.a(user_interface.o)
                                        0x4e8 (size before relaxing)
 .xt.lit        0x00000000000003f8        0x0 /home/stoffer/esp8266/esp-open-sdk/sdk/lib/libmain.a(user_rf_cal_sector_set.o)
                                          0x8 (size before relaxing)
 .xt.lit        0x00000000000003f8       0x18 /home/stoffer/esp8266/esp-open-sdk/sdk/lib/libmain.a(eagle_lib.o)
 .xt.lit        0x0000000000000410        0x8 /home/stoffer/esp8266/esp-open-sdk/sdk/lib/libmain.a(eagle_lwip_if.o)
                                         0x28 (size before relaxing)
 .xt.lit        0x0000000000000418       0x38 /home/stoffer/esp8266/esp-open-sdk/sdk/lib/libnet80211.a(ieee80211.o)
                                         0x50 (size before relaxing)
 .xt.lit        0x0000000000000450        0x0 /home/stoffer/esp8266/esp-open-sdk/sdk/lib/libnet80211.a(ieee80211_crypto.o)
                                         0x10 (size before relaxing)
 .xt.lit        0x0000000000000450       0x68 /home/stoffer/esp8266/esp-open-sdk/sdk/lib/libnet80211.a(ieee80211_hostap.o)
                                         0x78 (size before relaxing)
 .xt.lit        0x00000000000004b8       0x48 /home/stoffer/esp8266/esp-open-sdk/sdk/lib/libnet80211.a(ieee80211_ht.o)
                                         0x70 (size before relaxing)
 .xt.lit        0x0000000000000500       0x38 /home/stoffer/esp8266/esp-open-sdk/sdk/lib/libnet80211.a(ieee80211_input.o)
                                         0x60 (size before relaxing)
 .xt.lit        0x0000000000000538       0x18 /home/stoffer/esp8266/esp-open-sdk/sdk/lib/libnet80211.a(ieee80211_mesh_quick.o)
                                         0x28 (size before relaxing)
 .xt.lit        0x0000000000000550       0x60 /home/stoffer/esp8266/esp-open-sdk/sdk/lib/libnet80211.a(ieee80211_output.o)
                                         0xb8 (size before relaxing)
 .xt.lit        0x00000000000005b0        0x8 /home/stoffer/esp8266/esp-open-sdk/sdk/lib/libnet80211.a(ieee80211_phy.o)
                                         0x18 (size before relaxing)
 .xt.lit        0x00000000000005b8        0x8 /home/stoffer/esp8266/esp-open-sdk/sdk/lib/libnet80211.a(ieee80211_power.o)
                                         0x20 (size before relaxing)
 .xt.lit        0x00000000000005c0       0x18 /home/stoffer/esp8266/esp-open-sdk/sdk/lib/libnet80211.a(ieee80211_proto.o)
 .xt.lit        0x00000000000005d8       0x10 /home/stoffer/esp8266/esp-open-sdk/sdk/lib/libnet80211.a(ieee80211_regdomain.o)
                                         0x20 (size before relaxing)
 .xt.lit        0x00000000000005e8       0x10 /home/stoffer/esp8266/esp-open-sdk/sdk/lib/libnet80211.a(ieee80211_rfid.o)
                                         0x30 (size before relaxing)
 .xt.lit        0x00000000000005f8       0x58 /home/stoffer/esp8266/esp-open-sdk/sdk/lib/libnet80211.a(ieee80211_scan.o)
                                         0xd8 (size before relaxing)
 .xt.lit        0x0000000000000650       0x40 /home/stoffer/esp8266/esp-open-sdk/sdk/lib/libnet80211.a(ieee80211_sta.o)
                                         0x68 (size before relaxing)
 .xt.lit        0x0000000000000690       0x20 /home/stoffer/esp8266/esp-open-sdk/sdk/lib/libnet80211.a(wl_chm.o)
                                         0x60 (size before relaxing)
 .xt.lit        0x00000000000006b0       0x98 /home/stoffer/esp8266/esp-open-sdk/sdk/lib/libnet80211.a(wl_cnx.o)
                                        0x140 (size before relaxing)
 .xt.lit        0x0000000000000748       0x20 /home/stoffer/esp8266/esp-open-sdk/sdk/lib/libnet80211.a(ieee80211_action.o)
                                         0x30 (size before relaxing)
 .xt.lit        0x0000000000000768       0x20 /home/stoffer/esp8266/esp-open-sdk/sdk/lib/libnet80211.a(ieee80211_action_vendor.o)
                                         0x60 (size before relaxing)
 .xt.lit        0x0000000000000788        0x0 /home/stoffer/esp8266/esp-open-sdk/sdk/lib/libnet80211.a(ieee80211_crypto_ccmp.o)
                                         0x10 (size before relaxing)
 .xt.lit        0x0000000000000788        0x8 /home/stoffer/esp8266/esp-open-sdk/sdk/lib/libnet80211.a(ieee80211_ets.o)
 .xt.lit        0x0000000000000790        0x8 /home/stoffer/esp8266/esp-open-sdk/sdk/lib/libnet80211.a(ieee80211_ie_vendor.o)
                                         0x38 (size before relaxing)
 .xt.lit        0x0000000000000798       0x18 /home/stoffer/esp8266/esp-open-sdk/sdk/lib/libwpa.a(ap_config.o)
                                         0x40 (size before relaxing)
 .xt.lit        0x00000000000007b0       0x10 /home/stoffer/esp8266/esp-open-sdk/sdk/lib/libwpa.a(common.o)
                                         0x18 (size before relaxing)
 .xt.lit        0x00000000000007c0        0x8 /home/stoffer/esp8266/esp-open-sdk/sdk/lib/libwpa.a(os_xtensa.o)
                                         0x10 (size before relaxing)
 .xt.lit        0x00000000000007c8       0x70 /home/stoffer/esp8266/esp-open-sdk/sdk/lib/libwpa.a(wpa_auth.o)
                                        0x100 (size before relaxing)
 .xt.lit        0x0000000000000838       0x10 /home/stoffer/esp8266/esp-open-sdk/sdk/lib/libwpa.a(wpa_auth_ie.o)
                                         0x38 (size before relaxing)
 .xt.lit        0x0000000000000848       0x38 /home/stoffer/esp8266/esp-open-sdk/sdk/lib/libwpa.a(wpa.o)
                                        0x110 (size before relaxing)
 .xt.lit        0x0000000000000880       0x28 /home/stoffer/esp8266/esp-open-sdk/sdk/lib/libwpa.a(wpa_common.o)
                                         0x58 (size before relaxing)
 .xt.lit        0x00000000000008a8        0x8 /home/stoffer/esp8266/esp-open-sdk/sdk/lib/libwpa.a(wpa_debug.o)
 .xt.lit        0x00000000000008b0        0x0 /home/stoffer/esp8266/esp-open-sdk/sdk/lib/libwpa.a(wpa_ie.o)
                                         0x18 (size before relaxing)
 .xt.lit        0x00000000000008b0       0x18 /home/stoffer/esp8266/esp-open-sdk/sdk/lib/libwpa.a(wpa_main.o)
                                         0x48 (size before relaxing)
 .xt.lit        0x00000000000008c8        0x0 /home/stoffer/esp8266/esp-open-sdk/sdk/lib/libwpa.a(wpas_glue.o)
                                         0x10 (size before relaxing)
 .xt.lit        0x00000000000008c8        0x0 /home/stoffer/esp8266/esp-open-sdk/sdk/lib/libwpa.a(aes-wrap.o)
                                          0x8 (size before relaxing)
 .xt.lit        0x00000000000008c8       0x10 /home/stoffer/esp8266/esp-open-sdk/sdk/lib/libwpa.a(aes-internal-enc.o)
                                         0x18 (size before relaxing)
 .xt.lit        0x00000000000008d8        0x8 /home/stoffer/esp8266/esp-open-sdk/sdk/lib/libwpa.a(aes-internal.o)
 .xt.lit        0x00000000000008e0       0x50 /home/stoffer/esp8266/esp-open-sdk/sdk/lib/liblwip.a(dhcp.o)
                                         0xc0 (size before relaxing)
 .xt.lit        0x0000000000000930       0x30 /home/stoffer/esp8266/esp-open-sdk/sdk/lib/liblwip.a(dhcpserver.o)
                                         0xa8 (size before relaxing)
 .xt.lit        0x0000000000000960       0x20 /home/stoffer/esp8266/esp-open-sdk/sdk/lib/liblwip.a(dns.o)
                                         0x48 (size before relaxing)
 .xt.lit        0x0000000000000980       0x98 /home/stoffer/esp8266/esp-open-sdk/sdk/lib/liblwip.a(espconn_tcp.o)
                                         0xd0 (size before relaxing)
 .xt.lit        0x0000000000000a18       0x30 /home/stoffer/esp8266/esp-open-sdk/sdk/lib/liblwip.a(etharp.o)
                                         0x78 (size before relaxing)
 .xt.lit        0x0000000000000a48        0x8 /home/stoffer/esp8266/esp-open-sdk/sdk/lib/liblwip.a(init.o)
 .xt.lit        0x0000000000000a50        0x8 /home/stoffer/esp8266/esp-open-sdk/sdk/lib/liblwip.a(ip_addr.o)
                                         0x20 (size before relaxing)
 .xt.lit        0x0000000000000a58       0x18 /home/stoffer/esp8266/esp-open-sdk/sdk/lib/liblwip.a(ip.o)
                                         0x20 (size before relaxing)
 .xt.lit        0x0000000000000a70       0x10 /home/stoffer/esp8266/esp-open-sdk/sdk/lib/liblwip.a(netif.o)
                                         0x40 (size before relaxing)
 .xt.lit        0x0000000000000a80       0x10 /home/stoffer/esp8266/esp-open-sdk/sdk/lib/liblwip.a(pbuf.o)
                                         0x48 (size before relaxing)
 .xt.lit        0x0000000000000a90       0x10 /home/stoffer/esp8266/esp-open-sdk/sdk/lib/liblwip.a(raw.o)
                                         0x20 (size before relaxing)
 .xt.lit        0x0000000000000aa0       0x18 /home/stoffer/esp8266/esp-open-sdk/sdk/lib/liblwip.a(tcp_in.o)
                                         0x38 (size before relaxing)
 .xt.lit        0x0000000000000ab8       0x50 /home/stoffer/esp8266/esp-open-sdk/sdk/lib/liblwip.a(tcp.o)
                                         0xb8 (size before relaxing)
 .xt.lit        0x0000000000000b08       0x28 /home/stoffer/esp8266/esp-open-sdk/sdk/lib/liblwip.a(tcp_out.o)
                                         0x68 (size before relaxing)
 .xt.lit        0x0000000000000b30       0x50 /home/stoffer/esp8266/esp-open-sdk/sdk/lib/liblwip.a(timers.o)
                                         0x68 (size before relaxing)
 .xt.lit        0x0000000000000b80       0x18 /home/stoffer/esp8266/esp-open-sdk/sdk/lib/liblwip.a(udp.o)
                                         0x38 (size before relaxing)
 .xt.lit        0x0000000000000b98       0x38 /home/stoffer/esp8266/esp-open-sdk/sdk/lib/liblwip.a(espconn_buf.o)
 .xt.lit        0x0000000000000bd0       0x20 /home/stoffer/esp8266/esp-open-sdk/sdk/lib/liblwip.a(espconn.o)
                                         0xf0 (size before relaxing)
 .xt.lit        0x0000000000000bf0       0x18 /home/stoffer/esp8266/esp-open-sdk/sdk/lib/liblwip.a(espconn_udp.o)
                                         0x38 (size before relaxing)
 .xt.lit        0x0000000000000c08        0x8 /home/stoffer/esp8266/esp-open-sdk/sdk/lib/liblwip.a(icmp.o)
                                         0x10 (size before relaxing)
 .xt.lit        0x0000000000000c10       0x18 /home/stoffer/esp8266/esp-open-sdk/sdk/lib/liblwip.a(igmp.o)
                                         0x70 (size before relaxing)
 .xt.lit        0x0000000000000c28       0x18 /home/stoffer/esp8266/esp-open-sdk/sdk/lib/libpp.a(esf_buf.o)
                                         0x20 (size before relaxing)
 .xt.lit        0x0000000000000c40       0x30 /home/stoffer/esp8266/esp-open-sdk/sdk/lib/libpp.a(if_hwctrl.o)
                                         0xa0 (size before relaxing)
 .xt.lit        0x0000000000000c70       0x70 /home/stoffer/esp8266/esp-open-sdk/sdk/lib/libpp.a(lmac.o)
                                        0x130 (size before relaxing)
 .xt.lit        0x0000000000000ce0       0xe8 /home/stoffer/esp8266/esp-open-sdk/sdk/lib/libpp.a(pm.o)
                                        0x1a8 (size before relaxing)
 .xt.lit        0x0000000000000dc8       0x48 /home/stoffer/esp8266/esp-open-sdk/sdk/lib/libpp.a(pm_for_bcn_only_mode.o)
                                         0xa8 (size before relaxing)
 .xt.lit        0x0000000000000e10       0xc8 /home/stoffer/esp8266/esp-open-sdk/sdk/lib/libpp.a(pp.o)
                                        0x1b0 (size before relaxing)
 .xt.lit        0x0000000000000ed8       0x18 /home/stoffer/esp8266/esp-open-sdk/sdk/lib/libpp.a(rate_control.o)
                                         0x38 (size before relaxing)
 .xt.lit        0x0000000000000ef0       0x68 /home/stoffer/esp8266/esp-open-sdk/sdk/lib/libpp.a(trc.o)
                                         0xa8 (size before relaxing)
 .xt.lit        0x0000000000000f58       0xe8 /home/stoffer/esp8266/esp-open-sdk/sdk/lib/libpp.a(wdev.o)
                                        0x1b0 (size before relaxing)
 .xt.lit        0x0000000000001040       0x10 /home/stoffer/esp8266/esp-open-sdk/sdk/lib/libphy.a(phy.o)
                                         0x68 (size before relaxing)
 .xt.lit        0x0000000000001050       0x90 /home/stoffer/esp8266/esp-open-sdk/sdk/lib/libphy.a(phy_chip_v6_ana.o)
                                         0xc8 (size before relaxing)
 .xt.lit        0x00000000000010e0      0x158 /home/stoffer/esp8266/esp-open-sdk/sdk/lib/libphy.a(phy_chip_v6.o)
                                        0x248 (size before relaxing)
 .xt.lit        0x0000000000001238       0x78 /home/stoffer/esp8266/esp-open-sdk/sdk/lib/libphy.a(phy_chip_v6_cal.o)
                                         0xf0 (size before relaxing)
 .xt.lit        0x00000000000012b0       0x70 /home/stoffer/esp8266/esp-open-sdk/sdk/lib/libphy.a(phy_sleep.o)
                                         0xd0 (size before relaxing)
 .xt.lit        0x0000000000001320        0x8 /home/stoffer/esp8266/esp-open-sdk/sdk/lib/libgcc.a(_mulsf3.o)
 .xt.lit        0x0000000000001328        0x0 /home/stoffer/esp8266/esp-open-sdk/sdk/lib/libgcc.a(_divsf3.o)
                                          0x8 (size before relaxing)
 .xt.lit        0x0000000000001328        0x0 /home/stoffer/esp8266/esp-open-sdk/sdk/lib/libgcc.a(_fixsfsi.o)
                                          0x8 (size before relaxing)
 .xt.lit        0x0000000000001328       0x38 build/app_app.a(user_main.o)
                                         0x50 (size before relaxing)
 .xt.lit        0x0000000000001360       0x10 build/app_app.a(captdns.o)
 .xt.lit        0x0000000000001370       0x18 build/app_app.a(led.o)
                                         0x38 (size before relaxing)
 .xt.lit        0x0000000000001388       0x10 build/app_app.a(httpd_user_init.o)
 .xt.lit        0x0000000000001398       0x78 build/app_app.a(httpd.o)
                                         0x98 (size before relaxing)
 .xt.lit        0x0000000000001410        0x8 build/app_app.a(crypto.o)
                                         0x18 (size before relaxing)
 .xt.lit        0x0000000000001418       0x20 build/app_app.a(sha256.o)
                                         0x28 (size before relaxing)
 .xt.lit        0x0000000000001438       0x20 build/app_app.a(aes.o)
                                         0x40 (size before relaxing)
 .xt.lit        0x0000000000001458       0x30 build/app_app.a(kmp_request.o)
                                         0x60 (size before relaxing)
 .xt.lit        0x0000000000001488       0x28 build/app_app.a(kmp.o)
                                         0x50 (size before relaxing)
 .xt.lit        0x00000000000014b0       0x20 build/app_app.a(cron.o)
 .xt.lit        0x00000000000014d0       0x50 build/app_app.a(ac_out.o)
                                         0x58 (size before relaxing)
 .xt.lit        0x0000000000001520       0x30 build/app_app.a(uart.o)
                                         0x48 (size before relaxing)
 .xt.lit        0x0000000000001550       0x78 build/app_app.a(mqtt.o)
                                         0xa8 (size before relaxing)
 .xt.lit        0x00000000000015c8       0x18 build/app_app.a(mqtt_msg.o)
                                         0x30 (size before relaxing)
 .xt.lit        0x00000000000015e0       0x10 build/app_app.a(queue.o)
                                         0x18 (size before relaxing)
 .xt.lit        0x00000000000015f0        0x0 build/app_app.a(proto.o)
                                         0x10 (size before relaxing)
 .xt.lit        0x00000000000015f0       0x18 build/app_app.a(config.o)
                                         0x20 (size before relaxing)
 .xt.lit        0x0000000000001608       0x40 build/app_app.a(wifi.o)
                                         0x58 (size before relaxing)
 .xt.lit        0x0000000000001648       0x40 build/app_app.a(watchdog.o)
                                         0x48 (size before relaxing)
 .xt.lit        0x0000000000001688       0x30 build/app_app.a(cgiwifi.o)
 .xt.lit        0x00000000000016b8       0x20 build/app_app.a(tinyprintf.o)
                                         0x38 (size before relaxing)
 .xt.lit        0x00000000000016d8       0x18 build/app_app.a(unix_time.o)
                                         0x28 (size before relaxing)
 .xt.lit        0x00000000000016f0       0x20 build/app_app.a(cgi.o)
 .xt.lit        0x0000000000001710       0x10 build/app_app.a(httpdespfs.o)
 .xt.lit        0x0000000000001720       0x18 build/app_app.a(espfs.o)
 .xt.lit        0x0000000000001738       0x10 build/app_app.a(heatshrink_decoder.o)
                                         0x28 (size before relaxing)
 .xt.lit        0x0000000000001748       0x18 build/app_app.a(utils.o)
                                         0x20 (size before relaxing)
 .xt.lit        0x0000000000001760        0x0 build/app_app.a(hmac-sha256.o)
                                         0x20 (size before relaxing)
 .xt.lit        0x0000000000001760       0x18 build/app_app.a(gpio16.o)
                                         0x20 (size before relaxing)
 .xt.lit        0x0000000000001778        0x8 /home/stoffer/esp8266/esp-open-sdk/sdk/lib/libnet80211.a(ieee80211_crypto_tkip.o)
                                         0x10 (size before relaxing)
 .xt.lit        0x0000000000001780        0x0 /home/stoffer/esp8266/esp-open-sdk/sdk/lib/libnet80211.a(ieee80211_crypto_wep.o)
                                          0x8 (size before relaxing)
 .xt.lit        0x0000000000001780       0x78 /home/stoffer/esp8266/esp-open-sdk/sdk/lib/liblwip.a(sntp.o)
                                         0xe8 (size before relaxing)
 .xt.lit        0x00000000000017f8        0x0 /home/stoffer/esp8266/esp-open-sdk/xtensa-lx106-elf/lib/gcc/xtensa-lx106-elf/4.8.5/../../../../xtensa-lx106-elf/lib/libc.a(lib_a-atoi.o)
                                          0x8 (size before relaxing)
 .xt.lit        0x00000000000017f8        0x8 /home/stoffer/esp8266/esp-open-sdk/xtensa-lx106-elf/lib/gcc/xtensa-lx106-elf/4.8.5/../../../../xtensa-lx106-elf/lib/libc.a(lib_a-gmtime.o)
 .xt.lit        0x0000000000001800        0x0 /home/stoffer/esp8266/esp-open-sdk/xtensa-lx106-elf/lib/gcc/xtensa-lx106-elf/4.8.5/../../../../xtensa-lx106-elf/lib/libc.a(lib_a-gmtime_r.o)
                                          0x8 (size before relaxing)
 .xt.lit        0x0000000000001800        0x8 /home/stoffer/esp8266/esp-open-sdk/xtensa-lx106-elf/lib/gcc/xtensa-lx106-elf/4.8.5/../../../../xtensa-lx106-elf/lib/libc.a(lib_a-mktm_r.o)
 .xt.lit        0x0000000000001808        0x8 /home/stoffer/esp8266/esp-open-sdk/xtensa-lx106-elf/lib/gcc/xtensa-lx106-elf/4.8.5/../../../../xtensa-lx106-elf/lib/libc.a(lib_a-strlen.o)
 .xt.lit        0x0000000000001810        0x0 /home/stoffer/esp8266/esp-open-sdk/xtensa-lx106-elf/lib/gcc/xtensa-lx106-elf/4.8.5/../../../../xtensa-lx106-elf/lib/libc.a(lib_a-strtok.o)
                                          0x8 (size before relaxing)
 .xt.lit        0x0000000000001810        0x8 /home/stoffer/esp8266/esp-open-sdk/xtensa-lx106-elf/lib/gcc/xtensa-lx106-elf/4.8.5/../../../../xtensa-lx106-elf/lib/libc.a(lib_a-strtol.o)
 .xt.lit        0x0000000000001818        0x8 /home/stoffer/esp8266/esp-open-sdk/xtensa-lx106-elf/lib/gcc/xtensa-lx106-elf/4.8.5/../../../../xtensa-lx106-elf/lib/libc.a(lib_a-gettzinfo.o)
 .xt.lit        0x0000000000001820       0x38 /home/stoffer/esp8266/esp-open-sdk/sdk/lib/libmain.a(time.o)
                                         0x60 (size before relaxing)
 .xt.lit        0x0000000000001858        0x8 /home/stoffer/esp8266/esp-open-sdk/xtensa-lx106-elf/lib/gcc/xtensa-lx106-elf/4.8.5/../../../../xtensa-lx106-elf/lib/libc.a(lib_a-sysgettod.o)

.comment        0x0000000000000000     0x1c5f
 .comment       0x0000000000000000       0x55 /home/stoffer/esp8266/esp-open-sdk/sdk/lib/libmain.a(app_main.o)
                                         0x56 (size before relaxing)
 .comment       0x0000000000000055       0x56 /home/stoffer/esp8266/esp-open-sdk/sdk/lib/libmain.a(ets_timer.o)
                                         0x57 (size before relaxing)
 .comment       0x00000000000000ab       0x58 /home/stoffer/esp8266/esp-open-sdk/sdk/lib/libmain.a(mem_manager.o)
                                         0x59 (size before relaxing)
 .comment       0x0000000000000103       0x56 /home/stoffer/esp8266/esp-open-sdk/sdk/lib/libmain.a(spi_flash.o)
                                         0x57 (size before relaxing)
 .comment       0x0000000000000159       0x5b /home/stoffer/esp8266/esp-open-sdk/sdk/lib/libmain.a(user_interface.o)
                                         0x5c (size before relaxing)
 .comment       0x00000000000001b4       0x3a /home/stoffer/esp8266/esp-open-sdk/sdk/lib/libmain.a(user_rf_cal_sector_set.o)
                                         0x3b (size before relaxing)
 .comment       0x00000000000001ee       0x56 /home/stoffer/esp8266/esp-open-sdk/sdk/lib/libmain.a(eagle_lib.o)
                                         0x57 (size before relaxing)
 .comment       0x0000000000000244       0x5a /home/stoffer/esp8266/esp-open-sdk/sdk/lib/libmain.a(eagle_lwip_if.o)
                                         0x5b (size before relaxing)
 .comment       0x000000000000029e       0x56 /home/stoffer/esp8266/esp-open-sdk/sdk/lib/libnet80211.a(ieee80211.o)
                                         0x57 (size before relaxing)
 .comment       0x00000000000002f4       0x5d /home/stoffer/esp8266/esp-open-sdk/sdk/lib/libnet80211.a(ieee80211_crypto.o)
                                         0x5e (size before relaxing)
 .comment       0x0000000000000351       0x5d /home/stoffer/esp8266/esp-open-sdk/sdk/lib/libnet80211.a(ieee80211_hostap.o)
                                         0x5e (size before relaxing)
 .comment       0x00000000000003ae       0x59 /home/stoffer/esp8266/esp-open-sdk/sdk/lib/libnet80211.a(ieee80211_ht.o)
                                         0x5a (size before relaxing)
 .comment       0x0000000000000407       0x5c /home/stoffer/esp8266/esp-open-sdk/sdk/lib/libnet80211.a(ieee80211_input.o)
                                         0x5d (size before relaxing)
 .comment       0x0000000000000463       0x61 /home/stoffer/esp8266/esp-open-sdk/sdk/lib/libnet80211.a(ieee80211_mesh_quick.o)
                                         0x62 (size before relaxing)
 .comment       0x00000000000004c4       0x5d /home/stoffer/esp8266/esp-open-sdk/sdk/lib/libnet80211.a(ieee80211_output.o)
                                         0x5e (size before relaxing)
 .comment       0x0000000000000521       0x5a /home/stoffer/esp8266/esp-open-sdk/sdk/lib/libnet80211.a(ieee80211_phy.o)
                                         0x5b (size before relaxing)
 .comment       0x000000000000057b       0x5c /home/stoffer/esp8266/esp-open-sdk/sdk/lib/libnet80211.a(ieee80211_power.o)
                                         0x5d (size before relaxing)
 .comment       0x00000000000005d7       0x5c /home/stoffer/esp8266/esp-open-sdk/sdk/lib/libnet80211.a(ieee80211_proto.o)
                                         0x5d (size before relaxing)
 .comment       0x0000000000000633       0x60 /home/stoffer/esp8266/esp-open-sdk/sdk/lib/libnet80211.a(ieee80211_regdomain.o)
                                         0x61 (size before relaxing)
 .comment       0x0000000000000693       0x5b /home/stoffer/esp8266/esp-open-sdk/sdk/lib/libnet80211.a(ieee80211_rfid.o)
                                         0x5c (size before relaxing)
 .comment       0x00000000000006ee       0x5b /home/stoffer/esp8266/esp-open-sdk/sdk/lib/libnet80211.a(ieee80211_scan.o)
                                         0x5c (size before relaxing)
 .comment       0x0000000000000749       0x5a /home/stoffer/esp8266/esp-open-sdk/sdk/lib/libnet80211.a(ieee80211_sta.o)
                                         0x5b (size before relaxing)
 .comment       0x00000000000007a3       0x53 /home/stoffer/esp8266/esp-open-sdk/sdk/lib/libnet80211.a(wl_chm.o)
                                         0x54 (size before relaxing)
 .comment       0x00000000000007f6       0x53 /home/stoffer/esp8266/esp-open-sdk/sdk/lib/libnet80211.a(wl_cnx.o)
                                         0x54 (size before relaxing)
 .comment       0x0000000000000849       0x5d /home/stoffer/esp8266/esp-open-sdk/sdk/lib/libnet80211.a(ieee80211_action.o)
                                         0x5e (size before relaxing)
 .comment       0x00000000000008a6       0x64 /home/stoffer/esp8266/esp-open-sdk/sdk/lib/libnet80211.a(ieee80211_action_vendor.o)
                                         0x65 (size before relaxing)
 .comment       0x000000000000090a       0x62 /home/stoffer/esp8266/esp-open-sdk/sdk/lib/libnet80211.a(ieee80211_crypto_ccmp.o)
                                         0x63 (size before relaxing)
 .comment       0x000000000000096c       0x5a /home/stoffer/esp8266/esp-open-sdk/sdk/lib/libnet80211.a(ieee80211_ets.o)
                                         0x5b (size before relaxing)
 .comment       0x00000000000009c6       0x60 /home/stoffer/esp8266/esp-open-sdk/sdk/lib/libnet80211.a(ieee80211_ie_vendor.o)
                                         0x61 (size before relaxing)
 .comment       0x0000000000000a26       0x56 /home/stoffer/esp8266/esp-open-sdk/sdk/lib/libwpa.a(ap_config.o)
                                         0x57 (size before relaxing)
 .comment       0x0000000000000a7c       0x53 /home/stoffer/esp8266/esp-open-sdk/sdk/lib/libwpa.a(common.o)
                                         0x54 (size before relaxing)
 .comment       0x0000000000000acf       0x56 /home/stoffer/esp8266/esp-open-sdk/sdk/lib/libwpa.a(os_xtensa.o)
                                         0x57 (size before relaxing)
 .comment       0x0000000000000b25       0x55 /home/stoffer/esp8266/esp-open-sdk/sdk/lib/libwpa.a(wpa_auth.o)
                                         0x56 (size before relaxing)
 .comment       0x0000000000000b7a       0x58 /home/stoffer/esp8266/esp-open-sdk/sdk/lib/libwpa.a(wpa_auth_ie.o)
                                         0x59 (size before relaxing)
 .comment       0x0000000000000bd2       0x50 /home/stoffer/esp8266/esp-open-sdk/sdk/lib/libwpa.a(wpa.o)
                                         0x51 (size before relaxing)
 .comment       0x0000000000000c22       0x57 /home/stoffer/esp8266/esp-open-sdk/sdk/lib/libwpa.a(wpa_common.o)
                                         0x58 (size before relaxing)
 .comment       0x0000000000000c79       0x56 /home/stoffer/esp8266/esp-open-sdk/sdk/lib/libwpa.a(wpa_debug.o)
                                         0x57 (size before relaxing)
 .comment       0x0000000000000ccf       0x53 /home/stoffer/esp8266/esp-open-sdk/sdk/lib/libwpa.a(wpa_ie.o)
                                         0x54 (size before relaxing)
 .comment       0x0000000000000d22       0x55 /home/stoffer/esp8266/esp-open-sdk/sdk/lib/libwpa.a(wpa_main.o)
                                         0x56 (size before relaxing)
 .comment       0x0000000000000d77       0x56 /home/stoffer/esp8266/esp-open-sdk/sdk/lib/libwpa.a(wpas_glue.o)
                                         0x57 (size before relaxing)
 .comment       0x0000000000000dcd       0x55 /home/stoffer/esp8266/esp-open-sdk/sdk/lib/libwpa.a(aes-wrap.o)
                                         0x56 (size before relaxing)
 .comment       0x0000000000000e22       0x5d /home/stoffer/esp8266/esp-open-sdk/sdk/lib/libwpa.a(aes-internal-enc.o)
                                         0x5e (size before relaxing)
 .comment       0x0000000000000e7f       0x59 /home/stoffer/esp8266/esp-open-sdk/sdk/lib/libwpa.a(aes-internal.o)
                                         0x5a (size before relaxing)
 .comment       0x0000000000000ed8       0x51 /home/stoffer/esp8266/esp-open-sdk/sdk/lib/liblwip.a(dhcp.o)
                                         0x52 (size before relaxing)
 .comment       0x0000000000000f29       0x57 /home/stoffer/esp8266/esp-open-sdk/sdk/lib/liblwip.a(dhcpserver.o)
                                         0x58 (size before relaxing)
 .comment       0x0000000000000f80       0x50 /home/stoffer/esp8266/esp-open-sdk/sdk/lib/liblwip.a(dns.o)
                                         0x51 (size before relaxing)
 .comment       0x0000000000000fd0       0x58 /home/stoffer/esp8266/esp-open-sdk/sdk/lib/liblwip.a(espconn_tcp.o)
                                         0x59 (size before relaxing)
 .comment       0x0000000000001028       0x53 /home/stoffer/esp8266/esp-open-sdk/sdk/lib/liblwip.a(etharp.o)
                                         0x54 (size before relaxing)
 .comment       0x000000000000107b       0x51 /home/stoffer/esp8266/esp-open-sdk/sdk/lib/liblwip.a(init.o)
                                         0x52 (size before relaxing)
 .comment       0x00000000000010cc       0x54 /home/stoffer/esp8266/esp-open-sdk/sdk/lib/liblwip.a(ip_addr.o)
                                         0x55 (size before relaxing)
 .comment       0x0000000000001120       0x4f /home/stoffer/esp8266/esp-open-sdk/sdk/lib/liblwip.a(ip.o)
                                         0x50 (size before relaxing)
 .comment       0x000000000000116f       0x51 /home/stoffer/esp8266/esp-open-sdk/sdk/lib/liblwip.a(memp.o)
                                         0x52 (size before relaxing)
 .comment       0x00000000000011c0       0x52 /home/stoffer/esp8266/esp-open-sdk/sdk/lib/liblwip.a(netif.o)
                                         0x53 (size before relaxing)
 .comment       0x0000000000001212       0x51 /home/stoffer/esp8266/esp-open-sdk/sdk/lib/liblwip.a(pbuf.o)
                                         0x52 (size before relaxing)
 .comment       0x0000000000001263       0x50 /home/stoffer/esp8266/esp-open-sdk/sdk/lib/liblwip.a(raw.o)
                                         0x51 (size before relaxing)
 .comment       0x00000000000012b3       0x53 /home/stoffer/esp8266/esp-open-sdk/sdk/lib/liblwip.a(tcp_in.o)
                                         0x54 (size before relaxing)
 .comment       0x0000000000001306       0x50 /home/stoffer/esp8266/esp-open-sdk/sdk/lib/liblwip.a(tcp.o)
                                         0x51 (size before relaxing)
 .comment       0x0000000000001356       0x54 /home/stoffer/esp8266/esp-open-sdk/sdk/lib/liblwip.a(tcp_out.o)
                                         0x55 (size before relaxing)
 .comment       0x00000000000013aa       0x53 /home/stoffer/esp8266/esp-open-sdk/sdk/lib/liblwip.a(timers.o)
                                         0x54 (size before relaxing)
 .comment       0x00000000000013fd       0x50 /home/stoffer/esp8266/esp-open-sdk/sdk/lib/liblwip.a(udp.o)
                                         0x51 (size before relaxing)
 .comment       0x000000000000144d       0x58 /home/stoffer/esp8266/esp-open-sdk/sdk/lib/liblwip.a(espconn_buf.o)
                                         0x59 (size before relaxing)
 .comment       0x00000000000014a5       0x54 /home/stoffer/esp8266/esp-open-sdk/sdk/lib/liblwip.a(espconn.o)
                                         0x55 (size before relaxing)
 .comment       0x00000000000014f9       0x58 /home/stoffer/esp8266/esp-open-sdk/sdk/lib/liblwip.a(espconn_udp.o)
                                         0x59 (size before relaxing)
 .comment       0x0000000000001551       0x51 /home/stoffer/esp8266/esp-open-sdk/sdk/lib/liblwip.a(icmp.o)
                                         0x52 (size before relaxing)
 .comment       0x00000000000015a2       0x51 /home/stoffer/esp8266/esp-open-sdk/sdk/lib/liblwip.a(igmp.o)
                                         0x52 (size before relaxing)
 .comment       0x00000000000015f3       0x58 /home/stoffer/esp8266/esp-open-sdk/sdk/lib/liblwip.a(inet_chksum.o)
                                         0x59 (size before relaxing)
 .comment       0x000000000000164b       0x54 /home/stoffer/esp8266/esp-open-sdk/sdk/lib/libpp.a(esf_buf.o)
                                         0x55 (size before relaxing)
 .comment       0x000000000000169f       0x56 /home/stoffer/esp8266/esp-open-sdk/sdk/lib/libpp.a(if_hwctrl.o)
                                         0x57 (size before relaxing)
 .comment       0x00000000000016f5       0x51 /home/stoffer/esp8266/esp-open-sdk/sdk/lib/libpp.a(lmac.o)
                                         0x52 (size before relaxing)
 .comment       0x0000000000001746       0x4f /home/stoffer/esp8266/esp-open-sdk/sdk/lib/libpp.a(pm.o)
                                         0x50 (size before relaxing)
 .comment       0x0000000000001795       0x61 /home/stoffer/esp8266/esp-open-sdk/sdk/lib/libpp.a(pm_for_bcn_only_mode.o)
                                         0x62 (size before relaxing)
 .comment       0x00000000000017f6       0x4f /home/stoffer/esp8266/esp-open-sdk/sdk/lib/libpp.a(pp.o)
                                         0x50 (size before relaxing)
 .comment       0x0000000000001845       0x59 /home/stoffer/esp8266/esp-open-sdk/sdk/lib/libpp.a(rate_control.o)
                                         0x5a (size before relaxing)
 .comment       0x000000000000189e       0x50 /home/stoffer/esp8266/esp-open-sdk/sdk/lib/libpp.a(trc.o)
                                         0x51 (size before relaxing)
 .comment       0x00000000000018ee       0x51 /home/stoffer/esp8266/esp-open-sdk/sdk/lib/libpp.a(wdev.o)
                                         0x52 (size before relaxing)
 .comment       0x000000000000193f       0x41 /home/stoffer/esp8266/esp-open-sdk/sdk/lib/libphy.a(phy.o)
 .comment       0x0000000000001980       0x4d /home/stoffer/esp8266/esp-open-sdk/sdk/lib/libphy.a(phy_chip_v6_ana.o)
 .comment       0x00000000000019cd       0x49 /home/stoffer/esp8266/esp-open-sdk/sdk/lib/libphy.a(phy_chip_v6.o)
 .comment       0x0000000000001a16       0x4d /home/stoffer/esp8266/esp-open-sdk/sdk/lib/libphy.a(phy_chip_v6_cal.o)
 .comment       0x0000000000001a63       0x50 /home/stoffer/esp8266/esp-open-sdk/sdk/lib/libphy.a(phy_chip_v6_unused.o)
 .comment       0x0000000000001ab3       0x47 /home/stoffer/esp8266/esp-open-sdk/sdk/lib/libphy.a(phy_sleep.o)
 .comment       0x0000000000001afa       0x3b /home/stoffer/esp8266/esp-open-sdk/xtensa-lx106-elf/lib/gcc/xtensa-lx106-elf/4.8.5/../../../../xtensa-lx106-elf/lib/libc.a(lib_a-memchr.o)
 .comment       0x0000000000001afa       0x3b build/app_app.a(user_main.o)
 .comment       0x0000000000001afa       0x3b build/app_app.a(captdns.o)
 .comment       0x0000000000001afa       0x3b build/app_app.a(led.o)
 .comment       0x0000000000001afa       0x3b build/app_app.a(httpd_user_init.o)
 .comment       0x0000000000001afa       0x3b build/app_app.a(httpd.o)
 .comment       0x0000000000001afa       0x3b build/app_app.a(crypto.o)
 .comment       0x0000000000001afa       0x3b build/app_app.a(sha256.o)
 .comment       0x0000000000001afa       0x3b build/app_app.a(aes.o)
 .comment       0x0000000000001afa       0x3b build/app_app.a(kmp_request.o)
 .comment       0x0000000000001afa       0x3b build/app_app.a(kmp.o)
 .comment       0x0000000000001afa       0x3b build/app_app.a(cron.o)
 .comment       0x0000000000001afa       0x3b build/app_app.a(ac_out.o)
 .comment       0x0000000000001afa       0x3b build/app_app.a(uart.o)
 .comment       0x0000000000001afa       0x3b build/app_app.a(mqtt.o)
 .comment       0x0000000000001afa       0x3b build/app_app.a(mqtt_msg.o)
 .comment       0x0000000000001afa       0x3b build/app_app.a(queue.o)
 .comment       0x0000000000001afa       0x3b build/app_app.a(mqtt_utils.o)
 .comment       0x0000000000001afa       0x3b build/app_app.a(proto.o)
 .comment       0x0000000000001afa       0x3b build/app_app.a(config.o)
 .comment       0x0000000000001afa       0x3b build/app_app.a(wifi.o)
 .comment       0x0000000000001afa       0x3b build/app_app.a(watchdog.o)
 .comment       0x0000000000001afa       0x3b build/app_app.a(cgiwifi.o)
 .comment       0x0000000000001afa       0x3b build/app_app.a(tinyprintf.o)
 .comment       0x0000000000001afa       0x3b build/app_app.a(unix_time.o)
 .comment       0x0000000000001afa       0x3b build/app_app.a(cgi.o)
 .comment       0x0000000000001afa       0x3b build/app_app.a(httpdespfs.o)
 .comment       0x0000000000001afa       0x3b build/app_app.a(espfs.o)
 .comment       0x0000000000001afa       0x3b build/app_app.a(heatshrink_decoder.o)
 .comment       0x0000000000001afa       0x3b build/app_app.a(utils.o)
 .comment       0x0000000000001afa       0x3b build/app_app.a(hmac-sha256.o)
 .comment       0x0000000000001afa       0x3b build/app_app.a(gpio16.o)
 .comment       0x0000000000001afa       0x3b build/app_app.a(ringbuf.o)
 .comment       0x0000000000001afa       0x62 /home/stoffer/esp8266/esp-open-sdk/sdk/lib/libnet80211.a(ieee80211_crypto_tkip.o)
                                         0x63 (size before relaxing)
 .comment       0x0000000000001b5c       0x61 /home/stoffer/esp8266/esp-open-sdk/sdk/lib/libnet80211.a(ieee80211_crypto_wep.o)
                                         0x62 (size before relaxing)
 .comment       0x0000000000001bbd       0x51 /home/stoffer/esp8266/esp-open-sdk/sdk/lib/liblwip.a(sntp.o)
                                         0x52 (size before relaxing)
 .comment       0x0000000000001c0e       0x3b /home/stoffer/esp8266/esp-open-sdk/xtensa-lx106-elf/lib/gcc/xtensa-lx106-elf/4.8.5/../../../../xtensa-lx106-elf/lib/libc.a(lib_a-atoi.o)
 .comment       0x0000000000001c0e       0x3b /home/stoffer/esp8266/esp-open-sdk/xtensa-lx106-elf/lib/gcc/xtensa-lx106-elf/4.8.5/../../../../xtensa-lx106-elf/lib/libc.a(lib_a-gmtime.o)
 .comment       0x0000000000001c0e       0x3b /home/stoffer/esp8266/esp-open-sdk/xtensa-lx106-elf/lib/gcc/xtensa-lx106-elf/4.8.5/../../../../xtensa-lx106-elf/lib/libc.a(lib_a-gmtime_r.o)
 .comment       0x0000000000001c0e       0x3b /home/stoffer/esp8266/esp-open-sdk/xtensa-lx106-elf/lib/gcc/xtensa-lx106-elf/4.8.5/../../../../xtensa-lx106-elf/lib/libc.a(lib_a-impure.o)
 .comment       0x0000000000001c0e       0x3b /home/stoffer/esp8266/esp-open-sdk/xtensa-lx106-elf/lib/gcc/xtensa-lx106-elf/4.8.5/../../../../xtensa-lx106-elf/lib/libc.a(lib_a-mktm_r.o)
 .comment       0x0000000000001c0e       0x3b /home/stoffer/esp8266/esp-open-sdk/xtensa-lx106-elf/lib/gcc/xtensa-lx106-elf/4.8.5/../../../../xtensa-lx106-elf/lib/libc.a(lib_a-strcat.o)
 .comment       0x0000000000001c0e       0x3b /home/stoffer/esp8266/esp-open-sdk/xtensa-lx106-elf/lib/gcc/xtensa-lx106-elf/4.8.5/../../../../xtensa-lx106-elf/lib/libc.a(lib_a-strtok.o)
 .comment       0x0000000000001c0e       0x3b /home/stoffer/esp8266/esp-open-sdk/xtensa-lx106-elf/lib/gcc/xtensa-lx106-elf/4.8.5/../../../../xtensa-lx106-elf/lib/libc.a(lib_a-strtok_r.o)
 .comment       0x0000000000001c0e       0x3b /home/stoffer/esp8266/esp-open-sdk/xtensa-lx106-elf/lib/gcc/xtensa-lx106-elf/4.8.5/../../../../xtensa-lx106-elf/lib/libc.a(lib_a-strtol.o)
 .comment       0x0000000000001c0e       0x3b /home/stoffer/esp8266/esp-open-sdk/xtensa-lx106-elf/lib/gcc/xtensa-lx106-elf/4.8.5/../../../../xtensa-lx106-elf/lib/libc.a(lib_a-tzlock.o)
 .comment       0x0000000000001c0e       0x3b /home/stoffer/esp8266/esp-open-sdk/xtensa-lx106-elf/lib/gcc/xtensa-lx106-elf/4.8.5/../../../../xtensa-lx106-elf/lib/libc.a(lib_a-tzvars.o)
 .comment       0x0000000000001c0e       0x3b /home/stoffer/esp8266/esp-open-sdk/xtensa-lx106-elf/lib/gcc/xtensa-lx106-elf/4.8.5/../../../../xtensa-lx106-elf/lib/libc.a(lib_a-ctype_.o)
 .comment       0x0000000000001c0e       0x3b /home/stoffer/esp8266/esp-open-sdk/xtensa-lx106-elf/lib/gcc/xtensa-lx106-elf/4.8.5/../../../../xtensa-lx106-elf/lib/libc.a(lib_a-gettzinfo.o)
 .comment       0x0000000000001c0e       0x51 /home/stoffer/esp8266/esp-open-sdk/sdk/lib/libmain.a(time.o)
                                         0x52 (size before relaxing)
 .comment       0x0000000000001c5f       0x3b /home/stoffer/esp8266/esp-open-sdk/xtensa-lx106-elf/lib/gcc/xtensa-lx106-elf/4.8.5/../../../../xtensa-lx106-elf/lib/libc.a(lib_a-sysgettod.o)

.debug_line     0x0000000000000000     0xcfc3
 .debug_line    0x0000000000000000      0x11a /home/stoffer/esp8266/esp-open-sdk/sdk/lib/libgcc.a(_modsi3.o)
 .debug_line    0x000000000000011a       0xba /home/stoffer/esp8266/esp-open-sdk/sdk/lib/libgcc.a(_ashrdi3.o)
 .debug_line    0x00000000000001d4      0x37f /home/stoffer/esp8266/esp-open-sdk/sdk/lib/libgcc.a(_mulsf3.o)
 .debug_line    0x0000000000000553      0x319 /home/stoffer/esp8266/esp-open-sdk/sdk/lib/libgcc.a(_divsf3.o)
 .debug_line    0x000000000000086c      0x115 /home/stoffer/esp8266/esp-open-sdk/sdk/lib/libgcc.a(_fixsfsi.o)
 .debug_line    0x0000000000000981      0x1b1 /home/stoffer/esp8266/esp-open-sdk/xtensa-lx106-elf/lib/gcc/xtensa-lx106-elf/4.8.5/../../../../xtensa-lx106-elf/lib/libc.a(lib_a-memchr.o)
 .debug_line    0x0000000000000b32      0x928 build/app_app.a(user_main.o)
 .debug_line    0x000000000000145a      0x5a1 build/app_app.a(captdns.o)
 .debug_line    0x00000000000019fb      0x231 build/app_app.a(led.o)
 .debug_line    0x0000000000001c2c      0x10f build/app_app.a(httpd_user_init.o)
 .debug_line    0x0000000000001d3b      0xb87 build/app_app.a(httpd.o)
 .debug_line    0x00000000000028c2      0x2e4 build/app_app.a(crypto.o)
 .debug_line    0x0000000000002ba6      0x727 build/app_app.a(sha256.o)
 .debug_line    0x00000000000032cd      0x9ba build/app_app.a(aes.o)
 .debug_line    0x0000000000003c87      0x6c4 build/app_app.a(kmp_request.o)
 .debug_line    0x000000000000434b      0x904 build/app_app.a(kmp.o)
 .debug_line    0x0000000000004c4f      0x4c8 build/app_app.a(cron.o)
 .debug_line    0x0000000000005117      0x406 build/app_app.a(ac_out.o)
 .debug_line    0x000000000000551d      0x511 build/app_app.a(uart.o)
 .debug_line    0x0000000000005a2e      0xf3c build/app_app.a(mqtt.o)
 .debug_line    0x000000000000696a      0x8c2 build/app_app.a(mqtt_msg.o)
 .debug_line    0x000000000000722c      0x1d1 build/app_app.a(queue.o)
 .debug_line    0x00000000000073fd      0x249 build/app_app.a(mqtt_utils.o)
 .debug_line    0x0000000000007646      0x32f build/app_app.a(proto.o)
 .debug_line    0x0000000000007975      0x2d7 build/app_app.a(config.o)
 .debug_line    0x0000000000007c4c      0x527 build/app_app.a(wifi.o)
 .debug_line    0x0000000000008173      0x3f7 build/app_app.a(watchdog.o)
 .debug_line    0x000000000000856a      0x4ad build/app_app.a(cgiwifi.o)
 .debug_line    0x0000000000008a17      0xae5 build/app_app.a(tinyprintf.o)
 .debug_line    0x00000000000094fc      0x22d build/app_app.a(unix_time.o)
 .debug_line    0x0000000000009729      0x248 build/app_app.a(cgi.o)
 .debug_line    0x0000000000009971      0x2e3 build/app_app.a(httpdespfs.o)
 .debug_line    0x0000000000009c54      0x3a9 build/app_app.a(espfs.o)
 .debug_line    0x0000000000009ffd      0x58b build/app_app.a(heatshrink_decoder.o)
 .debug_line    0x000000000000a588      0x2a0 build/app_app.a(utils.o)
 .debug_line    0x000000000000a828      0x20a build/app_app.a(hmac-sha256.o)
 .debug_line    0x000000000000aa32      0x14b build/app_app.a(gpio16.o)
 .debug_line    0x000000000000ab7d      0x120 build/app_app.a(ringbuf.o)
 .debug_line    0x000000000000ac9d      0x238 /home/stoffer/esp8266/esp-open-sdk/xtensa-lx106-elf/lib/gcc/xtensa-lx106-elf/4.8.5/../../../../xtensa-lx106-elf/lib/libc.a(lib_a-atoi.o)
 .debug_line    0x000000000000aed5      0x22e /home/stoffer/esp8266/esp-open-sdk/xtensa-lx106-elf/lib/gcc/xtensa-lx106-elf/4.8.5/../../../../xtensa-lx106-elf/lib/libc.a(lib_a-gmtime.o)
 .debug_line    0x000000000000b103      0x188 /home/stoffer/esp8266/esp-open-sdk/xtensa-lx106-elf/lib/gcc/xtensa-lx106-elf/4.8.5/../../../../xtensa-lx106-elf/lib/libc.a(lib_a-gmtime_r.o)
 .debug_line    0x000000000000b28b      0x18a /home/stoffer/esp8266/esp-open-sdk/xtensa-lx106-elf/lib/gcc/xtensa-lx106-elf/4.8.5/../../../../xtensa-lx106-elf/lib/libc.a(lib_a-impure.o)
 .debug_line    0x000000000000b415      0x38b /home/stoffer/esp8266/esp-open-sdk/xtensa-lx106-elf/lib/gcc/xtensa-lx106-elf/4.8.5/../../../../xtensa-lx106-elf/lib/libc.a(lib_a-memcpy.o)
 .debug_line    0x000000000000b7a0      0x1b0 /home/stoffer/esp8266/esp-open-sdk/xtensa-lx106-elf/lib/gcc/xtensa-lx106-elf/4.8.5/../../../../xtensa-lx106-elf/lib/libc.a(lib_a-memset.o)
 .debug_line    0x000000000000b950      0x6e6 /home/stoffer/esp8266/esp-open-sdk/xtensa-lx106-elf/lib/gcc/xtensa-lx106-elf/4.8.5/../../../../xtensa-lx106-elf/lib/libc.a(lib_a-mktm_r.o)
 .debug_line    0x000000000000c036      0x123 /home/stoffer/esp8266/esp-open-sdk/xtensa-lx106-elf/lib/gcc/xtensa-lx106-elf/4.8.5/../../../../xtensa-lx106-elf/lib/libc.a(lib_a-strcat.o)
 .debug_line    0x000000000000c159      0x162 /home/stoffer/esp8266/esp-open-sdk/xtensa-lx106-elf/lib/gcc/xtensa-lx106-elf/4.8.5/../../../../xtensa-lx106-elf/lib/libc.a(lib_a-strlen.o)
 .debug_line    0x000000000000c2bb      0x228 /home/stoffer/esp8266/esp-open-sdk/xtensa-lx106-elf/lib/gcc/xtensa-lx106-elf/4.8.5/../../../../xtensa-lx106-elf/lib/libc.a(lib_a-strtok.o)
 .debug_line    0x000000000000c4e3      0x1b6 /home/stoffer/esp8266/esp-open-sdk/xtensa-lx106-elf/lib/gcc/xtensa-lx106-elf/4.8.5/../../../../xtensa-lx106-elf/lib/libc.a(lib_a-strtok_r.o)
 .debug_line    0x000000000000c699      0x3d3 /home/stoffer/esp8266/esp-open-sdk/xtensa-lx106-elf/lib/gcc/xtensa-lx106-elf/4.8.5/../../../../xtensa-lx106-elf/lib/libc.a(lib_a-strtol.o)
 .debug_line    0x000000000000ca6c       0x98 /home/stoffer/esp8266/esp-open-sdk/xtensa-lx106-elf/lib/gcc/xtensa-lx106-elf/4.8.5/../../../../xtensa-lx106-elf/lib/libc.a(lib_a-tzlock.o)
 .debug_line    0x000000000000cb04       0x83 /home/stoffer/esp8266/esp-open-sdk/xtensa-lx106-elf/lib/gcc/xtensa-lx106-elf/4.8.5/../../../../xtensa-lx106-elf/lib/libc.a(lib_a-tzvars.o)
 .debug_line    0x000000000000cb87       0x84 /home/stoffer/esp8266/esp-open-sdk/xtensa-lx106-elf/lib/gcc/xtensa-lx106-elf/4.8.5/../../../../xtensa-lx106-elf/lib/libc.a(lib_a-ctype_.o)
 .debug_line    0x000000000000cc0b      0x16c /home/stoffer/esp8266/esp-open-sdk/xtensa-lx106-elf/lib/gcc/xtensa-lx106-elf/4.8.5/../../../../xtensa-lx106-elf/lib/libc.a(lib_a-gettzinfo.o)
 .debug_line    0x000000000000cd77      0x24c /home/stoffer/esp8266/esp-open-sdk/xtensa-lx106-elf/lib/gcc/xtensa-lx106-elf/4.8.5/../../../../xtensa-lx106-elf/lib/libc.a(lib_a-sysgettod.o)

.debug_info     0x0000000000000000    0x1c0ad
 .debug_info    0x0000000000000000       0xf3 /home/stoffer/esp8266/esp-open-sdk/sdk/lib/libgcc.a(_modsi3.o)
 .debug_info    0x00000000000000f3       0xf3 /home/stoffer/esp8266/esp-open-sdk/sdk/lib/libgcc.a(_ashrdi3.o)
 .debug_info    0x00000000000001e6       0xf4 /home/stoffer/esp8266/esp-open-sdk/sdk/lib/libgcc.a(_mulsf3.o)
 .debug_info    0x00000000000002da       0xf4 /home/stoffer/esp8266/esp-open-sdk/sdk/lib/libgcc.a(_divsf3.o)
 .debug_info    0x00000000000003ce       0xf4 /home/stoffer/esp8266/esp-open-sdk/sdk/lib/libgcc.a(_fixsfsi.o)
 .debug_info    0x00000000000004c2       0xf4 /home/stoffer/esp8266/esp-open-sdk/xtensa-lx106-elf/lib/gcc/xtensa-lx106-elf/4.8.5/../../../../xtensa-lx106-elf/lib/libc.a(lib_a-memchr.o)
 .debug_info    0x00000000000005b6     0x2bcb build/app_app.a(user_main.o)
 .debug_info    0x0000000000003181      0xef0 build/app_app.a(captdns.o)
 .debug_info    0x0000000000004071      0x416 build/app_app.a(led.o)
 .debug_info    0x0000000000004487      0x530 build/app_app.a(httpd_user_init.o)
 .debug_info    0x00000000000049b7     0x17fc build/app_app.a(httpd.o)
 .debug_info    0x00000000000061b3      0x7b4 build/app_app.a(crypto.o)
 .debug_info    0x0000000000006967      0x850 build/app_app.a(sha256.o)
 .debug_info    0x00000000000071b7      0xbdc build/app_app.a(aes.o)
 .debug_info    0x0000000000007d93     0x1875 build/app_app.a(kmp_request.o)
 .debug_info    0x0000000000009608      0xc44 build/app_app.a(kmp.o)
 .debug_info    0x000000000000a24c      0xcd4 build/app_app.a(cron.o)
 .debug_info    0x000000000000af20      0xad1 build/app_app.a(ac_out.o)
 .debug_info    0x000000000000b9f1      0x945 build/app_app.a(uart.o)
 .debug_info    0x000000000000c336     0x2884 build/app_app.a(mqtt.o)
 .debug_info    0x000000000000ebba     0x1016 build/app_app.a(mqtt_msg.o)
 .debug_info    0x000000000000fbd0      0x3e3 build/app_app.a(queue.o)
 .debug_info    0x000000000000ffb3      0x1e3 build/app_app.a(mqtt_utils.o)
 .debug_info    0x0000000000010196      0x4f9 build/app_app.a(proto.o)
 .debug_info    0x000000000001068f      0x8d2 build/app_app.a(config.o)
 .debug_info    0x0000000000010f61     0x1191 build/app_app.a(wifi.o)
 .debug_info    0x00000000000120f2      0x843 build/app_app.a(watchdog.o)
 .debug_info    0x0000000000012935     0x1364 build/app_app.a(cgiwifi.o)
 .debug_info    0x0000000000013c99      0xae7 build/app_app.a(tinyprintf.o)
 .debug_info    0x0000000000014780      0x46f build/app_app.a(unix_time.o)
 .debug_info    0x0000000000014bef      0x826 build/app_app.a(cgi.o)
 .debug_info    0x0000000000015415      0x85d build/app_app.a(httpdespfs.o)
 .debug_info    0x0000000000015c72      0x7bf build/app_app.a(espfs.o)
 .debug_info    0x0000000000016431      0xaf1 build/app_app.a(heatshrink_decoder.o)
 .debug_info    0x0000000000016f22      0x41d build/app_app.a(utils.o)
 .debug_info    0x000000000001733f      0x586 build/app_app.a(hmac-sha256.o)
 .debug_info    0x00000000000178c5      0x105 build/app_app.a(gpio16.o)
 .debug_info    0x00000000000179ca      0x1ba build/app_app.a(ringbuf.o)
 .debug_info    0x0000000000017b84      0x93d /home/stoffer/esp8266/esp-open-sdk/xtensa-lx106-elf/lib/gcc/xtensa-lx106-elf/4.8.5/../../../../xtensa-lx106-elf/lib/libc.a(lib_a-atoi.o)
 .debug_info    0x00000000000184c1      0x94e /home/stoffer/esp8266/esp-open-sdk/xtensa-lx106-elf/lib/gcc/xtensa-lx106-elf/4.8.5/../../../../xtensa-lx106-elf/lib/libc.a(lib_a-gmtime.o)
 .debug_info    0x0000000000018e0f      0x17a /home/stoffer/esp8266/esp-open-sdk/xtensa-lx106-elf/lib/gcc/xtensa-lx106-elf/4.8.5/../../../../xtensa-lx106-elf/lib/libc.a(lib_a-gmtime_r.o)
 .debug_info    0x0000000000018f89      0x890 /home/stoffer/esp8266/esp-open-sdk/xtensa-lx106-elf/lib/gcc/xtensa-lx106-elf/4.8.5/../../../../xtensa-lx106-elf/lib/libc.a(lib_a-impure.o)
 .debug_info    0x0000000000019819      0x119 /home/stoffer/esp8266/esp-open-sdk/xtensa-lx106-elf/lib/gcc/xtensa-lx106-elf/4.8.5/../../../../xtensa-lx106-elf/lib/libc.a(lib_a-memcpy.o)
 .debug_info    0x0000000000019932      0x119 /home/stoffer/esp8266/esp-open-sdk/xtensa-lx106-elf/lib/gcc/xtensa-lx106-elf/4.8.5/../../../../xtensa-lx106-elf/lib/libc.a(lib_a-memset.o)
 .debug_info    0x0000000000019a4b      0x440 /home/stoffer/esp8266/esp-open-sdk/xtensa-lx106-elf/lib/gcc/xtensa-lx106-elf/4.8.5/../../../../xtensa-lx106-elf/lib/libc.a(lib_a-mktm_r.o)
 .debug_info    0x0000000000019e8b       0xc4 /home/stoffer/esp8266/esp-open-sdk/xtensa-lx106-elf/lib/gcc/xtensa-lx106-elf/4.8.5/../../../../xtensa-lx106-elf/lib/libc.a(lib_a-strcat.o)
 .debug_info    0x0000000000019f4f      0x119 /home/stoffer/esp8266/esp-open-sdk/xtensa-lx106-elf/lib/gcc/xtensa-lx106-elf/4.8.5/../../../../xtensa-lx106-elf/lib/libc.a(lib_a-strlen.o)
 .debug_info    0x000000000001a068      0x8e7 /home/stoffer/esp8266/esp-open-sdk/xtensa-lx106-elf/lib/gcc/xtensa-lx106-elf/4.8.5/../../../../xtensa-lx106-elf/lib/libc.a(lib_a-strtok.o)
 .debug_info    0x000000000001a94f      0x180 /home/stoffer/esp8266/esp-open-sdk/xtensa-lx106-elf/lib/gcc/xtensa-lx106-elf/4.8.5/../../../../xtensa-lx106-elf/lib/libc.a(lib_a-strtok_r.o)
 .debug_info    0x000000000001aacf      0x9a5 /home/stoffer/esp8266/esp-open-sdk/xtensa-lx106-elf/lib/gcc/xtensa-lx106-elf/4.8.5/../../../../xtensa-lx106-elf/lib/libc.a(lib_a-strtol.o)
 .debug_info    0x000000000001b474       0xa4 /home/stoffer/esp8266/esp-open-sdk/xtensa-lx106-elf/lib/gcc/xtensa-lx106-elf/4.8.5/../../../../xtensa-lx106-elf/lib/libc.a(lib_a-tzlock.o)
 .debug_info    0x000000000001b518       0xb7 /home/stoffer/esp8266/esp-open-sdk/xtensa-lx106-elf/lib/gcc/xtensa-lx106-elf/4.8.5/../../../../xtensa-lx106-elf/lib/libc.a(lib_a-tzvars.o)
 .debug_info    0x000000000001b5cf       0x6b /home/stoffer/esp8266/esp-open-sdk/xtensa-lx106-elf/lib/gcc/xtensa-lx106-elf/4.8.5/../../../../xtensa-lx106-elf/lib/libc.a(lib_a-ctype_.o)
 .debug_info    0x000000000001b63a      0x15c /home/stoffer/esp8266/esp-open-sdk/xtensa-lx106-elf/lib/gcc/xtensa-lx106-elf/4.8.5/../../../../xtensa-lx106-elf/lib/libc.a(lib_a-gettzinfo.o)
 .debug_info    0x000000000001b796      0x917 /home/stoffer/esp8266/esp-open-sdk/xtensa-lx106-elf/lib/gcc/xtensa-lx106-elf/4.8.5/../../../../xtensa-lx106-elf/lib/libc.a(lib_a-sysgettod.o)

.debug_abbrev   0x0000000000000000     0x597b
 .debug_abbrev  0x0000000000000000       0x14 /home/stoffer/esp8266/esp-open-sdk/sdk/lib/libgcc.a(_modsi3.o)
 .debug_abbrev  0x0000000000000014       0x14 /home/stoffer/esp8266/esp-open-sdk/sdk/lib/libgcc.a(_ashrdi3.o)
 .debug_abbrev  0x0000000000000028       0x14 /home/stoffer/esp8266/esp-open-sdk/sdk/lib/libgcc.a(_mulsf3.o)
 .debug_abbrev  0x000000000000003c       0x14 /home/stoffer/esp8266/esp-open-sdk/sdk/lib/libgcc.a(_divsf3.o)
 .debug_abbrev  0x0000000000000050       0x14 /home/stoffer/esp8266/esp-open-sdk/sdk/lib/libgcc.a(_fixsfsi.o)
 .debug_abbrev  0x0000000000000064       0xa9 /home/stoffer/esp8266/esp-open-sdk/xtensa-lx106-elf/lib/gcc/xtensa-lx106-elf/4.8.5/../../../../xtensa-lx106-elf/lib/libc.a(lib_a-memchr.o)
 .debug_abbrev  0x000000000000010d      0x36b build/app_app.a(user_main.o)
 .debug_abbrev  0x0000000000000478      0x2c9 build/app_app.a(captdns.o)
 .debug_abbrev  0x0000000000000741      0x15b build/app_app.a(led.o)
 .debug_abbrev  0x000000000000089c      0x1be build/app_app.a(httpd_user_init.o)
 .debug_abbrev  0x0000000000000a5a      0x3e8 build/app_app.a(httpd.o)
 .debug_abbrev  0x0000000000000e42      0x1a9 build/app_app.a(crypto.o)
 .debug_abbrev  0x0000000000000feb      0x26e build/app_app.a(sha256.o)
 .debug_abbrev  0x0000000000001259      0x28c build/app_app.a(aes.o)
 .debug_abbrev  0x00000000000014e5      0x32a build/app_app.a(kmp_request.o)
 .debug_abbrev  0x000000000000180f      0x27b build/app_app.a(kmp.o)
 .debug_abbrev  0x0000000000001a8a      0x255 build/app_app.a(cron.o)
 .debug_abbrev  0x0000000000001cdf      0x267 build/app_app.a(ac_out.o)
 .debug_abbrev  0x0000000000001f46      0x2ed build/app_app.a(uart.o)
 .debug_abbrev  0x0000000000002233      0x378 build/app_app.a(mqtt.o)
 .debug_abbrev  0x00000000000025ab      0x287 build/app_app.a(mqtt_msg.o)
 .debug_abbrev  0x0000000000002832      0x141 build/app_app.a(queue.o)
 .debug_abbrev  0x0000000000002973       0xc7 build/app_app.a(mqtt_utils.o)
 .debug_abbrev  0x0000000000002a3a      0x1df build/app_app.a(proto.o)
 .debug_abbrev  0x0000000000002c19      0x1ee build/app_app.a(config.o)
 .debug_abbrev  0x0000000000002e07      0x38b build/app_app.a(wifi.o)
 .debug_abbrev  0x0000000000003192      0x26a build/app_app.a(watchdog.o)
 .debug_abbrev  0x00000000000033fc      0x329 build/app_app.a(cgiwifi.o)
 .debug_abbrev  0x0000000000003725      0x341 build/app_app.a(tinyprintf.o)
 .debug_abbrev  0x0000000000003a66      0x1c7 build/app_app.a(unix_time.o)
 .debug_abbrev  0x0000000000003c2d      0x1c7 build/app_app.a(cgi.o)
 .debug_abbrev  0x0000000000003df4      0x1e0 build/app_app.a(httpdespfs.o)
 .debug_abbrev  0x0000000000003fd4      0x1bc build/app_app.a(espfs.o)
 .debug_abbrev  0x0000000000004190      0x2ad build/app_app.a(heatshrink_decoder.o)
 .debug_abbrev  0x000000000000443d      0x1fc build/app_app.a(utils.o)
 .debug_abbrev  0x0000000000004639      0x1a3 build/app_app.a(hmac-sha256.o)
 .debug_abbrev  0x00000000000047dc       0x92 build/app_app.a(gpio16.o)
 .debug_abbrev  0x000000000000486e       0xe2 build/app_app.a(ringbuf.o)
 .debug_abbrev  0x0000000000004950      0x1cc /home/stoffer/esp8266/esp-open-sdk/xtensa-lx106-elf/lib/gcc/xtensa-lx106-elf/4.8.5/../../../../xtensa-lx106-elf/lib/libc.a(lib_a-atoi.o)
 .debug_abbrev  0x0000000000004b1c      0x1d7 /home/stoffer/esp8266/esp-open-sdk/xtensa-lx106-elf/lib/gcc/xtensa-lx106-elf/4.8.5/../../../../xtensa-lx106-elf/lib/libc.a(lib_a-gmtime.o)
 .debug_abbrev  0x0000000000004cf3       0xce /home/stoffer/esp8266/esp-open-sdk/xtensa-lx106-elf/lib/gcc/xtensa-lx106-elf/4.8.5/../../../../xtensa-lx106-elf/lib/libc.a(lib_a-gmtime_r.o)
 .debug_abbrev  0x0000000000004dc1      0x17e /home/stoffer/esp8266/esp-open-sdk/xtensa-lx106-elf/lib/gcc/xtensa-lx106-elf/4.8.5/../../../../xtensa-lx106-elf/lib/libc.a(lib_a-impure.o)
 .debug_abbrev  0x0000000000004f3f       0x14 /home/stoffer/esp8266/esp-open-sdk/xtensa-lx106-elf/lib/gcc/xtensa-lx106-elf/4.8.5/../../../../xtensa-lx106-elf/lib/libc.a(lib_a-memcpy.o)
 .debug_abbrev  0x0000000000004f53       0x14 /home/stoffer/esp8266/esp-open-sdk/xtensa-lx106-elf/lib/gcc/xtensa-lx106-elf/4.8.5/../../../../xtensa-lx106-elf/lib/libc.a(lib_a-memset.o)
 .debug_abbrev  0x0000000000004f67      0x167 /home/stoffer/esp8266/esp-open-sdk/xtensa-lx106-elf/lib/gcc/xtensa-lx106-elf/4.8.5/../../../../xtensa-lx106-elf/lib/libc.a(lib_a-mktm_r.o)
 .debug_abbrev  0x00000000000050ce       0x70 /home/stoffer/esp8266/esp-open-sdk/xtensa-lx106-elf/lib/gcc/xtensa-lx106-elf/4.8.5/../../../../xtensa-lx106-elf/lib/libc.a(lib_a-strcat.o)
 .debug_abbrev  0x000000000000513e       0x14 /home/stoffer/esp8266/esp-open-sdk/xtensa-lx106-elf/lib/gcc/xtensa-lx106-elf/4.8.5/../../../../xtensa-lx106-elf/lib/libc.a(lib_a-strlen.o)
 .debug_abbrev  0x0000000000005152      0x1d9 /home/stoffer/esp8266/esp-open-sdk/xtensa-lx106-elf/lib/gcc/xtensa-lx106-elf/4.8.5/../../../../xtensa-lx106-elf/lib/libc.a(lib_a-strtok.o)
 .debug_abbrev  0x000000000000532b       0xe8 /home/stoffer/esp8266/esp-open-sdk/xtensa-lx106-elf/lib/gcc/xtensa-lx106-elf/4.8.5/../../../../xtensa-lx106-elf/lib/libc.a(lib_a-strtok_r.o)
 .debug_abbrev  0x0000000000005413      0x20f /home/stoffer/esp8266/esp-open-sdk/xtensa-lx106-elf/lib/gcc/xtensa-lx106-elf/4.8.5/../../../../xtensa-lx106-elf/lib/libc.a(lib_a-strtol.o)
 .debug_abbrev  0x0000000000005622       0x4f /home/stoffer/esp8266/esp-open-sdk/xtensa-lx106-elf/lib/gcc/xtensa-lx106-elf/4.8.5/../../../../xtensa-lx106-elf/lib/libc.a(lib_a-tzlock.o)
 .debug_abbrev  0x0000000000005671       0x50 /home/stoffer/esp8266/esp-open-sdk/xtensa-lx106-elf/lib/gcc/xtensa-lx106-elf/4.8.5/../../../../xtensa-lx106-elf/lib/libc.a(lib_a-tzvars.o)
 .debug_abbrev  0x00000000000056c1       0x4c /home/stoffer/esp8266/esp-open-sdk/xtensa-lx106-elf/lib/gcc/xtensa-lx106-elf/4.8.5/../../../../xtensa-lx106-elf/lib/libc.a(lib_a-ctype_.o)
 .debug_abbrev  0x000000000000570d       0xa6 /home/stoffer/esp8266/esp-open-sdk/xtensa-lx106-elf/lib/gcc/xtensa-lx106-elf/4.8.5/../../../../xtensa-lx106-elf/lib/libc.a(lib_a-gettzinfo.o)
 .debug_abbrev  0x00000000000057b3      0x1c8 /home/stoffer/esp8266/esp-open-sdk/xtensa-lx106-elf/lib/gcc/xtensa-lx106-elf/4.8.5/../../../../xtensa-lx106-elf/lib/libc.a(lib_a-sysgettod.o)

.debug_aranges  0x0000000000000000      0xd48
 .debug_aranges
                0x0000000000000000       0x20 /home/stoffer/esp8266/esp-open-sdk/sdk/lib/libgcc.a(_modsi3.o)
 .debug_aranges
                0x0000000000000020       0x20 /home/stoffer/esp8266/esp-open-sdk/sdk/lib/libgcc.a(_ashrdi3.o)
 .debug_aranges
                0x0000000000000040       0x20 /home/stoffer/esp8266/esp-open-sdk/sdk/lib/libgcc.a(_mulsf3.o)
 .debug_aranges
                0x0000000000000060       0x20 /home/stoffer/esp8266/esp-open-sdk/sdk/lib/libgcc.a(_divsf3.o)
 .debug_aranges
                0x0000000000000080       0x20 /home/stoffer/esp8266/esp-open-sdk/sdk/lib/libgcc.a(_fixsfsi.o)
 .debug_aranges
                0x00000000000000a0       0x20 /home/stoffer/esp8266/esp-open-sdk/xtensa-lx106-elf/lib/gcc/xtensa-lx106-elf/4.8.5/../../../../xtensa-lx106-elf/lib/libc.a(lib_a-memchr.o)
 .debug_aranges
                0x00000000000000c0       0x78 build/app_app.a(user_main.o)
 .debug_aranges
                0x0000000000000138       0x30 build/app_app.a(captdns.o)
 .debug_aranges
                0x0000000000000168       0x50 build/app_app.a(led.o)
 .debug_aranges
                0x00000000000001b8       0x20 build/app_app.a(httpd_user_init.o)
 .debug_aranges
                0x00000000000001d8       0xc8 build/app_app.a(httpd.o)
 .debug_aranges
                0x00000000000002a0       0x30 build/app_app.a(crypto.o)
 .debug_aranges
                0x00000000000002d0       0x58 build/app_app.a(sha256.o)
 .debug_aranges
                0x0000000000000328       0x58 build/app_app.a(aes.o)
 .debug_aranges
                0x0000000000000380       0x60 build/app_app.a(kmp_request.o)
 .debug_aranges
                0x00000000000003e0       0x70 build/app_app.a(kmp.o)
 .debug_aranges
                0x0000000000000450       0x38 build/app_app.a(cron.o)
 .debug_aranges
                0x0000000000000488       0x70 build/app_app.a(ac_out.o)
 .debug_aranges
                0x00000000000004f8       0x58 build/app_app.a(uart.o)
 .debug_aranges
                0x0000000000000550       0xe8 build/app_app.a(mqtt.o)
 .debug_aranges
                0x0000000000000638       0xb0 build/app_app.a(mqtt_msg.o)
 .debug_aranges
                0x00000000000006e8       0x38 build/app_app.a(queue.o)
 .debug_aranges
                0x0000000000000720       0x30 build/app_app.a(mqtt_utils.o)
 .debug_aranges
                0x0000000000000750       0x48 build/app_app.a(proto.o)
 .debug_aranges
                0x0000000000000798       0x38 build/app_app.a(config.o)
 .debug_aranges
                0x00000000000007d0       0x70 build/app_app.a(wifi.o)
 .debug_aranges
                0x0000000000000840       0x60 build/app_app.a(watchdog.o)
 .debug_aranges
                0x00000000000008a0       0x48 build/app_app.a(cgiwifi.o)
 .debug_aranges
                0x00000000000008e8       0x80 build/app_app.a(tinyprintf.o)
 .debug_aranges
                0x0000000000000968       0x40 build/app_app.a(unix_time.o)
 .debug_aranges
                0x00000000000009a8       0x38 build/app_app.a(cgi.o)
 .debug_aranges
                0x00000000000009e0       0x28 build/app_app.a(httpdespfs.o)
 .debug_aranges
                0x0000000000000a08       0x38 build/app_app.a(espfs.o)
 .debug_aranges
                0x0000000000000a40       0x20 build/app_app.a(heatshrink_decoder.o)
 .debug_aranges
                0x0000000000000a60       0x40 build/app_app.a(utils.o)
 .debug_aranges
                0x0000000000000aa0       0x38 build/app_app.a(hmac-sha256.o)
 .debug_aranges
                0x0000000000000ad8       0x38 build/app_app.a(gpio16.o)
 .debug_aranges
                0x0000000000000b10       0x30 build/app_app.a(ringbuf.o)
 .debug_aranges
                0x0000000000000b40       0x20 /home/stoffer/esp8266/esp-open-sdk/xtensa-lx106-elf/lib/gcc/xtensa-lx106-elf/4.8.5/../../../../xtensa-lx106-elf/lib/libc.a(lib_a-atoi.o)
 .debug_aranges
                0x0000000000000b60       0x20 /home/stoffer/esp8266/esp-open-sdk/xtensa-lx106-elf/lib/gcc/xtensa-lx106-elf/4.8.5/../../../../xtensa-lx106-elf/lib/libc.a(lib_a-gmtime.o)
 .debug_aranges
                0x0000000000000b80       0x20 /home/stoffer/esp8266/esp-open-sdk/xtensa-lx106-elf/lib/gcc/xtensa-lx106-elf/4.8.5/../../../../xtensa-lx106-elf/lib/libc.a(lib_a-gmtime_r.o)
 .debug_aranges
                0x0000000000000ba0       0x18 /home/stoffer/esp8266/esp-open-sdk/xtensa-lx106-elf/lib/gcc/xtensa-lx106-elf/4.8.5/../../../../xtensa-lx106-elf/lib/libc.a(lib_a-impure.o)
 .debug_aranges
                0x0000000000000bb8       0x20 /home/stoffer/esp8266/esp-open-sdk/xtensa-lx106-elf/lib/gcc/xtensa-lx106-elf/4.8.5/../../../../xtensa-lx106-elf/lib/libc.a(lib_a-memcpy.o)
 .debug_aranges
                0x0000000000000bd8       0x20 /home/stoffer/esp8266/esp-open-sdk/xtensa-lx106-elf/lib/gcc/xtensa-lx106-elf/4.8.5/../../../../xtensa-lx106-elf/lib/libc.a(lib_a-memset.o)
 .debug_aranges
                0x0000000000000bf8       0x20 /home/stoffer/esp8266/esp-open-sdk/xtensa-lx106-elf/lib/gcc/xtensa-lx106-elf/4.8.5/../../../../xtensa-lx106-elf/lib/libc.a(lib_a-mktm_r.o)
 .debug_aranges
                0x0000000000000c18       0x20 /home/stoffer/esp8266/esp-open-sdk/xtensa-lx106-elf/lib/gcc/xtensa-lx106-elf/4.8.5/../../../../xtensa-lx106-elf/lib/libc.a(lib_a-strcat.o)
 .debug_aranges
                0x0000000000000c38       0x20 /home/stoffer/esp8266/esp-open-sdk/xtensa-lx106-elf/lib/gcc/xtensa-lx106-elf/4.8.5/../../../../xtensa-lx106-elf/lib/libc.a(lib_a-strlen.o)
 .debug_aranges
                0x0000000000000c58       0x20 /home/stoffer/esp8266/esp-open-sdk/xtensa-lx106-elf/lib/gcc/xtensa-lx106-elf/4.8.5/../../../../xtensa-lx106-elf/lib/libc.a(lib_a-strtok.o)
 .debug_aranges
                0x0000000000000c78       0x20 /home/stoffer/esp8266/esp-open-sdk/xtensa-lx106-elf/lib/gcc/xtensa-lx106-elf/4.8.5/../../../../xtensa-lx106-elf/lib/libc.a(lib_a-strtok_r.o)
 .debug_aranges
                0x0000000000000c98       0x20 /home/stoffer/esp8266/esp-open-sdk/xtensa-lx106-elf/lib/gcc/xtensa-lx106-elf/4.8.5/../../../../xtensa-lx106-elf/lib/libc.a(lib_a-strtol.o)
 .debug_aranges
                0x0000000000000cb8       0x20 /home/stoffer/esp8266/esp-open-sdk/xtensa-lx106-elf/lib/gcc/xtensa-lx106-elf/4.8.5/../../../../xtensa-lx106-elf/lib/libc.a(lib_a-tzlock.o)
 .debug_aranges
                0x0000000000000cd8       0x18 /home/stoffer/esp8266/esp-open-sdk/xtensa-lx106-elf/lib/gcc/xtensa-lx106-elf/4.8.5/../../../../xtensa-lx106-elf/lib/libc.a(lib_a-tzvars.o)
 .debug_aranges
                0x0000000000000cf0       0x18 /home/stoffer/esp8266/esp-open-sdk/xtensa-lx106-elf/lib/gcc/xtensa-lx106-elf/4.8.5/../../../../xtensa-lx106-elf/lib/libc.a(lib_a-ctype_.o)
 .debug_aranges
                0x0000000000000d08       0x20 /home/stoffer/esp8266/esp-open-sdk/xtensa-lx106-elf/lib/gcc/xtensa-lx106-elf/4.8.5/../../../../xtensa-lx106-elf/lib/libc.a(lib_a-gettzinfo.o)
 .debug_aranges
                0x0000000000000d28       0x20 /home/stoffer/esp8266/esp-open-sdk/xtensa-lx106-elf/lib/gcc/xtensa-lx106-elf/4.8.5/../../../../xtensa-lx106-elf/lib/libc.a(lib_a-sysgettod.o)

.debug_frame    0x0000000000000000     0x2600
 .debug_frame   0x0000000000000000       0x20 /home/stoffer/esp8266/esp-open-sdk/xtensa-lx106-elf/lib/gcc/xtensa-lx106-elf/4.8.5/../../../../xtensa-lx106-elf/lib/libc.a(lib_a-memchr.o)
 .debug_frame   0x0000000000000020      0x18c build/app_app.a(user_main.o)
 .debug_frame   0x00000000000001ac       0x8c build/app_app.a(captdns.o)
 .debug_frame   0x0000000000000238      0x100 build/app_app.a(led.o)
 .debug_frame   0x0000000000000338       0x50 build/app_app.a(httpd_user_init.o)
 .debug_frame   0x0000000000000388      0x380 build/app_app.a(httpd.o)
 .debug_frame   0x0000000000000708       0x9c build/app_app.a(crypto.o)
 .debug_frame   0x00000000000007a4      0x14c build/app_app.a(sha256.o)
 .debug_frame   0x00000000000008f0      0x130 build/app_app.a(aes.o)
 .debug_frame   0x0000000000000a20      0x150 build/app_app.a(kmp_request.o)
 .debug_frame   0x0000000000000b70      0x1c0 build/app_app.a(kmp.o)
 .debug_frame   0x0000000000000d30       0xa8 build/app_app.a(cron.o)
 .debug_frame   0x0000000000000dd8      0x174 build/app_app.a(ac_out.o)
 .debug_frame   0x0000000000000f4c       0xf8 build/app_app.a(uart.o)
 .debug_frame   0x0000000000001044      0x3c4 build/app_app.a(mqtt.o)
 .debug_frame   0x0000000000001408      0x254 build/app_app.a(mqtt_msg.o)
 .debug_frame   0x000000000000165c       0x98 build/app_app.a(queue.o)
 .debug_frame   0x00000000000016f4       0x40 build/app_app.a(mqtt_utils.o)
 .debug_frame   0x0000000000001734       0xe4 build/app_app.a(proto.o)
 .debug_frame   0x0000000000001818       0xac build/app_app.a(config.o)
 .debug_frame   0x00000000000018c4      0x188 build/app_app.a(wifi.o)
 .debug_frame   0x0000000000001a4c      0x150 build/app_app.a(watchdog.o)
 .debug_frame   0x0000000000001b9c      0x108 build/app_app.a(cgiwifi.o)
 .debug_frame   0x0000000000001ca4      0x1bc build/app_app.a(tinyprintf.o)
 .debug_frame   0x0000000000001e60       0xa8 build/app_app.a(unix_time.o)
 .debug_frame   0x0000000000001f08       0xa8 build/app_app.a(cgi.o)
 .debug_frame   0x0000000000001fb0       0x6c build/app_app.a(httpdespfs.o)
 .debug_frame   0x000000000000201c       0x90 build/app_app.a(espfs.o)
 .debug_frame   0x00000000000020ac       0xf4 build/app_app.a(heatshrink_decoder.o)
 .debug_frame   0x00000000000021a0       0x98 build/app_app.a(utils.o)
 .debug_frame   0x0000000000002238       0xb8 build/app_app.a(hmac-sha256.o)
 .debug_frame   0x00000000000022f0       0x50 build/app_app.a(gpio16.o)
 .debug_frame   0x0000000000002340       0x40 build/app_app.a(ringbuf.o)
 .debug_frame   0x0000000000002380       0x50 /home/stoffer/esp8266/esp-open-sdk/xtensa-lx106-elf/lib/gcc/xtensa-lx106-elf/4.8.5/../../../../xtensa-lx106-elf/lib/libc.a(lib_a-atoi.o)
 .debug_frame   0x00000000000023d0       0x30 /home/stoffer/esp8266/esp-open-sdk/xtensa-lx106-elf/lib/gcc/xtensa-lx106-elf/4.8.5/../../../../xtensa-lx106-elf/lib/libc.a(lib_a-gmtime.o)
 .debug_frame   0x0000000000002400       0x30 /home/stoffer/esp8266/esp-open-sdk/xtensa-lx106-elf/lib/gcc/xtensa-lx106-elf/4.8.5/../../../../xtensa-lx106-elf/lib/libc.a(lib_a-gmtime_r.o)
 .debug_frame   0x0000000000002430       0x64 /home/stoffer/esp8266/esp-open-sdk/xtensa-lx106-elf/lib/gcc/xtensa-lx106-elf/4.8.5/../../../../xtensa-lx106-elf/lib/libc.a(lib_a-mktm_r.o)
 .debug_frame   0x0000000000002494       0x20 /home/stoffer/esp8266/esp-open-sdk/xtensa-lx106-elf/lib/gcc/xtensa-lx106-elf/4.8.5/../../../../xtensa-lx106-elf/lib/libc.a(lib_a-strcat.o)
 .debug_frame   0x00000000000024b4       0x30 /home/stoffer/esp8266/esp-open-sdk/xtensa-lx106-elf/lib/gcc/xtensa-lx106-elf/4.8.5/../../../../xtensa-lx106-elf/lib/libc.a(lib_a-strtok.o)
 .debug_frame   0x00000000000024e4       0x40 /home/stoffer/esp8266/esp-open-sdk/xtensa-lx106-elf/lib/gcc/xtensa-lx106-elf/4.8.5/../../../../xtensa-lx106-elf/lib/libc.a(lib_a-strtok_r.o)
 .debug_frame   0x0000000000002524       0x5c /home/stoffer/esp8266/esp-open-sdk/xtensa-lx106-elf/lib/gcc/xtensa-lx106-elf/4.8.5/../../../../xtensa-lx106-elf/lib/libc.a(lib_a-strtol.o)
 .debug_frame   0x0000000000002580       0x30 /home/stoffer/esp8266/esp-open-sdk/xtensa-lx106-elf/lib/gcc/xtensa-lx106-elf/4.8.5/../../../../xtensa-lx106-elf/lib/libc.a(lib_a-tzlock.o)
 .debug_frame   0x00000000000025b0       0x20 /home/stoffer/esp8266/esp-open-sdk/xtensa-lx106-elf/lib/gcc/xtensa-lx106-elf/4.8.5/../../../../xtensa-lx106-elf/lib/libc.a(lib_a-gettzinfo.o)
 .debug_frame   0x00000000000025d0       0x30 /home/stoffer/esp8266/esp-open-sdk/xtensa-lx106-elf/lib/gcc/xtensa-lx106-elf/4.8.5/../../../../xtensa-lx106-elf/lib/libc.a(lib_a-sysgettod.o)

.debug_loc      0x0000000000000000     0xb466
 .debug_loc     0x0000000000000000       0x86 /home/stoffer/esp8266/esp-open-sdk/xtensa-lx106-elf/lib/gcc/xtensa-lx106-elf/4.8.5/../../../../xtensa-lx106-elf/lib/libc.a(lib_a-memchr.o)
 .debug_loc     0x0000000000000086      0x326 build/app_app.a(user_main.o)
 .debug_loc     0x00000000000003ac      0xb4c build/app_app.a(captdns.o)
 .debug_loc     0x0000000000000ef8       0x37 build/app_app.a(led.o)
 .debug_loc     0x0000000000000f2f       0xc6 build/app_app.a(httpd_user_init.o)
 .debug_loc     0x0000000000000ff5      0xcde build/app_app.a(httpd.o)
 .debug_loc     0x0000000000001cd3      0x2c5 build/app_app.a(crypto.o)
 .debug_loc     0x0000000000001f98     0x109c build/app_app.a(sha256.o)
 .debug_loc     0x0000000000003034     0x14df build/app_app.a(aes.o)
 .debug_loc     0x0000000000004513      0x19d build/app_app.a(kmp_request.o)
 .debug_loc     0x00000000000046b0      0xa9e build/app_app.a(kmp.o)
 .debug_loc     0x000000000000514e      0x28a build/app_app.a(cron.o)
 .debug_loc     0x00000000000053d8       0xd4 build/app_app.a(ac_out.o)
 .debug_loc     0x00000000000054ac      0x39a build/app_app.a(uart.o)
 .debug_loc     0x0000000000005846      0xaaf build/app_app.a(mqtt.o)
 .debug_loc     0x00000000000062f5      0xb99 build/app_app.a(mqtt_msg.o)
 .debug_loc     0x0000000000006e8e      0x178 build/app_app.a(queue.o)
 .debug_loc     0x0000000000007006      0x278 build/app_app.a(mqtt_utils.o)
 .debug_loc     0x000000000000727e      0x541 build/app_app.a(proto.o)
 .debug_loc     0x00000000000077bf       0x5b build/app_app.a(config.o)
 .debug_loc     0x000000000000781a      0x17b build/app_app.a(wifi.o)
 .debug_loc     0x0000000000007995      0x1ee build/app_app.a(watchdog.o)
 .debug_loc     0x0000000000007b83      0x3dc build/app_app.a(cgiwifi.o)
 .debug_loc     0x0000000000007f5f     0x108a build/app_app.a(tinyprintf.o)
 .debug_loc     0x0000000000008fe9       0x58 build/app_app.a(unix_time.o)
 .debug_loc     0x0000000000009041      0x18f build/app_app.a(cgi.o)
 .debug_loc     0x00000000000091d0      0x213 build/app_app.a(httpdespfs.o)
 .debug_loc     0x00000000000093e3      0x36f build/app_app.a(espfs.o)
 .debug_loc     0x0000000000009752      0x7ec build/app_app.a(heatshrink_decoder.o)
 .debug_loc     0x0000000000009f3e      0x584 build/app_app.a(utils.o)
 .debug_loc     0x000000000000a4c2      0x2f0 build/app_app.a(hmac-sha256.o)
 .debug_loc     0x000000000000a7b2       0x21 build/app_app.a(gpio16.o)
 .debug_loc     0x000000000000a7d3       0xd7 build/app_app.a(ringbuf.o)
 .debug_loc     0x000000000000a8aa       0x63 /home/stoffer/esp8266/esp-open-sdk/xtensa-lx106-elf/lib/gcc/xtensa-lx106-elf/4.8.5/../../../../xtensa-lx106-elf/lib/libc.a(lib_a-atoi.o)
 .debug_loc     0x000000000000a90d       0x21 /home/stoffer/esp8266/esp-open-sdk/xtensa-lx106-elf/lib/gcc/xtensa-lx106-elf/4.8.5/../../../../xtensa-lx106-elf/lib/libc.a(lib_a-gmtime.o)
 .debug_loc     0x000000000000a92e       0x42 /home/stoffer/esp8266/esp-open-sdk/xtensa-lx106-elf/lib/gcc/xtensa-lx106-elf/4.8.5/../../../../xtensa-lx106-elf/lib/libc.a(lib_a-gmtime_r.o)
 .debug_loc     0x000000000000a970      0x4b0 /home/stoffer/esp8266/esp-open-sdk/xtensa-lx106-elf/lib/gcc/xtensa-lx106-elf/4.8.5/../../../../xtensa-lx106-elf/lib/libc.a(lib_a-mktm_r.o)
 .debug_loc     0x000000000000ae20       0x75 /home/stoffer/esp8266/esp-open-sdk/xtensa-lx106-elf/lib/gcc/xtensa-lx106-elf/4.8.5/../../../../xtensa-lx106-elf/lib/libc.a(lib_a-strcat.o)
 .debug_loc     0x000000000000ae95       0x42 /home/stoffer/esp8266/esp-open-sdk/xtensa-lx106-elf/lib/gcc/xtensa-lx106-elf/4.8.5/../../../../xtensa-lx106-elf/lib/libc.a(lib_a-strtok.o)
 .debug_loc     0x000000000000aed7      0x1aa /home/stoffer/esp8266/esp-open-sdk/xtensa-lx106-elf/lib/gcc/xtensa-lx106-elf/4.8.5/../../../../xtensa-lx106-elf/lib/libc.a(lib_a-strtok_r.o)
 .debug_loc     0x000000000000b081      0x38d /home/stoffer/esp8266/esp-open-sdk/xtensa-lx106-elf/lib/gcc/xtensa-lx106-elf/4.8.5/../../../../xtensa-lx106-elf/lib/libc.a(lib_a-strtol.o)
 .debug_loc     0x000000000000b40e       0x58 /home/stoffer/esp8266/esp-open-sdk/xtensa-lx106-elf/lib/gcc/xtensa-lx106-elf/4.8.5/../../../../xtensa-lx106-elf/lib/libc.a(lib_a-sysgettod.o)

.debug_str      0x0000000000000000     0x48d6
 .debug_str     0x0000000000000000      0x104 /home/stoffer/esp8266/esp-open-sdk/xtensa-lx106-elf/lib/gcc/xtensa-lx106-elf/4.8.5/../../../../xtensa-lx106-elf/lib/libc.a(lib_a-memchr.o)
                                        0x144 (size before relaxing)
 .debug_str     0x0000000000000104     0x10f9 build/app_app.a(user_main.o)
                                       0x12e5 (size before relaxing)
 .debug_str     0x00000000000011fd      0x19d build/app_app.a(captdns.o)
                                        0x534 (size before relaxing)
 .debug_str     0x000000000000139a       0x80 build/app_app.a(led.o)
                                        0x241 (size before relaxing)
 .debug_str     0x000000000000141a       0xc5 build/app_app.a(httpd_user_init.o)
                                        0x3f8 (size before relaxing)
 .debug_str     0x00000000000014df      0x2e7 build/app_app.a(httpd.o)
                                        0x7a4 (size before relaxing)
 .debug_str     0x00000000000017c6      0x15a build/app_app.a(crypto.o)
                                        0x332 (size before relaxing)
 .debug_str     0x0000000000001920       0x94 build/app_app.a(sha256.o)
                                        0x238 (size before relaxing)
 .debug_str     0x00000000000019b4       0xc9 build/app_app.a(aes.o)
                                        0x281 (size before relaxing)
 .debug_str     0x0000000000001a7d      0x30d build/app_app.a(kmp_request.o)
                                        0xcb4 (size before relaxing)
 .debug_str     0x0000000000001d8a      0x178 build/app_app.a(kmp.o)
                                        0x487 (size before relaxing)
 .debug_str     0x0000000000001f02       0x95 build/app_app.a(cron.o)
                                        0x47f (size before relaxing)
 .debug_str     0x0000000000001f97       0xcf build/app_app.a(ac_out.o)
                                        0x439 (size before relaxing)
 .debug_str     0x0000000000002066      0x35d build/app_app.a(uart.o)
                                        0x677 (size before relaxing)
 .debug_str     0x00000000000023c3      0x652 build/app_app.a(mqtt.o)
                                       0x10cb (size before relaxing)
 .debug_str     0x0000000000002a15      0x182 build/app_app.a(mqtt_msg.o)
                                        0x682 (size before relaxing)
 .debug_str     0x0000000000002b97       0x65 build/app_app.a(queue.o)
                                        0x20d (size before relaxing)
 .debug_str     0x0000000000002bfc       0x4d build/app_app.a(mqtt_utils.o)
                                        0x193 (size before relaxing)
 .debug_str     0x0000000000002c49       0xb7 build/app_app.a(proto.o)
                                        0x225 (size before relaxing)
 .debug_str     0x0000000000002d00       0xb4 build/app_app.a(config.o)
                                        0x43c (size before relaxing)
 .debug_str     0x0000000000002db4      0x579 build/app_app.a(wifi.o)
                                        0xa62 (size before relaxing)
 .debug_str     0x000000000000332d      0x10b build/app_app.a(watchdog.o)
                                        0x403 (size before relaxing)
 .debug_str     0x0000000000003438       0xda build/app_app.a(cgiwifi.o)
                                        0x827 (size before relaxing)
 .debug_str     0x0000000000003512      0x156 build/app_app.a(tinyprintf.o)
                                        0x2c1 (size before relaxing)
 .debug_str     0x0000000000003668       0xf8 build/app_app.a(unix_time.o)
                                        0x2f5 (size before relaxing)
 .debug_str     0x0000000000003760       0x49 build/app_app.a(cgi.o)
                                        0x45b (size before relaxing)
 .debug_str     0x00000000000037a9       0x7d build/app_app.a(httpdespfs.o)
                                        0x46a (size before relaxing)
 .debug_str     0x0000000000003826      0x2c5 build/app_app.a(espfs.o)
                                        0x48f (size before relaxing)
 .debug_str     0x0000000000003aeb      0x215 build/app_app.a(heatshrink_decoder.o)
                                        0x5a9 (size before relaxing)
 .debug_str     0x0000000000003d00       0x71 build/app_app.a(utils.o)
                                        0x225 (size before relaxing)
 .debug_str     0x0000000000003d71       0x37 build/app_app.a(hmac-sha256.o)
                                        0x23e (size before relaxing)
 .debug_str     0x0000000000003da8       0x22 build/app_app.a(gpio16.o)
                                        0x188 (size before relaxing)
 .debug_str     0x0000000000003dca        0xf build/app_app.a(ringbuf.o)
                                        0x164 (size before relaxing)
 .debug_str     0x0000000000003dd9      0x3f8 /home/stoffer/esp8266/esp-open-sdk/xtensa-lx106-elf/lib/gcc/xtensa-lx106-elf/4.8.5/../../../../xtensa-lx106-elf/lib/libc.a(lib_a-atoi.o)
                                        0x4f8 (size before relaxing)
 .debug_str     0x00000000000041d1       0x71 /home/stoffer/esp8266/esp-open-sdk/xtensa-lx106-elf/lib/gcc/xtensa-lx106-elf/4.8.5/../../../../xtensa-lx106-elf/lib/libc.a(lib_a-gmtime.o)
                                        0x549 (size before relaxing)
 .debug_str     0x0000000000004242       0x6c /home/stoffer/esp8266/esp-open-sdk/xtensa-lx106-elf/lib/gcc/xtensa-lx106-elf/4.8.5/../../../../xtensa-lx106-elf/lib/libc.a(lib_a-gmtime_r.o)
                                        0x18a (size before relaxing)
 .debug_str     0x00000000000042ae       0x82 /home/stoffer/esp8266/esp-open-sdk/xtensa-lx106-elf/lib/gcc/xtensa-lx106-elf/4.8.5/../../../../xtensa-lx106-elf/lib/libc.a(lib_a-impure.o)
                                        0x506 (size before relaxing)
 .debug_str     0x0000000000004330      0x157 /home/stoffer/esp8266/esp-open-sdk/xtensa-lx106-elf/lib/gcc/xtensa-lx106-elf/4.8.5/../../../../xtensa-lx106-elf/lib/libc.a(lib_a-mktm_r.o)
                                        0x293 (size before relaxing)
 .debug_str     0x0000000000004487       0x64 /home/stoffer/esp8266/esp-open-sdk/xtensa-lx106-elf/lib/gcc/xtensa-lx106-elf/4.8.5/../../../../xtensa-lx106-elf/lib/libc.a(lib_a-strcat.o)
                                        0x12d (size before relaxing)
 .debug_str     0x00000000000044eb       0x6f /home/stoffer/esp8266/esp-open-sdk/xtensa-lx106-elf/lib/gcc/xtensa-lx106-elf/4.8.5/../../../../xtensa-lx106-elf/lib/libc.a(lib_a-strtok.o)
                                        0x500 (size before relaxing)
 .debug_str     0x000000000000455a       0x8a /home/stoffer/esp8266/esp-open-sdk/xtensa-lx106-elf/lib/gcc/xtensa-lx106-elf/4.8.5/../../../../xtensa-lx106-elf/lib/libc.a(lib_a-strtok_r.o)
                                        0x166 (size before relaxing)
 .debug_str     0x00000000000045e4       0x91 /home/stoffer/esp8266/esp-open-sdk/xtensa-lx106-elf/lib/gcc/xtensa-lx106-elf/4.8.5/../../../../xtensa-lx106-elf/lib/libc.a(lib_a-strtol.o)
                                        0x52b (size before relaxing)
 .debug_str     0x0000000000004675       0x73 /home/stoffer/esp8266/esp-open-sdk/xtensa-lx106-elf/lib/gcc/xtensa-lx106-elf/4.8.5/../../../../xtensa-lx106-elf/lib/libc.a(lib_a-tzlock.o)
                                        0x14b (size before relaxing)
 .debug_str     0x00000000000046e8       0x6a /home/stoffer/esp8266/esp-open-sdk/xtensa-lx106-elf/lib/gcc/xtensa-lx106-elf/4.8.5/../../../../xtensa-lx106-elf/lib/libc.a(lib_a-tzvars.o)
                                        0x140 (size before relaxing)
 .debug_str     0x0000000000004752       0x6b /home/stoffer/esp8266/esp-open-sdk/xtensa-lx106-elf/lib/gcc/xtensa-lx106-elf/4.8.5/../../../../xtensa-lx106-elf/lib/libc.a(lib_a-ctype_.o)
                                         0xb7 (size before relaxing)
 .debug_str     0x00000000000047bd       0x65 /home/stoffer/esp8266/esp-open-sdk/xtensa-lx106-elf/lib/gcc/xtensa-lx106-elf/4.8.5/../../../../xtensa-lx106-elf/lib/libc.a(lib_a-gettzinfo.o)
                                        0x1a7 (size before relaxing)
 .debug_str     0x0000000000004822       0xb4 /home/stoffer/esp8266/esp-open-sdk/xtensa-lx106-elf/lib/gcc/xtensa-lx106-elf/4.8.5/../../../../xtensa-lx106-elf/lib/libc.a(lib_a-sysgettod.o)
                                        0x547 (size before relaxing)

.debug_ranges   0x0000000000000000     0x12f8
 .debug_ranges  0x0000000000000000       0x68 build/app_app.a(user_main.o)
 .debug_ranges  0x0000000000000068      0x228 build/app_app.a(captdns.o)
 .debug_ranges  0x0000000000000290       0x40 build/app_app.a(led.o)
 .debug_ranges  0x00000000000002d0       0xf0 build/app_app.a(httpd.o)
 .debug_ranges  0x00000000000003c0       0x20 build/app_app.a(crypto.o)
 .debug_ranges  0x00000000000003e0       0x98 build/app_app.a(sha256.o)
 .debug_ranges  0x0000000000000478      0x4a0 build/app_app.a(aes.o)
 .debug_ranges  0x0000000000000918       0xb0 build/app_app.a(kmp_request.o)
 .debug_ranges  0x00000000000009c8       0xe8 build/app_app.a(kmp.o)
 .debug_ranges  0x0000000000000ab0       0x28 build/app_app.a(cron.o)
 .debug_ranges  0x0000000000000ad8       0x60 build/app_app.a(ac_out.o)
 .debug_ranges  0x0000000000000b38       0xd8 build/app_app.a(uart.o)
 .debug_ranges  0x0000000000000c10      0x120 build/app_app.a(mqtt.o)
 .debug_ranges  0x0000000000000d30      0x118 build/app_app.a(mqtt_msg.o)
 .debug_ranges  0x0000000000000e48       0x28 build/app_app.a(queue.o)
 .debug_ranges  0x0000000000000e70       0x38 build/app_app.a(mqtt_utils.o)
 .debug_ranges  0x0000000000000ea8       0x58 build/app_app.a(proto.o)
 .debug_ranges  0x0000000000000f00       0x28 build/app_app.a(config.o)
 .debug_ranges  0x0000000000000f28       0x78 build/app_app.a(wifi.o)
 .debug_ranges  0x0000000000000fa0       0x50 build/app_app.a(watchdog.o)
 .debug_ranges  0x0000000000000ff0       0x38 build/app_app.a(cgiwifi.o)
 .debug_ranges  0x0000000000001028       0xf8 build/app_app.a(tinyprintf.o)
 .debug_ranges  0x0000000000001120       0x30 build/app_app.a(unix_time.o)
 .debug_ranges  0x0000000000001150       0x28 build/app_app.a(cgi.o)
 .debug_ranges  0x0000000000001178       0x18 build/app_app.a(httpdespfs.o)
 .debug_ranges  0x0000000000001190       0x28 build/app_app.a(espfs.o)
 .debug_ranges  0x00000000000011b8       0x80 build/app_app.a(heatshrink_decoder.o)
 .debug_ranges  0x0000000000001238       0x30 build/app_app.a(utils.o)
 .debug_ranges  0x0000000000001268       0x28 build/app_app.a(hmac-sha256.o)
 .debug_ranges  0x0000000000001290       0x28 build/app_app.a(gpio16.o)
 .debug_ranges  0x00000000000012b8       0x20 build/app_app.a(ringbuf.o)
 .debug_ranges  0x00000000000012d8       0x20 /home/stoffer/esp8266/esp-open-sdk/xtensa-lx106-elf/lib/gcc/xtensa-lx106-elf/4.8.5/../../../../xtensa-lx106-elf/lib/libc.a(lib_a-mktm_r.o)

Cross Reference Table

Symbol                                            File
AES128_CBC_decrypt_buffer                         build/app_app.a(aes.o)
                                                  build/app_app.a(crypto.o)
AES128_CBC_encrypt_buffer                         build/app_app.a(aes.o)
                                                  build/app_app.a(crypto.o)
APRecvBcnStartTick                                /home/stoffer/esp8266/esp-open-sdk/sdk/lib/libnet80211.a(ieee80211_hostap.o)
                                                  /home/stoffer/esp8266/esp-open-sdk/sdk/lib/libpp.a(pp.o)
ApFreqCalTimer                                    /home/stoffer/esp8266/esp-open-sdk/sdk/lib/libnet80211.a(ieee80211_hostap.o)
BcnEb_update                                      /home/stoffer/esp8266/esp-open-sdk/sdk/lib/libnet80211.a(ieee80211_hostap.o)
                                                  /home/stoffer/esp8266/esp-open-sdk/sdk/lib/libnet80211.a(wl_cnx.o)
                                                  /home/stoffer/esp8266/esp-open-sdk/sdk/lib/libnet80211.a(wl_chm.o)
                                                  /home/stoffer/esp8266/esp-open-sdk/sdk/lib/libnet80211.a(ieee80211_mesh_quick.o)
                                                  /home/stoffer/esp8266/esp-open-sdk/sdk/lib/libmain.a(user_interface.o)
BcnWithMcastSendCnt                               /home/stoffer/esp8266/esp-open-sdk/sdk/lib/libnet80211.a(ieee80211_hostap.o)
                                                  /home/stoffer/esp8266/esp-open-sdk/sdk/lib/libpp.a(pp.o)
BcnWithMcastSendStart                             /home/stoffer/esp8266/esp-open-sdk/sdk/lib/libnet80211.a(ieee80211_hostap.o)
Cache_Read_Disable                                /home/stoffer/esp8266/esp-open-sdk/sdk/lib/libmain.a(user_interface.o)
                                                  /home/stoffer/esp8266/esp-open-sdk/sdk/lib/libmain.a(spi_flash.o)
Cache_Read_Disable_2                              /home/stoffer/esp8266/esp-open-sdk/sdk/lib/libmain.a(spi_flash.o)
Cache_Read_Enable                                 /home/stoffer/esp8266/esp-open-sdk/sdk/lib/libmain.a(app_main.o)
Cache_Read_Enable_2                               /home/stoffer/esp8266/esp-open-sdk/sdk/lib/libmain.a(spi_flash.o)
Cache_Read_Enable_New                             /home/stoffer/esp8266/esp-open-sdk/sdk/lib/libmain.a(app_main.o)
                                                  /home/stoffer/esp8266/esp-open-sdk/sdk/lib/libpp.a(pp.o)
                                                  /home/stoffer/esp8266/esp-open-sdk/sdk/lib/libmain.a(spi_flash.o)
                                                  /home/stoffer/esp8266/esp-open-sdk/sdk/lib/libmain.a(mem_manager.o)
CanDoFreqCal                                      /home/stoffer/esp8266/esp-open-sdk/sdk/lib/libpp.a(pp.o)
                                                  /home/stoffer/esp8266/esp-open-sdk/sdk/lib/libnet80211.a(ieee80211_hostap.o)
DefFreqCalTimer                                   /home/stoffer/esp8266/esp-open-sdk/sdk/lib/libpp.a(pp.o)
                                                  /home/stoffer/esp8266/esp-open-sdk/sdk/lib/libnet80211.a(ieee80211_hostap.o)
DefFreqCalTimerCB                                 /home/stoffer/esp8266/esp-open-sdk/sdk/lib/libpp.a(pp.o)
                                                  /home/stoffer/esp8266/esp-open-sdk/sdk/lib/libnet80211.a(ieee80211_hostap.o)
Enable_QMode                                      /home/stoffer/esp8266/esp-open-sdk/sdk/lib/libmain.a(spi_flash.o)
FreqCalCntForScan                                 /home/stoffer/esp8266/esp-open-sdk/sdk/lib/libnet80211.a(ieee80211_scan.o)
                                                  /home/stoffer/esp8266/esp-open-sdk/sdk/lib/libnet80211.a(ieee80211_sta.o)
GetAccess                                         /home/stoffer/esp8266/esp-open-sdk/sdk/lib/libpp.a(lmac.o)
                                                  /home/stoffer/esp8266/esp-open-sdk/sdk/lib/libpp.a(pp.o)
HdlAllBuffedEb                                    /home/stoffer/esp8266/esp-open-sdk/sdk/lib/libpp.a(pp.o)
                                                  /home/stoffer/esp8266/esp-open-sdk/sdk/lib/libnet80211.a(ieee80211_hostap.o)
HighestFreqOffsetInOneChk                         /home/stoffer/esp8266/esp-open-sdk/sdk/lib/libpp.a(pp.o)
                                                  /home/stoffer/esp8266/esp-open-sdk/sdk/lib/libnet80211.a(ieee80211_hostap.o)
LightSleepWakedCbSetFunc                          /home/stoffer/esp8266/esp-open-sdk/sdk/lib/libpp.a(pm.o)
LowestFreqOffsetInOneChk                          /home/stoffer/esp8266/esp-open-sdk/sdk/lib/libpp.a(pp.o)
                                                  /home/stoffer/esp8266/esp-open-sdk/sdk/lib/libnet80211.a(ieee80211_hostap.o)
MQTT_Connect                                      build/app_app.a(mqtt.o)
                                                  build/app_app.a(user_main.o)
MQTT_DeleteClient                                 build/app_app.a(mqtt.o)
MQTT_Disconnect                                   build/app_app.a(mqtt.o)
MQTT_InitClient                                   build/app_app.a(mqtt.o)
                                                  build/app_app.a(user_main.o)
MQTT_InitConnection                               build/app_app.a(mqtt.o)
                                                  build/app_app.a(user_main.o)
MQTT_InitLWT                                      build/app_app.a(mqtt.o)
                                                  build/app_app.a(user_main.o)
MQTT_OnConnected                                  build/app_app.a(mqtt.o)
                                                  build/app_app.a(user_main.o)
MQTT_OnData                                       build/app_app.a(mqtt.o)
                                                  build/app_app.a(user_main.o)
MQTT_OnDisconnected                               build/app_app.a(mqtt.o)
                                                  build/app_app.a(user_main.o)
MQTT_OnPublished                                  build/app_app.a(mqtt.o)
                                                  build/app_app.a(user_main.o)
MQTT_OnTimeout                                    build/app_app.a(mqtt.o)
                                                  build/app_app.a(user_main.o)
MQTT_Ping                                         build/app_app.a(mqtt.o)
MQTT_Publish                                      build/app_app.a(mqtt.o)
                                                  build/app_app.a(kmp_request.o)
                                                  build/app_app.a(user_main.o)
MQTT_Subscribe                                    build/app_app.a(mqtt.o)
                                                  build/app_app.a(user_main.o)
MQTT_Task                                         build/app_app.a(mqtt.o)
MQTT_UnSubscribe                                  build/app_app.a(mqtt.o)
NMI_Handler                                       /home/stoffer/esp8266/esp-open-sdk/sdk/lib/libmain.a(app_main.o)
                                                  /home/stoffer/esp8266/esp-open-sdk/sdk/lib/libmain.a(nmi-vector.o)
NmiTimSetFunc                                     /home/stoffer/esp8266/esp-open-sdk/sdk/lib/libmain.a(app_main.o)
NoiseTimerInterval                                /home/stoffer/esp8266/esp-open-sdk/sdk/lib/libpp.a(pp.o)
                                                  /home/stoffer/esp8266/esp-open-sdk/sdk/lib/libnet80211.a(ieee80211_hostap.o)
OpmodChgIsOnGoing                                 /home/stoffer/esp8266/esp-open-sdk/sdk/lib/libmain.a(user_interface.o)
PPWdtReset                                        /home/stoffer/esp8266/esp-open-sdk/sdk/lib/libpp.a(pp.o)
                                                  /home/stoffer/esp8266/esp-open-sdk/sdk/lib/libpp.a(wdev.o)
PROTO_Add                                         build/app_app.a(proto.o)
PROTO_AddRb                                       build/app_app.a(proto.o)
                                                  build/app_app.a(queue.o)
PROTO_Init                                        build/app_app.a(proto.o)
PROTO_Parse                                       build/app_app.a(proto.o)
PROTO_ParseByte                                   build/app_app.a(proto.o)
PROTO_ParseRb                                     build/app_app.a(proto.o)
                                                  build/app_app.a(queue.o)
PendFreeBcnEb                                     /home/stoffer/esp8266/esp-open-sdk/sdk/lib/libnet80211.a(ieee80211_hostap.o)
                                                  /home/stoffer/esp8266/esp-open-sdk/sdk/lib/libpp.a(pp.o)
PktNumInOneChk                                    /home/stoffer/esp8266/esp-open-sdk/sdk/lib/libpp.a(pp.o)
                                                  /home/stoffer/esp8266/esp-open-sdk/sdk/lib/libnet80211.a(ieee80211_hostap.o)
QUEUE_Gets                                        build/app_app.a(queue.o)
                                                  build/app_app.a(mqtt.o)
QUEUE_Init                                        build/app_app.a(queue.o)
                                                  build/app_app.a(mqtt.o)
QUEUE_IsEmpty                                     build/app_app.a(queue.o)
                                                  build/app_app.a(mqtt.o)
QUEUE_Puts                                        build/app_app.a(queue.o)
                                                  build/app_app.a(mqtt.o)
RC_GetAckRate                                     /home/stoffer/esp8266/esp-open-sdk/sdk/lib/libpp.a(rate_control.o)
RC_GetAckTime                                     /home/stoffer/esp8266/esp-open-sdk/sdk/lib/libpp.a(rate_control.o)
                                                  /home/stoffer/esp8266/esp-open-sdk/sdk/lib/libpp.a(pp.o)
                                                  /home/stoffer/esp8266/esp-open-sdk/sdk/lib/libpp.a(lmac.o)
RC_GetBlockAckTime                                /home/stoffer/esp8266/esp-open-sdk/sdk/lib/libpp.a(rate_control.o)
                                                  /home/stoffer/esp8266/esp-open-sdk/sdk/lib/libpp.a(pp.o)
RC_GetCtsTime                                     /home/stoffer/esp8266/esp-open-sdk/sdk/lib/libpp.a(rate_control.o)
                                                  /home/stoffer/esp8266/esp-open-sdk/sdk/lib/libpp.a(pp.o)
RC_GetRtsRate                                     /home/stoffer/esp8266/esp-open-sdk/sdk/lib/libpp.a(rate_control.o)
RC_SetBasicRate                                   /home/stoffer/esp8266/esp-open-sdk/sdk/lib/libpp.a(rate_control.o)
                                                  /home/stoffer/esp8266/esp-open-sdk/sdk/lib/libpp.a(lmac.o)
RFChannelSel                                      /home/stoffer/esp8266/esp-open-sdk/sdk/lib/libphy.a(phy.o)
RINGBUF_Get                                       build/app_app.a(ringbuf.o)
                                                  build/app_app.a(proto.o)
RINGBUF_Init                                      build/app_app.a(ringbuf.o)
                                                  build/app_app.a(queue.o)
RINGBUF_Put                                       build/app_app.a(ringbuf.o)
                                                  build/app_app.a(proto.o)
RxNodeNum                                         /home/stoffer/esp8266/esp-open-sdk/sdk/lib/libpp.a(pp.o)
                                                  /home/stoffer/esp8266/esp-open-sdk/sdk/lib/liblwip.a(tcp_in.o)
                                                  /home/stoffer/esp8266/esp-open-sdk/sdk/lib/libnet80211.a(ieee80211_hostap.o)
SDIO_slp_reject                                   /home/stoffer/esp8266/esp-open-sdk/sdk/lib/libphy.a(phy_sleep.o)
SDK_VERSION                                       /home/stoffer/esp8266/esp-open-sdk/sdk/lib/libmain.a(app_main.o)
                                                  /home/stoffer/esp8266/esp-open-sdk/sdk/lib/libmain.a(user_interface.o)
SPIEraseSector                                    /home/stoffer/esp8266/esp-open-sdk/sdk/lib/libmain.a(spi_flash.o)
SPIRead                                           /home/stoffer/esp8266/esp-open-sdk/sdk/lib/libmain.a(spi_flash.o)
                                                  /home/stoffer/esp8266/esp-open-sdk/sdk/lib/libmain.a(app_main.o)
SPIWrite                                          /home/stoffer/esp8266/esp-open-sdk/sdk/lib/libmain.a(spi_flash.o)
SPI_read_status                                   /home/stoffer/esp8266/esp-open-sdk/sdk/lib/libmain.a(spi_flash.o)
SPI_write_enable                                  /home/stoffer/esp8266/esp-open-sdk/sdk/lib/libmain.a(spi_flash.o)
SPI_write_status                                  /home/stoffer/esp8266/esp-open-sdk/sdk/lib/libmain.a(spi_flash.o)
StopLightSleepSetFunc                             /home/stoffer/esp8266/esp-open-sdk/sdk/lib/libpp.a(pm.o)
Te0                                               /home/stoffer/esp8266/esp-open-sdk/sdk/lib/libwpa.a(aes-internal.o)
                                                  /home/stoffer/esp8266/esp-open-sdk/sdk/lib/libwpa.a(aes-internal-enc.o)
TestStaFreqCalValInput                            /home/stoffer/esp8266/esp-open-sdk/sdk/lib/libnet80211.a(ieee80211_scan.o)
                                                  /home/stoffer/esp8266/esp-open-sdk/sdk/lib/libpp.a(pp.o)
                                                  /home/stoffer/esp8266/esp-open-sdk/sdk/lib/libnet80211.a(ieee80211_output.o)
                                                  /home/stoffer/esp8266/esp-open-sdk/sdk/lib/libnet80211.a(ieee80211_hostap.o)
                                                  /home/stoffer/esp8266/esp-open-sdk/sdk/lib/libmain.a(app_main.o)
TmpSTAAPCloseAP                                   /home/stoffer/esp8266/esp-open-sdk/sdk/lib/libnet80211.a(ieee80211_hostap.o)
                                                  /home/stoffer/esp8266/esp-open-sdk/sdk/lib/libpp.a(pp.o)
TxNodeNum                                         /home/stoffer/esp8266/esp-open-sdk/sdk/lib/libpp.a(pp.o)
Tx_Copy2Queue                                     /home/stoffer/esp8266/esp-open-sdk/sdk/lib/libpp.a(wdev.o)
                                                  /home/stoffer/esp8266/esp-open-sdk/sdk/lib/libpp.a(lmac.o)
UTILS_Atoh                                        build/app_app.a(mqtt_utils.o)
UTILS_IsIPV4                                      build/app_app.a(mqtt_utils.o)
UTILS_StrToIP                                     build/app_app.a(mqtt_utils.o)
                                                  build/app_app.a(mqtt.o)
UartDev                                           build/app_app.a(uart.o)
Uart_Init                                         /home/stoffer/esp8266/esp-open-sdk/sdk/lib/libphy.a(phy_chip_v6.o)
Wait_SPI_Idle                                     /home/stoffer/esp8266/esp-open-sdk/sdk/lib/libpp.a(pp.o)
                                                  /home/stoffer/esp8266/esp-open-sdk/sdk/lib/libmain.a(user_interface.o)
                                                  /home/stoffer/esp8266/esp-open-sdk/sdk/lib/libmain.a(spi_flash.o)
                                                  /home/stoffer/esp8266/esp-open-sdk/sdk/lib/libmain.a(mem_manager.o)
                                                  /home/stoffer/esp8266/esp-open-sdk/sdk/lib/libmain.a(app_main.o)
WdevTimOffSet                                     /home/stoffer/esp8266/esp-open-sdk/sdk/lib/libpp.a(wdev.o)
                                                  /home/stoffer/esp8266/esp-open-sdk/sdk/lib/libpp.a(pm_for_bcn_only_mode.o)
                                                  /home/stoffer/esp8266/esp-open-sdk/sdk/lib/libpp.a(pm.o)
                                                  /home/stoffer/esp8266/esp-open-sdk/sdk/lib/libmain.a(user_interface.o)
_DebugExceptionVector                             /home/stoffer/esp8266/esp-open-sdk/sdk/lib/libmain.a(debug-vector.o)
_DoubleExceptionVector                            /home/stoffer/esp8266/esp-open-sdk/sdk/lib/libmain.a(double-vector.o)
_KernelExceptionVector                            /home/stoffer/esp8266/esp-open-sdk/sdk/lib/libmain.a(kernel-vector.o)
_NMIExceptionVector                               /home/stoffer/esp8266/esp-open-sdk/sdk/lib/libmain.a(nmi-vector.o)
_NMILevelVector                                   /home/stoffer/esp8266/esp-open-sdk/sdk/lib/libmain.a(nmi-vector.o)
_Pri_3_HandlerAddress                             /home/stoffer/esp8266/esp-open-sdk/sdk/lib/libmain.a(nmi-vector.o)
_UserExceptionVector                              /home/stoffer/esp8266/esp-open-sdk/sdk/lib/libmain.a(user-vector.o)
_UserExceptionVector_1                            /home/stoffer/esp8266/esp-open-sdk/sdk/lib/libmain.a(user-vector.o)
__addsf3                                          /home/stoffer/esp8266/esp-open-sdk/sdk/lib/libphy.a(phy_chip_v6_ana.o)
__ashrdi3                                         /home/stoffer/esp8266/esp-open-sdk/sdk/lib/libgcc.a(_ashrdi3.o)
                                                  /home/stoffer/esp8266/esp-open-sdk/sdk/lib/libphy.a(phy_chip_v6.o)
__ctype_ptr__                                     /home/stoffer/esp8266/esp-open-sdk/xtensa-lx106-elf/lib/gcc/xtensa-lx106-elf/4.8.5/../../../../xtensa-lx106-elf/lib/libc.a(lib_a-ctype_.o)
                                                  /home/stoffer/esp8266/esp-open-sdk/xtensa-lx106-elf/lib/gcc/xtensa-lx106-elf/4.8.5/../../../../xtensa-lx106-elf/lib/libc.a(lib_a-strtol.o)
__divdf3                                          build/app_app.a(kmp.o)
                                                  /home/stoffer/esp8266/esp-open-sdk/sdk/lib/libphy.a(phy_chip_v6.o)
                                                  /home/stoffer/esp8266/esp-open-sdk/sdk/lib/libphy.a(phy_chip_v6_ana.o)
__divdi3                                          /home/stoffer/esp8266/esp-open-sdk/sdk/lib/libphy.a(phy_chip_v6_cal.o)
__divsf3                                          /home/stoffer/esp8266/esp-open-sdk/sdk/lib/libgcc.a(_divsf3.o)
                                                  /home/stoffer/esp8266/esp-open-sdk/sdk/lib/libphy.a(phy_chip_v6.o)
                                                  /home/stoffer/esp8266/esp-open-sdk/sdk/lib/libphy.a(phy_chip_v6_ana.o)
__divsi3                                          /home/stoffer/esp8266/esp-open-sdk/xtensa-lx106-elf/lib/gcc/xtensa-lx106-elf/4.8.5/../../../../xtensa-lx106-elf/lib/libc.a(lib_a-mktm_r.o)
                                                  /home/stoffer/esp8266/esp-open-sdk/sdk/lib/liblwip.a(sntp.o)
                                                  build/app_app.a(utils.o)
                                                  build/app_app.a(kmp.o)
                                                  /home/stoffer/esp8266/esp-open-sdk/sdk/lib/libphy.a(phy_chip_v6_cal.o)
                                                  /home/stoffer/esp8266/esp-open-sdk/sdk/lib/libphy.a(phy_chip_v6.o)
                                                  /home/stoffer/esp8266/esp-open-sdk/sdk/lib/libphy.a(phy_chip_v6_ana.o)
                                                  /home/stoffer/esp8266/esp-open-sdk/sdk/lib/libpp.a(pp.o)
                                                  /home/stoffer/esp8266/esp-open-sdk/sdk/lib/libpp.a(pm.o)
                                                  /home/stoffer/esp8266/esp-open-sdk/sdk/lib/liblwip.a(tcp_in.o)
                                                  /home/stoffer/esp8266/esp-open-sdk/sdk/lib/liblwip.a(dhcp.o)
                                                  /home/stoffer/esp8266/esp-open-sdk/sdk/lib/libwpa.a(wpa_auth.o)
                                                  /home/stoffer/esp8266/esp-open-sdk/sdk/lib/libnet80211.a(ieee80211_regdomain.o)
                                                  /home/stoffer/esp8266/esp-open-sdk/sdk/lib/libnet80211.a(ieee80211.o)
                                                  /home/stoffer/esp8266/esp-open-sdk/sdk/lib/libmain.a(user_interface.o)
__fixdfsi                                         /home/stoffer/esp8266/esp-open-sdk/sdk/lib/libphy.a(phy_chip_v6.o)
__fixsfsi                                         /home/stoffer/esp8266/esp-open-sdk/sdk/lib/libgcc.a(_fixsfsi.o)
                                                  /home/stoffer/esp8266/esp-open-sdk/sdk/lib/libphy.a(phy_chip_v6.o)
__fixunssfsi                                      /home/stoffer/esp8266/esp-open-sdk/sdk/lib/libphy.a(phy_chip_v6_ana.o)
__floatsidf                                       build/app_app.a(kmp.o)
                                                  /home/stoffer/esp8266/esp-open-sdk/sdk/lib/libphy.a(phy_chip_v6.o)
__floatsisf                                       /home/stoffer/esp8266/esp-open-sdk/sdk/lib/libphy.a(phy_chip_v6.o)
                                                  /home/stoffer/esp8266/esp-open-sdk/sdk/lib/libphy.a(phy_chip_v6_ana.o)
__floatunsidf                                     /home/stoffer/esp8266/esp-open-sdk/sdk/lib/libphy.a(phy_chip_v6_ana.o)
__floatunsisf                                     /home/stoffer/esp8266/esp-open-sdk/sdk/lib/libphy.a(phy_chip_v6.o)
__gettzinfo                                       /home/stoffer/esp8266/esp-open-sdk/xtensa-lx106-elf/lib/gcc/xtensa-lx106-elf/4.8.5/../../../../xtensa-lx106-elf/lib/libc.a(lib_a-gettzinfo.o)
                                                  /home/stoffer/esp8266/esp-open-sdk/xtensa-lx106-elf/lib/gcc/xtensa-lx106-elf/4.8.5/../../../../xtensa-lx106-elf/lib/libc.a(lib_a-mktm_r.o)
__modsi3                                          /home/stoffer/esp8266/esp-open-sdk/sdk/lib/libgcc.a(_modsi3.o)
                                                  /home/stoffer/esp8266/esp-open-sdk/xtensa-lx106-elf/lib/gcc/xtensa-lx106-elf/4.8.5/../../../../xtensa-lx106-elf/lib/libc.a(lib_a-mktm_r.o)
                                                  /home/stoffer/esp8266/esp-open-sdk/sdk/lib/liblwip.a(sntp.o)
                                                  build/app_app.a(cron.o)
                                                  /home/stoffer/esp8266/esp-open-sdk/sdk/lib/libphy.a(phy_chip_v6.o)
                                                  /home/stoffer/esp8266/esp-open-sdk/sdk/lib/libwpa.a(wpa_auth.o)
                                                  /home/stoffer/esp8266/esp-open-sdk/sdk/lib/libnet80211.a(ieee80211_ht.o)
__muldf3                                          build/app_app.a(kmp.o)
                                                  /home/stoffer/esp8266/esp-open-sdk/sdk/lib/libphy.a(phy_chip_v6.o)
__muldi3                                          /home/stoffer/esp8266/esp-open-sdk/sdk/lib/libmain.a(time.o)
                                                  build/app_app.a(tinyprintf.o)
                                                  /home/stoffer/esp8266/esp-open-sdk/sdk/lib/libphy.a(phy_chip_v6_cal.o)
                                                  /home/stoffer/esp8266/esp-open-sdk/sdk/lib/libphy.a(phy_chip_v6.o)
                                                  /home/stoffer/esp8266/esp-open-sdk/sdk/lib/libmain.a(user_interface.o)
__mulsf3                                          /home/stoffer/esp8266/esp-open-sdk/sdk/lib/libgcc.a(_mulsf3.o)
                                                  /home/stoffer/esp8266/esp-open-sdk/sdk/lib/libphy.a(phy_chip_v6.o)
                                                  /home/stoffer/esp8266/esp-open-sdk/sdk/lib/libphy.a(phy_chip_v6_ana.o)
__strtok_r                                        /home/stoffer/esp8266/esp-open-sdk/xtensa-lx106-elf/lib/gcc/xtensa-lx106-elf/4.8.5/../../../../xtensa-lx106-elf/lib/libc.a(lib_a-strtok_r.o)
                                                  /home/stoffer/esp8266/esp-open-sdk/xtensa-lx106-elf/lib/gcc/xtensa-lx106-elf/4.8.5/../../../../xtensa-lx106-elf/lib/libc.a(lib_a-strtok.o)
__subsf3                                          /home/stoffer/esp8266/esp-open-sdk/sdk/lib/libphy.a(phy_chip_v6_ana.o)
__truncdfsf2                                      /home/stoffer/esp8266/esp-open-sdk/sdk/lib/libphy.a(phy_chip_v6_ana.o)
__tz_lock                                         /home/stoffer/esp8266/esp-open-sdk/xtensa-lx106-elf/lib/gcc/xtensa-lx106-elf/4.8.5/../../../../xtensa-lx106-elf/lib/libc.a(lib_a-tzlock.o)
                                                  /home/stoffer/esp8266/esp-open-sdk/xtensa-lx106-elf/lib/gcc/xtensa-lx106-elf/4.8.5/../../../../xtensa-lx106-elf/lib/libc.a(lib_a-mktm_r.o)
__tz_unlock                                       /home/stoffer/esp8266/esp-open-sdk/xtensa-lx106-elf/lib/gcc/xtensa-lx106-elf/4.8.5/../../../../xtensa-lx106-elf/lib/libc.a(lib_a-tzlock.o)
                                                  /home/stoffer/esp8266/esp-open-sdk/xtensa-lx106-elf/lib/gcc/xtensa-lx106-elf/4.8.5/../../../../xtensa-lx106-elf/lib/libc.a(lib_a-mktm_r.o)
__tzcalc_limits                                   /home/stoffer/esp8266/esp-open-sdk/xtensa-lx106-elf/lib/gcc/xtensa-lx106-elf/4.8.5/../../../../xtensa-lx106-elf/lib/libc.a(lib_a-mktm_r.o)
__tznorth                                         /home/stoffer/esp8266/esp-open-sdk/sdk/lib/liblwip.a(sntp.o)
__tzyear                                          /home/stoffer/esp8266/esp-open-sdk/sdk/lib/liblwip.a(sntp.o)
__udivdi3                                         /home/stoffer/esp8266/esp-open-sdk/sdk/lib/libmain.a(time.o)
                                                  build/app_app.a(tinyprintf.o)
__udivsi3                                         /home/stoffer/esp8266/esp-open-sdk/sdk/lib/libmain.a(time.o)
                                                  /home/stoffer/esp8266/esp-open-sdk/xtensa-lx106-elf/lib/gcc/xtensa-lx106-elf/4.8.5/../../../../xtensa-lx106-elf/lib/libc.a(lib_a-strtol.o)
                                                  /home/stoffer/esp8266/esp-open-sdk/sdk/lib/liblwip.a(sntp.o)
                                                  build/app_app.a(utils.o)
                                                  build/app_app.a(tinyprintf.o)
                                                  build/app_app.a(uart.o)
                                                  build/app_app.a(kmp.o)
                                                  /home/stoffer/esp8266/esp-open-sdk/sdk/lib/libphy.a(phy_sleep.o)
                                                  /home/stoffer/esp8266/esp-open-sdk/sdk/lib/libphy.a(phy_chip_v6_cal.o)
                                                  /home/stoffer/esp8266/esp-open-sdk/sdk/lib/libphy.a(phy_chip_v6.o)
                                                  /home/stoffer/esp8266/esp-open-sdk/sdk/lib/libpp.a(wdev.o)
                                                  /home/stoffer/esp8266/esp-open-sdk/sdk/lib/libpp.a(trc.o)
                                                  /home/stoffer/esp8266/esp-open-sdk/sdk/lib/libpp.a(pp.o)
                                                  /home/stoffer/esp8266/esp-open-sdk/sdk/lib/libpp.a(pm_for_bcn_only_mode.o)
                                                  /home/stoffer/esp8266/esp-open-sdk/sdk/lib/libpp.a(pm.o)
                                                  /home/stoffer/esp8266/esp-open-sdk/sdk/lib/liblwip.a(espconn.o)
                                                  /home/stoffer/esp8266/esp-open-sdk/sdk/lib/liblwip.a(timers.o)
                                                  /home/stoffer/esp8266/esp-open-sdk/sdk/lib/liblwip.a(tcp.o)
                                                  /home/stoffer/esp8266/esp-open-sdk/sdk/lib/liblwip.a(ip_addr.o)
                                                  /home/stoffer/esp8266/esp-open-sdk/sdk/lib/liblwip.a(dhcp.o)
                                                  /home/stoffer/esp8266/esp-open-sdk/sdk/lib/libnet80211.a(ieee80211_hostap.o)
                                                  /home/stoffer/esp8266/esp-open-sdk/sdk/lib/libnet80211.a(ieee80211.o)
                                                  /home/stoffer/esp8266/esp-open-sdk/sdk/lib/libmain.a(eagle_lib.o)
                                                  /home/stoffer/esp8266/esp-open-sdk/sdk/lib/libmain.a(user_interface.o)
                                                  /home/stoffer/esp8266/esp-open-sdk/sdk/lib/libmain.a(ets_timer.o)
                                                  /home/stoffer/esp8266/esp-open-sdk/sdk/lib/libmain.a(app_main.o)
__umoddi3                                         /home/stoffer/esp8266/esp-open-sdk/sdk/lib/libmain.a(time.o)
                                                  build/app_app.a(tinyprintf.o)
                                                  /home/stoffer/esp8266/esp-open-sdk/sdk/lib/libpp.a(pm.o)
__umodsi3                                         /home/stoffer/esp8266/esp-open-sdk/xtensa-lx106-elf/lib/gcc/xtensa-lx106-elf/4.8.5/../../../../xtensa-lx106-elf/lib/libc.a(lib_a-strtol.o)
                                                  build/app_app.a(utils.o)
                                                  build/app_app.a(tinyprintf.o)
                                                  /home/stoffer/esp8266/esp-open-sdk/sdk/lib/liblwip.a(igmp.o)
                                                  /home/stoffer/esp8266/esp-open-sdk/sdk/lib/liblwip.a(espconn.o)
                                                  /home/stoffer/esp8266/esp-open-sdk/sdk/lib/liblwip.a(espconn_buf.o)
                                                  /home/stoffer/esp8266/esp-open-sdk/sdk/lib/liblwip.a(tcp.o)
                                                  /home/stoffer/esp8266/esp-open-sdk/sdk/lib/liblwip.a(ip_addr.o)
                                                  /home/stoffer/esp8266/esp-open-sdk/sdk/lib/libmain.a(eagle_lib.o)
__wpa_send_eapol                                  /home/stoffer/esp8266/esp-open-sdk/sdk/lib/libwpa.a(wpa_auth.o)
_atoi_r                                           /home/stoffer/esp8266/esp-open-sdk/xtensa-lx106-elf/lib/gcc/xtensa-lx106-elf/4.8.5/../../../../xtensa-lx106-elf/lib/libc.a(lib_a-atoi.o)
_bss_end                                          /home/stoffer/esp8266/esp-open-sdk/sdk/lib/libmain.a(user_interface.o)
                                                  /home/stoffer/esp8266/esp-open-sdk/sdk/lib/libmain.a(app_main.o)
_bss_start                                        /home/stoffer/esp8266/esp-open-sdk/sdk/lib/libmain.a(user_interface.o)
                                                  /home/stoffer/esp8266/esp-open-sdk/sdk/lib/libmain.a(app_main.o)
_ctype_                                           /home/stoffer/esp8266/esp-open-sdk/xtensa-lx106-elf/lib/gcc/xtensa-lx106-elf/4.8.5/../../../../xtensa-lx106-elf/lib/libc.a(lib_a-ctype_.o)
_data_end                                         /home/stoffer/esp8266/esp-open-sdk/sdk/lib/libmain.a(user_interface.o)
_data_start                                       /home/stoffer/esp8266/esp-open-sdk/sdk/lib/libmain.a(user_interface.o)
_daylight                                         /home/stoffer/esp8266/esp-open-sdk/xtensa-lx106-elf/lib/gcc/xtensa-lx106-elf/4.8.5/../../../../xtensa-lx106-elf/lib/libc.a(lib_a-tzvars.o)
                                                  /home/stoffer/esp8266/esp-open-sdk/xtensa-lx106-elf/lib/gcc/xtensa-lx106-elf/4.8.5/../../../../xtensa-lx106-elf/lib/libc.a(lib_a-mktm_r.o)
_gettimeofday_r                                   /home/stoffer/esp8266/esp-open-sdk/sdk/lib/libmain.a(time.o)
                                                  /home/stoffer/esp8266/esp-open-sdk/xtensa-lx106-elf/lib/gcc/xtensa-lx106-elf/4.8.5/../../../../xtensa-lx106-elf/lib/libc.a(lib_a-sysgettod.o)
_global_impure_ptr                                /home/stoffer/esp8266/esp-open-sdk/xtensa-lx106-elf/lib/gcc/xtensa-lx106-elf/4.8.5/../../../../xtensa-lx106-elf/lib/libc.a(lib_a-impure.o)
_heap_start                                       /home/stoffer/esp8266/esp-open-sdk/sdk/lib/libmain.a(user_interface.o)
                                                  /home/stoffer/esp8266/esp-open-sdk/sdk/lib/libmain.a(mem_manager.o)
_impure_ptr                                       /home/stoffer/esp8266/esp-open-sdk/xtensa-lx106-elf/lib/gcc/xtensa-lx106-elf/4.8.5/../../../../xtensa-lx106-elf/lib/libc.a(lib_a-impure.o)
                                                  /home/stoffer/esp8266/esp-open-sdk/xtensa-lx106-elf/lib/gcc/xtensa-lx106-elf/4.8.5/../../../../xtensa-lx106-elf/lib/libc.a(lib_a-sysgettod.o)
                                                  /home/stoffer/esp8266/esp-open-sdk/xtensa-lx106-elf/lib/gcc/xtensa-lx106-elf/4.8.5/../../../../xtensa-lx106-elf/lib/libc.a(lib_a-strtol.o)
                                                  /home/stoffer/esp8266/esp-open-sdk/xtensa-lx106-elf/lib/gcc/xtensa-lx106-elf/4.8.5/../../../../xtensa-lx106-elf/lib/libc.a(lib_a-strtok.o)
                                                  /home/stoffer/esp8266/esp-open-sdk/xtensa-lx106-elf/lib/gcc/xtensa-lx106-elf/4.8.5/../../../../xtensa-lx106-elf/lib/libc.a(lib_a-gmtime.o)
_mktm_r                                           /home/stoffer/esp8266/esp-open-sdk/xtensa-lx106-elf/lib/gcc/xtensa-lx106-elf/4.8.5/../../../../xtensa-lx106-elf/lib/libc.a(lib_a-mktm_r.o)
                                                  /home/stoffer/esp8266/esp-open-sdk/xtensa-lx106-elf/lib/gcc/xtensa-lx106-elf/4.8.5/../../../../xtensa-lx106-elf/lib/libc.a(lib_a-gmtime_r.o)
_rodata_end                                       /home/stoffer/esp8266/esp-open-sdk/sdk/lib/libmain.a(user_interface.o)
_rodata_start                                     /home/stoffer/esp8266/esp-open-sdk/sdk/lib/libmain.a(user_interface.o)
_strtol_r                                         /home/stoffer/esp8266/esp-open-sdk/xtensa-lx106-elf/lib/gcc/xtensa-lx106-elf/4.8.5/../../../../xtensa-lx106-elf/lib/libc.a(lib_a-strtol.o)
                                                  /home/stoffer/esp8266/esp-open-sdk/xtensa-lx106-elf/lib/gcc/xtensa-lx106-elf/4.8.5/../../../../xtensa-lx106-elf/lib/libc.a(lib_a-atoi.o)
_timezone                                         /home/stoffer/esp8266/esp-open-sdk/xtensa-lx106-elf/lib/gcc/xtensa-lx106-elf/4.8.5/../../../../xtensa-lx106-elf/lib/libc.a(lib_a-tzvars.o)
_tzname                                           /home/stoffer/esp8266/esp-open-sdk/xtensa-lx106-elf/lib/gcc/xtensa-lx106-elf/4.8.5/../../../../xtensa-lx106-elf/lib/libc.a(lib_a-tzvars.o)
_xtos_set_exception_handler                       /home/stoffer/esp8266/esp-open-sdk/sdk/lib/libmain.a(app_main.o)
ac_motor_valve_close                              build/app_app.a(ac_out.o)
ac_motor_valve_open                               build/app_app.a(ac_out.o)
ac_off                                            build/app_app.a(ac_out.o)
                                                  build/app_app.a(cron.o)
                                                  build/app_app.a(user_main.o)
ac_out_init                                       build/app_app.a(ac_out.o)
                                                  build/app_app.a(user_main.o)
ac_pwm_duty_cycle                                 build/app_app.a(ac_out.o)
ac_pwm_state                                      build/app_app.a(ac_out.o)
ac_test                                           build/app_app.a(ac_out.o)
                                                  build/app_app.a(cron.o)
                                                  build/app_app.a(user_main.o)
ac_thermo_close                                   build/app_app.a(ac_out.o)
                                                  build/app_app.a(cron.o)
                                                  build/app_app.a(user_main.o)
ac_thermo_open                                    build/app_app.a(ac_out.o)
                                                  build/app_app.a(cron.o)
                                                  build/app_app.a(user_main.o)
ac_thermo_pwm                                     build/app_app.a(ac_out.o)
                                                  build/app_app.a(user_main.o)
adc_rand_noise                                    /home/stoffer/esp8266/esp-open-sdk/sdk/lib/libphy.a(phy_chip_v6.o)
                                                  /home/stoffer/esp8266/esp-open-sdk/sdk/lib/libphy.a(phy_sleep.o)
add_cron_job_from_query                           build/app_app.a(cron.o)
                                                  build/app_app.a(user_main.o)
add_watchdog                                      build/app_app.a(watchdog.o)
                                                  build/app_app.a(user_main.o)
aes_encrypt                                       /home/stoffer/esp8266/esp-open-sdk/sdk/lib/libwpa.a(aes-internal-enc.o)
                                                  /home/stoffer/esp8266/esp-open-sdk/sdk/lib/libwpa.a(aes-wrap.o)
aes_encrypt_deinit                                /home/stoffer/esp8266/esp-open-sdk/sdk/lib/libwpa.a(aes-internal-enc.o)
                                                  /home/stoffer/esp8266/esp-open-sdk/sdk/lib/libwpa.a(aes-wrap.o)
aes_encrypt_init                                  /home/stoffer/esp8266/esp-open-sdk/sdk/lib/libwpa.a(aes-internal-enc.o)
                                                  /home/stoffer/esp8266/esp-open-sdk/sdk/lib/libwpa.a(aes-wrap.o)
aes_key                                           build/app_app.a(crypto.o)
aes_unwrap                                        /home/stoffer/esp8266/esp-open-sdk/sdk/lib/libwpa.a(wpa.o)
aes_wrap                                          /home/stoffer/esp8266/esp-open-sdk/sdk/lib/libwpa.a(aes-wrap.o)
                                                  /home/stoffer/esp8266/esp-open-sdk/sdk/lib/libwpa.a(wpa_auth.o)
ant_switch_init                                   /home/stoffer/esp8266/esp-open-sdk/sdk/lib/libphy.a(phy_chip_v6.o)
atoi                                              /home/stoffer/esp8266/esp-open-sdk/xtensa-lx106-elf/lib/gcc/xtensa-lx106-elf/4.8.5/../../../../xtensa-lx106-elf/lib/libc.a(lib_a-atoi.o)
                                                  build/app_app.a(utils.o)
                                                  build/app_app.a(cgi.o)
                                                  build/app_app.a(cgiwifi.o)
                                                  build/app_app.a(cron.o)
                                                  build/app_app.a(kmp_request.o)
                                                  build/app_app.a(httpd.o)
                                                  build/app_app.a(user_main.o)
auth_type                                         /home/stoffer/esp8266/esp-open-sdk/sdk/lib/libnet80211.a(ieee80211_scan.o)
                                                  /home/stoffer/esp8266/esp-open-sdk/sdk/lib/libnet80211.a(wl_cnx.o)
backup_ni_connect_status                          /home/stoffer/esp8266/esp-open-sdk/sdk/lib/libnet80211.a(wl_cnx.o)
bb_init                                           /home/stoffer/esp8266/esp-open-sdk/sdk/lib/libphy.a(phy.o)
bbpll_cal                                         /home/stoffer/esp8266/esp-open-sdk/sdk/lib/libphy.a(phy_chip_v6.o)
                                                  /home/stoffer/esp8266/esp-open-sdk/sdk/lib/libphy.a(phy_chip_v6_ana.o)
bbpll_cal_flag                                    /home/stoffer/esp8266/esp-open-sdk/sdk/lib/libphy.a(phy_chip_v6.o)
                                                  /home/stoffer/esp8266/esp-open-sdk/sdk/lib/libphy.a(phy_sleep.o)
bit_popcount                                      /home/stoffer/esp8266/esp-open-sdk/sdk/lib/libmain.a(eagle_lib.o)
                                                  /home/stoffer/esp8266/esp-open-sdk/sdk/lib/libpp.a(trc.o)
                                                  /home/stoffer/esp8266/esp-open-sdk/sdk/lib/libpp.a(if_hwctrl.o)
boot_time                                         build/app_app.a(unix_time.o)
buffed_eb_arr                                     /home/stoffer/esp8266/esp-open-sdk/sdk/lib/libpp.a(pp.o)
builtInUrls                                       build/app_app.a(httpd_user_init.o)
cal_rf_ana_gain                                   /home/stoffer/esp8266/esp-open-sdk/sdk/lib/libphy.a(phy_chip_v6_cal.o)
                                                  /home/stoffer/esp8266/esp-open-sdk/sdk/lib/libphy.a(phy_chip_v6.o)
call_user_start                                   /home/stoffer/esp8266/esp-open-sdk/sdk/lib/libmain.a(vector.o)
call_user_start_local                             /home/stoffer/esp8266/esp-open-sdk/sdk/lib/libmain.a(app_main.o)
                                                  /home/stoffer/esp8266/esp-open-sdk/sdk/lib/libmain.a(vector.o)
cannel_scan_connect_state                         /home/stoffer/esp8266/esp-open-sdk/sdk/lib/libnet80211.a(ieee80211_scan.o)
captdnsInit                                       build/app_app.a(captdns.o)
                                                  build/app_app.a(user_main.o)
ccit_crc16                                        build/app_app.a(utils.o)
                                                  build/app_app.a(config.o)
                                                  build/app_app.a(kmp.o)
ccit_crc16_table                                  build/app_app.a(utils.o)
ccmp                                              /home/stoffer/esp8266/esp-open-sdk/sdk/lib/libnet80211.a(ieee80211_crypto_ccmp.o)
                                                  /home/stoffer/esp8266/esp-open-sdk/sdk/lib/libwpa.a(wpa_main.o)
                                                  /home/stoffer/esp8266/esp-open-sdk/sdk/lib/libwpa.a(wpa_auth.o)
                                                  /home/stoffer/esp8266/esp-open-sdk/sdk/lib/libnet80211.a(ieee80211_action_vendor.o)
                                                  /home/stoffer/esp8266/esp-open-sdk/sdk/lib/libnet80211.a(ieee80211_action.o)
                                                  /home/stoffer/esp8266/esp-open-sdk/sdk/lib/libnet80211.a(ieee80211_input.o)
cfg_load                                          build/app_app.a(config.o)
                                                  build/app_app.a(cgiwifi.o)
                                                  build/app_app.a(user_main.o)
cfg_save                                          build/app_app.a(config.o)
                                                  build/app_app.a(cgiwifi.o)
cfg_save_defered                                  build/app_app.a(config.o)
                                                  build/app_app.a(ac_out.o)
                                                  build/app_app.a(cron.o)
cgiEspFsHook                                      build/app_app.a(httpdespfs.o)
                                                  build/app_app.a(httpd_user_init.o)
cgiEspFsTemplate                                  build/app_app.a(httpdespfs.o)
                                                  build/app_app.a(httpd_user_init.o)
cgiLed                                            build/app_app.a(cgi.o)
                                                  build/app_app.a(httpd_user_init.o)
cgiReadFlash                                      build/app_app.a(cgi.o)
                                                  build/app_app.a(httpd_user_init.o)
cgiRedirect                                       build/app_app.a(httpd.o)
                                                  build/app_app.a(httpd_user_init.o)
cgiSetup                                          build/app_app.a(cgiwifi.o)
                                                  build/app_app.a(httpd_user_init.o)
cgiWiFiScan                                       build/app_app.a(cgiwifi.o)
                                                  build/app_app.a(httpd_user_init.o)
cgiWifiAps                                        build/app_app.a(cgiwifi.o)
cgiWifiSetMode                                    build/app_app.a(cgiwifi.o)
                                                  build/app_app.a(httpd_user_init.o)
change_bbpll160                                   /home/stoffer/esp8266/esp-open-sdk/sdk/lib/libphy.a(phy_chip_v6.o)
                                                  /home/stoffer/esp8266/esp-open-sdk/sdk/lib/libphy.a(phy_sleep.o)
change_bbpll160_sleep                             /home/stoffer/esp8266/esp-open-sdk/sdk/lib/libphy.a(phy_chip_v6.o)
check_data_flag                                   /home/stoffer/esp8266/esp-open-sdk/sdk/lib/libphy.a(phy_chip_v6_ana.o)
check_data_func                                   /home/stoffer/esp8266/esp-open-sdk/sdk/lib/libphy.a(phy_chip_v6.o)
check_memleak_debug_enable                        /home/stoffer/esp8266/esp-open-sdk/sdk/lib/libmain.a(mem_manager.o)
check_result                                      /home/stoffer/esp8266/esp-open-sdk/sdk/lib/libphy.a(phy_chip_v6.o)
                                                  /home/stoffer/esp8266/esp-open-sdk/sdk/lib/libphy.a(phy_chip_v6_cal.o)
check_timeouts_timer                              /home/stoffer/esp8266/esp-open-sdk/sdk/lib/libmain.a(app_main.o)
                                                  /home/stoffer/esp8266/esp-open-sdk/sdk/lib/libpp.a(pm_for_bcn_only_mode.o)
                                                  /home/stoffer/esp8266/esp-open-sdk/sdk/lib/libpp.a(pm.o)
check_tx_pwr_cal                                  /home/stoffer/esp8266/esp-open-sdk/sdk/lib/libphy.a(phy_chip_v6.o)
chg_lslp_mem_opt_8266                             /home/stoffer/esp8266/esp-open-sdk/sdk/lib/libphy.a(phy_sleep.o)
chip6_phy_init_ctrl                               /home/stoffer/esp8266/esp-open-sdk/sdk/lib/libphy.a(phy_chip_v6.o)
                                                  /home/stoffer/esp8266/esp-open-sdk/sdk/lib/libphy.a(phy_sleep.o)
                                                  /home/stoffer/esp8266/esp-open-sdk/sdk/lib/libphy.a(phy_chip_v6_cal.o)
                                                  /home/stoffer/esp8266/esp-open-sdk/sdk/lib/libphy.a(phy_chip_v6_ana.o)
                                                  /home/stoffer/esp8266/esp-open-sdk/sdk/lib/libpp.a(pp.o)
chip6_sleep_params                                /home/stoffer/esp8266/esp-open-sdk/sdk/lib/libphy.a(phy_chip_v6.o)
                                                  /home/stoffer/esp8266/esp-open-sdk/sdk/lib/libphy.a(phy_sleep.o)
                                                  /home/stoffer/esp8266/esp-open-sdk/sdk/lib/libphy.a(phy_chip_v6_cal.o)
                                                  /home/stoffer/esp8266/esp-open-sdk/sdk/lib/libphy.a(phy_chip_v6_ana.o)
chip_60_set_channel                               /home/stoffer/esp8266/esp-open-sdk/sdk/lib/libphy.a(phy_chip_v6_ana.o)
                                                  /home/stoffer/esp8266/esp-open-sdk/sdk/lib/libphy.a(phy_chip_v6.o)
chip_v6_get_sense                                 /home/stoffer/esp8266/esp-open-sdk/sdk/lib/libphy.a(phy_chip_v6_unused.o)
chip_v6_initialize_bb                             /home/stoffer/esp8266/esp-open-sdk/sdk/lib/libphy.a(phy_chip_v6.o)
chip_v6_rf_init                                   /home/stoffer/esp8266/esp-open-sdk/sdk/lib/libphy.a(phy_chip_v6_ana.o)
                                                  /home/stoffer/esp8266/esp-open-sdk/sdk/lib/libphy.a(phy_chip_v6.o)
chip_v6_rxmax_ext                                 /home/stoffer/esp8266/esp-open-sdk/sdk/lib/libphy.a(phy_chip_v6.o)
                                                  /home/stoffer/esp8266/esp-open-sdk/sdk/lib/libnet80211.a(ieee80211_sta.o)
chip_v6_rxmax_ext_ana                             /home/stoffer/esp8266/esp-open-sdk/sdk/lib/libphy.a(phy_chip_v6_ana.o)
                                                  /home/stoffer/esp8266/esp-open-sdk/sdk/lib/libphy.a(phy_chip_v6.o)
chip_v6_rxmax_ext_dig                             /home/stoffer/esp8266/esp-open-sdk/sdk/lib/libphy.a(phy_chip_v6.o)
chip_v6_set_chan                                  /home/stoffer/esp8266/esp-open-sdk/sdk/lib/libphy.a(phy_chip_v6_ana.o)
                                                  /home/stoffer/esp8266/esp-open-sdk/sdk/lib/libphy.a(phy_chip_v6.o)
chip_v6_set_chan_misc                             /home/stoffer/esp8266/esp-open-sdk/sdk/lib/libphy.a(phy_chip_v6.o)
                                                  /home/stoffer/esp8266/esp-open-sdk/sdk/lib/libphy.a(phy_chip_v6_ana.o)
chip_v6_set_chan_offset                           /home/stoffer/esp8266/esp-open-sdk/sdk/lib/libphy.a(phy_chip_v6_ana.o)
                                                  /home/stoffer/esp8266/esp-open-sdk/sdk/lib/libpp.a(pp.o)
                                                  /home/stoffer/esp8266/esp-open-sdk/sdk/lib/libnet80211.a(ieee80211_scan.o)
                                                  /home/stoffer/esp8266/esp-open-sdk/sdk/lib/libnet80211.a(ieee80211_hostap.o)
                                                  /home/stoffer/esp8266/esp-open-sdk/sdk/lib/libmain.a(app_main.o)
chip_v6_set_chan_rx_cmp                           /home/stoffer/esp8266/esp-open-sdk/sdk/lib/libphy.a(phy_chip_v6.o)
chip_v6_set_chan_wakeup                           /home/stoffer/esp8266/esp-open-sdk/sdk/lib/libphy.a(phy_chip_v6_ana.o)
chip_v6_set_chanfreq                              /home/stoffer/esp8266/esp-open-sdk/sdk/lib/libphy.a(phy_chip_v6.o)
chip_v6_set_sense                                 /home/stoffer/esp8266/esp-open-sdk/sdk/lib/libphy.a(phy_chip_v6_unused.o)
                                                  /home/stoffer/esp8266/esp-open-sdk/sdk/lib/libphy.a(phy_chip_v6.o)
chip_v6_unset_chanfreq                            /home/stoffer/esp8266/esp-open-sdk/sdk/lib/libphy.a(phy_chip_v6_unused.o)
                                                  /home/stoffer/esp8266/esp-open-sdk/sdk/lib/libphy.a(phy_chip_v6.o)
chip_version                                      /home/stoffer/esp8266/esp-open-sdk/sdk/lib/libphy.a(phy_sleep.o)
chm_acquire_lock                                  /home/stoffer/esp8266/esp-open-sdk/sdk/lib/libnet80211.a(wl_chm.o)
                                                  /home/stoffer/esp8266/esp-open-sdk/sdk/lib/libnet80211.a(wl_cnx.o)
                                                  /home/stoffer/esp8266/esp-open-sdk/sdk/lib/libnet80211.a(ieee80211_scan.o)
chm_cancel_op                                     /home/stoffer/esp8266/esp-open-sdk/sdk/lib/libnet80211.a(wl_chm.o)
                                                  /home/stoffer/esp8266/esp-open-sdk/sdk/lib/libnet80211.a(ieee80211_scan.o)
chm_check_same_channel                            /home/stoffer/esp8266/esp-open-sdk/sdk/lib/libnet80211.a(wl_chm.o)
                                                  /home/stoffer/esp8266/esp-open-sdk/sdk/lib/libnet80211.a(ieee80211_power.o)
                                                  /home/stoffer/esp8266/esp-open-sdk/sdk/lib/libnet80211.a(ieee80211_output.o)
                                                  /home/stoffer/esp8266/esp-open-sdk/sdk/lib/libnet80211.a(ieee80211_hostap.o)
chm_end_op                                        /home/stoffer/esp8266/esp-open-sdk/sdk/lib/libnet80211.a(wl_chm.o)
chm_freq2index                                    /home/stoffer/esp8266/esp-open-sdk/sdk/lib/libnet80211.a(wl_chm.o)
chm_get_current_channel                           /home/stoffer/esp8266/esp-open-sdk/sdk/lib/libnet80211.a(wl_chm.o)
                                                  /home/stoffer/esp8266/esp-open-sdk/sdk/lib/libpp.a(wdev.o)
                                                  /home/stoffer/esp8266/esp-open-sdk/sdk/lib/libpp.a(pp.o)
                                                  /home/stoffer/esp8266/esp-open-sdk/sdk/lib/libpp.a(pm.o)
                                                  /home/stoffer/esp8266/esp-open-sdk/sdk/lib/libnet80211.a(wl_cnx.o)
                                                  /home/stoffer/esp8266/esp-open-sdk/sdk/lib/libnet80211.a(ieee80211_scan.o)
                                                  /home/stoffer/esp8266/esp-open-sdk/sdk/lib/libnet80211.a(ieee80211_hostap.o)
                                                  /home/stoffer/esp8266/esp-open-sdk/sdk/lib/libmain.a(user_interface.o)
chm_init                                          /home/stoffer/esp8266/esp-open-sdk/sdk/lib/libnet80211.a(wl_chm.o)
                                                  /home/stoffer/esp8266/esp-open-sdk/sdk/lib/libnet80211.a(ieee80211.o)
chm_release_lock                                  /home/stoffer/esp8266/esp-open-sdk/sdk/lib/libnet80211.a(wl_chm.o)
                                                  /home/stoffer/esp8266/esp-open-sdk/sdk/lib/libnet80211.a(wl_cnx.o)
                                                  /home/stoffer/esp8266/esp-open-sdk/sdk/lib/libnet80211.a(ieee80211_scan.o)
chm_return_home_channel                           /home/stoffer/esp8266/esp-open-sdk/sdk/lib/libnet80211.a(wl_chm.o)
                                                  /home/stoffer/esp8266/esp-open-sdk/sdk/lib/libnet80211.a(wl_cnx.o)
                                                  /home/stoffer/esp8266/esp-open-sdk/sdk/lib/libnet80211.a(ieee80211_scan.o)
chm_set_current_channel                           /home/stoffer/esp8266/esp-open-sdk/sdk/lib/libnet80211.a(wl_chm.o)
                                                  /home/stoffer/esp8266/esp-open-sdk/sdk/lib/libnet80211.a(ieee80211_hostap.o)
                                                  /home/stoffer/esp8266/esp-open-sdk/sdk/lib/libmain.a(user_interface.o)
chm_start_op                                      /home/stoffer/esp8266/esp-open-sdk/sdk/lib/libnet80211.a(wl_chm.o)
                                                  /home/stoffer/esp8266/esp-open-sdk/sdk/lib/libnet80211.a(wl_cnx.o)
                                                  /home/stoffer/esp8266/esp-open-sdk/sdk/lib/libnet80211.a(ieee80211_scan.o)
clear_cron_jobs                                   build/app_app.a(cron.o)
                                                  build/app_app.a(user_main.o)
clockgate_watchdog                                /home/stoffer/esp8266/esp-open-sdk/sdk/lib/libphy.a(phy_sleep.o)
                                                  /home/stoffer/esp8266/esp-open-sdk/sdk/lib/libpp.a(pm_for_bcn_only_mode.o)
                                                  /home/stoffer/esp8266/esp-open-sdk/sdk/lib/libpp.a(pm.o)
                                                  /home/stoffer/esp8266/esp-open-sdk/sdk/lib/libmain.a(user_interface.o)
cnx_add_rc                                        /home/stoffer/esp8266/esp-open-sdk/sdk/lib/libnet80211.a(wl_cnx.o)
                                                  /home/stoffer/esp8266/esp-open-sdk/sdk/lib/libnet80211.a(ieee80211_scan.o)
cnx_assoc_timeout                                 /home/stoffer/esp8266/esp-open-sdk/sdk/lib/libnet80211.a(wl_cnx.o)
                                                  /home/stoffer/esp8266/esp-open-sdk/sdk/lib/libnet80211.a(ieee80211_sta.o)
cnx_attach                                        /home/stoffer/esp8266/esp-open-sdk/sdk/lib/libnet80211.a(wl_cnx.o)
                                                  /home/stoffer/esp8266/esp-open-sdk/sdk/lib/libmain.a(app_main.o)
cnx_auth_timeout                                  /home/stoffer/esp8266/esp-open-sdk/sdk/lib/libnet80211.a(wl_cnx.o)
                                                  /home/stoffer/esp8266/esp-open-sdk/sdk/lib/libnet80211.a(ieee80211_proto.o)
cnx_bss_alloc                                     /home/stoffer/esp8266/esp-open-sdk/sdk/lib/libnet80211.a(wl_cnx.o)
                                                  /home/stoffer/esp8266/esp-open-sdk/sdk/lib/libnet80211.a(ieee80211_scan.o)
cnx_connect_timeout                               /home/stoffer/esp8266/esp-open-sdk/sdk/lib/libnet80211.a(wl_cnx.o)
                                                  /home/stoffer/esp8266/esp-open-sdk/sdk/lib/libnet80211.a(ieee80211_sta.o)
                                                  /home/stoffer/esp8266/esp-open-sdk/sdk/lib/libnet80211.a(ieee80211_scan.o)
cnx_csa_fn                                        /home/stoffer/esp8266/esp-open-sdk/sdk/lib/libnet80211.a(wl_cnx.o)
                                                  /home/stoffer/esp8266/esp-open-sdk/sdk/lib/libnet80211.a(ieee80211_sta.o)
cnx_handshake_timeout                             /home/stoffer/esp8266/esp-open-sdk/sdk/lib/libnet80211.a(wl_cnx.o)
cnx_node_alloc                                    /home/stoffer/esp8266/esp-open-sdk/sdk/lib/libnet80211.a(wl_cnx.o)
                                                  /home/stoffer/esp8266/esp-open-sdk/sdk/lib/libnet80211.a(ieee80211_hostap.o)
cnx_node_join                                     /home/stoffer/esp8266/esp-open-sdk/sdk/lib/libnet80211.a(wl_cnx.o)
                                                  /home/stoffer/esp8266/esp-open-sdk/sdk/lib/libnet80211.a(ieee80211_hostap.o)
cnx_node_leave                                    /home/stoffer/esp8266/esp-open-sdk/sdk/lib/libnet80211.a(wl_cnx.o)
                                                  /home/stoffer/esp8266/esp-open-sdk/sdk/lib/libnet80211.a(ieee80211_hostap.o)
                                                  /home/stoffer/esp8266/esp-open-sdk/sdk/lib/libmain.a(user_interface.o)
cnx_node_remove                                   /home/stoffer/esp8266/esp-open-sdk/sdk/lib/libnet80211.a(wl_cnx.o)
cnx_node_search                                   /home/stoffer/esp8266/esp-open-sdk/sdk/lib/libnet80211.a(wl_cnx.o)
                                                  /home/stoffer/esp8266/esp-open-sdk/sdk/lib/libwpa.a(wpa_auth.o)
                                                  /home/stoffer/esp8266/esp-open-sdk/sdk/lib/libnet80211.a(ieee80211_output.o)
                                                  /home/stoffer/esp8266/esp-open-sdk/sdk/lib/libnet80211.a(ieee80211_hostap.o)
cnx_rc_search                                     /home/stoffer/esp8266/esp-open-sdk/sdk/lib/libnet80211.a(wl_cnx.o)
                                                  /home/stoffer/esp8266/esp-open-sdk/sdk/lib/libnet80211.a(ieee80211_scan.o)
cnx_rc_update_age                                 /home/stoffer/esp8266/esp-open-sdk/sdk/lib/libnet80211.a(wl_cnx.o)
                                                  /home/stoffer/esp8266/esp-open-sdk/sdk/lib/libnet80211.a(ieee80211_scan.o)
cnx_rc_update_rssi                                /home/stoffer/esp8266/esp-open-sdk/sdk/lib/libnet80211.a(wl_cnx.o)
                                                  /home/stoffer/esp8266/esp-open-sdk/sdk/lib/libnet80211.a(ieee80211_scan.o)
cnx_rc_update_state_metric                        /home/stoffer/esp8266/esp-open-sdk/sdk/lib/libnet80211.a(wl_cnx.o)
                                                  /home/stoffer/esp8266/esp-open-sdk/sdk/lib/libnet80211.a(ieee80211_scan.o)
cnx_remove_all_rc                                 /home/stoffer/esp8266/esp-open-sdk/sdk/lib/libnet80211.a(wl_cnx.o)
                                                  /home/stoffer/esp8266/esp-open-sdk/sdk/lib/libnet80211.a(ieee80211_sta.o)
cnx_remove_rc                                     /home/stoffer/esp8266/esp-open-sdk/sdk/lib/libnet80211.a(wl_cnx.o)
                                                  /home/stoffer/esp8266/esp-open-sdk/sdk/lib/libnet80211.a(ieee80211_scan.o)
cnx_sta_associated                                /home/stoffer/esp8266/esp-open-sdk/sdk/lib/libnet80211.a(wl_cnx.o)
                                                  /home/stoffer/esp8266/esp-open-sdk/sdk/lib/libnet80211.a(ieee80211_sta.o)
cnx_sta_connect_cmd                               /home/stoffer/esp8266/esp-open-sdk/sdk/lib/libnet80211.a(wl_cnx.o)
                                                  /home/stoffer/esp8266/esp-open-sdk/sdk/lib/libmain.a(user_interface.o)
cnx_sta_connect_led_timer_cb                      /home/stoffer/esp8266/esp-open-sdk/sdk/lib/libnet80211.a(wl_cnx.o)
cnx_sta_leave                                     /home/stoffer/esp8266/esp-open-sdk/sdk/lib/libnet80211.a(wl_cnx.o)
                                                  /home/stoffer/esp8266/esp-open-sdk/sdk/lib/libnet80211.a(ieee80211_sta.o)
cnx_sta_scan_cmd                                  /home/stoffer/esp8266/esp-open-sdk/sdk/lib/libnet80211.a(wl_cnx.o)
                                                  /home/stoffer/esp8266/esp-open-sdk/sdk/lib/libmain.a(user_interface.o)
cnx_start_handoff_cb                              /home/stoffer/esp8266/esp-open-sdk/sdk/lib/libnet80211.a(wl_cnx.o)
cnx_update_bss                                    /home/stoffer/esp8266/esp-open-sdk/sdk/lib/libnet80211.a(wl_cnx.o)
                                                  /home/stoffer/esp8266/esp-open-sdk/sdk/lib/libnet80211.a(ieee80211_scan.o)
cnx_update_bss_more                               /home/stoffer/esp8266/esp-open-sdk/sdk/lib/libnet80211.a(wl_cnx.o)
                                                  /home/stoffer/esp8266/esp-open-sdk/sdk/lib/libnet80211.a(ieee80211_scan.o)
configTime                                        /home/stoffer/esp8266/esp-open-sdk/sdk/lib/libmain.a(time.o)
config_pass                                       build/app_app.a(wifi.o)
config_save_timer_func                            build/app_app.a(config.o)
config_save_timer_running                         build/app_app.a(config.o)
config_ssid                                       build/app_app.a(wifi.o)
connect_scan_flag                                 /home/stoffer/esp8266/esp-open-sdk/sdk/lib/libnet80211.a(ieee80211_scan.o)
correct_rf_ana_gain                               /home/stoffer/esp8266/esp-open-sdk/sdk/lib/libphy.a(phy_chip_v6_cal.o)
counter                                           build/app_app.a(user_main.o)
cpu_overclock                                     /home/stoffer/esp8266/esp-open-sdk/sdk/lib/libmain.a(user_interface.o)
cron_init                                         build/app_app.a(cron.o)
                                                  build/app_app.a(user_main.o)
current_header                                    /home/stoffer/esp8266/esp-open-sdk/sdk/lib/liblwip.a(ip.o)
current_iphdr_dest                                /home/stoffer/esp8266/esp-open-sdk/sdk/lib/liblwip.a(ip.o)
                                                  /home/stoffer/esp8266/esp-open-sdk/sdk/lib/liblwip.a(icmp.o)
                                                  /home/stoffer/esp8266/esp-open-sdk/sdk/lib/liblwip.a(udp.o)
                                                  /home/stoffer/esp8266/esp-open-sdk/sdk/lib/liblwip.a(tcp_in.o)
                                                  /home/stoffer/esp8266/esp-open-sdk/sdk/lib/liblwip.a(raw.o)
current_iphdr_src                                 /home/stoffer/esp8266/esp-open-sdk/sdk/lib/liblwip.a(ip.o)
                                                  /home/stoffer/esp8266/esp-open-sdk/sdk/lib/liblwip.a(icmp.o)
                                                  /home/stoffer/esp8266/esp-open-sdk/sdk/lib/liblwip.a(udp.o)
                                                  /home/stoffer/esp8266/esp-open-sdk/sdk/lib/liblwip.a(tcp_in.o)
                                                  /home/stoffer/esp8266/esp-open-sdk/sdk/lib/liblwip.a(raw.o)
current_netif                                     /home/stoffer/esp8266/esp-open-sdk/sdk/lib/liblwip.a(ip.o)
current_unix_time                                 build/app_app.a(unix_time.o)
dbg_stop_hw_wdt                                   /home/stoffer/esp8266/esp-open-sdk/sdk/lib/libpp.a(pp.o)
dbg_stop_sw_wdt                                   /home/stoffer/esp8266/esp-open-sdk/sdk/lib/libpp.a(pp.o)
dbg_timer_flag                                    /home/stoffer/esp8266/esp-open-sdk/sdk/lib/libmain.a(ets_timer.o)
dcoindex2txbbgain                                 /home/stoffer/esp8266/esp-open-sdk/sdk/lib/libphy.a(phy_chip_v6_cal.o)
debug_timer                                       /home/stoffer/esp8266/esp-open-sdk/sdk/lib/libmain.a(ets_timer.o)
debug_timerfn                                     /home/stoffer/esp8266/esp-open-sdk/sdk/lib/libmain.a(ets_timer.o)
decimal_number_length                             build/app_app.a(utils.o)
                                                  build/app_app.a(kmp.o)
decrypt_aes_hmac_combined                         build/app_app.a(crypto.o)
                                                  build/app_app.a(user_main.o)
deep_sleep_flag                                   /home/stoffer/esp8266/esp-open-sdk/sdk/lib/libmain.a(user_interface.o)
deep_sleep_set_option                             /home/stoffer/esp8266/esp-open-sdk/sdk/lib/libphy.a(phy_chip_v6.o)
                                                  /home/stoffer/esp8266/esp-open-sdk/sdk/lib/libmain.a(user_interface.o)
default_certificate                               build/app_app.a(mqtt.o)
default_certificate_len                           build/app_app.a(mqtt.o)
default_hostname                                  /home/stoffer/esp8266/esp-open-sdk/sdk/lib/libmain.a(eagle_lwip_if.o)
                                                  /home/stoffer/esp8266/esp-open-sdk/sdk/lib/libmain.a(user_interface.o)
default_interface                                 /home/stoffer/esp8266/esp-open-sdk/sdk/lib/libmain.a(user_interface.o)
                                                  /home/stoffer/esp8266/esp-open-sdk/sdk/lib/liblwip.a(espconn_udp.o)
default_private_key                               build/app_app.a(mqtt.o)
default_private_key_len                           build/app_app.a(mqtt.o)
default_ssid                                      /home/stoffer/esp8266/esp-open-sdk/sdk/lib/libmain.a(user_interface.o)
dhcp_arp_reply                                    /home/stoffer/esp8266/esp-open-sdk/sdk/lib/liblwip.a(dhcp.o)
                                                  /home/stoffer/esp8266/esp-open-sdk/sdk/lib/liblwip.a(etharp.o)
dhcp_bind_check                                   /home/stoffer/esp8266/esp-open-sdk/sdk/lib/libwpa.a(wpa_main.o)
dhcp_cleanup                                      /home/stoffer/esp8266/esp-open-sdk/sdk/lib/liblwip.a(dhcp.o)
                                                  /home/stoffer/esp8266/esp-open-sdk/sdk/lib/libnet80211.a(wl_cnx.o)
                                                  /home/stoffer/esp8266/esp-open-sdk/sdk/lib/libmain.a(user_interface.o)
dhcp_coarse_tmr                                   /home/stoffer/esp8266/esp-open-sdk/sdk/lib/liblwip.a(dhcp.o)
                                                  /home/stoffer/esp8266/esp-open-sdk/sdk/lib/liblwip.a(timers.o)
dhcp_fine_tmr                                     /home/stoffer/esp8266/esp-open-sdk/sdk/lib/liblwip.a(dhcp.o)
                                                  /home/stoffer/esp8266/esp-open-sdk/sdk/lib/liblwip.a(timers.o)
dhcp_inform                                       /home/stoffer/esp8266/esp-open-sdk/sdk/lib/liblwip.a(dhcp.o)
dhcp_network_changed                              /home/stoffer/esp8266/esp-open-sdk/sdk/lib/liblwip.a(dhcp.o)
                                                  /home/stoffer/esp8266/esp-open-sdk/sdk/lib/liblwip.a(netif.o)
dhcp_release                                      /home/stoffer/esp8266/esp-open-sdk/sdk/lib/liblwip.a(dhcp.o)
                                                  /home/stoffer/esp8266/esp-open-sdk/sdk/lib/libnet80211.a(wl_cnx.o)
dhcp_renew                                        /home/stoffer/esp8266/esp-open-sdk/sdk/lib/liblwip.a(dhcp.o)
dhcp_rx_options_given                             /home/stoffer/esp8266/esp-open-sdk/sdk/lib/liblwip.a(dhcp.o)
dhcp_rx_options_val                               /home/stoffer/esp8266/esp-open-sdk/sdk/lib/liblwip.a(dhcp.o)
dhcp_set_struct                                   /home/stoffer/esp8266/esp-open-sdk/sdk/lib/liblwip.a(dhcp.o)
dhcp_start                                        /home/stoffer/esp8266/esp-open-sdk/sdk/lib/liblwip.a(dhcp.o)
                                                  /home/stoffer/esp8266/esp-open-sdk/sdk/lib/libwpa.a(wpa_main.o)
                                                  /home/stoffer/esp8266/esp-open-sdk/sdk/lib/libmain.a(user_interface.o)
dhcp_stop                                         /home/stoffer/esp8266/esp-open-sdk/sdk/lib/liblwip.a(dhcp.o)
                                                  /home/stoffer/esp8266/esp-open-sdk/sdk/lib/libnet80211.a(wl_cnx.o)
                                                  /home/stoffer/esp8266/esp-open-sdk/sdk/lib/libmain.a(user_interface.o)
dhcpc_flag                                        /home/stoffer/esp8266/esp-open-sdk/sdk/lib/libmain.a(user_interface.o)
                                                  /home/stoffer/esp8266/esp-open-sdk/sdk/lib/libwpa.a(wpa_main.o)
dhcps_coarse_tmr                                  /home/stoffer/esp8266/esp-open-sdk/sdk/lib/liblwip.a(dhcpserver.o)
                                                  /home/stoffer/esp8266/esp-open-sdk/sdk/lib/liblwip.a(timers.o)
dhcps_flag                                        /home/stoffer/esp8266/esp-open-sdk/sdk/lib/libmain.a(user_interface.o)
                                                  /home/stoffer/esp8266/esp-open-sdk/sdk/lib/libmain.a(eagle_lwip_if.o)
dhcps_lease_time                                  /home/stoffer/esp8266/esp-open-sdk/sdk/lib/liblwip.a(dhcpserver.o)
dhcps_start                                       /home/stoffer/esp8266/esp-open-sdk/sdk/lib/liblwip.a(dhcpserver.o)
                                                  /home/stoffer/esp8266/esp-open-sdk/sdk/lib/libmain.a(eagle_lwip_if.o)
                                                  /home/stoffer/esp8266/esp-open-sdk/sdk/lib/libmain.a(user_interface.o)
dhcps_stop                                        /home/stoffer/esp8266/esp-open-sdk/sdk/lib/liblwip.a(dhcpserver.o)
                                                  /home/stoffer/esp8266/esp-open-sdk/sdk/lib/libmain.a(eagle_lwip_if.o)
                                                  /home/stoffer/esp8266/esp-open-sdk/sdk/lib/libmain.a(user_interface.o)
divide                                            /home/stoffer/esp8266/esp-open-sdk/sdk/lib/libmain.a(eagle_lib.o)
dns_gethostbyname                                 /home/stoffer/esp8266/esp-open-sdk/sdk/lib/liblwip.a(dns.o)
                                                  /home/stoffer/esp8266/esp-open-sdk/sdk/lib/liblwip.a(sntp.o)
                                                  /home/stoffer/esp8266/esp-open-sdk/sdk/lib/liblwip.a(espconn.o)
dns_getserver                                     /home/stoffer/esp8266/esp-open-sdk/sdk/lib/liblwip.a(dns.o)
dns_init                                          /home/stoffer/esp8266/esp-open-sdk/sdk/lib/liblwip.a(dns.o)
                                                  /home/stoffer/esp8266/esp-open-sdk/sdk/lib/liblwip.a(init.o)
dns_setserver                                     /home/stoffer/esp8266/esp-open-sdk/sdk/lib/liblwip.a(dns.o)
                                                  /home/stoffer/esp8266/esp-open-sdk/sdk/lib/liblwip.a(espconn.o)
                                                  /home/stoffer/esp8266/esp-open-sdk/sdk/lib/liblwip.a(dhcp.o)
dns_tmr                                           /home/stoffer/esp8266/esp-open-sdk/sdk/lib/liblwip.a(dns.o)
                                                  /home/stoffer/esp8266/esp-open-sdk/sdk/lib/liblwip.a(timers.o)
do_noisefloor                                     /home/stoffer/esp8266/esp-open-sdk/sdk/lib/libphy.a(phy_chip_v6.o)
do_noisefloor_lsleep_v50                          /home/stoffer/esp8266/esp-open-sdk/sdk/lib/libphy.a(phy_chip_v6.o)
do_pwctrl_flag                                    /home/stoffer/esp8266/esp-open-sdk/sdk/lib/libphy.a(phy_chip_v6.o)
                                                  /home/stoffer/esp8266/esp-open-sdk/sdk/lib/libphy.a(phy_sleep.o)
done_cb                                           /home/stoffer/esp8266/esp-open-sdk/sdk/lib/libmain.a(user_interface.o)
                                                  /home/stoffer/esp8266/esp-open-sdk/sdk/lib/libmain.a(app_main.o)
dpd_bypass_original                               /home/stoffer/esp8266/esp-open-sdk/sdk/lib/libphy.a(phy_chip_v6.o)
dpd_mem_write                                     /home/stoffer/esp8266/esp-open-sdk/sdk/lib/libphy.a(phy_chip_v6_cal.o)
dpd_scale_set                                     /home/stoffer/esp8266/esp-open-sdk/sdk/lib/libphy.a(phy_chip_v6_cal.o)
                                                  /home/stoffer/esp8266/esp-open-sdk/sdk/lib/libphy.a(phy_chip_v6.o)
dup_binstr                                        /home/stoffer/esp8266/esp-open-sdk/sdk/lib/libwpa.a(common.o)
eagle_auth_done                                   /home/stoffer/esp8266/esp-open-sdk/sdk/lib/libwpa.a(wpa_main.o)
                                                  /home/stoffer/esp8266/esp-open-sdk/sdk/lib/libnet80211.a(ieee80211_sta.o)
eagle_lwip_getif                                  /home/stoffer/esp8266/esp-open-sdk/sdk/lib/libmain.a(eagle_lwip_if.o)
                                                  /home/stoffer/esp8266/esp-open-sdk/sdk/lib/liblwip.a(espconn_udp.o)
                                                  /home/stoffer/esp8266/esp-open-sdk/sdk/lib/liblwip.a(ip.o)
                                                  /home/stoffer/esp8266/esp-open-sdk/sdk/lib/liblwip.a(dhcpserver.o)
                                                  /home/stoffer/esp8266/esp-open-sdk/sdk/lib/libmain.a(user_interface.o)
eagle_lwip_if_alloc                               /home/stoffer/esp8266/esp-open-sdk/sdk/lib/libmain.a(eagle_lwip_if.o)
                                                  /home/stoffer/esp8266/esp-open-sdk/sdk/lib/libnet80211.a(ieee80211_sta.o)
                                                  /home/stoffer/esp8266/esp-open-sdk/sdk/lib/libnet80211.a(ieee80211_hostap.o)
eagle_lwip_if_free                                /home/stoffer/esp8266/esp-open-sdk/sdk/lib/libmain.a(eagle_lwip_if.o)
                                                  /home/stoffer/esp8266/esp-open-sdk/sdk/lib/libnet80211.a(ieee80211_hostap.o)
                                                  /home/stoffer/esp8266/esp-open-sdk/sdk/lib/libmain.a(user_interface.o)
eapol_txcb                                        /home/stoffer/esp8266/esp-open-sdk/sdk/lib/libwpa.a(wpa.o)
                                                  /home/stoffer/esp8266/esp-open-sdk/sdk/lib/libwpa.a(wpa_main.o)
eloop_cancel_timeout                              /home/stoffer/esp8266/esp-open-sdk/sdk/lib/libwpa.a(wpa_debug.o)
                                                  /home/stoffer/esp8266/esp-open-sdk/sdk/lib/libwpa.a(wpa.o)
                                                  /home/stoffer/esp8266/esp-open-sdk/sdk/lib/libwpa.a(wpa_auth.o)
eloop_register_timeout                            /home/stoffer/esp8266/esp-open-sdk/sdk/lib/libwpa.a(wpa_debug.o)
                                                  /home/stoffer/esp8266/esp-open-sdk/sdk/lib/libwpa.a(wpa.o)
                                                  /home/stoffer/esp8266/esp-open-sdk/sdk/lib/libwpa.a(wpa_auth.o)
encrypt_aes_hmac_combined                         build/app_app.a(crypto.o)
                                                  build/app_app.a(kmp_request.o)
                                                  build/app_app.a(user_main.o)
esf_buf_alloc                                     /home/stoffer/esp8266/esp-open-sdk/sdk/lib/libpp.a(esf_buf.o)
                                                  /home/stoffer/esp8266/esp-open-sdk/sdk/lib/libnet80211.a(ieee80211_ets.o)
                                                  /home/stoffer/esp8266/esp-open-sdk/sdk/lib/libnet80211.a(ieee80211_output.o)
esf_buf_recycle                                   /home/stoffer/esp8266/esp-open-sdk/sdk/lib/libpp.a(esf_buf.o)
                                                  /home/stoffer/esp8266/esp-open-sdk/sdk/lib/libpp.a(pp.o)
                                                  /home/stoffer/esp8266/esp-open-sdk/sdk/lib/libnet80211.a(ieee80211_power.o)
                                                  /home/stoffer/esp8266/esp-open-sdk/sdk/lib/libnet80211.a(ieee80211_output.o)
                                                  /home/stoffer/esp8266/esp-open-sdk/sdk/lib/libnet80211.a(ieee80211_hostap.o)
esf_buf_setup                                     /home/stoffer/esp8266/esp-open-sdk/sdk/lib/libpp.a(esf_buf.o)
                                                  /home/stoffer/esp8266/esp-open-sdk/sdk/lib/libpp.a(pp.o)
esf_rx_buf_alloc                                  /home/stoffer/esp8266/esp-open-sdk/sdk/lib/libpp.a(esf_buf.o)
                                                  /home/stoffer/esp8266/esp-open-sdk/sdk/lib/libpp.a(wdev.o)
espFsClose                                        build/app_app.a(espfs.o)
                                                  build/app_app.a(httpdespfs.o)
espFsOpen                                         build/app_app.a(espfs.o)
                                                  build/app_app.a(httpdespfs.o)
espFsRead                                         build/app_app.a(espfs.o)
                                                  build/app_app.a(httpdespfs.o)
espconn_TaskQueue                                 /home/stoffer/esp8266/esp-open-sdk/sdk/lib/liblwip.a(espconn_tcp.o)
espconn_abort                                     /home/stoffer/esp8266/esp-open-sdk/sdk/lib/liblwip.a(espconn.o)
espconn_accept                                    /home/stoffer/esp8266/esp-open-sdk/sdk/lib/liblwip.a(espconn.o)
                                                  build/app_app.a(httpd.o)
espconn_clear_opt                                 /home/stoffer/esp8266/esp-open-sdk/sdk/lib/liblwip.a(espconn.o)
espconn_connect                                   /home/stoffer/esp8266/esp-open-sdk/sdk/lib/liblwip.a(espconn.o)
                                                  build/app_app.a(mqtt.o)
espconn_copy_partial                              /home/stoffer/esp8266/esp-open-sdk/sdk/lib/liblwip.a(espconn.o)
                                                  /home/stoffer/esp8266/esp-open-sdk/sdk/lib/liblwip.a(espconn_tcp.o)
espconn_create                                    /home/stoffer/esp8266/esp-open-sdk/sdk/lib/liblwip.a(espconn.o)
                                                  build/app_app.a(captdns.o)
espconn_delete                                    /home/stoffer/esp8266/esp-open-sdk/sdk/lib/liblwip.a(espconn.o)
                                                  build/app_app.a(mqtt.o)
                                                  build/app_app.a(httpd.o)
espconn_disconnect                                /home/stoffer/esp8266/esp-open-sdk/sdk/lib/liblwip.a(espconn.o)
                                                  build/app_app.a(mqtt.o)
                                                  build/app_app.a(httpd.o)
espconn_dns_setserver                             /home/stoffer/esp8266/esp-open-sdk/sdk/lib/liblwip.a(espconn.o)
espconn_find_connection                           /home/stoffer/esp8266/esp-open-sdk/sdk/lib/liblwip.a(espconn.o)
                                                  /home/stoffer/esp8266/esp-open-sdk/sdk/lib/liblwip.a(espconn_tcp.o)
espconn_find_current_pcb                          /home/stoffer/esp8266/esp-open-sdk/sdk/lib/liblwip.a(espconn_tcp.o)
espconn_get_connection_info                       /home/stoffer/esp8266/esp-open-sdk/sdk/lib/liblwip.a(espconn.o)
                                                  build/app_app.a(captdns.o)
                                                  /home/stoffer/esp8266/esp-open-sdk/sdk/lib/liblwip.a(espconn_tcp.o)
espconn_get_keepalive                             /home/stoffer/esp8266/esp-open-sdk/sdk/lib/liblwip.a(espconn.o)
espconn_get_packet_info                           /home/stoffer/esp8266/esp-open-sdk/sdk/lib/liblwip.a(espconn.o)
espconn_gethostbyname                             /home/stoffer/esp8266/esp-open-sdk/sdk/lib/liblwip.a(espconn.o)
                                                  build/app_app.a(mqtt.o)
espconn_igmp_join                                 /home/stoffer/esp8266/esp-open-sdk/sdk/lib/liblwip.a(espconn_udp.o)
espconn_igmp_leave                                /home/stoffer/esp8266/esp-open-sdk/sdk/lib/liblwip.a(espconn_udp.o)
espconn_init                                      /home/stoffer/esp8266/esp-open-sdk/sdk/lib/liblwip.a(espconn_tcp.o)
                                                  /home/stoffer/esp8266/esp-open-sdk/sdk/lib/libmain.a(app_main.o)
espconn_kill_oldest_pcb                           /home/stoffer/esp8266/esp-open-sdk/sdk/lib/liblwip.a(espconn_tcp.o)
espconn_kill_pcb                                  /home/stoffer/esp8266/esp-open-sdk/sdk/lib/liblwip.a(espconn_tcp.o)
espconn_list_creat                                /home/stoffer/esp8266/esp-open-sdk/sdk/lib/liblwip.a(espconn.o)
                                                  /home/stoffer/esp8266/esp-open-sdk/sdk/lib/liblwip.a(espconn_udp.o)
                                                  /home/stoffer/esp8266/esp-open-sdk/sdk/lib/liblwip.a(espconn_tcp.o)
espconn_list_delete                               /home/stoffer/esp8266/esp-open-sdk/sdk/lib/liblwip.a(espconn.o)
                                                  /home/stoffer/esp8266/esp-open-sdk/sdk/lib/liblwip.a(espconn_udp.o)
                                                  /home/stoffer/esp8266/esp-open-sdk/sdk/lib/liblwip.a(espconn_tcp.o)
espconn_lock_recv                                 /home/stoffer/esp8266/esp-open-sdk/sdk/lib/liblwip.a(espconn_tcp.o)
espconn_pbuf_create                               /home/stoffer/esp8266/esp-open-sdk/sdk/lib/liblwip.a(espconn.o)
espconn_pbuf_delete                               /home/stoffer/esp8266/esp-open-sdk/sdk/lib/liblwip.a(espconn.o)
                                                  /home/stoffer/esp8266/esp-open-sdk/sdk/lib/liblwip.a(espconn_tcp.o)
espconn_port                                      /home/stoffer/esp8266/esp-open-sdk/sdk/lib/liblwip.a(espconn.o)
                                                  build/app_app.a(mqtt.o)
espconn_recv                                      /home/stoffer/esp8266/esp-open-sdk/sdk/lib/liblwip.a(espconn.o)
espconn_recv_hold                                 /home/stoffer/esp8266/esp-open-sdk/sdk/lib/liblwip.a(espconn_tcp.o)
espconn_recv_unhold                               /home/stoffer/esp8266/esp-open-sdk/sdk/lib/liblwip.a(espconn_tcp.o)
                                                  /home/stoffer/esp8266/esp-open-sdk/sdk/lib/liblwip.a(espconn.o)
espconn_regist_connectcb                          /home/stoffer/esp8266/esp-open-sdk/sdk/lib/liblwip.a(espconn.o)
                                                  build/app_app.a(mqtt.o)
                                                  build/app_app.a(httpd.o)
espconn_regist_disconcb                           /home/stoffer/esp8266/esp-open-sdk/sdk/lib/liblwip.a(espconn.o)
                                                  build/app_app.a(mqtt.o)
                                                  build/app_app.a(httpd.o)
espconn_regist_reconcb                            /home/stoffer/esp8266/esp-open-sdk/sdk/lib/liblwip.a(espconn.o)
                                                  build/app_app.a(mqtt.o)
                                                  build/app_app.a(httpd.o)
espconn_regist_recvcb                             /home/stoffer/esp8266/esp-open-sdk/sdk/lib/liblwip.a(espconn.o)
                                                  build/app_app.a(mqtt.o)
                                                  build/app_app.a(httpd.o)
                                                  build/app_app.a(captdns.o)
espconn_regist_sentcb                             /home/stoffer/esp8266/esp-open-sdk/sdk/lib/liblwip.a(espconn.o)
                                                  build/app_app.a(mqtt.o)
                                                  build/app_app.a(httpd.o)
espconn_regist_time                               /home/stoffer/esp8266/esp-open-sdk/sdk/lib/liblwip.a(espconn.o)
espconn_regist_write_finish                       /home/stoffer/esp8266/esp-open-sdk/sdk/lib/liblwip.a(espconn.o)
espconn_send                                      /home/stoffer/esp8266/esp-open-sdk/sdk/lib/liblwip.a(espconn.o)
                                                  build/app_app.a(mqtt.o)
espconn_sendto                                    /home/stoffer/esp8266/esp-open-sdk/sdk/lib/liblwip.a(espconn.o)
                                                  build/app_app.a(captdns.o)
espconn_sent                                      /home/stoffer/esp8266/esp-open-sdk/sdk/lib/liblwip.a(espconn.o)
                                                  build/app_app.a(httpdespfs.o)
                                                  build/app_app.a(cgi.o)
                                                  build/app_app.a(httpd.o)
espconn_set_keepalive                             /home/stoffer/esp8266/esp-open-sdk/sdk/lib/liblwip.a(espconn.o)
                                                  build/app_app.a(mqtt.o)
espconn_set_opt                                   /home/stoffer/esp8266/esp-open-sdk/sdk/lib/liblwip.a(espconn.o)
                                                  build/app_app.a(mqtt.o)
espconn_tcp_client                                /home/stoffer/esp8266/esp-open-sdk/sdk/lib/liblwip.a(espconn_tcp.o)
                                                  /home/stoffer/esp8266/esp-open-sdk/sdk/lib/liblwip.a(espconn.o)
espconn_tcp_delete                                /home/stoffer/esp8266/esp-open-sdk/sdk/lib/liblwip.a(espconn_tcp.o)
                                                  /home/stoffer/esp8266/esp-open-sdk/sdk/lib/liblwip.a(espconn.o)
espconn_tcp_disconnect                            /home/stoffer/esp8266/esp-open-sdk/sdk/lib/liblwip.a(espconn_tcp.o)
                                                  /home/stoffer/esp8266/esp-open-sdk/sdk/lib/liblwip.a(espconn.o)
espconn_tcp_get_max_con                           /home/stoffer/esp8266/esp-open-sdk/sdk/lib/liblwip.a(espconn.o)
espconn_tcp_get_max_con_allow                     /home/stoffer/esp8266/esp-open-sdk/sdk/lib/liblwip.a(espconn.o)
                                                  /home/stoffer/esp8266/esp-open-sdk/sdk/lib/liblwip.a(espconn_tcp.o)
espconn_tcp_get_max_retran                        /home/stoffer/esp8266/esp-open-sdk/sdk/lib/liblwip.a(espconn.o)
espconn_tcp_get_max_syn                           /home/stoffer/esp8266/esp-open-sdk/sdk/lib/liblwip.a(espconn.o)
espconn_tcp_get_mss                               /home/stoffer/esp8266/esp-open-sdk/sdk/lib/liblwip.a(espconn.o)
espconn_tcp_get_wnd                               /home/stoffer/esp8266/esp-open-sdk/sdk/lib/liblwip.a(espconn.o)
espconn_tcp_memp_free                             /home/stoffer/esp8266/esp-open-sdk/sdk/lib/liblwip.a(espconn_tcp.o)
espconn_tcp_sent                                  /home/stoffer/esp8266/esp-open-sdk/sdk/lib/liblwip.a(espconn_tcp.o)
espconn_tcp_server                                /home/stoffer/esp8266/esp-open-sdk/sdk/lib/liblwip.a(espconn_tcp.o)
                                                  /home/stoffer/esp8266/esp-open-sdk/sdk/lib/liblwip.a(espconn.o)
espconn_tcp_set_buf_count                         /home/stoffer/esp8266/esp-open-sdk/sdk/lib/liblwip.a(espconn.o)
                                                  /home/stoffer/esp8266/esp-open-sdk/sdk/lib/liblwip.a(espconn_tcp.o)
espconn_tcp_set_max_con                           /home/stoffer/esp8266/esp-open-sdk/sdk/lib/liblwip.a(espconn.o)
espconn_tcp_set_max_con_allow                     /home/stoffer/esp8266/esp-open-sdk/sdk/lib/liblwip.a(espconn.o)
espconn_tcp_set_max_retran                        /home/stoffer/esp8266/esp-open-sdk/sdk/lib/liblwip.a(espconn.o)
espconn_tcp_set_max_syn                           /home/stoffer/esp8266/esp-open-sdk/sdk/lib/liblwip.a(espconn.o)
espconn_tcp_set_wnd                               /home/stoffer/esp8266/esp-open-sdk/sdk/lib/liblwip.a(espconn.o)
espconn_tcp_write                                 /home/stoffer/esp8266/esp-open-sdk/sdk/lib/liblwip.a(espconn_tcp.o)
                                                  /home/stoffer/esp8266/esp-open-sdk/sdk/lib/liblwip.a(espconn.o)
espconn_udp_disconnect                            /home/stoffer/esp8266/esp-open-sdk/sdk/lib/liblwip.a(espconn_udp.o)
                                                  /home/stoffer/esp8266/esp-open-sdk/sdk/lib/liblwip.a(espconn.o)
espconn_udp_sendto                                /home/stoffer/esp8266/esp-open-sdk/sdk/lib/liblwip.a(espconn_udp.o)
                                                  /home/stoffer/esp8266/esp-open-sdk/sdk/lib/liblwip.a(espconn.o)
espconn_udp_sent                                  /home/stoffer/esp8266/esp-open-sdk/sdk/lib/liblwip.a(espconn_udp.o)
                                                  /home/stoffer/esp8266/esp-open-sdk/sdk/lib/liblwip.a(espconn.o)
espconn_udp_server                                /home/stoffer/esp8266/esp-open-sdk/sdk/lib/liblwip.a(espconn_udp.o)
                                                  /home/stoffer/esp8266/esp-open-sdk/sdk/lib/liblwip.a(espconn.o)
espconn_unlock_recv                               /home/stoffer/esp8266/esp-open-sdk/sdk/lib/liblwip.a(espconn_tcp.o)
etharp_cleanup_netif                              /home/stoffer/esp8266/esp-open-sdk/sdk/lib/liblwip.a(etharp.o)
                                                  /home/stoffer/esp8266/esp-open-sdk/sdk/lib/liblwip.a(netif.o)
etharp_find_addr                                  /home/stoffer/esp8266/esp-open-sdk/sdk/lib/liblwip.a(etharp.o)
etharp_output                                     /home/stoffer/esp8266/esp-open-sdk/sdk/lib/liblwip.a(etharp.o)
                                                  /home/stoffer/esp8266/esp-open-sdk/sdk/lib/libmain.a(eagle_lwip_if.o)
etharp_query                                      /home/stoffer/esp8266/esp-open-sdk/sdk/lib/liblwip.a(etharp.o)
                                                  /home/stoffer/esp8266/esp-open-sdk/sdk/lib/liblwip.a(dhcp.o)
etharp_request                                    /home/stoffer/esp8266/esp-open-sdk/sdk/lib/liblwip.a(etharp.o)
                                                  /home/stoffer/esp8266/esp-open-sdk/sdk/lib/liblwip.a(netif.o)
etharp_tmr                                        /home/stoffer/esp8266/esp-open-sdk/sdk/lib/liblwip.a(etharp.o)
                                                  /home/stoffer/esp8266/esp-open-sdk/sdk/lib/liblwip.a(timers.o)
ethbroadcast                                      /home/stoffer/esp8266/esp-open-sdk/sdk/lib/liblwip.a(etharp.o)
                                                  /home/stoffer/esp8266/esp-open-sdk/sdk/lib/libpp.a(wdev.o)
                                                  /home/stoffer/esp8266/esp-open-sdk/sdk/lib/libwpa.a(wpa_auth.o)
                                                  /home/stoffer/esp8266/esp-open-sdk/sdk/lib/libnet80211.a(wl_cnx.o)
                                                  /home/stoffer/esp8266/esp-open-sdk/sdk/lib/libnet80211.a(ieee80211_scan.o)
                                                  /home/stoffer/esp8266/esp-open-sdk/sdk/lib/libnet80211.a(ieee80211_output.o)
                                                  /home/stoffer/esp8266/esp-open-sdk/sdk/lib/libnet80211.a(ieee80211_hostap.o)
                                                  /home/stoffer/esp8266/esp-open-sdk/sdk/lib/libnet80211.a(ieee80211.o)
                                                  /home/stoffer/esp8266/esp-open-sdk/sdk/lib/libmain.a(user_interface.o)
ethernet_input                                    /home/stoffer/esp8266/esp-open-sdk/sdk/lib/liblwip.a(etharp.o)
                                                  /home/stoffer/esp8266/esp-open-sdk/sdk/lib/libmain.a(eagle_lwip_if.o)
ethzero                                           /home/stoffer/esp8266/esp-open-sdk/sdk/lib/liblwip.a(etharp.o)
ets_bzero                                         /home/stoffer/esp8266/esp-open-sdk/sdk/lib/libpp.a(trc.o)
                                                  /home/stoffer/esp8266/esp-open-sdk/sdk/lib/libpp.a(pm.o)
                                                  /home/stoffer/esp8266/esp-open-sdk/sdk/lib/liblwip.a(espconn_tcp.o)
                                                  /home/stoffer/esp8266/esp-open-sdk/sdk/lib/liblwip.a(dhcpserver.o)
                                                  /home/stoffer/esp8266/esp-open-sdk/sdk/lib/libwpa.a(wpa_main.o)
                                                  /home/stoffer/esp8266/esp-open-sdk/sdk/lib/libwpa.a(wpa.o)
                                                  /home/stoffer/esp8266/esp-open-sdk/sdk/lib/libwpa.a(wpa_auth.o)
                                                  /home/stoffer/esp8266/esp-open-sdk/sdk/lib/libwpa.a(ap_config.o)
                                                  /home/stoffer/esp8266/esp-open-sdk/sdk/lib/libnet80211.a(wl_cnx.o)
                                                  /home/stoffer/esp8266/esp-open-sdk/sdk/lib/libnet80211.a(wl_chm.o)
                                                  /home/stoffer/esp8266/esp-open-sdk/sdk/lib/libnet80211.a(ieee80211_sta.o)
                                                  /home/stoffer/esp8266/esp-open-sdk/sdk/lib/libnet80211.a(ieee80211_scan.o)
                                                  /home/stoffer/esp8266/esp-open-sdk/sdk/lib/libnet80211.a(ieee80211_input.o)
                                                  /home/stoffer/esp8266/esp-open-sdk/sdk/lib/libmain.a(user_interface.o)
                                                  /home/stoffer/esp8266/esp-open-sdk/sdk/lib/libmain.a(app_main.o)
ets_delay_us                                      /home/stoffer/esp8266/esp-open-sdk/sdk/lib/libphy.a(phy_sleep.o)
                                                  /home/stoffer/esp8266/esp-open-sdk/sdk/lib/libphy.a(phy_chip_v6_cal.o)
                                                  /home/stoffer/esp8266/esp-open-sdk/sdk/lib/libphy.a(phy_chip_v6.o)
                                                  /home/stoffer/esp8266/esp-open-sdk/sdk/lib/libphy.a(phy_chip_v6_ana.o)
                                                  /home/stoffer/esp8266/esp-open-sdk/sdk/lib/libpp.a(wdev.o)
                                                  /home/stoffer/esp8266/esp-open-sdk/sdk/lib/libpp.a(lmac.o)
                                                  /home/stoffer/esp8266/esp-open-sdk/sdk/lib/libwpa.a(wpa.o)
                                                  /home/stoffer/esp8266/esp-open-sdk/sdk/lib/libnet80211.a(ieee80211_hostap.o)
                                                  /home/stoffer/esp8266/esp-open-sdk/sdk/lib/libmain.a(user_interface.o)
                                                  /home/stoffer/esp8266/esp-open-sdk/sdk/lib/libmain.a(mem_manager.o)
                                                  /home/stoffer/esp8266/esp-open-sdk/sdk/lib/libmain.a(app_main.o)
ets_get_cpu_frequency                             /home/stoffer/esp8266/esp-open-sdk/sdk/lib/libmain.a(user_interface.o)
ets_install_putc1                                 build/app_app.a(uart.o)
                                                  /home/stoffer/esp8266/esp-open-sdk/sdk/lib/libmain.a(app_main.o)
ets_intr_lock                                     /home/stoffer/esp8266/esp-open-sdk/sdk/lib/libpp.a(wdev.o)
                                                  /home/stoffer/esp8266/esp-open-sdk/sdk/lib/libpp.a(pp.o)
                                                  /home/stoffer/esp8266/esp-open-sdk/sdk/lib/libpp.a(pm_for_bcn_only_mode.o)
                                                  /home/stoffer/esp8266/esp-open-sdk/sdk/lib/libpp.a(pm.o)
                                                  /home/stoffer/esp8266/esp-open-sdk/sdk/lib/libpp.a(lmac.o)
                                                  /home/stoffer/esp8266/esp-open-sdk/sdk/lib/libpp.a(if_hwctrl.o)
                                                  /home/stoffer/esp8266/esp-open-sdk/sdk/lib/libpp.a(esf_buf.o)
                                                  /home/stoffer/esp8266/esp-open-sdk/sdk/lib/libnet80211.a(wl_cnx.o)
                                                  /home/stoffer/esp8266/esp-open-sdk/sdk/lib/libnet80211.a(wl_chm.o)
                                                  /home/stoffer/esp8266/esp-open-sdk/sdk/lib/libnet80211.a(ieee80211_scan.o)
                                                  /home/stoffer/esp8266/esp-open-sdk/sdk/lib/libnet80211.a(ieee80211_hostap.o)
                                                  /home/stoffer/esp8266/esp-open-sdk/sdk/lib/libmain.a(user_interface.o)
                                                  /home/stoffer/esp8266/esp-open-sdk/sdk/lib/libmain.a(mem_manager.o)
                                                  /home/stoffer/esp8266/esp-open-sdk/sdk/lib/libmain.a(ets_timer.o)
                                                  /home/stoffer/esp8266/esp-open-sdk/sdk/lib/libmain.a(app_main.o)
ets_intr_unlock                                   /home/stoffer/esp8266/esp-open-sdk/sdk/lib/libpp.a(wdev.o)
                                                  /home/stoffer/esp8266/esp-open-sdk/sdk/lib/libpp.a(pp.o)
                                                  /home/stoffer/esp8266/esp-open-sdk/sdk/lib/libpp.a(pm_for_bcn_only_mode.o)
                                                  /home/stoffer/esp8266/esp-open-sdk/sdk/lib/libpp.a(pm.o)
                                                  /home/stoffer/esp8266/esp-open-sdk/sdk/lib/libpp.a(lmac.o)
                                                  /home/stoffer/esp8266/esp-open-sdk/sdk/lib/libpp.a(if_hwctrl.o)
                                                  /home/stoffer/esp8266/esp-open-sdk/sdk/lib/libpp.a(esf_buf.o)
                                                  /home/stoffer/esp8266/esp-open-sdk/sdk/lib/libnet80211.a(wl_cnx.o)
                                                  /home/stoffer/esp8266/esp-open-sdk/sdk/lib/libnet80211.a(wl_chm.o)
                                                  /home/stoffer/esp8266/esp-open-sdk/sdk/lib/libnet80211.a(ieee80211_scan.o)
                                                  /home/stoffer/esp8266/esp-open-sdk/sdk/lib/libnet80211.a(ieee80211_hostap.o)
                                                  /home/stoffer/esp8266/esp-open-sdk/sdk/lib/libmain.a(user_interface.o)
                                                  /home/stoffer/esp8266/esp-open-sdk/sdk/lib/libmain.a(mem_manager.o)
                                                  /home/stoffer/esp8266/esp-open-sdk/sdk/lib/libmain.a(ets_timer.o)
ets_isr_attach                                    build/app_app.a(uart.o)
                                                  /home/stoffer/esp8266/esp-open-sdk/sdk/lib/libmain.a(ets_timer.o)
                                                  /home/stoffer/esp8266/esp-open-sdk/sdk/lib/libmain.a(app_main.o)
ets_isr_mask                                      /home/stoffer/esp8266/esp-open-sdk/sdk/lib/libmain.a(user_interface.o)
ets_isr_unmask                                    build/app_app.a(uart.o)
                                                  /home/stoffer/esp8266/esp-open-sdk/sdk/lib/libmain.a(ets_timer.o)
                                                  /home/stoffer/esp8266/esp-open-sdk/sdk/lib/libmain.a(app_main.o)
ets_memcmp                                        build/app_app.a(crypto.o)
                                                  /home/stoffer/esp8266/esp-open-sdk/sdk/lib/libpp.a(wdev.o)
                                                  /home/stoffer/esp8266/esp-open-sdk/sdk/lib/libpp.a(trc.o)
                                                  /home/stoffer/esp8266/esp-open-sdk/sdk/lib/libpp.a(pp.o)
                                                  /home/stoffer/esp8266/esp-open-sdk/sdk/lib/libpp.a(pm.o)
                                                  /home/stoffer/esp8266/esp-open-sdk/sdk/lib/liblwip.a(dhcpserver.o)
                                                  /home/stoffer/esp8266/esp-open-sdk/sdk/lib/libwpa.a(wpa_common.o)
                                                  /home/stoffer/esp8266/esp-open-sdk/sdk/lib/libwpa.a(wpa.o)
                                                  /home/stoffer/esp8266/esp-open-sdk/sdk/lib/libwpa.a(wpa_auth.o)
                                                  /home/stoffer/esp8266/esp-open-sdk/sdk/lib/libwpa.a(ap_config.o)
                                                  /home/stoffer/esp8266/esp-open-sdk/sdk/lib/libnet80211.a(ieee80211_action_vendor.o)
                                                  /home/stoffer/esp8266/esp-open-sdk/sdk/lib/libnet80211.a(wl_cnx.o)
                                                  /home/stoffer/esp8266/esp-open-sdk/sdk/lib/libnet80211.a(ieee80211_sta.o)
                                                  /home/stoffer/esp8266/esp-open-sdk/sdk/lib/libnet80211.a(ieee80211_scan.o)
                                                  /home/stoffer/esp8266/esp-open-sdk/sdk/lib/libnet80211.a(ieee80211_input.o)
                                                  /home/stoffer/esp8266/esp-open-sdk/sdk/lib/libnet80211.a(ieee80211_hostap.o)
                                                  /home/stoffer/esp8266/esp-open-sdk/sdk/lib/libmain.a(user_interface.o)
ets_memcpy                                        build/app_app.a(hmac-sha256.o)
                                                  build/app_app.a(heatshrink_decoder.o)
                                                  build/app_app.a(espfs.o)
                                                  build/app_app.a(config.o)
                                                  build/app_app.a(mqtt.o)
                                                  build/app_app.a(kmp.o)
                                                  build/app_app.a(sha256.o)
                                                  build/app_app.a(crypto.o)
                                                  build/app_app.a(httpd.o)
                                                  build/app_app.a(captdns.o)
                                                  build/app_app.a(user_main.o)
                                                  /home/stoffer/esp8266/esp-open-sdk/sdk/lib/libpp.a(wdev.o)
                                                  /home/stoffer/esp8266/esp-open-sdk/sdk/lib/libpp.a(trc.o)
                                                  /home/stoffer/esp8266/esp-open-sdk/sdk/lib/libpp.a(pm.o)
                                                  /home/stoffer/esp8266/esp-open-sdk/sdk/lib/libpp.a(if_hwctrl.o)
                                                  /home/stoffer/esp8266/esp-open-sdk/sdk/lib/liblwip.a(icmp.o)
                                                  /home/stoffer/esp8266/esp-open-sdk/sdk/lib/liblwip.a(espconn.o)
                                                  /home/stoffer/esp8266/esp-open-sdk/sdk/lib/liblwip.a(espconn_buf.o)
                                                  /home/stoffer/esp8266/esp-open-sdk/sdk/lib/liblwip.a(tcp_out.o)
                                                  /home/stoffer/esp8266/esp-open-sdk/sdk/lib/liblwip.a(tcp.o)
                                                  /home/stoffer/esp8266/esp-open-sdk/sdk/lib/liblwip.a(pbuf.o)
                                                  /home/stoffer/esp8266/esp-open-sdk/sdk/lib/liblwip.a(ip.o)
                                                  /home/stoffer/esp8266/esp-open-sdk/sdk/lib/liblwip.a(etharp.o)
                                                  /home/stoffer/esp8266/esp-open-sdk/sdk/lib/liblwip.a(espconn_tcp.o)
                                                  /home/stoffer/esp8266/esp-open-sdk/sdk/lib/liblwip.a(dns.o)
                                                  /home/stoffer/esp8266/esp-open-sdk/sdk/lib/liblwip.a(dhcpserver.o)
                                                  /home/stoffer/esp8266/esp-open-sdk/sdk/lib/libwpa.a(aes-wrap.o)
                                                  /home/stoffer/esp8266/esp-open-sdk/sdk/lib/libwpa.a(wpas_glue.o)
                                                  /home/stoffer/esp8266/esp-open-sdk/sdk/lib/libwpa.a(wpa_main.o)
                                                  /home/stoffer/esp8266/esp-open-sdk/sdk/lib/libwpa.a(wpa_common.o)
                                                  /home/stoffer/esp8266/esp-open-sdk/sdk/lib/libwpa.a(wpa.o)
                                                  /home/stoffer/esp8266/esp-open-sdk/sdk/lib/libwpa.a(wpa_auth_ie.o)
                                                  /home/stoffer/esp8266/esp-open-sdk/sdk/lib/libwpa.a(wpa_auth.o)
                                                  /home/stoffer/esp8266/esp-open-sdk/sdk/lib/libwpa.a(os_xtensa.o)
                                                  /home/stoffer/esp8266/esp-open-sdk/sdk/lib/libwpa.a(common.o)
                                                  /home/stoffer/esp8266/esp-open-sdk/sdk/lib/libwpa.a(ap_config.o)
                                                  /home/stoffer/esp8266/esp-open-sdk/sdk/lib/libnet80211.a(ieee80211_ie_vendor.o)
                                                  /home/stoffer/esp8266/esp-open-sdk/sdk/lib/libnet80211.a(ieee80211_action_vendor.o)
                                                  /home/stoffer/esp8266/esp-open-sdk/sdk/lib/libnet80211.a(wl_cnx.o)
                                                  /home/stoffer/esp8266/esp-open-sdk/sdk/lib/libnet80211.a(ieee80211_sta.o)
                                                  /home/stoffer/esp8266/esp-open-sdk/sdk/lib/libnet80211.a(ieee80211_scan.o)
                                                  /home/stoffer/esp8266/esp-open-sdk/sdk/lib/libnet80211.a(ieee80211_proto.o)
                                                  /home/stoffer/esp8266/esp-open-sdk/sdk/lib/libnet80211.a(ieee80211_phy.o)
                                                  /home/stoffer/esp8266/esp-open-sdk/sdk/lib/libnet80211.a(ieee80211_output.o)
                                                  /home/stoffer/esp8266/esp-open-sdk/sdk/lib/libnet80211.a(ieee80211_mesh_quick.o)
                                                  /home/stoffer/esp8266/esp-open-sdk/sdk/lib/libnet80211.a(ieee80211_input.o)
                                                  /home/stoffer/esp8266/esp-open-sdk/sdk/lib/libnet80211.a(ieee80211_hostap.o)
                                                  /home/stoffer/esp8266/esp-open-sdk/sdk/lib/libnet80211.a(ieee80211.o)
                                                  /home/stoffer/esp8266/esp-open-sdk/sdk/lib/libmain.a(eagle_lwip_if.o)
                                                  /home/stoffer/esp8266/esp-open-sdk/sdk/lib/libmain.a(user_interface.o)
                                                  /home/stoffer/esp8266/esp-open-sdk/sdk/lib/libmain.a(mem_manager.o)
                                                  /home/stoffer/esp8266/esp-open-sdk/sdk/lib/libmain.a(app_main.o)
ets_memset                                        /home/stoffer/esp8266/esp-open-sdk/sdk/lib/liblwip.a(sntp.o)
                                                  build/app_app.a(hmac-sha256.o)
                                                  build/app_app.a(heatshrink_decoder.o)
                                                  build/app_app.a(watchdog.o)
                                                  build/app_app.a(wifi.o)
                                                  build/app_app.a(config.o)
                                                  build/app_app.a(mqtt.o)
                                                  build/app_app.a(cron.o)
                                                  build/app_app.a(kmp.o)
                                                  build/app_app.a(kmp_request.o)
                                                  build/app_app.a(aes.o)
                                                  build/app_app.a(sha256.o)
                                                  build/app_app.a(crypto.o)
                                                  build/app_app.a(user_main.o)
                                                  /home/stoffer/esp8266/esp-open-sdk/sdk/lib/libpp.a(esf_buf.o)
                                                  /home/stoffer/esp8266/esp-open-sdk/sdk/lib/liblwip.a(espconn.o)
                                                  /home/stoffer/esp8266/esp-open-sdk/sdk/lib/liblwip.a(espconn_buf.o)
                                                  /home/stoffer/esp8266/esp-open-sdk/sdk/lib/liblwip.a(udp.o)
                                                  /home/stoffer/esp8266/esp-open-sdk/sdk/lib/liblwip.a(tcp.o)
                                                  /home/stoffer/esp8266/esp-open-sdk/sdk/lib/liblwip.a(raw.o)
                                                  /home/stoffer/esp8266/esp-open-sdk/sdk/lib/liblwip.a(ip.o)
                                                  /home/stoffer/esp8266/esp-open-sdk/sdk/lib/liblwip.a(dns.o)
                                                  /home/stoffer/esp8266/esp-open-sdk/sdk/lib/liblwip.a(dhcpserver.o)
                                                  /home/stoffer/esp8266/esp-open-sdk/sdk/lib/liblwip.a(dhcp.o)
                                                  /home/stoffer/esp8266/esp-open-sdk/sdk/lib/libwpa.a(aes-internal-enc.o)
                                                  /home/stoffer/esp8266/esp-open-sdk/sdk/lib/libwpa.a(aes-wrap.o)
                                                  /home/stoffer/esp8266/esp-open-sdk/sdk/lib/libwpa.a(wpas_glue.o)
                                                  /home/stoffer/esp8266/esp-open-sdk/sdk/lib/libwpa.a(wpa_ie.o)
                                                  /home/stoffer/esp8266/esp-open-sdk/sdk/lib/libwpa.a(wpa_common.o)
                                                  /home/stoffer/esp8266/esp-open-sdk/sdk/lib/libwpa.a(wpa.o)
                                                  /home/stoffer/esp8266/esp-open-sdk/sdk/lib/libwpa.a(wpa_auth_ie.o)
                                                  /home/stoffer/esp8266/esp-open-sdk/sdk/lib/libwpa.a(wpa_auth.o)
                                                  /home/stoffer/esp8266/esp-open-sdk/sdk/lib/libnet80211.a(wl_cnx.o)
                                                  /home/stoffer/esp8266/esp-open-sdk/sdk/lib/libnet80211.a(ieee80211_power.o)
                                                  /home/stoffer/esp8266/esp-open-sdk/sdk/lib/libnet80211.a(ieee80211_output.o)
                                                  /home/stoffer/esp8266/esp-open-sdk/sdk/lib/libnet80211.a(ieee80211_input.o)
                                                  /home/stoffer/esp8266/esp-open-sdk/sdk/lib/libnet80211.a(ieee80211_ht.o)
                                                  /home/stoffer/esp8266/esp-open-sdk/sdk/lib/libmain.a(user_interface.o)
                                                  /home/stoffer/esp8266/esp-open-sdk/sdk/lib/libmain.a(mem_manager.o)
                                                  /home/stoffer/esp8266/esp-open-sdk/sdk/lib/libmain.a(app_main.o)
ets_post                                          /home/stoffer/esp8266/esp-open-sdk/sdk/lib/libpp.a(pp.o)
                                                  /home/stoffer/esp8266/esp-open-sdk/sdk/lib/libpp.a(pm.o)
                                                  /home/stoffer/esp8266/esp-open-sdk/sdk/lib/libpp.a(lmac.o)
                                                  /home/stoffer/esp8266/esp-open-sdk/sdk/lib/liblwip.a(espconn_tcp.o)
                                                  /home/stoffer/esp8266/esp-open-sdk/sdk/lib/libwpa.a(wpa_main.o)
                                                  /home/stoffer/esp8266/esp-open-sdk/sdk/lib/libnet80211.a(wl_cnx.o)
                                                  /home/stoffer/esp8266/esp-open-sdk/sdk/lib/libnet80211.a(ieee80211_sta.o)
                                                  /home/stoffer/esp8266/esp-open-sdk/sdk/lib/libnet80211.a(ieee80211_input.o)
                                                  /home/stoffer/esp8266/esp-open-sdk/sdk/lib/libnet80211.a(ieee80211_hostap.o)
                                                  /home/stoffer/esp8266/esp-open-sdk/sdk/lib/libmain.a(user_interface.o)
                                                  /home/stoffer/esp8266/esp-open-sdk/sdk/lib/libmain.a(ets_timer.o)
ets_printf                                        /home/stoffer/esp8266/esp-open-sdk/sdk/lib/libpp.a(wdev.o)
                                                  /home/stoffer/esp8266/esp-open-sdk/sdk/lib/libpp.a(pp.o)
                                                  /home/stoffer/esp8266/esp-open-sdk/sdk/lib/libpp.a(pm_for_bcn_only_mode.o)
                                                  /home/stoffer/esp8266/esp-open-sdk/sdk/lib/libpp.a(pm.o)
                                                  /home/stoffer/esp8266/esp-open-sdk/sdk/lib/libpp.a(lmac.o)
                                                  /home/stoffer/esp8266/esp-open-sdk/sdk/lib/libmain.a(mem_manager.o)
                                                  /home/stoffer/esp8266/esp-open-sdk/sdk/lib/libmain.a(ets_timer.o)
                                                  /home/stoffer/esp8266/esp-open-sdk/sdk/lib/libmain.a(app_main.o)
ets_run                                           /home/stoffer/esp8266/esp-open-sdk/sdk/lib/libmain.a(app_main.o)
ets_set_idle_cb                                   /home/stoffer/esp8266/esp-open-sdk/sdk/lib/libpp.a(pm_for_bcn_only_mode.o)
                                                  /home/stoffer/esp8266/esp-open-sdk/sdk/lib/libpp.a(pm.o)
ets_snprintf                                      /home/stoffer/esp8266/esp-open-sdk/sdk/lib/libmain.a(eagle_lib.o)
ets_sprintf                                       /home/stoffer/esp8266/esp-open-sdk/sdk/lib/libmain.a(eagle_lib.o)
                                                  /home/stoffer/esp8266/esp-open-sdk/sdk/lib/liblwip.a(sntp.o)
                                                  /home/stoffer/esp8266/esp-open-sdk/sdk/lib/libmain.a(user_interface.o)
ets_strcat                                        /home/stoffer/esp8266/esp-open-sdk/sdk/lib/libmain.a(eagle_lib.o)
ets_strchr                                        /home/stoffer/esp8266/esp-open-sdk/sdk/lib/libmain.a(eagle_lib.o)
ets_strcmp                                        build/app_app.a(espfs.o)
                                                  build/app_app.a(cgi.o)
                                                  build/app_app.a(cgiwifi.o)
                                                  build/app_app.a(httpd.o)
ets_strcpy                                        build/app_app.a(cgi.o)
                                                  build/app_app.a(cgiwifi.o)
                                                  build/app_app.a(mqtt.o)
                                                  build/app_app.a(kmp.o)
                                                  build/app_app.a(httpd_user_init.o)
                                                  /home/stoffer/esp8266/esp-open-sdk/sdk/lib/libmain.a(user_interface.o)
ets_strdup                                        /home/stoffer/esp8266/esp-open-sdk/sdk/lib/libwpa.a(os_xtensa.o)
ets_strlen                                        build/app_app.a(utils.o)
                                                  build/app_app.a(cgiwifi.o)
                                                  build/app_app.a(mqtt.o)
                                                  build/app_app.a(kmp_request.o)
                                                  build/app_app.a(crypto.o)
                                                  build/app_app.a(httpd.o)
                                                  build/app_app.a(user_main.o)
                                                  /home/stoffer/esp8266/esp-open-sdk/sdk/lib/liblwip.a(pbuf.o)
                                                  /home/stoffer/esp8266/esp-open-sdk/sdk/lib/liblwip.a(dns.o)
                                                  /home/stoffer/esp8266/esp-open-sdk/sdk/lib/liblwip.a(dhcp.o)
                                                  /home/stoffer/esp8266/esp-open-sdk/sdk/lib/libwpa.a(wpa.o)
                                                  /home/stoffer/esp8266/esp-open-sdk/sdk/lib/libwpa.a(os_xtensa.o)
                                                  /home/stoffer/esp8266/esp-open-sdk/sdk/lib/libwpa.a(common.o)
                                                  /home/stoffer/esp8266/esp-open-sdk/sdk/lib/libwpa.a(ap_config.o)
                                                  /home/stoffer/esp8266/esp-open-sdk/sdk/lib/libnet80211.a(wl_cnx.o)
                                                  /home/stoffer/esp8266/esp-open-sdk/sdk/lib/libnet80211.a(ieee80211_scan.o)
                                                  /home/stoffer/esp8266/esp-open-sdk/sdk/lib/libnet80211.a(ieee80211_hostap.o)
                                                  /home/stoffer/esp8266/esp-open-sdk/sdk/lib/libmain.a(eagle_lib.o)
                                                  /home/stoffer/esp8266/esp-open-sdk/sdk/lib/libmain.a(user_interface.o)
                                                  /home/stoffer/esp8266/esp-open-sdk/sdk/lib/libmain.a(mem_manager.o)
ets_strncmp                                       build/app_app.a(wifi.o)
                                                  build/app_app.a(cron.o)
                                                  build/app_app.a(httpd.o)
                                                  build/app_app.a(user_main.o)
                                                  /home/stoffer/esp8266/esp-open-sdk/sdk/lib/libnet80211.a(ieee80211_scan.o)
                                                  /home/stoffer/esp8266/esp-open-sdk/sdk/lib/libmain.a(user_interface.o)
ets_strncpy                                       build/app_app.a(cgiwifi.o)
                                                  build/app_app.a(cron.o)
                                                  build/app_app.a(kmp_request.o)
                                                  build/app_app.a(user_main.o)
                                                  /home/stoffer/esp8266/esp-open-sdk/sdk/lib/libnet80211.a(ieee80211_scan.o)
ets_strrchr                                       /home/stoffer/esp8266/esp-open-sdk/sdk/lib/libmain.a(eagle_lib.o)
                                                  /home/stoffer/esp8266/esp-open-sdk/sdk/lib/libwpa.a(common.o)
ets_strstr                                        build/app_app.a(httpd.o)
ets_task                                          /home/stoffer/esp8266/esp-open-sdk/sdk/lib/libpp.a(pp.o)
                                                  /home/stoffer/esp8266/esp-open-sdk/sdk/lib/libpp.a(pm.o)
                                                  /home/stoffer/esp8266/esp-open-sdk/sdk/lib/liblwip.a(espconn_tcp.o)
                                                  /home/stoffer/esp8266/esp-open-sdk/sdk/lib/libmain.a(eagle_lwip_if.o)
                                                  /home/stoffer/esp8266/esp-open-sdk/sdk/lib/libmain.a(user_interface.o)
                                                  /home/stoffer/esp8266/esp-open-sdk/sdk/lib/libmain.a(ets_timer.o)
ets_timer_arm_new                                 /home/stoffer/esp8266/esp-open-sdk/sdk/lib/libmain.a(ets_timer.o)
                                                  /home/stoffer/esp8266/esp-open-sdk/sdk/lib/libmain.a(time.o)
                                                  /home/stoffer/esp8266/esp-open-sdk/sdk/lib/liblwip.a(sntp.o)
                                                  build/app_app.a(unix_time.o)
                                                  build/app_app.a(cgiwifi.o)
                                                  build/app_app.a(watchdog.o)
                                                  build/app_app.a(wifi.o)
                                                  build/app_app.a(config.o)
                                                  build/app_app.a(mqtt.o)
                                                  build/app_app.a(ac_out.o)
                                                  build/app_app.a(cron.o)
                                                  build/app_app.a(kmp_request.o)
                                                  build/app_app.a(httpd.o)
                                                  build/app_app.a(led.o)
                                                  build/app_app.a(user_main.o)
                                                  /home/stoffer/esp8266/esp-open-sdk/sdk/lib/libpp.a(pp.o)
                                                  /home/stoffer/esp8266/esp-open-sdk/sdk/lib/libpp.a(pm_for_bcn_only_mode.o)
                                                  /home/stoffer/esp8266/esp-open-sdk/sdk/lib/libpp.a(pm.o)
                                                  /home/stoffer/esp8266/esp-open-sdk/sdk/lib/libpp.a(if_hwctrl.o)
                                                  /home/stoffer/esp8266/esp-open-sdk/sdk/lib/libwpa.a(wpa_main.o)
                                                  /home/stoffer/esp8266/esp-open-sdk/sdk/lib/libwpa.a(wpa.o)
                                                  /home/stoffer/esp8266/esp-open-sdk/sdk/lib/libnet80211.a(wl_cnx.o)
                                                  /home/stoffer/esp8266/esp-open-sdk/sdk/lib/libnet80211.a(wl_chm.o)
                                                  /home/stoffer/esp8266/esp-open-sdk/sdk/lib/libnet80211.a(ieee80211_sta.o)
                                                  /home/stoffer/esp8266/esp-open-sdk/sdk/lib/libnet80211.a(ieee80211_scan.o)
                                                  /home/stoffer/esp8266/esp-open-sdk/sdk/lib/libnet80211.a(ieee80211_proto.o)
                                                  /home/stoffer/esp8266/esp-open-sdk/sdk/lib/libnet80211.a(ieee80211_hostap.o)
                                                  /home/stoffer/esp8266/esp-open-sdk/sdk/lib/libmain.a(user_interface.o)
                                                  /home/stoffer/esp8266/esp-open-sdk/sdk/lib/libmain.a(app_main.o)
ets_timer_disarm                                  /home/stoffer/esp8266/esp-open-sdk/sdk/lib/libmain.a(ets_timer.o)
                                                  /home/stoffer/esp8266/esp-open-sdk/sdk/lib/libmain.a(time.o)
                                                  /home/stoffer/esp8266/esp-open-sdk/sdk/lib/liblwip.a(sntp.o)
                                                  build/app_app.a(unix_time.o)
                                                  build/app_app.a(cgiwifi.o)
                                                  build/app_app.a(watchdog.o)
                                                  build/app_app.a(wifi.o)
                                                  build/app_app.a(config.o)
                                                  build/app_app.a(mqtt.o)
                                                  build/app_app.a(ac_out.o)
                                                  build/app_app.a(cron.o)
                                                  build/app_app.a(kmp_request.o)
                                                  build/app_app.a(httpd.o)
                                                  build/app_app.a(led.o)
                                                  build/app_app.a(user_main.o)
                                                  /home/stoffer/esp8266/esp-open-sdk/sdk/lib/libpp.a(pp.o)
                                                  /home/stoffer/esp8266/esp-open-sdk/sdk/lib/libpp.a(pm_for_bcn_only_mode.o)
                                                  /home/stoffer/esp8266/esp-open-sdk/sdk/lib/libpp.a(pm.o)
                                                  /home/stoffer/esp8266/esp-open-sdk/sdk/lib/libpp.a(if_hwctrl.o)
                                                  /home/stoffer/esp8266/esp-open-sdk/sdk/lib/libwpa.a(wpa_main.o)
                                                  /home/stoffer/esp8266/esp-open-sdk/sdk/lib/libwpa.a(wpa.o)
                                                  /home/stoffer/esp8266/esp-open-sdk/sdk/lib/libnet80211.a(wl_cnx.o)
                                                  /home/stoffer/esp8266/esp-open-sdk/sdk/lib/libnet80211.a(wl_chm.o)
                                                  /home/stoffer/esp8266/esp-open-sdk/sdk/lib/libnet80211.a(ieee80211_sta.o)
                                                  /home/stoffer/esp8266/esp-open-sdk/sdk/lib/libnet80211.a(ieee80211_scan.o)
                                                  /home/stoffer/esp8266/esp-open-sdk/sdk/lib/libnet80211.a(ieee80211_proto.o)
                                                  /home/stoffer/esp8266/esp-open-sdk/sdk/lib/libnet80211.a(ieee80211_hostap.o)
                                                  /home/stoffer/esp8266/esp-open-sdk/sdk/lib/libmain.a(user_interface.o)
                                                  /home/stoffer/esp8266/esp-open-sdk/sdk/lib/libmain.a(app_main.o)
ets_timer_done                                    /home/stoffer/esp8266/esp-open-sdk/sdk/lib/libmain.a(ets_timer.o)
ets_timer_handler_isr                             /home/stoffer/esp8266/esp-open-sdk/sdk/lib/libmain.a(ets_timer.o)
ets_timer_init                                    /home/stoffer/esp8266/esp-open-sdk/sdk/lib/libmain.a(ets_timer.o)
                                                  /home/stoffer/esp8266/esp-open-sdk/sdk/lib/libmain.a(app_main.o)
ets_timer_setfn                                   /home/stoffer/esp8266/esp-open-sdk/sdk/lib/libmain.a(ets_timer.o)
                                                  /home/stoffer/esp8266/esp-open-sdk/sdk/lib/libmain.a(time.o)
                                                  /home/stoffer/esp8266/esp-open-sdk/sdk/lib/liblwip.a(sntp.o)
                                                  build/app_app.a(unix_time.o)
                                                  build/app_app.a(cgiwifi.o)
                                                  build/app_app.a(watchdog.o)
                                                  build/app_app.a(wifi.o)
                                                  build/app_app.a(config.o)
                                                  build/app_app.a(mqtt.o)
                                                  build/app_app.a(ac_out.o)
                                                  build/app_app.a(cron.o)
                                                  build/app_app.a(kmp_request.o)
                                                  build/app_app.a(httpd.o)
                                                  build/app_app.a(led.o)
                                                  build/app_app.a(user_main.o)
                                                  /home/stoffer/esp8266/esp-open-sdk/sdk/lib/libpp.a(pp.o)
                                                  /home/stoffer/esp8266/esp-open-sdk/sdk/lib/libpp.a(pm_for_bcn_only_mode.o)
                                                  /home/stoffer/esp8266/esp-open-sdk/sdk/lib/libpp.a(pm.o)
                                                  /home/stoffer/esp8266/esp-open-sdk/sdk/lib/libpp.a(if_hwctrl.o)
                                                  /home/stoffer/esp8266/esp-open-sdk/sdk/lib/libwpa.a(wpa_main.o)
                                                  /home/stoffer/esp8266/esp-open-sdk/sdk/lib/libwpa.a(wpa.o)
                                                  /home/stoffer/esp8266/esp-open-sdk/sdk/lib/libnet80211.a(wl_cnx.o)
                                                  /home/stoffer/esp8266/esp-open-sdk/sdk/lib/libnet80211.a(wl_chm.o)
                                                  /home/stoffer/esp8266/esp-open-sdk/sdk/lib/libnet80211.a(ieee80211_sta.o)
                                                  /home/stoffer/esp8266/esp-open-sdk/sdk/lib/libnet80211.a(ieee80211_scan.o)
                                                  /home/stoffer/esp8266/esp-open-sdk/sdk/lib/libnet80211.a(ieee80211_proto.o)
                                                  /home/stoffer/esp8266/esp-open-sdk/sdk/lib/libnet80211.a(ieee80211_hostap.o)
                                                  /home/stoffer/esp8266/esp-open-sdk/sdk/lib/libmain.a(user_interface.o)
                                                  /home/stoffer/esp8266/esp-open-sdk/sdk/lib/libmain.a(app_main.o)
ets_update_cpu_frequency                          /home/stoffer/esp8266/esp-open-sdk/sdk/lib/libphy.a(phy_chip_v6.o)
                                                  /home/stoffer/esp8266/esp-open-sdk/sdk/lib/libpp.a(pm_for_bcn_only_mode.o)
                                                  /home/stoffer/esp8266/esp-open-sdk/sdk/lib/libpp.a(pm.o)
                                                  /home/stoffer/esp8266/esp-open-sdk/sdk/lib/libmain.a(user_interface.o)
ets_vprintf                                       /home/stoffer/esp8266/esp-open-sdk/sdk/lib/libmain.a(user_interface.o)
ets_vsnprintf                                     /home/stoffer/esp8266/esp-open-sdk/sdk/lib/libmain.a(eagle_lib.o)
                                                  /home/stoffer/esp8266/esp-open-sdk/sdk/lib/libwpa.a(wpa_debug.o)
ets_vsprintf                                      /home/stoffer/esp8266/esp-open-sdk/sdk/lib/libmain.a(eagle_lib.o)
ets_write_char                                    /home/stoffer/esp8266/esp-open-sdk/sdk/lib/libmain.a(user_interface.o)
event_TaskQueue                                   /home/stoffer/esp8266/esp-open-sdk/sdk/lib/libmain.a(user_interface.o)
event_cb                                          /home/stoffer/esp8266/esp-open-sdk/sdk/lib/libmain.a(user_interface.o)
                                                  /home/stoffer/esp8266/esp-open-sdk/sdk/lib/libwpa.a(wpa_main.o)
                                                  /home/stoffer/esp8266/esp-open-sdk/sdk/lib/libnet80211.a(wl_cnx.o)
                                                  /home/stoffer/esp8266/esp-open-sdk/sdk/lib/libnet80211.a(ieee80211_sta.o)
                                                  /home/stoffer/esp8266/esp-open-sdk/sdk/lib/libnet80211.a(ieee80211_hostap.o)
fifo_buffer                                       build/app_app.a(kmp_request.o)
fifo_head                                         build/app_app.a(kmp_request.o)
fifo_tail                                         build/app_app.a(kmp_request.o)
flash_data_check                                  /home/stoffer/esp8266/esp-open-sdk/sdk/lib/libmain.a(app_main.o)
flash_gd25q32c_enable_QIO_mode                    /home/stoffer/esp8266/esp-open-sdk/sdk/lib/libmain.a(spi_flash.o)
                                                  /home/stoffer/esp8266/esp-open-sdk/sdk/lib/libmain.a(app_main.o)
flash_gd25q32c_read_status                        /home/stoffer/esp8266/esp-open-sdk/sdk/lib/libmain.a(spi_flash.o)
flash_gd25q32c_write_status                       /home/stoffer/esp8266/esp-open-sdk/sdk/lib/libmain.a(spi_flash.o)
flash_read                                        /home/stoffer/esp8266/esp-open-sdk/sdk/lib/libmain.a(spi_flash.o)
flashchip                                         /home/stoffer/esp8266/esp-open-sdk/sdk/lib/libpp.a(pp.o)
                                                  /home/stoffer/esp8266/esp-open-sdk/sdk/lib/libpp.a(pm_for_bcn_only_mode.o)
                                                  /home/stoffer/esp8266/esp-open-sdk/sdk/lib/libpp.a(pm.o)
                                                  /home/stoffer/esp8266/esp-open-sdk/sdk/lib/libmain.a(user_rf_cal_sector_set.o)
                                                  /home/stoffer/esp8266/esp-open-sdk/sdk/lib/libmain.a(user_interface.o)
                                                  /home/stoffer/esp8266/esp-open-sdk/sdk/lib/libmain.a(spi_flash.o)
                                                  /home/stoffer/esp8266/esp-open-sdk/sdk/lib/libmain.a(mem_manager.o)
                                                  /home/stoffer/esp8266/esp-open-sdk/sdk/lib/libmain.a(app_main.o)
fpm_allow_tx                                      /home/stoffer/esp8266/esp-open-sdk/sdk/lib/libpp.a(pm_for_bcn_only_mode.o)
                                                  /home/stoffer/esp8266/esp-open-sdk/sdk/lib/libpp.a(pp.o)
                                                  /home/stoffer/esp8266/esp-open-sdk/sdk/lib/libnet80211.a(ieee80211_scan.o)
                                                  /home/stoffer/esp8266/esp-open-sdk/sdk/lib/libmain.a(user_interface.o)
fpm_attach                                        /home/stoffer/esp8266/esp-open-sdk/sdk/lib/libpp.a(pm_for_bcn_only_mode.o)
                                                  /home/stoffer/esp8266/esp-open-sdk/sdk/lib/libmain.a(app_main.o)
fpm_auto_sleep_set_in_null_mode                   /home/stoffer/esp8266/esp-open-sdk/sdk/lib/libpp.a(pm_for_bcn_only_mode.o)
fpm_close                                         /home/stoffer/esp8266/esp-open-sdk/sdk/lib/libpp.a(pm_for_bcn_only_mode.o)
                                                  /home/stoffer/esp8266/esp-open-sdk/sdk/lib/libpp.a(pm.o)
                                                  /home/stoffer/esp8266/esp-open-sdk/sdk/lib/libnet80211.a(ieee80211_hostap.o)
fpm_do_sleep                                      /home/stoffer/esp8266/esp-open-sdk/sdk/lib/libpp.a(pm_for_bcn_only_mode.o)
                                                  /home/stoffer/esp8266/esp-open-sdk/sdk/lib/libnet80211.a(ieee80211_hostap.o)
fpm_do_wakeup                                     /home/stoffer/esp8266/esp-open-sdk/sdk/lib/libpp.a(pm_for_bcn_only_mode.o)
                                                  /home/stoffer/esp8266/esp-open-sdk/sdk/lib/libpp.a(pp.o)
                                                  /home/stoffer/esp8266/esp-open-sdk/sdk/lib/libnet80211.a(ieee80211_scan.o)
                                                  /home/stoffer/esp8266/esp-open-sdk/sdk/lib/libmain.a(user_interface.o)
fpm_get_slp_type                                  /home/stoffer/esp8266/esp-open-sdk/sdk/lib/libpp.a(pm_for_bcn_only_mode.o)
fpm_is_open                                       /home/stoffer/esp8266/esp-open-sdk/sdk/lib/libpp.a(pm_for_bcn_only_mode.o)
                                                  /home/stoffer/esp8266/esp-open-sdk/sdk/lib/libpp.a(pm.o)
                                                  /home/stoffer/esp8266/esp-open-sdk/sdk/lib/libnet80211.a(ieee80211_hostap.o)
fpm_open                                          /home/stoffer/esp8266/esp-open-sdk/sdk/lib/libpp.a(pm_for_bcn_only_mode.o)
                                                  /home/stoffer/esp8266/esp-open-sdk/sdk/lib/libnet80211.a(ieee80211_hostap.o)
fpm_rf_is_closed                                  /home/stoffer/esp8266/esp-open-sdk/sdk/lib/libpp.a(pm_for_bcn_only_mode.o)
                                                  /home/stoffer/esp8266/esp-open-sdk/sdk/lib/libpp.a(pp.o)
fpm_set_type_from_upper                           /home/stoffer/esp8266/esp-open-sdk/sdk/lib/libpp.a(pm_for_bcn_only_mode.o)
fpm_set_wakeup_cb                                 /home/stoffer/esp8266/esp-open-sdk/sdk/lib/libpp.a(pm_for_bcn_only_mode.o)
frame                                             build/app_app.a(kmp_request.o)
frame_length                                      build/app_app.a(kmp_request.o)
freq_trace_enable                                 /home/stoffer/esp8266/esp-open-sdk/sdk/lib/libmain.a(app_main.o)
gScanStruct                                       /home/stoffer/esp8266/esp-open-sdk/sdk/lib/libnet80211.a(ieee80211_scan.o)
                                                  /home/stoffer/esp8266/esp-open-sdk/sdk/lib/libpp.a(pp.o)
                                                  /home/stoffer/esp8266/esp-open-sdk/sdk/lib/libnet80211.a(wl_cnx.o)
                                                  /home/stoffer/esp8266/esp-open-sdk/sdk/lib/libnet80211.a(ieee80211_sta.o)
                                                  /home/stoffer/esp8266/esp-open-sdk/sdk/lib/libnet80211.a(ieee80211_hostap.o)
g_cnx_probe_rc_list_cb                            /home/stoffer/esp8266/esp-open-sdk/sdk/lib/libnet80211.a(wl_cnx.o)
g_ic                                              /home/stoffer/esp8266/esp-open-sdk/sdk/lib/libnet80211.a(ieee80211.o)
                                                  /home/stoffer/esp8266/esp-open-sdk/sdk/lib/libnet80211.a(ieee80211_crypto_tkip.o)
                                                  /home/stoffer/esp8266/esp-open-sdk/sdk/lib/libpp.a(wdev.o)
                                                  /home/stoffer/esp8266/esp-open-sdk/sdk/lib/libpp.a(trc.o)
                                                  /home/stoffer/esp8266/esp-open-sdk/sdk/lib/libpp.a(pp.o)
                                                  /home/stoffer/esp8266/esp-open-sdk/sdk/lib/libpp.a(pm.o)
                                                  /home/stoffer/esp8266/esp-open-sdk/sdk/lib/libpp.a(if_hwctrl.o)
                                                  /home/stoffer/esp8266/esp-open-sdk/sdk/lib/libwpa.a(wpa_main.o)
                                                  /home/stoffer/esp8266/esp-open-sdk/sdk/lib/libwpa.a(wpa.o)
                                                  /home/stoffer/esp8266/esp-open-sdk/sdk/lib/libwpa.a(wpa_auth.o)
                                                  /home/stoffer/esp8266/esp-open-sdk/sdk/lib/libwpa.a(ap_config.o)
                                                  /home/stoffer/esp8266/esp-open-sdk/sdk/lib/libnet80211.a(ieee80211_action_vendor.o)
                                                  /home/stoffer/esp8266/esp-open-sdk/sdk/lib/libnet80211.a(wl_cnx.o)
                                                  /home/stoffer/esp8266/esp-open-sdk/sdk/lib/libnet80211.a(wl_chm.o)
                                                  /home/stoffer/esp8266/esp-open-sdk/sdk/lib/libnet80211.a(ieee80211_sta.o)
                                                  /home/stoffer/esp8266/esp-open-sdk/sdk/lib/libnet80211.a(ieee80211_scan.o)
                                                  /home/stoffer/esp8266/esp-open-sdk/sdk/lib/libnet80211.a(ieee80211_rfid.o)
                                                  /home/stoffer/esp8266/esp-open-sdk/sdk/lib/libnet80211.a(ieee80211_regdomain.o)
                                                  /home/stoffer/esp8266/esp-open-sdk/sdk/lib/libnet80211.a(ieee80211_proto.o)
                                                  /home/stoffer/esp8266/esp-open-sdk/sdk/lib/libnet80211.a(ieee80211_power.o)
                                                  /home/stoffer/esp8266/esp-open-sdk/sdk/lib/libnet80211.a(ieee80211_phy.o)
                                                  /home/stoffer/esp8266/esp-open-sdk/sdk/lib/libnet80211.a(ieee80211_output.o)
                                                  /home/stoffer/esp8266/esp-open-sdk/sdk/lib/libnet80211.a(ieee80211_mesh_quick.o)
                                                  /home/stoffer/esp8266/esp-open-sdk/sdk/lib/libnet80211.a(ieee80211_input.o)
                                                  /home/stoffer/esp8266/esp-open-sdk/sdk/lib/libnet80211.a(ieee80211_ht.o)
                                                  /home/stoffer/esp8266/esp-open-sdk/sdk/lib/libnet80211.a(ieee80211_hostap.o)
                                                  /home/stoffer/esp8266/esp-open-sdk/sdk/lib/libnet80211.a(ieee80211_crypto.o)
                                                  /home/stoffer/esp8266/esp-open-sdk/sdk/lib/libmain.a(eagle_lwip_if.o)
                                                  /home/stoffer/esp8266/esp-open-sdk/sdk/lib/libmain.a(user_interface.o)
                                                  /home/stoffer/esp8266/esp-open-sdk/sdk/lib/libmain.a(app_main.o)
g_phyFuns                                         /home/stoffer/esp8266/esp-open-sdk/sdk/lib/libphy.a(phy_chip_v6.o)
                                                  /home/stoffer/esp8266/esp-open-sdk/sdk/lib/libphy.a(phy_sleep.o)
                                                  /home/stoffer/esp8266/esp-open-sdk/sdk/lib/libphy.a(phy_chip_v6_cal.o)
                                                  /home/stoffer/esp8266/esp-open-sdk/sdk/lib/libphy.a(phy_chip_v6_ana.o)
                                                  /home/stoffer/esp8266/esp-open-sdk/sdk/lib/libpp.a(pm.o)
gen_rx_gain_table                                 /home/stoffer/esp8266/esp-open-sdk/sdk/lib/libphy.a(phy_chip_v6.o)
get_adc_rand                                      /home/stoffer/esp8266/esp-open-sdk/sdk/lib/libphy.a(phy_chip_v6.o)
                                                  /home/stoffer/esp8266/esp-open-sdk/sdk/lib/libphy.a(phy_sleep.o)
get_chip_version                                  /home/stoffer/esp8266/esp-open-sdk/sdk/lib/libphy.a(phy_sleep.o)
                                                  /home/stoffer/esp8266/esp-open-sdk/sdk/lib/libphy.a(phy_chip_v6.o)
get_data_from_rtc                                 /home/stoffer/esp8266/esp-open-sdk/sdk/lib/libphy.a(phy_chip_v6.o)
                                                  /home/stoffer/esp8266/esp-open-sdk/sdk/lib/libmain.a(app_main.o)
get_fcc_1m2m_pwr_offset                           /home/stoffer/esp8266/esp-open-sdk/sdk/lib/libphy.a(phy_chip_v6_cal.o)
get_fpm_auto_sleep_flag                           /home/stoffer/esp8266/esp-open-sdk/sdk/lib/libpp.a(pm_for_bcn_only_mode.o)
                                                  /home/stoffer/esp8266/esp-open-sdk/sdk/lib/libmain.a(user_interface.o)
get_iav_key                                       /home/stoffer/esp8266/esp-open-sdk/sdk/lib/libnet80211.a(ieee80211_action_vendor.o)
get_noisefloor_sat                                /home/stoffer/esp8266/esp-open-sdk/sdk/lib/libphy.a(phy_chip_v6.o)
get_phy_target_power                              /home/stoffer/esp8266/esp-open-sdk/sdk/lib/libphy.a(phy_chip_v6.o)
                                                  /home/stoffer/esp8266/esp-open-sdk/sdk/lib/libphy.a(phy_chip_v6_cal.o)
get_pwctrl_correct                                /home/stoffer/esp8266/esp-open-sdk/sdk/lib/libphy.a(phy_chip_v6_cal.o)
get_rf_gain_qdb                                   /home/stoffer/esp8266/esp-open-sdk/sdk/lib/libphy.a(phy_chip_v6_cal.o)
                                                  /home/stoffer/esp8266/esp-open-sdk/sdk/lib/libphy.a(phy_chip_v6.o)
get_rssi_running                                  build/app_app.a(wifi.o)
get_sar_dout                                      /home/stoffer/esp8266/esp-open-sdk/sdk/lib/libphy.a(phy_chip_v6_cal.o)
get_target_power_offset                           /home/stoffer/esp8266/esp-open-sdk/sdk/lib/libphy.a(phy_chip_v6_cal.o)
get_unix_time                                     build/app_app.a(unix_time.o)
                                                  build/app_app.a(watchdog.o)
                                                  build/app_app.a(cron.o)
                                                  build/app_app.a(kmp_request.o)
                                                  build/app_app.a(user_main.o)
get_vdd33_offset                                  /home/stoffer/esp8266/esp-open-sdk/sdk/lib/libphy.a(phy_chip_v6.o)
getrealtimeofday                                  /home/stoffer/esp8266/esp-open-sdk/sdk/lib/libmain.a(time.o)
gettimeofday                                      /home/stoffer/esp8266/esp-open-sdk/xtensa-lx106-elf/lib/gcc/xtensa-lx106-elf/4.8.5/../../../../xtensa-lx106-elf/lib/libc.a(lib_a-sysgettod.o)
                                                  /home/stoffer/esp8266/esp-open-sdk/sdk/lib/libmain.a(time.o)
gmtime                                            /home/stoffer/esp8266/esp-open-sdk/xtensa-lx106-elf/lib/gcc/xtensa-lx106-elf/4.8.5/../../../../xtensa-lx106-elf/lib/libc.a(lib_a-gmtime.o)
                                                  build/app_app.a(cron.o)
gmtime_r                                          /home/stoffer/esp8266/esp-open-sdk/xtensa-lx106-elf/lib/gcc/xtensa-lx106-elf/4.8.5/../../../../xtensa-lx106-elf/lib/libc.a(lib_a-gmtime_r.o)
                                                  /home/stoffer/esp8266/esp-open-sdk/xtensa-lx106-elf/lib/gcc/xtensa-lx106-elf/4.8.5/../../../../xtensa-lx106-elf/lib/libc.a(lib_a-gmtime.o)
gpio16_input_conf                                 build/app_app.a(gpio16.o)
gpio16_input_get                                  build/app_app.a(gpio16.o)
                                                  build/app_app.a(watchdog.o)
gpio16_output_conf                                build/app_app.a(gpio16.o)
                                                  build/app_app.a(watchdog.o)
gpio16_output_set                                 build/app_app.a(gpio16.o)
                                                  build/app_app.a(watchdog.o)
gpio_init                                         build/app_app.a(user_main.o)
gpio_input_get                                    /home/stoffer/esp8266/esp-open-sdk/sdk/lib/libpp.a(pm.o)
gpio_output_set                                   build/app_app.a(ac_out.o)
                                                  build/app_app.a(led.o)
                                                  /home/stoffer/esp8266/esp-open-sdk/sdk/lib/libphy.a(phy_sleep.o)
                                                  /home/stoffer/esp8266/esp-open-sdk/sdk/lib/libphy.a(phy_chip_v6.o)
                                                  /home/stoffer/esp8266/esp-open-sdk/sdk/lib/libnet80211.a(wl_cnx.o)
                                                  /home/stoffer/esp8266/esp-open-sdk/sdk/lib/libnet80211.a(ieee80211_hostap.o)
                                                  /home/stoffer/esp8266/esp-open-sdk/sdk/lib/libmain.a(user_interface.o)
gpio_pin_wakeup_disable                           /home/stoffer/esp8266/esp-open-sdk/sdk/lib/libmain.a(user_interface.o)
gpio_pin_wakeup_enable                            /home/stoffer/esp8266/esp-open-sdk/sdk/lib/libmain.a(user_interface.o)
hardware_reject                                   /home/stoffer/esp8266/esp-open-sdk/sdk/lib/libphy.a(phy_sleep.o)
heatshrink_decoder_alloc                          build/app_app.a(heatshrink_decoder.o)
                                                  build/app_app.a(espfs.o)
heatshrink_decoder_finish                         build/app_app.a(heatshrink_decoder.o)
                                                  build/app_app.a(espfs.o)
heatshrink_decoder_free                           build/app_app.a(heatshrink_decoder.o)
                                                  build/app_app.a(espfs.o)
heatshrink_decoder_poll                           build/app_app.a(heatshrink_decoder.o)
                                                  build/app_app.a(espfs.o)
heatshrink_decoder_reset                          build/app_app.a(heatshrink_decoder.o)
heatshrink_decoder_sink                           build/app_app.a(heatshrink_decoder.o)
                                                  build/app_app.a(espfs.o)
hex2byte                                          /home/stoffer/esp8266/esp-open-sdk/sdk/lib/libwpa.a(common.o)
hexstr2bin                                        /home/stoffer/esp8266/esp-open-sdk/sdk/lib/libwpa.a(common.o)
                                                  /home/stoffer/esp8266/esp-open-sdk/sdk/lib/libwpa.a(wpa.o)
                                                  /home/stoffer/esp8266/esp-open-sdk/sdk/lib/libmain.a(user_interface.o)
hmac_md5                                          /home/stoffer/esp8266/esp-open-sdk/sdk/lib/libwpa.a(wpa_common.o)
hmac_sha1                                         /home/stoffer/esp8266/esp-open-sdk/sdk/lib/libwpa.a(wpa_common.o)
hmac_sha1_vector                                  /home/stoffer/esp8266/esp-open-sdk/sdk/lib/libwpa.a(wpa_common.o)
hmac_sha256                                       build/app_app.a(hmac-sha256.o)
hmac_sha256_final                                 build/app_app.a(hmac-sha256.o)
                                                  build/app_app.a(crypto.o)
hmac_sha256_init                                  build/app_app.a(hmac-sha256.o)
                                                  build/app_app.a(crypto.o)
hmac_sha256_key                                   build/app_app.a(crypto.o)
hmac_sha256_update                                build/app_app.a(hmac-sha256.o)
                                                  build/app_app.a(crypto.o)
hostap_handle_timer                               /home/stoffer/esp8266/esp-open-sdk/sdk/lib/libnet80211.a(ieee80211_hostap.o)
hostap_input                                      /home/stoffer/esp8266/esp-open-sdk/sdk/lib/libnet80211.a(ieee80211_hostap.o)
                                                  /home/stoffer/esp8266/esp-open-sdk/sdk/lib/libpp.a(pp.o)
hostapd_config_defaults                           /home/stoffer/esp8266/esp-open-sdk/sdk/lib/libwpa.a(ap_config.o)
hostapd_config_defaults_bss                       /home/stoffer/esp8266/esp-open-sdk/sdk/lib/libwpa.a(ap_config.o)
hostapd_get_psk                                   /home/stoffer/esp8266/esp-open-sdk/sdk/lib/libwpa.a(ap_config.o)
                                                  /home/stoffer/esp8266/esp-open-sdk/sdk/lib/libwpa.a(wpa_auth.o)
hostapd_mac_comp                                  /home/stoffer/esp8266/esp-open-sdk/sdk/lib/libwpa.a(ap_config.o)
hostapd_mac_comp_empty                            /home/stoffer/esp8266/esp-open-sdk/sdk/lib/libwpa.a(ap_config.o)
hostapd_maclist_found                             /home/stoffer/esp8266/esp-open-sdk/sdk/lib/libwpa.a(ap_config.o)
hostapd_rate_found                                /home/stoffer/esp8266/esp-open-sdk/sdk/lib/libwpa.a(ap_config.o)
hostapd_setup_wpa_psk                             /home/stoffer/esp8266/esp-open-sdk/sdk/lib/libwpa.a(ap_config.o)
                                                  /home/stoffer/esp8266/esp-open-sdk/sdk/lib/libnet80211.a(ieee80211_hostap.o)
hostapd_wep_key_cmp                               /home/stoffer/esp8266/esp-open-sdk/sdk/lib/libwpa.a(ap_config.o)
hostname                                          /home/stoffer/esp8266/esp-open-sdk/sdk/lib/libmain.a(eagle_lwip_if.o)
                                                  /home/stoffer/esp8266/esp-open-sdk/sdk/lib/libmain.a(user_interface.o)
httpdEndHeaders                                   build/app_app.a(httpd.o)
                                                  build/app_app.a(httpdespfs.o)
                                                  build/app_app.a(cgi.o)
                                                  build/app_app.a(cgiwifi.o)
httpdFindArg                                      build/app_app.a(httpd.o)
                                                  build/app_app.a(cgi.o)
                                                  build/app_app.a(cgiwifi.o)
httpdGetHeader                                    build/app_app.a(httpd.o)
httpdGetMimetype                                  build/app_app.a(httpd.o)
                                                  build/app_app.a(httpdespfs.o)
httpdHeader                                       build/app_app.a(httpd.o)
                                                  build/app_app.a(httpdespfs.o)
                                                  build/app_app.a(cgi.o)
                                                  build/app_app.a(cgiwifi.o)
httpdInit                                         build/app_app.a(httpd.o)
                                                  build/app_app.a(httpd_user_init.o)
httpdRedirect                                     build/app_app.a(httpd.o)
                                                  build/app_app.a(cgi.o)
                                                  build/app_app.a(cgiwifi.o)
httpdSend                                         build/app_app.a(httpd.o)
                                                  build/app_app.a(httpdespfs.o)
                                                  build/app_app.a(cgi.o)
                                                  build/app_app.a(cgiwifi.o)
httpdStartResponse                                build/app_app.a(httpd.o)
                                                  build/app_app.a(httpdespfs.o)
                                                  build/app_app.a(cgi.o)
                                                  build/app_app.a(cgiwifi.o)
httpdStop                                         build/app_app.a(httpd.o)
                                                  build/app_app.a(user_main.o)
httpdUrlDecode                                    build/app_app.a(httpd.o)
httpd_user_init                                   build/app_app.a(httpd_user_init.o)
                                                  build/app_app.a(user_main.o)
ic_bss_info_update                                /home/stoffer/esp8266/esp-open-sdk/sdk/lib/libpp.a(if_hwctrl.o)
                                                  /home/stoffer/esp8266/esp-open-sdk/sdk/lib/libnet80211.a(ieee80211_sta.o)
                                                  /home/stoffer/esp8266/esp-open-sdk/sdk/lib/libnet80211.a(ieee80211_hostap.o)
ic_disable_interface                              /home/stoffer/esp8266/esp-open-sdk/sdk/lib/libpp.a(if_hwctrl.o)
ic_enable_interface                               /home/stoffer/esp8266/esp-open-sdk/sdk/lib/libpp.a(if_hwctrl.o)
ic_get_addr                                       /home/stoffer/esp8266/esp-open-sdk/sdk/lib/libpp.a(if_hwctrl.o)
                                                  /home/stoffer/esp8266/esp-open-sdk/sdk/lib/libpp.a(pm.o)
ic_get_gtk_alg                                    /home/stoffer/esp8266/esp-open-sdk/sdk/lib/libpp.a(if_hwctrl.o)
                                                  /home/stoffer/esp8266/esp-open-sdk/sdk/lib/libpp.a(pp.o)
ic_get_ptk_alg                                    /home/stoffer/esp8266/esp-open-sdk/sdk/lib/libpp.a(if_hwctrl.o)
                                                  /home/stoffer/esp8266/esp-open-sdk/sdk/lib/libpp.a(pp.o)
ic_get_rssi                                       /home/stoffer/esp8266/esp-open-sdk/sdk/lib/libpp.a(if_hwctrl.o)
                                                  /home/stoffer/esp8266/esp-open-sdk/sdk/lib/libmain.a(user_interface.o)
ic_interface_enabled                              /home/stoffer/esp8266/esp-open-sdk/sdk/lib/libpp.a(if_hwctrl.o)
ic_interface_is_p2p                               /home/stoffer/esp8266/esp-open-sdk/sdk/lib/libpp.a(if_hwctrl.o)
ic_is_pure_sta                                    /home/stoffer/esp8266/esp-open-sdk/sdk/lib/libpp.a(if_hwctrl.o)
                                                  /home/stoffer/esp8266/esp-open-sdk/sdk/lib/libpp.a(pp.o)
ic_remove_key                                     /home/stoffer/esp8266/esp-open-sdk/sdk/lib/libpp.a(if_hwctrl.o)
                                                  /home/stoffer/esp8266/esp-open-sdk/sdk/lib/libwpa.a(wpa_auth.o)
ic_set_gtk_alg                                    /home/stoffer/esp8266/esp-open-sdk/sdk/lib/libpp.a(if_hwctrl.o)
ic_set_key                                        /home/stoffer/esp8266/esp-open-sdk/sdk/lib/libpp.a(if_hwctrl.o)
                                                  /home/stoffer/esp8266/esp-open-sdk/sdk/lib/libwpa.a(wpa_main.o)
                                                  /home/stoffer/esp8266/esp-open-sdk/sdk/lib/libwpa.a(wpa_auth.o)
ic_set_opmode                                     /home/stoffer/esp8266/esp-open-sdk/sdk/lib/libpp.a(if_hwctrl.o)
ic_set_ptk_alg                                    /home/stoffer/esp8266/esp-open-sdk/sdk/lib/libpp.a(if_hwctrl.o)
ic_set_sta                                        /home/stoffer/esp8266/esp-open-sdk/sdk/lib/libpp.a(if_hwctrl.o)
                                                  /home/stoffer/esp8266/esp-open-sdk/sdk/lib/libnet80211.a(wl_cnx.o)
ic_set_vif                                        /home/stoffer/esp8266/esp-open-sdk/sdk/lib/libpp.a(if_hwctrl.o)
                                                  /home/stoffer/esp8266/esp-open-sdk/sdk/lib/libnet80211.a(ieee80211_sta.o)
                                                  /home/stoffer/esp8266/esp-open-sdk/sdk/lib/libnet80211.a(ieee80211_hostap.o)
                                                  /home/stoffer/esp8266/esp-open-sdk/sdk/lib/libmain.a(user_interface.o)
icmp_dest_unreach                                 /home/stoffer/esp8266/esp-open-sdk/sdk/lib/liblwip.a(icmp.o)
                                                  /home/stoffer/esp8266/esp-open-sdk/sdk/lib/liblwip.a(udp.o)
                                                  /home/stoffer/esp8266/esp-open-sdk/sdk/lib/liblwip.a(ip.o)
icmp_input                                        /home/stoffer/esp8266/esp-open-sdk/sdk/lib/liblwip.a(icmp.o)
                                                  /home/stoffer/esp8266/esp-open-sdk/sdk/lib/liblwip.a(ip.o)
idle_timer_reopen_flag                            /home/stoffer/esp8266/esp-open-sdk/sdk/lib/libpp.a(pp.o)
                                                  /home/stoffer/esp8266/esp-open-sdk/sdk/lib/libpp.a(pm.o)
ieee80211_action_vendor_spec_attach               /home/stoffer/esp8266/esp-open-sdk/sdk/lib/libnet80211.a(ieee80211_action_vendor.o)
                                                  /home/stoffer/esp8266/esp-open-sdk/sdk/lib/libnet80211.a(ieee80211.o)
ieee80211_add_action_vendor_spec_esp              /home/stoffer/esp8266/esp-open-sdk/sdk/lib/libnet80211.a(ieee80211_action_vendor.o)
ieee80211_add_htcap                               /home/stoffer/esp8266/esp-open-sdk/sdk/lib/libnet80211.a(ieee80211_ht.o)
                                                  /home/stoffer/esp8266/esp-open-sdk/sdk/lib/libnet80211.a(ieee80211_output.o)
ieee80211_add_htcap_vendor                        /home/stoffer/esp8266/esp-open-sdk/sdk/lib/libnet80211.a(ieee80211_ht.o)
                                                  /home/stoffer/esp8266/esp-open-sdk/sdk/lib/libnet80211.a(ieee80211_output.o)
ieee80211_add_htinfo                              /home/stoffer/esp8266/esp-open-sdk/sdk/lib/libnet80211.a(ieee80211_ht.o)
                                                  /home/stoffer/esp8266/esp-open-sdk/sdk/lib/libnet80211.a(ieee80211_output.o)
ieee80211_add_htinfo_vendor                       /home/stoffer/esp8266/esp-open-sdk/sdk/lib/libnet80211.a(ieee80211_ht.o)
                                                  /home/stoffer/esp8266/esp-open-sdk/sdk/lib/libnet80211.a(ieee80211_output.o)
ieee80211_add_ie_vendor_esp_freq_annon            /home/stoffer/esp8266/esp-open-sdk/sdk/lib/libnet80211.a(ieee80211_ie_vendor.o)
                                                  /home/stoffer/esp8266/esp-open-sdk/sdk/lib/libnet80211.a(ieee80211_output.o)
ieee80211_add_ie_vendor_esp_head                  /home/stoffer/esp8266/esp-open-sdk/sdk/lib/libnet80211.a(ieee80211_ie_vendor.o)
ieee80211_add_ie_vendor_esp_manufacturer          /home/stoffer/esp8266/esp-open-sdk/sdk/lib/libnet80211.a(ieee80211_ie_vendor.o)
                                                  /home/stoffer/esp8266/esp-open-sdk/sdk/lib/libnet80211.a(ieee80211_output.o)
ieee80211_add_ie_vendor_esp_mesh_assoc            /home/stoffer/esp8266/esp-open-sdk/sdk/lib/libnet80211.a(ieee80211_ie_vendor.o)
                                                  /home/stoffer/esp8266/esp-open-sdk/sdk/lib/libnet80211.a(ieee80211_mesh_quick.o)
ieee80211_add_ie_vendor_esp_mesh_group            /home/stoffer/esp8266/esp-open-sdk/sdk/lib/libnet80211.a(ieee80211_ie_vendor.o)
ieee80211_add_ie_vendor_esp_now                   /home/stoffer/esp8266/esp-open-sdk/sdk/lib/libnet80211.a(ieee80211_ie_vendor.o)
ieee80211_add_ie_vendor_esp_simple_pair           /home/stoffer/esp8266/esp-open-sdk/sdk/lib/libnet80211.a(ieee80211_ie_vendor.o)
                                                  /home/stoffer/esp8266/esp-open-sdk/sdk/lib/libnet80211.a(ieee80211_output.o)
ieee80211_add_ie_vendor_esp_ssid                  /home/stoffer/esp8266/esp-open-sdk/sdk/lib/libnet80211.a(ieee80211_ie_vendor.o)
                                                  /home/stoffer/esp8266/esp-open-sdk/sdk/lib/libnet80211.a(ieee80211_output.o)
ieee80211_add_rates                               /home/stoffer/esp8266/esp-open-sdk/sdk/lib/libnet80211.a(ieee80211_output.o)
ieee80211_add_xrates                              /home/stoffer/esp8266/esp-open-sdk/sdk/lib/libnet80211.a(ieee80211_output.o)
ieee80211_alloc_action_vendor_spec                /home/stoffer/esp8266/esp-open-sdk/sdk/lib/libnet80211.a(ieee80211_action_vendor.o)
ieee80211_alloc_challenge                         /home/stoffer/esp8266/esp-open-sdk/sdk/lib/libnet80211.a(ieee80211_input.o)
                                                  /home/stoffer/esp8266/esp-open-sdk/sdk/lib/libnet80211.a(ieee80211_sta.o)
ieee80211_alloc_countryie                         /home/stoffer/esp8266/esp-open-sdk/sdk/lib/libnet80211.a(ieee80211_regdomain.o)
                                                  /home/stoffer/esp8266/esp-open-sdk/sdk/lib/libnet80211.a(ieee80211_output.o)
ieee80211_alloc_deauth                            /home/stoffer/esp8266/esp-open-sdk/sdk/lib/libnet80211.a(ieee80211_output.o)
ieee80211_alloc_proberesp                         /home/stoffer/esp8266/esp-open-sdk/sdk/lib/libnet80211.a(ieee80211_output.o)
ieee80211_avs_clear_key_idx                       /home/stoffer/esp8266/esp-open-sdk/sdk/lib/libnet80211.a(ieee80211_action_vendor.o)
ieee80211_avs_fetch_key_idx                       /home/stoffer/esp8266/esp-open-sdk/sdk/lib/libnet80211.a(ieee80211_action_vendor.o)
ieee80211_beacon_alloc                            /home/stoffer/esp8266/esp-open-sdk/sdk/lib/libnet80211.a(ieee80211_output.o)
                                                  /home/stoffer/esp8266/esp-open-sdk/sdk/lib/libnet80211.a(ieee80211_hostap.o)
ieee80211_chan2ieee                               /home/stoffer/esp8266/esp-open-sdk/sdk/lib/libnet80211.a(ieee80211.o)
                                                  /home/stoffer/esp8266/esp-open-sdk/sdk/lib/libnet80211.a(wl_cnx.o)
                                                  /home/stoffer/esp8266/esp-open-sdk/sdk/lib/libnet80211.a(wl_chm.o)
                                                  /home/stoffer/esp8266/esp-open-sdk/sdk/lib/libnet80211.a(ieee80211_sta.o)
                                                  /home/stoffer/esp8266/esp-open-sdk/sdk/lib/libnet80211.a(ieee80211_scan.o)
                                                  /home/stoffer/esp8266/esp-open-sdk/sdk/lib/libnet80211.a(ieee80211_output.o)
                                                  /home/stoffer/esp8266/esp-open-sdk/sdk/lib/libnet80211.a(ieee80211_input.o)
                                                  /home/stoffer/esp8266/esp-open-sdk/sdk/lib/libnet80211.a(ieee80211_ht.o)
                                                  /home/stoffer/esp8266/esp-open-sdk/sdk/lib/libnet80211.a(ieee80211_hostap.o)
ieee80211_chan_in_regdomain                       /home/stoffer/esp8266/esp-open-sdk/sdk/lib/libnet80211.a(ieee80211_regdomain.o)
                                                  /home/stoffer/esp8266/esp-open-sdk/sdk/lib/libmain.a(user_interface.o)
                                                  /home/stoffer/esp8266/esp-open-sdk/sdk/lib/libmain.a(app_main.o)
ieee80211_crypto_attach                           /home/stoffer/esp8266/esp-open-sdk/sdk/lib/libnet80211.a(ieee80211_crypto.o)
                                                  /home/stoffer/esp8266/esp-open-sdk/sdk/lib/libnet80211.a(ieee80211.o)
ieee80211_crypto_available                        /home/stoffer/esp8266/esp-open-sdk/sdk/lib/libnet80211.a(ieee80211_crypto.o)
ieee80211_crypto_decap                            /home/stoffer/esp8266/esp-open-sdk/sdk/lib/libnet80211.a(ieee80211_crypto.o)
                                                  /home/stoffer/esp8266/esp-open-sdk/sdk/lib/libnet80211.a(ieee80211_sta.o)
                                                  /home/stoffer/esp8266/esp-open-sdk/sdk/lib/libnet80211.a(ieee80211_hostap.o)
ieee80211_crypto_encap                            /home/stoffer/esp8266/esp-open-sdk/sdk/lib/libnet80211.a(ieee80211_crypto.o)
                                                  /home/stoffer/esp8266/esp-open-sdk/sdk/lib/libnet80211.a(ieee80211_output.o)
ieee80211_crypto_setkey                           /home/stoffer/esp8266/esp-open-sdk/sdk/lib/libnet80211.a(ieee80211_crypto.o)
ieee80211_decap                                   /home/stoffer/esp8266/esp-open-sdk/sdk/lib/libnet80211.a(ieee80211_input.o)
                                                  /home/stoffer/esp8266/esp-open-sdk/sdk/lib/libnet80211.a(ieee80211_sta.o)
                                                  /home/stoffer/esp8266/esp-open-sdk/sdk/lib/libnet80211.a(ieee80211_hostap.o)
ieee80211_deliver_data                            /home/stoffer/esp8266/esp-open-sdk/sdk/lib/libnet80211.a(ieee80211_input.o)
                                                  /home/stoffer/esp8266/esp-open-sdk/sdk/lib/libnet80211.a(ieee80211_sta.o)
ieee80211_find_channel                            /home/stoffer/esp8266/esp-open-sdk/sdk/lib/libnet80211.a(ieee80211.o)
                                                  /home/stoffer/esp8266/esp-open-sdk/sdk/lib/libnet80211.a(ieee80211_ht.o)
ieee80211_find_channel_byieee                     /home/stoffer/esp8266/esp-open-sdk/sdk/lib/libnet80211.a(ieee80211.o)
ieee80211_freedom_init                            /home/stoffer/esp8266/esp-open-sdk/sdk/lib/libnet80211.a(ieee80211.o)
ieee80211_freedom_inside_cb                       /home/stoffer/esp8266/esp-open-sdk/sdk/lib/libnet80211.a(ieee80211.o)
ieee80211_freedom_output                          /home/stoffer/esp8266/esp-open-sdk/sdk/lib/libnet80211.a(ieee80211_output.o)
                                                  /home/stoffer/esp8266/esp-open-sdk/sdk/lib/libmain.a(user_interface.o)
ieee80211_getcapinfo                              /home/stoffer/esp8266/esp-open-sdk/sdk/lib/libnet80211.a(ieee80211_output.o)
ieee80211_getmgtframe                             /home/stoffer/esp8266/esp-open-sdk/sdk/lib/libnet80211.a(ieee80211_ets.o)
                                                  /home/stoffer/esp8266/esp-open-sdk/sdk/lib/libpp.a(pm.o)
                                                  /home/stoffer/esp8266/esp-open-sdk/sdk/lib/libnet80211.a(ieee80211_action_vendor.o)
                                                  /home/stoffer/esp8266/esp-open-sdk/sdk/lib/libnet80211.a(ieee80211_output.o)
                                                  /home/stoffer/esp8266/esp-open-sdk/sdk/lib/libnet80211.a(ieee80211_ht.o)
ieee80211_hostap_attach                           /home/stoffer/esp8266/esp-open-sdk/sdk/lib/libnet80211.a(ieee80211_hostap.o)
ieee80211_ht_attach                               /home/stoffer/esp8266/esp-open-sdk/sdk/lib/libnet80211.a(ieee80211_ht.o)
                                                  /home/stoffer/esp8266/esp-open-sdk/sdk/lib/libnet80211.a(ieee80211.o)
                                                  /home/stoffer/esp8266/esp-open-sdk/sdk/lib/libmain.a(user_interface.o)
ieee80211_ht_node_cleanup                         /home/stoffer/esp8266/esp-open-sdk/sdk/lib/libnet80211.a(ieee80211_ht.o)
ieee80211_ht_node_init                            /home/stoffer/esp8266/esp-open-sdk/sdk/lib/libnet80211.a(ieee80211_ht.o)
                                                  /home/stoffer/esp8266/esp-open-sdk/sdk/lib/libnet80211.a(ieee80211_sta.o)
ieee80211_ht_updateparams                         /home/stoffer/esp8266/esp-open-sdk/sdk/lib/libnet80211.a(ieee80211_ht.o)
                                                  /home/stoffer/esp8266/esp-open-sdk/sdk/lib/libnet80211.a(wl_cnx.o)
                                                  /home/stoffer/esp8266/esp-open-sdk/sdk/lib/libnet80211.a(ieee80211_sta.o)
ieee80211_ieee2mhz                                /home/stoffer/esp8266/esp-open-sdk/sdk/lib/libnet80211.a(ieee80211.o)
ieee80211_ifattach                                /home/stoffer/esp8266/esp-open-sdk/sdk/lib/libnet80211.a(ieee80211.o)
                                                  /home/stoffer/esp8266/esp-open-sdk/sdk/lib/libmain.a(app_main.o)
ieee80211_iserp_rateset                           /home/stoffer/esp8266/esp-open-sdk/sdk/lib/libnet80211.a(ieee80211_proto.o)
ieee80211_mesh_quick_deinit                       /home/stoffer/esp8266/esp-open-sdk/sdk/lib/libnet80211.a(ieee80211_mesh_quick.o)
ieee80211_mesh_quick_get                          /home/stoffer/esp8266/esp-open-sdk/sdk/lib/libnet80211.a(ieee80211_mesh_quick.o)
                                                  /home/stoffer/esp8266/esp-open-sdk/sdk/lib/libnet80211.a(ieee80211_output.o)
                                                  /home/stoffer/esp8266/esp-open-sdk/sdk/lib/libnet80211.a(ieee80211_hostap.o)
ieee80211_mesh_quick_ie_add                       /home/stoffer/esp8266/esp-open-sdk/sdk/lib/libnet80211.a(ieee80211_mesh_quick.o)
                                                  /home/stoffer/esp8266/esp-open-sdk/sdk/lib/libnet80211.a(ieee80211_output.o)
ieee80211_mesh_quick_init                         /home/stoffer/esp8266/esp-open-sdk/sdk/lib/libnet80211.a(ieee80211_mesh_quick.o)
ieee80211_mesh_quick_set                          /home/stoffer/esp8266/esp-open-sdk/sdk/lib/libnet80211.a(ieee80211_mesh_quick.o)
ieee80211_mgmt_output                             /home/stoffer/esp8266/esp-open-sdk/sdk/lib/libnet80211.a(ieee80211_output.o)
                                                  /home/stoffer/esp8266/esp-open-sdk/sdk/lib/libnet80211.a(ieee80211_ht.o)
ieee80211_mhz2ieee                                /home/stoffer/esp8266/esp-open-sdk/sdk/lib/libnet80211.a(ieee80211.o)
ieee80211_mlme_connect_bss                        /home/stoffer/esp8266/esp-open-sdk/sdk/lib/libnet80211.a(ieee80211_proto.o)
                                                  /home/stoffer/esp8266/esp-open-sdk/sdk/lib/libnet80211.a(wl_cnx.o)
ieee80211_node_pwrsave                            /home/stoffer/esp8266/esp-open-sdk/sdk/lib/libnet80211.a(ieee80211_power.o)
                                                  /home/stoffer/esp8266/esp-open-sdk/sdk/lib/libnet80211.a(ieee80211_hostap.o)
ieee80211_opcap                                   /home/stoffer/esp8266/esp-open-sdk/sdk/lib/libnet80211.a(ieee80211.o)
ieee80211_output_pbuf                             /home/stoffer/esp8266/esp-open-sdk/sdk/lib/libnet80211.a(ieee80211_output.o)
                                                  /home/stoffer/esp8266/esp-open-sdk/sdk/lib/libwpa.a(wpa_main.o)
                                                  /home/stoffer/esp8266/esp-open-sdk/sdk/lib/libwpa.a(wpa_auth.o)
                                                  /home/stoffer/esp8266/esp-open-sdk/sdk/lib/libnet80211.a(ieee80211_hostap.o)
                                                  /home/stoffer/esp8266/esp-open-sdk/sdk/lib/libmain.a(eagle_lwip_if.o)
ieee80211_parse_action                            /home/stoffer/esp8266/esp-open-sdk/sdk/lib/libnet80211.a(ieee80211_input.o)
                                                  /home/stoffer/esp8266/esp-open-sdk/sdk/lib/libnet80211.a(ieee80211_sta.o)
ieee80211_parse_beacon                            /home/stoffer/esp8266/esp-open-sdk/sdk/lib/libnet80211.a(ieee80211_input.o)
                                                  /home/stoffer/esp8266/esp-open-sdk/sdk/lib/libnet80211.a(ieee80211_sta.o)
                                                  /home/stoffer/esp8266/esp-open-sdk/sdk/lib/libnet80211.a(ieee80211_hostap.o)
ieee80211_parse_htcap                             /home/stoffer/esp8266/esp-open-sdk/sdk/lib/libnet80211.a(ieee80211_ht.o)
ieee80211_parse_rsn                               /home/stoffer/esp8266/esp-open-sdk/sdk/lib/libnet80211.a(ieee80211_input.o)
                                                  /home/stoffer/esp8266/esp-open-sdk/sdk/lib/libnet80211.a(ieee80211_scan.o)
ieee80211_parse_wmeparams                         /home/stoffer/esp8266/esp-open-sdk/sdk/lib/libnet80211.a(ieee80211_sta.o)
                                                  /home/stoffer/esp8266/esp-open-sdk/sdk/lib/libnet80211.a(wl_cnx.o)
ieee80211_parse_wpa                               /home/stoffer/esp8266/esp-open-sdk/sdk/lib/libnet80211.a(ieee80211_input.o)
                                                  /home/stoffer/esp8266/esp-open-sdk/sdk/lib/libnet80211.a(ieee80211_scan.o)
ieee80211_phy_init                                /home/stoffer/esp8266/esp-open-sdk/sdk/lib/libnet80211.a(ieee80211_phy.o)
                                                  /home/stoffer/esp8266/esp-open-sdk/sdk/lib/libmain.a(user_interface.o)
                                                  /home/stoffer/esp8266/esp-open-sdk/sdk/lib/libmain.a(app_main.o)
ieee80211_phy_type_get                            /home/stoffer/esp8266/esp-open-sdk/sdk/lib/libnet80211.a(ieee80211_phy.o)
                                                  /home/stoffer/esp8266/esp-open-sdk/sdk/lib/libnet80211.a(wl_cnx.o)
ieee80211_proto_attach                            /home/stoffer/esp8266/esp-open-sdk/sdk/lib/libnet80211.a(ieee80211_proto.o)
                                                  /home/stoffer/esp8266/esp-open-sdk/sdk/lib/libnet80211.a(ieee80211.o)
ieee80211_psq_cleanup                             /home/stoffer/esp8266/esp-open-sdk/sdk/lib/libnet80211.a(ieee80211_power.o)
ieee80211_psq_init                                /home/stoffer/esp8266/esp-open-sdk/sdk/lib/libnet80211.a(ieee80211_power.o)
                                                  /home/stoffer/esp8266/esp-open-sdk/sdk/lib/libnet80211.a(ieee80211_hostap.o)
ieee80211_pwrsave                                 /home/stoffer/esp8266/esp-open-sdk/sdk/lib/libnet80211.a(ieee80211_power.o)
                                                  /home/stoffer/esp8266/esp-open-sdk/sdk/lib/libnet80211.a(ieee80211_output.o)
ieee80211_rate_ref_init                           /home/stoffer/esp8266/esp-open-sdk/sdk/lib/libnet80211.a(ieee80211.o)
ieee80211_recv_action                             /home/stoffer/esp8266/esp-open-sdk/sdk/lib/libnet80211.a(ieee80211_action.o)
                                                  /home/stoffer/esp8266/esp-open-sdk/sdk/lib/libnet80211.a(ieee80211_sta.o)
                                                  /home/stoffer/esp8266/esp-open-sdk/sdk/lib/libnet80211.a(ieee80211_hostap.o)
ieee80211_recv_action_register                    /home/stoffer/esp8266/esp-open-sdk/sdk/lib/libnet80211.a(ieee80211_action.o)
                                                  /home/stoffer/esp8266/esp-open-sdk/sdk/lib/libnet80211.a(ieee80211_action_vendor.o)
                                                  /home/stoffer/esp8266/esp-open-sdk/sdk/lib/libnet80211.a(ieee80211_ht.o)
ieee80211_recv_action_unregister                  /home/stoffer/esp8266/esp-open-sdk/sdk/lib/libnet80211.a(ieee80211_action.o)
ieee80211_recv_action_vendor_spec                 /home/stoffer/esp8266/esp-open-sdk/sdk/lib/libnet80211.a(ieee80211_action_vendor.o)
ieee80211_regdomain_attach                        /home/stoffer/esp8266/esp-open-sdk/sdk/lib/libnet80211.a(ieee80211_regdomain.o)
ieee80211_regdomain_detach                        /home/stoffer/esp8266/esp-open-sdk/sdk/lib/libnet80211.a(ieee80211_regdomain.o)
ieee80211_rfid_locp_recv                          /home/stoffer/esp8266/esp-open-sdk/sdk/lib/libnet80211.a(ieee80211_rfid.o)
                                                  /home/stoffer/esp8266/esp-open-sdk/sdk/lib/libnet80211.a(ieee80211_hostap.o)
ieee80211_rfid_locp_recv_close                    /home/stoffer/esp8266/esp-open-sdk/sdk/lib/libnet80211.a(ieee80211_rfid.o)
                                                  /home/stoffer/esp8266/esp-open-sdk/sdk/lib/libmain.a(user_interface.o)
ieee80211_rfid_locp_recv_open                     /home/stoffer/esp8266/esp-open-sdk/sdk/lib/libnet80211.a(ieee80211_rfid.o)
                                                  /home/stoffer/esp8266/esp-open-sdk/sdk/lib/libmain.a(user_interface.o)
ieee80211_rfid_locp_recv_reset                    /home/stoffer/esp8266/esp-open-sdk/sdk/lib/libnet80211.a(ieee80211_rfid.o)
                                                  /home/stoffer/esp8266/esp-open-sdk/sdk/lib/libnet80211.a(ieee80211.o)
ieee80211_scan_attach                             /home/stoffer/esp8266/esp-open-sdk/sdk/lib/libnet80211.a(ieee80211_scan.o)
                                                  /home/stoffer/esp8266/esp-open-sdk/sdk/lib/libnet80211.a(ieee80211.o)
ieee80211_send_action                             /home/stoffer/esp8266/esp-open-sdk/sdk/lib/libnet80211.a(ieee80211_action.o)
                                                  /home/stoffer/esp8266/esp-open-sdk/sdk/lib/libnet80211.a(ieee80211_ht.o)
ieee80211_send_action_register                    /home/stoffer/esp8266/esp-open-sdk/sdk/lib/libnet80211.a(ieee80211_action.o)
                                                  /home/stoffer/esp8266/esp-open-sdk/sdk/lib/libnet80211.a(ieee80211_ht.o)
ieee80211_send_action_unregister                  /home/stoffer/esp8266/esp-open-sdk/sdk/lib/libnet80211.a(ieee80211_action.o)
ieee80211_send_action_vendor_spec                 /home/stoffer/esp8266/esp-open-sdk/sdk/lib/libnet80211.a(ieee80211_action_vendor.o)
ieee80211_send_deauth                             /home/stoffer/esp8266/esp-open-sdk/sdk/lib/libnet80211.a(ieee80211_output.o)
                                                  /home/stoffer/esp8266/esp-open-sdk/sdk/lib/libnet80211.a(ieee80211_hostap.o)
ieee80211_send_mgmt                               /home/stoffer/esp8266/esp-open-sdk/sdk/lib/libnet80211.a(ieee80211_output.o)
                                                  /home/stoffer/esp8266/esp-open-sdk/sdk/lib/libwpa.a(wpa_main.o)
                                                  /home/stoffer/esp8266/esp-open-sdk/sdk/lib/libnet80211.a(wl_cnx.o)
                                                  /home/stoffer/esp8266/esp-open-sdk/sdk/lib/libnet80211.a(ieee80211_sta.o)
                                                  /home/stoffer/esp8266/esp-open-sdk/sdk/lib/libnet80211.a(ieee80211_proto.o)
                                                  /home/stoffer/esp8266/esp-open-sdk/sdk/lib/libnet80211.a(ieee80211_hostap.o)
                                                  /home/stoffer/esp8266/esp-open-sdk/sdk/lib/libmain.a(user_interface.o)
ieee80211_send_nulldata                           /home/stoffer/esp8266/esp-open-sdk/sdk/lib/libnet80211.a(ieee80211_output.o)
                                                  /home/stoffer/esp8266/esp-open-sdk/sdk/lib/libnet80211.a(ieee80211_hostap.o)
ieee80211_send_probereq                           /home/stoffer/esp8266/esp-open-sdk/sdk/lib/libnet80211.a(ieee80211_output.o)
                                                  /home/stoffer/esp8266/esp-open-sdk/sdk/lib/libnet80211.a(wl_cnx.o)
                                                  /home/stoffer/esp8266/esp-open-sdk/sdk/lib/libnet80211.a(ieee80211_scan.o)
ieee80211_send_proberesp                          /home/stoffer/esp8266/esp-open-sdk/sdk/lib/libnet80211.a(ieee80211_output.o)
                                                  /home/stoffer/esp8266/esp-open-sdk/sdk/lib/libnet80211.a(ieee80211_hostap.o)
ieee80211_send_setup                              /home/stoffer/esp8266/esp-open-sdk/sdk/lib/libnet80211.a(ieee80211_output.o)
                                                  /home/stoffer/esp8266/esp-open-sdk/sdk/lib/libpp.a(pm.o)
                                                  /home/stoffer/esp8266/esp-open-sdk/sdk/lib/libnet80211.a(ieee80211_action_vendor.o)
ieee80211_set_shortslottime                       /home/stoffer/esp8266/esp-open-sdk/sdk/lib/libnet80211.a(ieee80211_proto.o)
                                                  /home/stoffer/esp8266/esp-open-sdk/sdk/lib/libnet80211.a(wl_cnx.o)
                                                  /home/stoffer/esp8266/esp-open-sdk/sdk/lib/libnet80211.a(ieee80211_sta.o)
ieee80211_set_tim                                 /home/stoffer/esp8266/esp-open-sdk/sdk/lib/libnet80211.a(ieee80211_power.o)
                                                  /home/stoffer/esp8266/esp-open-sdk/sdk/lib/libnet80211.a(ieee80211_hostap.o)
ieee80211_setup_basic_htrates                     /home/stoffer/esp8266/esp-open-sdk/sdk/lib/libnet80211.a(ieee80211_ht.o)
                                                  /home/stoffer/esp8266/esp-open-sdk/sdk/lib/libnet80211.a(ieee80211_sta.o)
ieee80211_setup_htrates                           /home/stoffer/esp8266/esp-open-sdk/sdk/lib/libnet80211.a(ieee80211_ht.o)
                                                  /home/stoffer/esp8266/esp-open-sdk/sdk/lib/libnet80211.a(ieee80211_sta.o)
ieee80211_setup_rates                             /home/stoffer/esp8266/esp-open-sdk/sdk/lib/libnet80211.a(ieee80211_input.o)
                                                  /home/stoffer/esp8266/esp-open-sdk/sdk/lib/libnet80211.a(ieee80211_sta.o)
                                                  /home/stoffer/esp8266/esp-open-sdk/sdk/lib/libnet80211.a(ieee80211_hostap.o)
ieee80211_setup_rateset                           /home/stoffer/esp8266/esp-open-sdk/sdk/lib/libnet80211.a(ieee80211_input.o)
                                                  /home/stoffer/esp8266/esp-open-sdk/sdk/lib/libnet80211.a(wl_cnx.o)
ieee80211_setup_ratetable                         /home/stoffer/esp8266/esp-open-sdk/sdk/lib/libnet80211.a(ieee80211_phy.o)
ieee80211_sta_new_state                           /home/stoffer/esp8266/esp-open-sdk/sdk/lib/libnet80211.a(ieee80211_sta.o)
                                                  /home/stoffer/esp8266/esp-open-sdk/sdk/lib/libwpa.a(wpa_main.o)
                                                  /home/stoffer/esp8266/esp-open-sdk/sdk/lib/libnet80211.a(wl_cnx.o)
                                                  /home/stoffer/esp8266/esp-open-sdk/sdk/lib/libnet80211.a(ieee80211_proto.o)
                                                  /home/stoffer/esp8266/esp-open-sdk/sdk/lib/libmain.a(user_interface.o)
ieee80211_tx_mgt_cb                               /home/stoffer/esp8266/esp-open-sdk/sdk/lib/libnet80211.a(ieee80211_output.o)
                                                  /home/stoffer/esp8266/esp-open-sdk/sdk/lib/libnet80211.a(ieee80211_proto.o)
ieee80211_update_regdomain                        /home/stoffer/esp8266/esp-open-sdk/sdk/lib/libnet80211.a(ieee80211_regdomain.o)
                                                  /home/stoffer/esp8266/esp-open-sdk/sdk/lib/libnet80211.a(wl_cnx.o)
ieee80211_user_ie_init                            /home/stoffer/esp8266/esp-open-sdk/sdk/lib/libnet80211.a(ieee80211.o)
ieee80211_wme_initparams                          /home/stoffer/esp8266/esp-open-sdk/sdk/lib/libnet80211.a(ieee80211_proto.o)
ieee80211_wme_updateparams                        /home/stoffer/esp8266/esp-open-sdk/sdk/lib/libnet80211.a(ieee80211_proto.o)
                                                  /home/stoffer/esp8266/esp-open-sdk/sdk/lib/libnet80211.a(wl_cnx.o)
                                                  /home/stoffer/esp8266/esp-open-sdk/sdk/lib/libnet80211.a(ieee80211_sta.o)
if_ctrl                                           /home/stoffer/esp8266/esp-open-sdk/sdk/lib/libpp.a(if_hwctrl.o)
igmp_init                                         /home/stoffer/esp8266/esp-open-sdk/sdk/lib/liblwip.a(igmp.o)
                                                  /home/stoffer/esp8266/esp-open-sdk/sdk/lib/liblwip.a(init.o)
igmp_input                                        /home/stoffer/esp8266/esp-open-sdk/sdk/lib/liblwip.a(igmp.o)
                                                  /home/stoffer/esp8266/esp-open-sdk/sdk/lib/liblwip.a(ip.o)
igmp_joingroup                                    /home/stoffer/esp8266/esp-open-sdk/sdk/lib/liblwip.a(igmp.o)
                                                  /home/stoffer/esp8266/esp-open-sdk/sdk/lib/liblwip.a(espconn_udp.o)
igmp_leavegroup                                   /home/stoffer/esp8266/esp-open-sdk/sdk/lib/liblwip.a(igmp.o)
                                                  /home/stoffer/esp8266/esp-open-sdk/sdk/lib/liblwip.a(espconn_udp.o)
igmp_lookfor_group                                /home/stoffer/esp8266/esp-open-sdk/sdk/lib/liblwip.a(igmp.o)
                                                  /home/stoffer/esp8266/esp-open-sdk/sdk/lib/liblwip.a(ip.o)
igmp_report_groups                                /home/stoffer/esp8266/esp-open-sdk/sdk/lib/liblwip.a(igmp.o)
                                                  /home/stoffer/esp8266/esp-open-sdk/sdk/lib/liblwip.a(netif.o)
igmp_start                                        /home/stoffer/esp8266/esp-open-sdk/sdk/lib/liblwip.a(igmp.o)
                                                  /home/stoffer/esp8266/esp-open-sdk/sdk/lib/liblwip.a(netif.o)
igmp_stop                                         /home/stoffer/esp8266/esp-open-sdk/sdk/lib/liblwip.a(igmp.o)
                                                  /home/stoffer/esp8266/esp-open-sdk/sdk/lib/liblwip.a(netif.o)
igmp_tmr                                          /home/stoffer/esp8266/esp-open-sdk/sdk/lib/liblwip.a(igmp.o)
                                                  /home/stoffer/esp8266/esp-open-sdk/sdk/lib/liblwip.a(timers.o)
inc_byte_array                                    /home/stoffer/esp8266/esp-open-sdk/sdk/lib/libwpa.a(common.o)
                                                  /home/stoffer/esp8266/esp-open-sdk/sdk/lib/libwpa.a(wpa.o)
                                                  /home/stoffer/esp8266/esp-open-sdk/sdk/lib/libwpa.a(wpa_auth.o)
inet_chksum                                       /home/stoffer/esp8266/esp-open-sdk/sdk/lib/liblwip.a(inet_chksum.o)
                                                  /home/stoffer/esp8266/esp-open-sdk/sdk/lib/liblwip.a(igmp.o)
                                                  /home/stoffer/esp8266/esp-open-sdk/sdk/lib/liblwip.a(icmp.o)
                                                  /home/stoffer/esp8266/esp-open-sdk/sdk/lib/liblwip.a(ip.o)
inet_chksum_pbuf                                  /home/stoffer/esp8266/esp-open-sdk/sdk/lib/liblwip.a(inet_chksum.o)
                                                  /home/stoffer/esp8266/esp-open-sdk/sdk/lib/liblwip.a(icmp.o)
inet_chksum_pseudo                                /home/stoffer/esp8266/esp-open-sdk/sdk/lib/liblwip.a(inet_chksum.o)
                                                  /home/stoffer/esp8266/esp-open-sdk/sdk/lib/liblwip.a(udp.o)
                                                  /home/stoffer/esp8266/esp-open-sdk/sdk/lib/liblwip.a(tcp_out.o)
                                                  /home/stoffer/esp8266/esp-open-sdk/sdk/lib/liblwip.a(tcp_in.o)
inet_chksum_pseudo_partial                        /home/stoffer/esp8266/esp-open-sdk/sdk/lib/liblwip.a(inet_chksum.o)
info                                              /home/stoffer/esp8266/esp-open-sdk/sdk/lib/libmain.a(app_main.o)
                                                  /home/stoffer/esp8266/esp-open-sdk/sdk/lib/libwpa.a(wpa_main.o)
                                                  /home/stoffer/esp8266/esp-open-sdk/sdk/lib/libnet80211.a(ieee80211_sta.o)
                                                  /home/stoffer/esp8266/esp-open-sdk/sdk/lib/libnet80211.a(ieee80211_hostap.o)
                                                  /home/stoffer/esp8266/esp-open-sdk/sdk/lib/libnet80211.a(ieee80211.o)
                                                  /home/stoffer/esp8266/esp-open-sdk/sdk/lib/libmain.a(user_interface.o)
init_aes_hmac_combined                            build/app_app.a(crypto.o)
                                                  build/app_app.a(user_main.o)
init_cal_dcoffset                                 /home/stoffer/esp8266/esp-open-sdk/sdk/lib/libphy.a(phy_chip_v6_cal.o)
                                                  /home/stoffer/esp8266/esp-open-sdk/sdk/lib/libphy.a(phy_chip_v6.o)
init_printf                                       build/app_app.a(tinyprintf.o)
init_rf_no_cal                                    /home/stoffer/esp8266/esp-open-sdk/sdk/lib/libphy.a(phy_chip_v6.o)
                                                  /home/stoffer/esp8266/esp-open-sdk/sdk/lib/libphy.a(phy_chip_v6_ana.o)
init_time                                         build/app_app.a(unix_time.o)
init_unix_time                                    build/app_app.a(unix_time.o)
                                                  build/app_app.a(user_main.o)
init_watchdog                                     build/app_app.a(watchdog.o)
                                                  build/app_app.a(user_main.o)
int_pow                                           build/app_app.a(utils.o)
                                                  build/app_app.a(kmp.o)
interface_mask                                    /home/stoffer/esp8266/esp-open-sdk/sdk/lib/libpp.a(if_hwctrl.o)
ip4_addr_isbroadcast                              /home/stoffer/esp8266/esp-open-sdk/sdk/lib/liblwip.a(ip_addr.o)
                                                  /home/stoffer/esp8266/esp-open-sdk/sdk/lib/liblwip.a(icmp.o)
                                                  /home/stoffer/esp8266/esp-open-sdk/sdk/lib/liblwip.a(espconn_udp.o)
                                                  /home/stoffer/esp8266/esp-open-sdk/sdk/lib/liblwip.a(udp.o)
                                                  /home/stoffer/esp8266/esp-open-sdk/sdk/lib/liblwip.a(tcp_in.o)
                                                  /home/stoffer/esp8266/esp-open-sdk/sdk/lib/liblwip.a(ip.o)
                                                  /home/stoffer/esp8266/esp-open-sdk/sdk/lib/liblwip.a(etharp.o)
ip4_addr_netmask_valid                            /home/stoffer/esp8266/esp-open-sdk/sdk/lib/liblwip.a(ip_addr.o)
ip_addr_any                                       /home/stoffer/esp8266/esp-open-sdk/sdk/lib/liblwip.a(ip_addr.o)
                                                  /home/stoffer/esp8266/esp-open-sdk/sdk/lib/liblwip.a(sntp.o)
                                                  /home/stoffer/esp8266/esp-open-sdk/sdk/lib/liblwip.a(igmp.o)
                                                  /home/stoffer/esp8266/esp-open-sdk/sdk/lib/liblwip.a(espconn_udp.o)
                                                  /home/stoffer/esp8266/esp-open-sdk/sdk/lib/liblwip.a(espconn_tcp.o)
                                                  /home/stoffer/esp8266/esp-open-sdk/sdk/lib/liblwip.a(dns.o)
                                                  /home/stoffer/esp8266/esp-open-sdk/sdk/lib/liblwip.a(dhcpserver.o)
                                                  /home/stoffer/esp8266/esp-open-sdk/sdk/lib/liblwip.a(dhcp.o)
ip_addr_broadcast                                 /home/stoffer/esp8266/esp-open-sdk/sdk/lib/liblwip.a(ip_addr.o)
                                                  /home/stoffer/esp8266/esp-open-sdk/sdk/lib/liblwip.a(dhcp.o)
ip_input                                          /home/stoffer/esp8266/esp-open-sdk/sdk/lib/liblwip.a(ip.o)
                                                  /home/stoffer/esp8266/esp-open-sdk/sdk/lib/liblwip.a(etharp.o)
ip_output                                         /home/stoffer/esp8266/esp-open-sdk/sdk/lib/liblwip.a(ip.o)
                                                  /home/stoffer/esp8266/esp-open-sdk/sdk/lib/liblwip.a(icmp.o)
                                                  /home/stoffer/esp8266/esp-open-sdk/sdk/lib/liblwip.a(tcp_out.o)
ip_output_if                                      /home/stoffer/esp8266/esp-open-sdk/sdk/lib/liblwip.a(ip.o)
                                                  /home/stoffer/esp8266/esp-open-sdk/sdk/lib/liblwip.a(icmp.o)
                                                  /home/stoffer/esp8266/esp-open-sdk/sdk/lib/liblwip.a(udp.o)
                                                  /home/stoffer/esp8266/esp-open-sdk/sdk/lib/liblwip.a(raw.o)
ip_output_if_opt                                  /home/stoffer/esp8266/esp-open-sdk/sdk/lib/liblwip.a(ip.o)
                                                  /home/stoffer/esp8266/esp-open-sdk/sdk/lib/liblwip.a(igmp.o)
ip_route                                          /home/stoffer/esp8266/esp-open-sdk/sdk/lib/liblwip.a(ip.o)
                                                  /home/stoffer/esp8266/esp-open-sdk/sdk/lib/liblwip.a(udp.o)
                                                  /home/stoffer/esp8266/esp-open-sdk/sdk/lib/liblwip.a(tcp_out.o)
                                                  /home/stoffer/esp8266/esp-open-sdk/sdk/lib/liblwip.a(tcp.o)
                                                  /home/stoffer/esp8266/esp-open-sdk/sdk/lib/liblwip.a(raw.o)
ip_router                                         /home/stoffer/esp8266/esp-open-sdk/sdk/lib/liblwip.a(ip.o)
ipaddr_addr                                       /home/stoffer/esp8266/esp-open-sdk/sdk/lib/liblwip.a(ip_addr.o)
                                                  /home/stoffer/esp8266/esp-open-sdk/sdk/lib/liblwip.a(dns.o)
ipaddr_aton                                       /home/stoffer/esp8266/esp-open-sdk/sdk/lib/liblwip.a(ip_addr.o)
ipaddr_ntoa                                       /home/stoffer/esp8266/esp-open-sdk/sdk/lib/liblwip.a(ip_addr.o)
ipaddr_ntoa_r                                     /home/stoffer/esp8266/esp-open-sdk/sdk/lib/liblwip.a(ip_addr.o)
kmp_byte_stuff                                    build/app_app.a(kmp.o)
kmp_byte_unstuff                                  build/app_app.a(kmp.o)
kmp_crc16                                         build/app_app.a(kmp.o)
kmp_data_length                                   build/app_app.a(kmp.o)
kmp_decode_frame                                  build/app_app.a(kmp.o)
                                                  build/app_app.a(kmp_request.o)
kmp_fifo_get                                      build/app_app.a(kmp_request.o)
kmp_fifo_in_use                                   build/app_app.a(kmp_request.o)
kmp_fifo_put                                      build/app_app.a(kmp_request.o)
                                                  build/app_app.a(uart.o)
kmp_fifo_snoop                                    build/app_app.a(kmp_request.o)
kmp_frame                                         build/app_app.a(kmp.o)
kmp_frame_length                                  build/app_app.a(kmp.o)
kmp_get_received_serial                           build/app_app.a(kmp_request.o)
                                                  build/app_app.a(user_main.o)
kmp_get_register                                  build/app_app.a(kmp.o)
                                                  build/app_app.a(kmp_request.o)
kmp_get_serial                                    build/app_app.a(kmp.o)
                                                  build/app_app.a(kmp_request.o)
kmp_get_type                                      build/app_app.a(kmp.o)
kmp_received_task_queue                           build/app_app.a(uart.o)
                                                  build/app_app.a(kmp_request.o)
                                                  build/app_app.a(user_main.o)
kmp_request_init                                  build/app_app.a(kmp_request.o)
                                                  build/app_app.a(user_main.o)
kmp_request_send                                  build/app_app.a(kmp_request.o)
                                                  build/app_app.a(user_main.o)
kmp_requests_sent                                 build/app_app.a(kmp_request.o)
kmp_response                                      build/app_app.a(kmp.o)
kmp_serial                                        build/app_app.a(kmp_request.o)
kmp_set_clock                                     build/app_app.a(kmp.o)
kmp_set_mqtt_client                               build/app_app.a(kmp_request.o)
                                                  build/app_app.a(user_main.o)
kmp_unit_to_string                                build/app_app.a(kmp.o)
                                                  build/app_app.a(kmp_request.o)
kmp_value_to_double                               build/app_app.a(kmp.o)
kmp_value_to_string                               build/app_app.a(kmp.o)
                                                  build/app_app.a(kmp_request.o)
kw_to_w_str                                       build/app_app.a(utils.o)
last_fill_cnt                                     build/app_app.a(queue.o)
last_rb_p_r                                       build/app_app.a(queue.o)
last_rb_p_w                                       build/app_app.a(queue.o)
led_init                                          build/app_app.a(led.o)
                                                  build/app_app.a(user_main.o)
led_off                                           build/app_app.a(led.o)
led_on                                            build/app_app.a(led.o)
led_pattern_a                                     build/app_app.a(led.o)
led_pattern_b                                     build/app_app.a(led.o)
                                                  build/app_app.a(wifi.o)
led_stop_pattern                                  build/app_app.a(led.o)
                                                  build/app_app.a(wifi.o)
                                                  build/app_app.a(ac_out.o)
lldesc_build_chain                                /home/stoffer/esp8266/esp-open-sdk/sdk/lib/libpp.a(wdev.o)
lldesc_num2link                                   /home/stoffer/esp8266/esp-open-sdk/sdk/lib/libpp.a(pp.o)
lmacConfMib                                       /home/stoffer/esp8266/esp-open-sdk/sdk/lib/libpp.a(lmac.o)
                                                  /home/stoffer/esp8266/esp-open-sdk/sdk/lib/libpp.a(trc.o)
lmacDiscardAgedMSDU                               /home/stoffer/esp8266/esp-open-sdk/sdk/lib/libpp.a(lmac.o)
                                                  /home/stoffer/esp8266/esp-open-sdk/sdk/lib/libpp.a(pp.o)
lmacInit                                          /home/stoffer/esp8266/esp-open-sdk/sdk/lib/libpp.a(lmac.o)
                                                  /home/stoffer/esp8266/esp-open-sdk/sdk/lib/libmain.a(app_main.o)
lmacInitAc                                        /home/stoffer/esp8266/esp-open-sdk/sdk/lib/libpp.a(lmac.o)
lmacIsActive                                      /home/stoffer/esp8266/esp-open-sdk/sdk/lib/libpp.a(lmac.o)
lmacIsIdle                                        /home/stoffer/esp8266/esp-open-sdk/sdk/lib/libpp.a(lmac.o)
                                                  /home/stoffer/esp8266/esp-open-sdk/sdk/lib/libpp.a(pp.o)
lmacMSDUAged                                      /home/stoffer/esp8266/esp-open-sdk/sdk/lib/libpp.a(lmac.o)
                                                  /home/stoffer/esp8266/esp-open-sdk/sdk/lib/libpp.a(pp.o)
lmacProcessAckTimeout                             /home/stoffer/esp8266/esp-open-sdk/sdk/lib/libpp.a(lmac.o)
                                                  /home/stoffer/esp8266/esp-open-sdk/sdk/lib/libpp.a(wdev.o)
lmacProcessAllTxTimeout                           /home/stoffer/esp8266/esp-open-sdk/sdk/lib/libpp.a(lmac.o)
                                                  /home/stoffer/esp8266/esp-open-sdk/sdk/lib/libpp.a(wdev.o)
lmacProcessCollision                              /home/stoffer/esp8266/esp-open-sdk/sdk/lib/libpp.a(lmac.o)
lmacProcessCollisions                             /home/stoffer/esp8266/esp-open-sdk/sdk/lib/libpp.a(lmac.o)
                                                  /home/stoffer/esp8266/esp-open-sdk/sdk/lib/libpp.a(wdev.o)
lmacProcessCtsTimeout                             /home/stoffer/esp8266/esp-open-sdk/sdk/lib/libpp.a(lmac.o)
                                                  /home/stoffer/esp8266/esp-open-sdk/sdk/lib/libpp.a(wdev.o)
lmacProcessRtsStart                               /home/stoffer/esp8266/esp-open-sdk/sdk/lib/libpp.a(lmac.o)
                                                  /home/stoffer/esp8266/esp-open-sdk/sdk/lib/libpp.a(wdev.o)
lmacProcessTXStartData                            /home/stoffer/esp8266/esp-open-sdk/sdk/lib/libpp.a(lmac.o)
                                                  /home/stoffer/esp8266/esp-open-sdk/sdk/lib/libpp.a(wdev.o)
lmacProcessTxError                                /home/stoffer/esp8266/esp-open-sdk/sdk/lib/libpp.a(lmac.o)
                                                  /home/stoffer/esp8266/esp-open-sdk/sdk/lib/libpp.a(wdev.o)
lmacProcessTxRtsError                             /home/stoffer/esp8266/esp-open-sdk/sdk/lib/libpp.a(lmac.o)
                                                  /home/stoffer/esp8266/esp-open-sdk/sdk/lib/libpp.a(wdev.o)
lmacProcessTxSuccess                              /home/stoffer/esp8266/esp-open-sdk/sdk/lib/libpp.a(lmac.o)
                                                  /home/stoffer/esp8266/esp-open-sdk/sdk/lib/libpp.a(wdev.o)
lmacProcessTxTimeout                              /home/stoffer/esp8266/esp-open-sdk/sdk/lib/libpp.a(lmac.o)
                                                  /home/stoffer/esp8266/esp-open-sdk/sdk/lib/libpp.a(pp.o)
lmacRecycleMPDU                                   /home/stoffer/esp8266/esp-open-sdk/sdk/lib/libpp.a(lmac.o)
lmacRxDone                                        /home/stoffer/esp8266/esp-open-sdk/sdk/lib/libpp.a(lmac.o)
                                                  /home/stoffer/esp8266/esp-open-sdk/sdk/lib/libpp.a(wdev.o)
lmacSetAcParam                                    /home/stoffer/esp8266/esp-open-sdk/sdk/lib/libpp.a(lmac.o)
lmacSetRetryLimit                                 /home/stoffer/esp8266/esp-open-sdk/sdk/lib/libpp.a(lmac.o)
lmacTxFrame                                       /home/stoffer/esp8266/esp-open-sdk/sdk/lib/libpp.a(lmac.o)
                                                  /home/stoffer/esp8266/esp-open-sdk/sdk/lib/libpp.a(pp.o)
low_power_set                                     /home/stoffer/esp8266/esp-open-sdk/sdk/lib/libphy.a(phy_chip_v6_ana.o)
                                                  /home/stoffer/esp8266/esp-open-sdk/sdk/lib/libphy.a(phy_chip_v6.o)
lslp_mem_opt_8266                                 /home/stoffer/esp8266/esp-open-sdk/sdk/lib/libphy.a(phy_sleep.o)
lwip_init                                         /home/stoffer/esp8266/esp-open-sdk/sdk/lib/liblwip.a(init.o)
                                                  /home/stoffer/esp8266/esp-open-sdk/sdk/lib/libmain.a(app_main.o)
lwip_timer_interval                               /home/stoffer/esp8266/esp-open-sdk/sdk/lib/libmain.a(app_main.o)
                                                  /home/stoffer/esp8266/esp-open-sdk/sdk/lib/libpp.a(pm.o)
meas_tone_pwr_db                                  /home/stoffer/esp8266/esp-open-sdk/sdk/lib/libphy.a(phy_chip_v6_cal.o)
memchr                                            /home/stoffer/esp8266/esp-open-sdk/xtensa-lx106-elf/lib/gcc/xtensa-lx106-elf/4.8.5/../../../../xtensa-lx106-elf/lib/libc.a(lib_a-memchr.o)
                                                  /home/stoffer/esp8266/esp-open-sdk/sdk/lib/liblwip.a(espconn_buf.o)
memcpy                                            /home/stoffer/esp8266/esp-open-sdk/xtensa-lx106-elf/lib/gcc/xtensa-lx106-elf/4.8.5/../../../../xtensa-lx106-elf/lib/libc.a(lib_a-memcpy.o)
                                                  build/app_app.a(mqtt_msg.o)
memcpyAligned                                     build/app_app.a(espfs.o)
memp_sizes                                        /home/stoffer/esp8266/esp-open-sdk/sdk/lib/liblwip.a(memp.o)
                                                  /home/stoffer/esp8266/esp-open-sdk/sdk/lib/liblwip.a(igmp.o)
                                                  /home/stoffer/esp8266/esp-open-sdk/sdk/lib/liblwip.a(udp.o)
                                                  /home/stoffer/esp8266/esp-open-sdk/sdk/lib/liblwip.a(timers.o)
                                                  /home/stoffer/esp8266/esp-open-sdk/sdk/lib/liblwip.a(tcp_out.o)
                                                  /home/stoffer/esp8266/esp-open-sdk/sdk/lib/liblwip.a(tcp.o)
                                                  /home/stoffer/esp8266/esp-open-sdk/sdk/lib/liblwip.a(raw.o)
                                                  /home/stoffer/esp8266/esp-open-sdk/sdk/lib/liblwip.a(pbuf.o)
                                                  /home/stoffer/esp8266/esp-open-sdk/sdk/lib/liblwip.a(etharp.o)
memp_sizes_test                                   /home/stoffer/esp8266/esp-open-sdk/sdk/lib/liblwip.a(memp.o)
memset                                            /home/stoffer/esp8266/esp-open-sdk/xtensa-lx106-elf/lib/gcc/xtensa-lx106-elf/4.8.5/../../../../xtensa-lx106-elf/lib/libc.a(lib_a-memset.o)
                                                  build/app_app.a(mqtt_msg.o)
micros                                            /home/stoffer/esp8266/esp-open-sdk/sdk/lib/libmain.a(time.o)
millis                                            /home/stoffer/esp8266/esp-open-sdk/sdk/lib/libmain.a(time.o)
mqttConnectedCb                                   build/app_app.a(user_main.o)
mqttDataCb                                        build/app_app.a(user_main.o)
mqttDisconnectedCb                                build/app_app.a(user_main.o)
mqttPublishedCb                                   build/app_app.a(user_main.o)
mqttTimeoutCb                                     build/app_app.a(user_main.o)
mqtt_client                                       build/app_app.a(user_main.o)
mqtt_client_delete                                build/app_app.a(mqtt.o)
mqtt_get_id                                       build/app_app.a(mqtt_msg.o)
                                                  build/app_app.a(mqtt.o)
mqtt_get_publish_data                             build/app_app.a(mqtt_msg.o)
                                                  build/app_app.a(mqtt.o)
mqtt_get_publish_topic                            build/app_app.a(mqtt_msg.o)
                                                  build/app_app.a(mqtt.o)
mqtt_get_total_length                             build/app_app.a(mqtt_msg.o)
                                                  build/app_app.a(mqtt.o)
mqtt_msg_connect                                  build/app_app.a(mqtt_msg.o)
                                                  build/app_app.a(mqtt.o)
mqtt_msg_disconnect                               build/app_app.a(mqtt_msg.o)
mqtt_msg_init                                     build/app_app.a(mqtt_msg.o)
                                                  build/app_app.a(mqtt.o)
mqtt_msg_pingreq                                  build/app_app.a(mqtt_msg.o)
                                                  build/app_app.a(mqtt.o)
mqtt_msg_pingresp                                 build/app_app.a(mqtt_msg.o)
                                                  build/app_app.a(mqtt.o)
mqtt_msg_puback                                   build/app_app.a(mqtt_msg.o)
                                                  build/app_app.a(mqtt.o)
mqtt_msg_pubcomp                                  build/app_app.a(mqtt_msg.o)
                                                  build/app_app.a(mqtt.o)
mqtt_msg_publish                                  build/app_app.a(mqtt_msg.o)
                                                  build/app_app.a(mqtt.o)
mqtt_msg_pubrec                                   build/app_app.a(mqtt_msg.o)
                                                  build/app_app.a(mqtt.o)
mqtt_msg_pubrel                                   build/app_app.a(mqtt_msg.o)
                                                  build/app_app.a(mqtt.o)
mqtt_msg_subscribe                                build/app_app.a(mqtt_msg.o)
                                                  build/app_app.a(mqtt.o)
mqtt_msg_unsubscribe                              build/app_app.a(mqtt_msg.o)
                                                  build/app_app.a(mqtt.o)
mqtt_procTaskQueue                                build/app_app.a(mqtt.o)
mqtt_send_keepalive                               build/app_app.a(mqtt.o)
mqtt_tcpclient_connect_cb                         build/app_app.a(mqtt.o)
mqtt_tcpclient_delete                             build/app_app.a(mqtt.o)
mqtt_tcpclient_discon_cb                          build/app_app.a(mqtt.o)
mqtt_tcpclient_recon_cb                           build/app_app.a(mqtt.o)
mqtt_tcpclient_recv                               build/app_app.a(mqtt.o)
mqtt_tcpclient_sent_cb                            build/app_app.a(mqtt.o)
mqtt_timer                                        build/app_app.a(mqtt.o)
myPassFn                                          build/app_app.a(httpd_user_init.o)
netif_add                                         /home/stoffer/esp8266/esp-open-sdk/sdk/lib/liblwip.a(netif.o)
                                                  /home/stoffer/esp8266/esp-open-sdk/sdk/lib/libmain.a(eagle_lwip_if.o)
netif_default                                     /home/stoffer/esp8266/esp-open-sdk/sdk/lib/liblwip.a(netif.o)
                                                  /home/stoffer/esp8266/esp-open-sdk/sdk/lib/liblwip.a(ip.o)
                                                  /home/stoffer/esp8266/esp-open-sdk/sdk/lib/libmain.a(user_interface.o)
netif_find                                        /home/stoffer/esp8266/esp-open-sdk/sdk/lib/liblwip.a(netif.o)
netif_init                                        /home/stoffer/esp8266/esp-open-sdk/sdk/lib/liblwip.a(netif.o)
                                                  /home/stoffer/esp8266/esp-open-sdk/sdk/lib/liblwip.a(init.o)
netif_list                                        /home/stoffer/esp8266/esp-open-sdk/sdk/lib/liblwip.a(netif.o)
                                                  /home/stoffer/esp8266/esp-open-sdk/sdk/lib/liblwip.a(igmp.o)
                                                  /home/stoffer/esp8266/esp-open-sdk/sdk/lib/liblwip.a(ip.o)
                                                  /home/stoffer/esp8266/esp-open-sdk/sdk/lib/liblwip.a(dhcp.o)
netif_remove                                      /home/stoffer/esp8266/esp-open-sdk/sdk/lib/liblwip.a(netif.o)
                                                  /home/stoffer/esp8266/esp-open-sdk/sdk/lib/libmain.a(eagle_lwip_if.o)
netif_set_addr                                    /home/stoffer/esp8266/esp-open-sdk/sdk/lib/liblwip.a(netif.o)
                                                  /home/stoffer/esp8266/esp-open-sdk/sdk/lib/libwpa.a(wpa_main.o)
                                                  /home/stoffer/esp8266/esp-open-sdk/sdk/lib/libmain.a(eagle_lwip_if.o)
                                                  /home/stoffer/esp8266/esp-open-sdk/sdk/lib/libmain.a(user_interface.o)
netif_set_default                                 /home/stoffer/esp8266/esp-open-sdk/sdk/lib/liblwip.a(netif.o)
                                                  /home/stoffer/esp8266/esp-open-sdk/sdk/lib/liblwip.a(espconn_udp.o)
                                                  /home/stoffer/esp8266/esp-open-sdk/sdk/lib/libnet80211.a(ieee80211_hostap.o)
                                                  /home/stoffer/esp8266/esp-open-sdk/sdk/lib/libmain.a(user_interface.o)
                                                  /home/stoffer/esp8266/esp-open-sdk/sdk/lib/libmain.a(app_main.o)
netif_set_down                                    /home/stoffer/esp8266/esp-open-sdk/sdk/lib/liblwip.a(netif.o)
                                                  /home/stoffer/esp8266/esp-open-sdk/sdk/lib/liblwip.a(dhcp.o)
                                                  /home/stoffer/esp8266/esp-open-sdk/sdk/lib/libnet80211.a(wl_cnx.o)
                                                  /home/stoffer/esp8266/esp-open-sdk/sdk/lib/libnet80211.a(ieee80211_hostap.o)
netif_set_gw                                      /home/stoffer/esp8266/esp-open-sdk/sdk/lib/liblwip.a(netif.o)
                                                  /home/stoffer/esp8266/esp-open-sdk/sdk/lib/liblwip.a(dhcp.o)
netif_set_ipaddr                                  /home/stoffer/esp8266/esp-open-sdk/sdk/lib/liblwip.a(netif.o)
                                                  /home/stoffer/esp8266/esp-open-sdk/sdk/lib/liblwip.a(dhcp.o)
netif_set_link_down                               /home/stoffer/esp8266/esp-open-sdk/sdk/lib/liblwip.a(netif.o)
netif_set_link_up                                 /home/stoffer/esp8266/esp-open-sdk/sdk/lib/liblwip.a(netif.o)
netif_set_netmask                                 /home/stoffer/esp8266/esp-open-sdk/sdk/lib/liblwip.a(netif.o)
                                                  /home/stoffer/esp8266/esp-open-sdk/sdk/lib/liblwip.a(dhcp.o)
netif_set_up                                      /home/stoffer/esp8266/esp-open-sdk/sdk/lib/liblwip.a(netif.o)
                                                  /home/stoffer/esp8266/esp-open-sdk/sdk/lib/liblwip.a(dhcp.o)
                                                  /home/stoffer/esp8266/esp-open-sdk/sdk/lib/libwpa.a(wpa_main.o)
                                                  /home/stoffer/esp8266/esp-open-sdk/sdk/lib/libnet80211.a(ieee80211_hostap.o)
no_ap_found_index                                 /home/stoffer/esp8266/esp-open-sdk/sdk/lib/libnet80211.a(wl_cnx.o)
                                                  /home/stoffer/esp8266/esp-open-sdk/sdk/lib/libwpa.a(wpa_main.o)
                                                  /home/stoffer/esp8266/esp-open-sdk/sdk/lib/libmain.a(user_interface.o)
node_insert_to_list                               /home/stoffer/esp8266/esp-open-sdk/sdk/lib/liblwip.a(dhcpserver.o)
node_remove_from_list                             /home/stoffer/esp8266/esp-open-sdk/sdk/lib/liblwip.a(dhcpserver.o)
noise_array                                       /home/stoffer/esp8266/esp-open-sdk/sdk/lib/libphy.a(phy_chip_v6.o)
noise_check_loop                                  /home/stoffer/esp8266/esp-open-sdk/sdk/lib/libphy.a(phy_chip_v6.o)
                                                  /home/stoffer/esp8266/esp-open-sdk/sdk/lib/libphy.a(phy_sleep.o)
                                                  /home/stoffer/esp8266/esp-open-sdk/sdk/lib/libpp.a(pp.o)
                                                  /home/stoffer/esp8266/esp-open-sdk/sdk/lib/libpp.a(pm_for_bcn_only_mode.o)
                                                  /home/stoffer/esp8266/esp-open-sdk/sdk/lib/libpp.a(pm.o)
                                                  /home/stoffer/esp8266/esp-open-sdk/sdk/lib/libnet80211.a(ieee80211_hostap.o)
noise_init                                        /home/stoffer/esp8266/esp-open-sdk/sdk/lib/libphy.a(phy_chip_v6.o)
ntp_offline_second_counter                        build/app_app.a(unix_time.o)
os_get_random                                     /home/stoffer/esp8266/esp-open-sdk/sdk/lib/libwpa.a(os_xtensa.o)
                                                  build/app_app.a(crypto.o)
                                                  /home/stoffer/esp8266/esp-open-sdk/sdk/lib/libwpa.a(wpa.o)
                                                  /home/stoffer/esp8266/esp-open-sdk/sdk/lib/libwpa.a(wpa_auth.o)
os_get_time                                       /home/stoffer/esp8266/esp-open-sdk/sdk/lib/libwpa.a(os_xtensa.o)
                                                  /home/stoffer/esp8266/esp-open-sdk/sdk/lib/libwpa.a(common.o)
os_printf_plus                                    /home/stoffer/esp8266/esp-open-sdk/sdk/lib/libmain.a(user_interface.o)
                                                  /home/stoffer/esp8266/esp-open-sdk/sdk/lib/liblwip.a(sntp.o)
                                                  build/app_app.a(espfs.o)
                                                  build/app_app.a(cgi.o)
                                                  build/app_app.a(cgiwifi.o)
                                                  build/app_app.a(watchdog.o)
                                                  build/app_app.a(wifi.o)
                                                  build/app_app.a(config.o)
                                                  build/app_app.a(mqtt.o)
                                                  build/app_app.a(ac_out.o)
                                                  build/app_app.a(cron.o)
                                                  build/app_app.a(crypto.o)
                                                  build/app_app.a(httpd.o)
                                                  build/app_app.a(httpd_user_init.o)
                                                  build/app_app.a(user_main.o)
                                                  /home/stoffer/esp8266/esp-open-sdk/sdk/lib/libphy.a(phy_chip_v6_cal.o)
                                                  /home/stoffer/esp8266/esp-open-sdk/sdk/lib/libphy.a(phy_chip_v6.o)
                                                  /home/stoffer/esp8266/esp-open-sdk/sdk/lib/libphy.a(phy_chip_v6_ana.o)
                                                  /home/stoffer/esp8266/esp-open-sdk/sdk/lib/libpp.a(trc.o)
                                                  /home/stoffer/esp8266/esp-open-sdk/sdk/lib/libpp.a(pp.o)
                                                  /home/stoffer/esp8266/esp-open-sdk/sdk/lib/libpp.a(pm_for_bcn_only_mode.o)
                                                  /home/stoffer/esp8266/esp-open-sdk/sdk/lib/libpp.a(pm.o)
                                                  /home/stoffer/esp8266/esp-open-sdk/sdk/lib/libpp.a(lmac.o)
                                                  /home/stoffer/esp8266/esp-open-sdk/sdk/lib/libpp.a(if_hwctrl.o)
                                                  /home/stoffer/esp8266/esp-open-sdk/sdk/lib/liblwip.a(espconn_buf.o)
                                                  /home/stoffer/esp8266/esp-open-sdk/sdk/lib/liblwip.a(ip.o)
                                                  /home/stoffer/esp8266/esp-open-sdk/sdk/lib/liblwip.a(espconn_tcp.o)
                                                  /home/stoffer/esp8266/esp-open-sdk/sdk/lib/liblwip.a(dhcpserver.o)
                                                  /home/stoffer/esp8266/esp-open-sdk/sdk/lib/liblwip.a(dhcp.o)
                                                  /home/stoffer/esp8266/esp-open-sdk/sdk/lib/libwpa.a(wpa_main.o)
                                                  /home/stoffer/esp8266/esp-open-sdk/sdk/lib/libnet80211.a(ieee80211_action_vendor.o)
                                                  /home/stoffer/esp8266/esp-open-sdk/sdk/lib/libnet80211.a(wl_cnx.o)
                                                  /home/stoffer/esp8266/esp-open-sdk/sdk/lib/libnet80211.a(ieee80211_sta.o)
                                                  /home/stoffer/esp8266/esp-open-sdk/sdk/lib/libnet80211.a(ieee80211_scan.o)
                                                  /home/stoffer/esp8266/esp-open-sdk/sdk/lib/libnet80211.a(ieee80211_regdomain.o)
                                                  /home/stoffer/esp8266/esp-open-sdk/sdk/lib/libnet80211.a(ieee80211_output.o)
                                                  /home/stoffer/esp8266/esp-open-sdk/sdk/lib/libnet80211.a(ieee80211_mesh_quick.o)
                                                  /home/stoffer/esp8266/esp-open-sdk/sdk/lib/libnet80211.a(ieee80211_ht.o)
                                                  /home/stoffer/esp8266/esp-open-sdk/sdk/lib/libnet80211.a(ieee80211_hostap.o)
                                                  /home/stoffer/esp8266/esp-open-sdk/sdk/lib/libnet80211.a(ieee80211.o)
                                                  /home/stoffer/esp8266/esp-open-sdk/sdk/lib/libmain.a(eagle_lwip_if.o)
                                                  /home/stoffer/esp8266/esp-open-sdk/sdk/lib/libmain.a(spi_flash.o)
                                                  /home/stoffer/esp8266/esp-open-sdk/sdk/lib/libmain.a(ets_timer.o)
                                                  /home/stoffer/esp8266/esp-open-sdk/sdk/lib/libmain.a(app_main.o)
os_random                                         /home/stoffer/esp8266/esp-open-sdk/sdk/lib/libwpa.a(os_xtensa.o)
                                                  /home/stoffer/esp8266/esp-open-sdk/sdk/lib/liblwip.a(espconn.o)
                                                  /home/stoffer/esp8266/esp-open-sdk/sdk/lib/liblwip.a(tcp.o)
                                                  /home/stoffer/esp8266/esp-open-sdk/sdk/lib/liblwip.a(dns.o)
our_tx_eb                                         /home/stoffer/esp8266/esp-open-sdk/sdk/lib/libpp.a(lmac.o)
                                                  /home/stoffer/esp8266/esp-open-sdk/sdk/lib/libpp.a(wdev.o)
pbkdf2_sha1                                       /home/stoffer/esp8266/esp-open-sdk/sdk/lib/libwpa.a(wpa.o)
                                                  /home/stoffer/esp8266/esp-open-sdk/sdk/lib/libmain.a(user_interface.o)
pbuf_alloc                                        /home/stoffer/esp8266/esp-open-sdk/sdk/lib/liblwip.a(pbuf.o)
                                                  /home/stoffer/esp8266/esp-open-sdk/sdk/lib/liblwip.a(sntp.o)
                                                  /home/stoffer/esp8266/esp-open-sdk/sdk/lib/liblwip.a(igmp.o)
                                                  /home/stoffer/esp8266/esp-open-sdk/sdk/lib/liblwip.a(icmp.o)
                                                  /home/stoffer/esp8266/esp-open-sdk/sdk/lib/liblwip.a(espconn_udp.o)
                                                  /home/stoffer/esp8266/esp-open-sdk/sdk/lib/liblwip.a(udp.o)
                                                  /home/stoffer/esp8266/esp-open-sdk/sdk/lib/liblwip.a(tcp_out.o)
                                                  /home/stoffer/esp8266/esp-open-sdk/sdk/lib/liblwip.a(raw.o)
                                                  /home/stoffer/esp8266/esp-open-sdk/sdk/lib/liblwip.a(etharp.o)
                                                  /home/stoffer/esp8266/esp-open-sdk/sdk/lib/liblwip.a(dns.o)
                                                  /home/stoffer/esp8266/esp-open-sdk/sdk/lib/liblwip.a(dhcpserver.o)
                                                  /home/stoffer/esp8266/esp-open-sdk/sdk/lib/liblwip.a(dhcp.o)
                                                  /home/stoffer/esp8266/esp-open-sdk/sdk/lib/libwpa.a(wpas_glue.o)
                                                  /home/stoffer/esp8266/esp-open-sdk/sdk/lib/libwpa.a(wpa_auth.o)
                                                  /home/stoffer/esp8266/esp-open-sdk/sdk/lib/libnet80211.a(ieee80211_input.o)
                                                  /home/stoffer/esp8266/esp-open-sdk/sdk/lib/libnet80211.a(ieee80211_hostap.o)
pbuf_cat                                          /home/stoffer/esp8266/esp-open-sdk/sdk/lib/liblwip.a(pbuf.o)
                                                  /home/stoffer/esp8266/esp-open-sdk/sdk/lib/liblwip.a(tcp_out.o)
                                                  /home/stoffer/esp8266/esp-open-sdk/sdk/lib/liblwip.a(tcp_in.o)
pbuf_chain                                        /home/stoffer/esp8266/esp-open-sdk/sdk/lib/liblwip.a(pbuf.o)
                                                  /home/stoffer/esp8266/esp-open-sdk/sdk/lib/liblwip.a(udp.o)
                                                  /home/stoffer/esp8266/esp-open-sdk/sdk/lib/liblwip.a(raw.o)
pbuf_clen                                         /home/stoffer/esp8266/esp-open-sdk/sdk/lib/liblwip.a(pbuf.o)
                                                  /home/stoffer/esp8266/esp-open-sdk/sdk/lib/liblwip.a(tcp_out.o)
                                                  /home/stoffer/esp8266/esp-open-sdk/sdk/lib/liblwip.a(tcp_in.o)
pbuf_coalesce                                     /home/stoffer/esp8266/esp-open-sdk/sdk/lib/liblwip.a(pbuf.o)
pbuf_copy                                         /home/stoffer/esp8266/esp-open-sdk/sdk/lib/liblwip.a(pbuf.o)
                                                  /home/stoffer/esp8266/esp-open-sdk/sdk/lib/liblwip.a(icmp.o)
                                                  /home/stoffer/esp8266/esp-open-sdk/sdk/lib/liblwip.a(espconn_udp.o)
                                                  /home/stoffer/esp8266/esp-open-sdk/sdk/lib/liblwip.a(etharp.o)
pbuf_copy_partial                                 /home/stoffer/esp8266/esp-open-sdk/sdk/lib/liblwip.a(pbuf.o)
                                                  /home/stoffer/esp8266/esp-open-sdk/sdk/lib/liblwip.a(sntp.o)
                                                  /home/stoffer/esp8266/esp-open-sdk/sdk/lib/liblwip.a(espconn_udp.o)
                                                  /home/stoffer/esp8266/esp-open-sdk/sdk/lib/liblwip.a(tcp_out.o)
                                                  /home/stoffer/esp8266/esp-open-sdk/sdk/lib/liblwip.a(espconn_tcp.o)
                                                  /home/stoffer/esp8266/esp-open-sdk/sdk/lib/liblwip.a(dns.o)
                                                  /home/stoffer/esp8266/esp-open-sdk/sdk/lib/liblwip.a(dhcp.o)
pbuf_dechain                                      /home/stoffer/esp8266/esp-open-sdk/sdk/lib/liblwip.a(pbuf.o)
pbuf_free                                         /home/stoffer/esp8266/esp-open-sdk/sdk/lib/liblwip.a(pbuf.o)
                                                  /home/stoffer/esp8266/esp-open-sdk/sdk/lib/liblwip.a(sntp.o)
                                                  /home/stoffer/esp8266/esp-open-sdk/sdk/lib/libpp.a(pp.o)
                                                  /home/stoffer/esp8266/esp-open-sdk/sdk/lib/liblwip.a(igmp.o)
                                                  /home/stoffer/esp8266/esp-open-sdk/sdk/lib/liblwip.a(icmp.o)
                                                  /home/stoffer/esp8266/esp-open-sdk/sdk/lib/liblwip.a(espconn_udp.o)
                                                  /home/stoffer/esp8266/esp-open-sdk/sdk/lib/liblwip.a(udp.o)
                                                  /home/stoffer/esp8266/esp-open-sdk/sdk/lib/liblwip.a(tcp_out.o)
                                                  /home/stoffer/esp8266/esp-open-sdk/sdk/lib/liblwip.a(tcp.o)
                                                  /home/stoffer/esp8266/esp-open-sdk/sdk/lib/liblwip.a(tcp_in.o)
                                                  /home/stoffer/esp8266/esp-open-sdk/sdk/lib/liblwip.a(raw.o)
                                                  /home/stoffer/esp8266/esp-open-sdk/sdk/lib/liblwip.a(ip.o)
                                                  /home/stoffer/esp8266/esp-open-sdk/sdk/lib/liblwip.a(etharp.o)
                                                  /home/stoffer/esp8266/esp-open-sdk/sdk/lib/liblwip.a(espconn_tcp.o)
                                                  /home/stoffer/esp8266/esp-open-sdk/sdk/lib/liblwip.a(dns.o)
                                                  /home/stoffer/esp8266/esp-open-sdk/sdk/lib/liblwip.a(dhcpserver.o)
                                                  /home/stoffer/esp8266/esp-open-sdk/sdk/lib/liblwip.a(dhcp.o)
                                                  /home/stoffer/esp8266/esp-open-sdk/sdk/lib/libnet80211.a(ieee80211_power.o)
                                                  /home/stoffer/esp8266/esp-open-sdk/sdk/lib/libnet80211.a(ieee80211_output.o)
                                                  /home/stoffer/esp8266/esp-open-sdk/sdk/lib/libnet80211.a(ieee80211_hostap.o)
                                                  /home/stoffer/esp8266/esp-open-sdk/sdk/lib/libmain.a(eagle_lwip_if.o)
pbuf_free_ooseq_new                               /home/stoffer/esp8266/esp-open-sdk/sdk/lib/liblwip.a(pbuf.o)
                                                  /home/stoffer/esp8266/esp-open-sdk/sdk/lib/liblwip.a(tcp_in.o)
pbuf_get_at                                       /home/stoffer/esp8266/esp-open-sdk/sdk/lib/liblwip.a(pbuf.o)
pbuf_header                                       /home/stoffer/esp8266/esp-open-sdk/sdk/lib/liblwip.a(pbuf.o)
                                                  /home/stoffer/esp8266/esp-open-sdk/sdk/lib/liblwip.a(igmp.o)
                                                  /home/stoffer/esp8266/esp-open-sdk/sdk/lib/liblwip.a(icmp.o)
                                                  /home/stoffer/esp8266/esp-open-sdk/sdk/lib/liblwip.a(udp.o)
                                                  /home/stoffer/esp8266/esp-open-sdk/sdk/lib/liblwip.a(tcp_out.o)
                                                  /home/stoffer/esp8266/esp-open-sdk/sdk/lib/liblwip.a(tcp_in.o)
                                                  /home/stoffer/esp8266/esp-open-sdk/sdk/lib/liblwip.a(raw.o)
                                                  /home/stoffer/esp8266/esp-open-sdk/sdk/lib/liblwip.a(ip.o)
                                                  /home/stoffer/esp8266/esp-open-sdk/sdk/lib/liblwip.a(etharp.o)
pbuf_memcmp                                       /home/stoffer/esp8266/esp-open-sdk/sdk/lib/liblwip.a(pbuf.o)
pbuf_memfind                                      /home/stoffer/esp8266/esp-open-sdk/sdk/lib/liblwip.a(pbuf.o)
pbuf_realloc                                      /home/stoffer/esp8266/esp-open-sdk/sdk/lib/liblwip.a(pbuf.o)
                                                  /home/stoffer/esp8266/esp-open-sdk/sdk/lib/liblwip.a(tcp_in.o)
                                                  /home/stoffer/esp8266/esp-open-sdk/sdk/lib/liblwip.a(ip.o)
                                                  /home/stoffer/esp8266/esp-open-sdk/sdk/lib/liblwip.a(dns.o)
                                                  /home/stoffer/esp8266/esp-open-sdk/sdk/lib/liblwip.a(dhcp.o)
pbuf_ref                                          /home/stoffer/esp8266/esp-open-sdk/sdk/lib/liblwip.a(pbuf.o)
                                                  /home/stoffer/esp8266/esp-open-sdk/sdk/lib/liblwip.a(tcp.o)
                                                  /home/stoffer/esp8266/esp-open-sdk/sdk/lib/liblwip.a(etharp.o)
                                                  /home/stoffer/esp8266/esp-open-sdk/sdk/lib/libnet80211.a(ieee80211_output.o)
pbuf_strstr                                       /home/stoffer/esp8266/esp-open-sdk/sdk/lib/liblwip.a(pbuf.o)
pbuf_take                                         /home/stoffer/esp8266/esp-open-sdk/sdk/lib/liblwip.a(pbuf.o)
pbus_set_rxbbgain                                 /home/stoffer/esp8266/esp-open-sdk/sdk/lib/libphy.a(phy_chip_v6.o)
pend_flag_noise_check                             /home/stoffer/esp8266/esp-open-sdk/sdk/lib/libpp.a(pp.o)
                                                  /home/stoffer/esp8266/esp-open-sdk/sdk/lib/libpp.a(pm_for_bcn_only_mode.o)
                                                  /home/stoffer/esp8266/esp-open-sdk/sdk/lib/libpp.a(pm.o)
pend_flag_periodic_cal                            /home/stoffer/esp8266/esp-open-sdk/sdk/lib/libpp.a(pp.o)
                                                  /home/stoffer/esp8266/esp-open-sdk/sdk/lib/libpp.a(pm_for_bcn_only_mode.o)
                                                  /home/stoffer/esp8266/esp-open-sdk/sdk/lib/libpp.a(pm.o)
periodic_cal                                      /home/stoffer/esp8266/esp-open-sdk/sdk/lib/libphy.a(phy_chip_v6.o)
                                                  /home/stoffer/esp8266/esp-open-sdk/sdk/lib/libphy.a(phy_sleep.o)
periodic_cal_flag                                 /home/stoffer/esp8266/esp-open-sdk/sdk/lib/libphy.a(phy_chip_v6.o)
                                                  /home/stoffer/esp8266/esp-open-sdk/sdk/lib/libphy.a(phy_sleep.o)
periodic_cal_sat                                  /home/stoffer/esp8266/esp-open-sdk/sdk/lib/libphy.a(phy_sleep.o)
periodic_cal_top                                  /home/stoffer/esp8266/esp-open-sdk/sdk/lib/libphy.a(phy_chip_v6.o)
                                                  /home/stoffer/esp8266/esp-open-sdk/sdk/lib/libphy.a(phy_chip_v6_cal.o)
                                                  /home/stoffer/esp8266/esp-open-sdk/sdk/lib/libpp.a(pp.o)
                                                  /home/stoffer/esp8266/esp-open-sdk/sdk/lib/libpp.a(pm_for_bcn_only_mode.o)
                                                  /home/stoffer/esp8266/esp-open-sdk/sdk/lib/libpp.a(pm.o)
                                                  /home/stoffer/esp8266/esp-open-sdk/sdk/lib/libnet80211.a(ieee80211_hostap.o)
phy_adc_read_fast                                 /home/stoffer/esp8266/esp-open-sdk/sdk/lib/libphy.a(phy_chip_v6_ana.o)
                                                  /home/stoffer/esp8266/esp-open-sdk/sdk/lib/libmain.a(user_interface.o)
phy_after_init_enrx                               /home/stoffer/esp8266/esp-open-sdk/sdk/lib/libphy.a(phy_chip_v6.o)
                                                  /home/stoffer/esp8266/esp-open-sdk/sdk/lib/libphy.a(phy_chip_v6_ana.o)
phy_afterwake_set_rfoption                        /home/stoffer/esp8266/esp-open-sdk/sdk/lib/libphy.a(phy_chip_v6.o)
                                                  /home/stoffer/esp8266/esp-open-sdk/sdk/lib/libmain.a(user_interface.o)
                                                  /home/stoffer/esp8266/esp-open-sdk/sdk/lib/libmain.a(app_main.o)
phy_bb_rx_cfg                                     /home/stoffer/esp8266/esp-open-sdk/sdk/lib/libphy.a(phy_chip_v6.o)
phy_change_channel                                /home/stoffer/esp8266/esp-open-sdk/sdk/lib/libphy.a(phy.o)
                                                  /home/stoffer/esp8266/esp-open-sdk/sdk/lib/libnet80211.a(wl_chm.o)
phy_check_data_table                              /home/stoffer/esp8266/esp-open-sdk/sdk/lib/libphy.a(phy_chip_v6.o)
                                                  /home/stoffer/esp8266/esp-open-sdk/sdk/lib/libmain.a(app_main.o)
phy_debug_print                                   /home/stoffer/esp8266/esp-open-sdk/sdk/lib/libphy.a(phy_chip_v6.o)
phy_delete_channel                                /home/stoffer/esp8266/esp-open-sdk/sdk/lib/libphy.a(phy.o)
phy_dig_spur_prot                                 /home/stoffer/esp8266/esp-open-sdk/sdk/lib/libphy.a(phy_chip_v6.o)
                                                  /home/stoffer/esp8266/esp-open-sdk/sdk/lib/libphy.a(phy_chip_v6_ana.o)
phy_dig_spur_set                                  /home/stoffer/esp8266/esp-open-sdk/sdk/lib/libphy.a(phy_chip_v6.o)
                                                  /home/stoffer/esp8266/esp-open-sdk/sdk/lib/libphy.a(phy_chip_v6_ana.o)
phy_disable_agc                                   /home/stoffer/esp8266/esp-open-sdk/sdk/lib/libphy.a(phy.o)
                                                  /home/stoffer/esp8266/esp-open-sdk/sdk/lib/libmain.a(app_main.o)
phy_enable_agc                                    /home/stoffer/esp8266/esp-open-sdk/sdk/lib/libphy.a(phy.o)
                                                  /home/stoffer/esp8266/esp-open-sdk/sdk/lib/libmain.a(app_main.o)
phy_freq_offset                                   /home/stoffer/esp8266/esp-open-sdk/sdk/lib/libphy.a(phy_chip_v6.o)
                                                  /home/stoffer/esp8266/esp-open-sdk/sdk/lib/libphy.a(phy_chip_v6_ana.o)
phy_get_bb_evm                                    /home/stoffer/esp8266/esp-open-sdk/sdk/lib/libphy.a(phy_chip_v6_cal.o)
phy_get_bb_freqoffset                             /home/stoffer/esp8266/esp-open-sdk/sdk/lib/libphy.a(phy_chip_v6_cal.o)
                                                  /home/stoffer/esp8266/esp-open-sdk/sdk/lib/libpp.a(wdev.o)
phy_get_check_flag                                /home/stoffer/esp8266/esp-open-sdk/sdk/lib/libphy.a(phy_chip_v6_ana.o)
                                                  /home/stoffer/esp8266/esp-open-sdk/sdk/lib/libmain.a(user_interface.o)
phy_get_freq_param                                /home/stoffer/esp8266/esp-open-sdk/sdk/lib/libphy.a(phy_chip_v6.o)
phy_get_mactime                                   /home/stoffer/esp8266/esp-open-sdk/sdk/lib/libphy.a(phy.o)
phy_get_rand                                      /home/stoffer/esp8266/esp-open-sdk/sdk/lib/libphy.a(phy_chip_v6.o)
                                                  /home/stoffer/esp8266/esp-open-sdk/sdk/lib/libwpa.a(os_xtensa.o)
phy_get_romfuncs                                  /home/stoffer/esp8266/esp-open-sdk/sdk/lib/libphy.a(phy_chip_v6.o)
phy_get_rxnf_param                                /home/stoffer/esp8266/esp-open-sdk/sdk/lib/libphy.a(phy_chip_v6.o)
phy_get_txpwr_param                               /home/stoffer/esp8266/esp-open-sdk/sdk/lib/libphy.a(phy_chip_v6.o)
phy_get_vdd33                                     /home/stoffer/esp8266/esp-open-sdk/sdk/lib/libphy.a(phy_chip_v6_ana.o)
                                                  /home/stoffer/esp8266/esp-open-sdk/sdk/lib/libmain.a(user_interface.o)
phy_gpio_cfg                                      /home/stoffer/esp8266/esp-open-sdk/sdk/lib/libphy.a(phy_chip_v6.o)
phy_in_most_power                                 /home/stoffer/esp8266/esp-open-sdk/sdk/lib/libphy.a(phy_chip_v6.o)
phy_in_vdd33_offset                               /home/stoffer/esp8266/esp-open-sdk/sdk/lib/libphy.a(phy_chip_v6.o)
                                                  /home/stoffer/esp8266/esp-open-sdk/sdk/lib/libphy.a(phy_chip_v6_cal.o)
phy_init                                          /home/stoffer/esp8266/esp-open-sdk/sdk/lib/libphy.a(phy.o)
phy_initialize_bb                                 /home/stoffer/esp8266/esp-open-sdk/sdk/lib/libphy.a(phy.o)
phy_meas_freq_offset                              /home/stoffer/esp8266/esp-open-sdk/sdk/lib/libphy.a(phy_chip_v6_cal.o)
                                                  /home/stoffer/esp8266/esp-open-sdk/sdk/lib/libphy.a(phy_chip_v6.o)
phy_pbus_soc_cfg                                  /home/stoffer/esp8266/esp-open-sdk/sdk/lib/libphy.a(phy_chip_v6.o)
phy_rx_gain_dc_flag                               /home/stoffer/esp8266/esp-open-sdk/sdk/lib/libphy.a(phy_chip_v6.o)
                                                  /home/stoffer/esp8266/esp-open-sdk/sdk/lib/libpp.a(pm_for_bcn_only_mode.o)
                                                  /home/stoffer/esp8266/esp-open-sdk/sdk/lib/libpp.a(pm.o)
phy_rx_gain_dc_table                              /home/stoffer/esp8266/esp-open-sdk/sdk/lib/libphy.a(phy_chip_v6.o)
                                                  /home/stoffer/esp8266/esp-open-sdk/sdk/lib/libpp.a(pm_for_bcn_only_mode.o)
                                                  /home/stoffer/esp8266/esp-open-sdk/sdk/lib/libpp.a(pm.o)
                                                  /home/stoffer/esp8266/esp-open-sdk/sdk/lib/libmain.a(app_main.o)
phy_set_most_tpw                                  /home/stoffer/esp8266/esp-open-sdk/sdk/lib/libphy.a(phy_chip_v6.o)
                                                  /home/stoffer/esp8266/esp-open-sdk/sdk/lib/libmain.a(user_interface.o)
phy_set_most_tpw_disbg                            /home/stoffer/esp8266/esp-open-sdk/sdk/lib/libphy.a(phy_chip_v6.o)
                                                  /home/stoffer/esp8266/esp-open-sdk/sdk/lib/libphy.a(phy_chip_v6_cal.o)
phy_set_most_tpw_index                            /home/stoffer/esp8266/esp-open-sdk/sdk/lib/libphy.a(phy_chip_v6.o)
                                                  /home/stoffer/esp8266/esp-open-sdk/sdk/lib/libphy.a(phy_chip_v6_cal.o)
phy_set_powerup_option                            /home/stoffer/esp8266/esp-open-sdk/sdk/lib/libphy.a(phy_chip_v6.o)
                                                  /home/stoffer/esp8266/esp-open-sdk/sdk/lib/libmain.a(user_interface.o)
phy_set_rx11b_reg                                 /home/stoffer/esp8266/esp-open-sdk/sdk/lib/libphy.a(phy_chip_v6.o)
phy_set_sense                                     /home/stoffer/esp8266/esp-open-sdk/sdk/lib/libphy.a(phy.o)
phy_tx_power_out                                  /home/stoffer/esp8266/esp-open-sdk/sdk/lib/libphy.a(phy_chip_v6_cal.o)
phy_tx_pwctrl_cali                                /home/stoffer/esp8266/esp-open-sdk/sdk/lib/libphy.a(phy_chip_v6.o)
phy_tx_pwr_error                                  /home/stoffer/esp8266/esp-open-sdk/sdk/lib/libphy.a(phy_chip_v6_cal.o)
                                                  /home/stoffer/esp8266/esp-open-sdk/sdk/lib/libphy.a(phy_chip_v6.o)
phy_txpwr_diff_flash                              /home/stoffer/esp8266/esp-open-sdk/sdk/lib/libphy.a(phy_chip_v6.o)
phy_vdd33_set_tpw                                 /home/stoffer/esp8266/esp-open-sdk/sdk/lib/libphy.a(phy_chip_v6.o)
                                                  /home/stoffer/esp8266/esp-open-sdk/sdk/lib/libmain.a(user_interface.o)
phytype2mode                                      /home/stoffer/esp8266/esp-open-sdk/sdk/lib/libpp.a(trc.o)
pktinfo                                           /home/stoffer/esp8266/esp-open-sdk/sdk/lib/liblwip.a(espconn.o)
                                                  /home/stoffer/esp8266/esp-open-sdk/sdk/lib/liblwip.a(espconn_tcp.o)
plink_active                                      /home/stoffer/esp8266/esp-open-sdk/sdk/lib/liblwip.a(espconn.o)
                                                  /home/stoffer/esp8266/esp-open-sdk/sdk/lib/liblwip.a(espconn_udp.o)
                                                  /home/stoffer/esp8266/esp-open-sdk/sdk/lib/liblwip.a(espconn_tcp.o)
pm_allow_tx                                       /home/stoffer/esp8266/esp-open-sdk/sdk/lib/libpp.a(pm.o)
                                                  /home/stoffer/esp8266/esp-open-sdk/sdk/lib/libpp.a(pp.o)
pm_assoc_parse                                    /home/stoffer/esp8266/esp-open-sdk/sdk/lib/libpp.a(pm.o)
                                                  /home/stoffer/esp8266/esp-open-sdk/sdk/lib/libpp.a(pp.o)
pm_attach                                         /home/stoffer/esp8266/esp-open-sdk/sdk/lib/libpp.a(pm.o)
                                                  /home/stoffer/esp8266/esp-open-sdk/sdk/lib/libmain.a(app_main.o)
pm_check_mac_idle                                 /home/stoffer/esp8266/esp-open-sdk/sdk/lib/libphy.a(phy_sleep.o)
pm_clear_gpio_wakeup_pin                          /home/stoffer/esp8266/esp-open-sdk/sdk/lib/libpp.a(pm.o)
                                                  /home/stoffer/esp8266/esp-open-sdk/sdk/lib/libmain.a(user_interface.o)
pm_enable_gpio_wakeup                             /home/stoffer/esp8266/esp-open-sdk/sdk/lib/libpp.a(pm.o)
                                                  /home/stoffer/esp8266/esp-open-sdk/sdk/lib/libpp.a(pp.o)
pm_force_scan_unlock                              /home/stoffer/esp8266/esp-open-sdk/sdk/lib/libpp.a(pm.o)
                                                  /home/stoffer/esp8266/esp-open-sdk/sdk/lib/libpp.a(if_hwctrl.o)
                                                  /home/stoffer/esp8266/esp-open-sdk/sdk/lib/libnet80211.a(ieee80211_scan.o)
pm_get_ck170_period                               /home/stoffer/esp8266/esp-open-sdk/sdk/lib/libpp.a(pm.o)
                                                  /home/stoffer/esp8266/esp-open-sdk/sdk/lib/libpp.a(pm_for_bcn_only_mode.o)
pm_get_idle_wait_time                             /home/stoffer/esp8266/esp-open-sdk/sdk/lib/libpp.a(pm.o)
pm_get_sleep_type                                 /home/stoffer/esp8266/esp-open-sdk/sdk/lib/libpp.a(pm.o)
                                                  /home/stoffer/esp8266/esp-open-sdk/sdk/lib/libmain.a(user_interface.o)
pm_goto_sleep                                     /home/stoffer/esp8266/esp-open-sdk/sdk/lib/libphy.a(phy_sleep.o)
                                                  /home/stoffer/esp8266/esp-open-sdk/sdk/lib/libpp.a(pm_for_bcn_only_mode.o)
                                                  /home/stoffer/esp8266/esp-open-sdk/sdk/lib/libpp.a(pm.o)
pm_idle_sleep                                     /home/stoffer/esp8266/esp-open-sdk/sdk/lib/libpp.a(pm.o)
pm_is_gpio_int_trig                               /home/stoffer/esp8266/esp-open-sdk/sdk/lib/libpp.a(pm.o)
pm_is_open                                        /home/stoffer/esp8266/esp-open-sdk/sdk/lib/libpp.a(pm.o)
                                                  /home/stoffer/esp8266/esp-open-sdk/sdk/lib/libpp.a(pm_for_bcn_only_mode.o)
                                                  /home/stoffer/esp8266/esp-open-sdk/sdk/lib/libnet80211.a(ieee80211_scan.o)
                                                  /home/stoffer/esp8266/esp-open-sdk/sdk/lib/libmain.a(user_interface.o)
pm_is_waked                                       /home/stoffer/esp8266/esp-open-sdk/sdk/lib/libpp.a(pm.o)
                                                  /home/stoffer/esp8266/esp-open-sdk/sdk/lib/libpp.a(pp.o)
                                                  /home/stoffer/esp8266/esp-open-sdk/sdk/lib/libnet80211.a(ieee80211_scan.o)
                                                  /home/stoffer/esp8266/esp-open-sdk/sdk/lib/libmain.a(user_interface.o)
pm_onBcnRx                                        /home/stoffer/esp8266/esp-open-sdk/sdk/lib/libpp.a(pm.o)
                                                  /home/stoffer/esp8266/esp-open-sdk/sdk/lib/libpp.a(pp.o)
pm_open                                           /home/stoffer/esp8266/esp-open-sdk/sdk/lib/libpp.a(pm.o)
                                                  /home/stoffer/esp8266/esp-open-sdk/sdk/lib/libpp.a(if_hwctrl.o)
pm_open_rf                                        /home/stoffer/esp8266/esp-open-sdk/sdk/lib/libphy.a(phy_sleep.o)
                                                  /home/stoffer/esp8266/esp-open-sdk/sdk/lib/libmain.a(user_interface.o)
pm_post                                           /home/stoffer/esp8266/esp-open-sdk/sdk/lib/libpp.a(pm.o)
                                                  /home/stoffer/esp8266/esp-open-sdk/sdk/lib/libpp.a(pp.o)
                                                  /home/stoffer/esp8266/esp-open-sdk/sdk/lib/libnet80211.a(ieee80211_scan.o)
                                                  /home/stoffer/esp8266/esp-open-sdk/sdk/lib/libmain.a(user_interface.o)
pm_prepare_to_sleep                               /home/stoffer/esp8266/esp-open-sdk/sdk/lib/libphy.a(phy_sleep.o)
pm_reset_idle_sleep                               /home/stoffer/esp8266/esp-open-sdk/sdk/lib/libpp.a(pm.o)
pm_rf_is_closed                                   /home/stoffer/esp8266/esp-open-sdk/sdk/lib/libpp.a(pm.o)
                                                  /home/stoffer/esp8266/esp-open-sdk/sdk/lib/libpp.a(pp.o)
pm_rtc2usec                                       /home/stoffer/esp8266/esp-open-sdk/sdk/lib/libphy.a(phy_sleep.o)
                                                  /home/stoffer/esp8266/esp-open-sdk/sdk/lib/libpp.a(pm_for_bcn_only_mode.o)
                                                  /home/stoffer/esp8266/esp-open-sdk/sdk/lib/libpp.a(pm.o)
pm_rtc_clock_cali                                 /home/stoffer/esp8266/esp-open-sdk/sdk/lib/libphy.a(phy_sleep.o)
                                                  /home/stoffer/esp8266/esp-open-sdk/sdk/lib/libpp.a(pm.o)
pm_rtc_clock_cali_proc                            /home/stoffer/esp8266/esp-open-sdk/sdk/lib/libpp.a(pm.o)
                                                  /home/stoffer/esp8266/esp-open-sdk/sdk/lib/libpp.a(pm_for_bcn_only_mode.o)
                                                  /home/stoffer/esp8266/esp-open-sdk/sdk/lib/libmain.a(user_interface.o)
pm_scan_lock                                      /home/stoffer/esp8266/esp-open-sdk/sdk/lib/libpp.a(pm.o)
                                                  /home/stoffer/esp8266/esp-open-sdk/sdk/lib/libnet80211.a(ieee80211_scan.o)
pm_scan_unlocked                                  /home/stoffer/esp8266/esp-open-sdk/sdk/lib/libpp.a(pm.o)
                                                  /home/stoffer/esp8266/esp-open-sdk/sdk/lib/libpp.a(pp.o)
pm_sdio_nidle                                     /home/stoffer/esp8266/esp-open-sdk/sdk/lib/libphy.a(phy_sleep.o)
pm_send_nullfunc                                  /home/stoffer/esp8266/esp-open-sdk/sdk/lib/libpp.a(pm.o)
pm_set_addr                                       /home/stoffer/esp8266/esp-open-sdk/sdk/lib/libpp.a(pm.o)
                                                  /home/stoffer/esp8266/esp-open-sdk/sdk/lib/libpp.a(pp.o)
pm_set_gpio_wakeup_pin                            /home/stoffer/esp8266/esp-open-sdk/sdk/lib/libpp.a(pm.o)
                                                  /home/stoffer/esp8266/esp-open-sdk/sdk/lib/libmain.a(user_interface.o)
pm_set_pll_xtal_wait_time                         /home/stoffer/esp8266/esp-open-sdk/sdk/lib/libphy.a(phy_sleep.o)
pm_set_sleep_btco                                 /home/stoffer/esp8266/esp-open-sdk/sdk/lib/libphy.a(phy_sleep.o)
pm_set_sleep_cycles                               /home/stoffer/esp8266/esp-open-sdk/sdk/lib/libphy.a(phy_sleep.o)
                                                  /home/stoffer/esp8266/esp-open-sdk/sdk/lib/libphy.a(phy_chip_v6.o)
                                                  /home/stoffer/esp8266/esp-open-sdk/sdk/lib/libpp.a(pm_for_bcn_only_mode.o)
                                                  /home/stoffer/esp8266/esp-open-sdk/sdk/lib/libpp.a(pm.o)
pm_set_sleep_mode                                 /home/stoffer/esp8266/esp-open-sdk/sdk/lib/libphy.a(phy_sleep.o)
                                                  /home/stoffer/esp8266/esp-open-sdk/sdk/lib/libphy.a(phy_chip_v6.o)
                                                  /home/stoffer/esp8266/esp-open-sdk/sdk/lib/libphy.a(phy_chip_v6_ana.o)
                                                  /home/stoffer/esp8266/esp-open-sdk/sdk/lib/libpp.a(pm_for_bcn_only_mode.o)
                                                  /home/stoffer/esp8266/esp-open-sdk/sdk/lib/libpp.a(pm.o)
pm_set_sleep_time                                 /home/stoffer/esp8266/esp-open-sdk/sdk/lib/libpp.a(pm.o)
                                                  /home/stoffer/esp8266/esp-open-sdk/sdk/lib/libmain.a(user_interface.o)
pm_set_sleep_type_from_upper                      /home/stoffer/esp8266/esp-open-sdk/sdk/lib/libpp.a(pm.o)
                                                  /home/stoffer/esp8266/esp-open-sdk/sdk/lib/libmain.a(user_interface.o)
pm_set_wakeup_btco                                /home/stoffer/esp8266/esp-open-sdk/sdk/lib/libphy.a(phy_sleep.o)
pm_set_wakeup_mac                                 /home/stoffer/esp8266/esp-open-sdk/sdk/lib/libphy.a(phy_sleep.o)
pm_shutdown                                       /home/stoffer/esp8266/esp-open-sdk/sdk/lib/libpp.a(pm.o)
                                                  /home/stoffer/esp8266/esp-open-sdk/sdk/lib/libpp.a(pm_for_bcn_only_mode.o)
                                                  /home/stoffer/esp8266/esp-open-sdk/sdk/lib/libpp.a(if_hwctrl.o)
pm_sleep_for                                      /home/stoffer/esp8266/esp-open-sdk/sdk/lib/libpp.a(pm.o)
                                                  /home/stoffer/esp8266/esp-open-sdk/sdk/lib/libpp.a(pp.o)
pm_sleep_opt                                      /home/stoffer/esp8266/esp-open-sdk/sdk/lib/libphy.a(phy_sleep.o)
pm_sleep_opt_bb_off                               /home/stoffer/esp8266/esp-open-sdk/sdk/lib/libphy.a(phy_sleep.o)
pm_sleep_opt_bb_on                                /home/stoffer/esp8266/esp-open-sdk/sdk/lib/libphy.a(phy_sleep.o)
pm_sleep_set_mac                                  /home/stoffer/esp8266/esp-open-sdk/sdk/lib/libphy.a(phy_sleep.o)
pm_suspend                                        /home/stoffer/esp8266/esp-open-sdk/sdk/lib/libpp.a(pm.o)
pm_try_scan_unlock                                /home/stoffer/esp8266/esp-open-sdk/sdk/lib/libpp.a(pm.o)
pm_unmask_bt                                      /home/stoffer/esp8266/esp-open-sdk/sdk/lib/libphy.a(phy_sleep.o)
pm_usec2rtc                                       /home/stoffer/esp8266/esp-open-sdk/sdk/lib/libphy.a(phy_sleep.o)
                                                  /home/stoffer/esp8266/esp-open-sdk/sdk/lib/libpp.a(pm_for_bcn_only_mode.o)
                                                  /home/stoffer/esp8266/esp-open-sdk/sdk/lib/libpp.a(pm.o)
pm_wait4wakeup                                    /home/stoffer/esp8266/esp-open-sdk/sdk/lib/libphy.a(phy_sleep.o)
                                                  /home/stoffer/esp8266/esp-open-sdk/sdk/lib/libphy.a(phy_chip_v6.o)
                                                  /home/stoffer/esp8266/esp-open-sdk/sdk/lib/libpp.a(pm_for_bcn_only_mode.o)
                                                  /home/stoffer/esp8266/esp-open-sdk/sdk/lib/libpp.a(pm.o)
pm_wakeup_init                                    /home/stoffer/esp8266/esp-open-sdk/sdk/lib/libphy.a(phy_sleep.o)
                                                  /home/stoffer/esp8266/esp-open-sdk/sdk/lib/libphy.a(phy_chip_v6.o)
                                                  /home/stoffer/esp8266/esp-open-sdk/sdk/lib/libphy.a(phy_chip_v6_ana.o)
                                                  /home/stoffer/esp8266/esp-open-sdk/sdk/lib/libpp.a(pm_for_bcn_only_mode.o)
                                                  /home/stoffer/esp8266/esp-open-sdk/sdk/lib/libpp.a(pm.o)
pm_wakeup_opt                                     /home/stoffer/esp8266/esp-open-sdk/sdk/lib/libphy.a(phy_sleep.o)
                                                  /home/stoffer/esp8266/esp-open-sdk/sdk/lib/libphy.a(phy_chip_v6.o)
                                                  /home/stoffer/esp8266/esp-open-sdk/sdk/lib/libpp.a(pm_for_bcn_only_mode.o)
                                                  /home/stoffer/esp8266/esp-open-sdk/sdk/lib/libpp.a(pm.o)
pmc                                               /home/stoffer/esp8266/esp-open-sdk/sdk/lib/libpp.a(pm.o)
ppCalFrameTimes                                   /home/stoffer/esp8266/esp-open-sdk/sdk/lib/libpp.a(pp.o)
                                                  /home/stoffer/esp8266/esp-open-sdk/sdk/lib/libpp.a(lmac.o)
ppCalTxop                                         /home/stoffer/esp8266/esp-open-sdk/sdk/lib/libpp.a(pp.o)
                                                  /home/stoffer/esp8266/esp-open-sdk/sdk/lib/libpp.a(lmac.o)
ppCheckTxIdle                                     /home/stoffer/esp8266/esp-open-sdk/sdk/lib/libpp.a(pp.o)
                                                  /home/stoffer/esp8266/esp-open-sdk/sdk/lib/libpp.a(pm_for_bcn_only_mode.o)
                                                  /home/stoffer/esp8266/esp-open-sdk/sdk/lib/libpp.a(pm.o)
                                                  /home/stoffer/esp8266/esp-open-sdk/sdk/lib/libnet80211.a(ieee80211_scan.o)
ppDequeueTxQ                                      /home/stoffer/esp8266/esp-open-sdk/sdk/lib/libpp.a(pp.o)
                                                  /home/stoffer/esp8266/esp-open-sdk/sdk/lib/libpp.a(lmac.o)
ppDiscardMPDU                                     /home/stoffer/esp8266/esp-open-sdk/sdk/lib/libpp.a(pp.o)
ppEnqueueRxq                                      /home/stoffer/esp8266/esp-open-sdk/sdk/lib/libpp.a(pp.o)
                                                  /home/stoffer/esp8266/esp-open-sdk/sdk/lib/libpp.a(lmac.o)
ppEnqueueTxDone                                   /home/stoffer/esp8266/esp-open-sdk/sdk/lib/libpp.a(pp.o)
                                                  /home/stoffer/esp8266/esp-open-sdk/sdk/lib/libpp.a(lmac.o)
ppFetchTxQFirstAvail                              /home/stoffer/esp8266/esp-open-sdk/sdk/lib/libpp.a(pp.o)
                                                  /home/stoffer/esp8266/esp-open-sdk/sdk/lib/libpp.a(lmac.o)
ppGetTxQFirstAvail_Locked                         /home/stoffer/esp8266/esp-open-sdk/sdk/lib/libpp.a(pp.o)
                                                  /home/stoffer/esp8266/esp-open-sdk/sdk/lib/libpp.a(lmac.o)
ppInstallKey                                      /home/stoffer/esp8266/esp-open-sdk/sdk/lib/libwpa.a(wpa_main.o)
                                                  /home/stoffer/esp8266/esp-open-sdk/sdk/lib/libnet80211.a(wl_cnx.o)
ppPeocessRxPktHdr                                 /home/stoffer/esp8266/esp-open-sdk/sdk/lib/libpp.a(pp.o)
ppProcessTxQ                                      /home/stoffer/esp8266/esp-open-sdk/sdk/lib/libpp.a(pp.o)
                                                  /home/stoffer/esp8266/esp-open-sdk/sdk/lib/libpp.a(lmac.o)
ppProcessWaitQ                                    /home/stoffer/esp8266/esp-open-sdk/sdk/lib/libpp.a(pp.o)
                                                  /home/stoffer/esp8266/esp-open-sdk/sdk/lib/libpp.a(pm_for_bcn_only_mode.o)
                                                  /home/stoffer/esp8266/esp-open-sdk/sdk/lib/libpp.a(pm.o)
ppRecordBarRRC                                    /home/stoffer/esp8266/esp-open-sdk/sdk/lib/libpp.a(pp.o)
                                                  /home/stoffer/esp8266/esp-open-sdk/sdk/lib/libpp.a(lmac.o)
ppRecycleRxPkt                                    /home/stoffer/esp8266/esp-open-sdk/sdk/lib/libpp.a(pp.o)
                                                  /home/stoffer/esp8266/esp-open-sdk/sdk/lib/libnet80211.a(ieee80211_sta.o)
                                                  /home/stoffer/esp8266/esp-open-sdk/sdk/lib/libnet80211.a(ieee80211_input.o)
                                                  /home/stoffer/esp8266/esp-open-sdk/sdk/lib/libnet80211.a(ieee80211_hostap.o)
                                                  /home/stoffer/esp8266/esp-open-sdk/sdk/lib/libmain.a(eagle_lwip_if.o)
                                                  /home/stoffer/esp8266/esp-open-sdk/sdk/lib/libmain.a(user_interface.o)
ppRegisterTxCallback                              /home/stoffer/esp8266/esp-open-sdk/sdk/lib/libpp.a(pp.o)
                                                  /home/stoffer/esp8266/esp-open-sdk/sdk/lib/libpp.a(pm.o)
                                                  /home/stoffer/esp8266/esp-open-sdk/sdk/lib/libwpa.a(wpa_main.o)
                                                  /home/stoffer/esp8266/esp-open-sdk/sdk/lib/libnet80211.a(wl_cnx.o)
                                                  /home/stoffer/esp8266/esp-open-sdk/sdk/lib/libnet80211.a(ieee80211_proto.o)
                                                  /home/stoffer/esp8266/esp-open-sdk/sdk/lib/libnet80211.a(ieee80211_hostap.o)
                                                  /home/stoffer/esp8266/esp-open-sdk/sdk/lib/libnet80211.a(ieee80211.o)
ppRollBackTxQ                                     /home/stoffer/esp8266/esp-open-sdk/sdk/lib/libpp.a(pp.o)
                                                  /home/stoffer/esp8266/esp-open-sdk/sdk/lib/libpp.a(lmac.o)
ppTxPkt                                           /home/stoffer/esp8266/esp-open-sdk/sdk/lib/libpp.a(pp.o)
                                                  /home/stoffer/esp8266/esp-open-sdk/sdk/lib/libpp.a(pm.o)
                                                  /home/stoffer/esp8266/esp-open-sdk/sdk/lib/libnet80211.a(ieee80211_action_vendor.o)
                                                  /home/stoffer/esp8266/esp-open-sdk/sdk/lib/libnet80211.a(ieee80211_scan.o)
                                                  /home/stoffer/esp8266/esp-open-sdk/sdk/lib/libnet80211.a(ieee80211_power.o)
                                                  /home/stoffer/esp8266/esp-open-sdk/sdk/lib/libnet80211.a(ieee80211_output.o)
                                                  /home/stoffer/esp8266/esp-open-sdk/sdk/lib/libnet80211.a(ieee80211_hostap.o)
ppTxqUpdateBitmap                                 /home/stoffer/esp8266/esp-open-sdk/sdk/lib/libpp.a(pp.o)
                                                  /home/stoffer/esp8266/esp-open-sdk/sdk/lib/libpp.a(lmac.o)
ppUnregisterTxCallback                            /home/stoffer/esp8266/esp-open-sdk/sdk/lib/libpp.a(pp.o)
pp_attach                                         /home/stoffer/esp8266/esp-open-sdk/sdk/lib/libpp.a(pp.o)
                                                  /home/stoffer/esp8266/esp-open-sdk/sdk/lib/libmain.a(app_main.o)
pp_disable_idle_timer                             /home/stoffer/esp8266/esp-open-sdk/sdk/lib/libpp.a(pp.o)
                                                  /home/stoffer/esp8266/esp-open-sdk/sdk/lib/libpp.a(pm.o)
pp_disable_noise_timer                            /home/stoffer/esp8266/esp-open-sdk/sdk/lib/libpp.a(pp.o)
                                                  /home/stoffer/esp8266/esp-open-sdk/sdk/lib/libpp.a(pm_for_bcn_only_mode.o)
                                                  /home/stoffer/esp8266/esp-open-sdk/sdk/lib/libnet80211.a(ieee80211_hostap.o)
pp_enable_idle_timer                              /home/stoffer/esp8266/esp-open-sdk/sdk/lib/libpp.a(pp.o)
                                                  /home/stoffer/esp8266/esp-open-sdk/sdk/lib/libpp.a(pm.o)
pp_enable_noise_timer                             /home/stoffer/esp8266/esp-open-sdk/sdk/lib/libpp.a(pp.o)
pp_michael_mic_failure                            /home/stoffer/esp8266/esp-open-sdk/sdk/lib/libwpa.a(wpa.o)
pp_noise_test                                     /home/stoffer/esp8266/esp-open-sdk/sdk/lib/libpp.a(pp.o)
pp_post                                           /home/stoffer/esp8266/esp-open-sdk/sdk/lib/libpp.a(pp.o)
                                                  /home/stoffer/esp8266/esp-open-sdk/sdk/lib/libpp.a(lmac.o)
pp_post2                                          /home/stoffer/esp8266/esp-open-sdk/sdk/lib/libpp.a(pp.o)
                                                  /home/stoffer/esp8266/esp-open-sdk/sdk/lib/libpp.a(wdev.o)
pp_soft_wdt_feed                                  /home/stoffer/esp8266/esp-open-sdk/sdk/lib/libpp.a(pp.o)
                                                  /home/stoffer/esp8266/esp-open-sdk/sdk/lib/libmain.a(spi_flash.o)
pp_soft_wdt_feed_local                            /home/stoffer/esp8266/esp-open-sdk/sdk/lib/libpp.a(pp.o)
pp_soft_wdt_init                                  /home/stoffer/esp8266/esp-open-sdk/sdk/lib/libpp.a(pp.o)
                                                  /home/stoffer/esp8266/esp-open-sdk/sdk/lib/libmain.a(app_main.o)
pp_soft_wdt_restart                               /home/stoffer/esp8266/esp-open-sdk/sdk/lib/libpp.a(pp.o)
                                                  /home/stoffer/esp8266/esp-open-sdk/sdk/lib/libpp.a(pm_for_bcn_only_mode.o)
                                                  /home/stoffer/esp8266/esp-open-sdk/sdk/lib/libpp.a(pm.o)
pp_soft_wdt_stop                                  /home/stoffer/esp8266/esp-open-sdk/sdk/lib/libpp.a(pp.o)
                                                  /home/stoffer/esp8266/esp-open-sdk/sdk/lib/libpp.a(pm_for_bcn_only_mode.o)
                                                  /home/stoffer/esp8266/esp-open-sdk/sdk/lib/libpp.a(pm.o)
pp_try_enable_idle_timer                          /home/stoffer/esp8266/esp-open-sdk/sdk/lib/libpp.a(pp.o)
                                                  /home/stoffer/esp8266/esp-open-sdk/sdk/lib/libpp.a(pm.o)
pp_tx_idle_timeout                                /home/stoffer/esp8266/esp-open-sdk/sdk/lib/libpp.a(pp.o)
premot                                            /home/stoffer/esp8266/esp-open-sdk/sdk/lib/liblwip.a(espconn.o)
promiscuous_cb                                    /home/stoffer/esp8266/esp-open-sdk/sdk/lib/libmain.a(user_interface.o)
                                                  /home/stoffer/esp8266/esp-open-sdk/sdk/lib/libpp.a(pp.o)
prvInsertBlockIntoUsedList                        /home/stoffer/esp8266/esp-open-sdk/sdk/lib/libmain.a(mem_manager.o)
prvRemoveBlockFromUsedList                        /home/stoffer/esp8266/esp-open-sdk/sdk/lib/libmain.a(mem_manager.o)
pserver_list                                      /home/stoffer/esp8266/esp-open-sdk/sdk/lib/liblwip.a(espconn.o)
                                                  /home/stoffer/esp8266/esp-open-sdk/sdk/lib/liblwip.a(espconn_tcp.o)
pvPortCalloc                                      /home/stoffer/esp8266/esp-open-sdk/sdk/lib/libmain.a(mem_manager.o)
pvPortMalloc                                      /home/stoffer/esp8266/esp-open-sdk/sdk/lib/libmain.a(mem_manager.o)
                                                  build/app_app.a(heatshrink_decoder.o)
                                                  build/app_app.a(espfs.o)
                                                  build/app_app.a(httpdespfs.o)
                                                  build/app_app.a(cgiwifi.o)
                                                  build/app_app.a(httpd.o)
                                                  /home/stoffer/esp8266/esp-open-sdk/sdk/lib/libpp.a(wdev.o)
                                                  /home/stoffer/esp8266/esp-open-sdk/sdk/lib/libpp.a(esf_buf.o)
                                                  /home/stoffer/esp8266/esp-open-sdk/sdk/lib/liblwip.a(igmp.o)
                                                  /home/stoffer/esp8266/esp-open-sdk/sdk/lib/liblwip.a(udp.o)
                                                  /home/stoffer/esp8266/esp-open-sdk/sdk/lib/liblwip.a(timers.o)
                                                  /home/stoffer/esp8266/esp-open-sdk/sdk/lib/liblwip.a(tcp_out.o)
                                                  /home/stoffer/esp8266/esp-open-sdk/sdk/lib/liblwip.a(tcp.o)
                                                  /home/stoffer/esp8266/esp-open-sdk/sdk/lib/liblwip.a(raw.o)
                                                  /home/stoffer/esp8266/esp-open-sdk/sdk/lib/liblwip.a(pbuf.o)
                                                  /home/stoffer/esp8266/esp-open-sdk/sdk/lib/liblwip.a(etharp.o)
                                                  /home/stoffer/esp8266/esp-open-sdk/sdk/lib/liblwip.a(dhcp.o)
                                                  /home/stoffer/esp8266/esp-open-sdk/sdk/lib/libwpa.a(aes-internal-enc.o)
                                                  /home/stoffer/esp8266/esp-open-sdk/sdk/lib/libwpa.a(wpa_main.o)
                                                  /home/stoffer/esp8266/esp-open-sdk/sdk/lib/libwpa.a(wpa_auth_ie.o)
                                                  /home/stoffer/esp8266/esp-open-sdk/sdk/lib/libwpa.a(wpa_auth.o)
                                                  /home/stoffer/esp8266/esp-open-sdk/sdk/lib/libwpa.a(os_xtensa.o)
                                                  /home/stoffer/esp8266/esp-open-sdk/sdk/lib/libwpa.a(common.o)
                                                  /home/stoffer/esp8266/esp-open-sdk/sdk/lib/libnet80211.a(ieee80211_regdomain.o)
                                                  /home/stoffer/esp8266/esp-open-sdk/sdk/lib/libnet80211.a(ieee80211_input.o)
                                                  /home/stoffer/esp8266/esp-open-sdk/sdk/lib/libmain.a(eagle_lwip_if.o)
                                                  /home/stoffer/esp8266/esp-open-sdk/sdk/lib/libmain.a(user_interface.o)
pvPortRealloc                                     /home/stoffer/esp8266/esp-open-sdk/sdk/lib/libmain.a(mem_manager.o)
pvPortZalloc                                      /home/stoffer/esp8266/esp-open-sdk/sdk/lib/libmain.a(mem_manager.o)
                                                  build/app_app.a(queue.o)
                                                  build/app_app.a(mqtt.o)
                                                  /home/stoffer/esp8266/esp-open-sdk/sdk/lib/libpp.a(pm_for_bcn_only_mode.o)
                                                  /home/stoffer/esp8266/esp-open-sdk/sdk/lib/libpp.a(pm.o)
                                                  /home/stoffer/esp8266/esp-open-sdk/sdk/lib/libpp.a(esf_buf.o)
                                                  /home/stoffer/esp8266/esp-open-sdk/sdk/lib/liblwip.a(espconn_udp.o)
                                                  /home/stoffer/esp8266/esp-open-sdk/sdk/lib/liblwip.a(espconn.o)
                                                  /home/stoffer/esp8266/esp-open-sdk/sdk/lib/liblwip.a(espconn_buf.o)
                                                  /home/stoffer/esp8266/esp-open-sdk/sdk/lib/liblwip.a(espconn_tcp.o)
                                                  /home/stoffer/esp8266/esp-open-sdk/sdk/lib/liblwip.a(dns.o)
                                                  /home/stoffer/esp8266/esp-open-sdk/sdk/lib/liblwip.a(dhcpserver.o)
                                                  /home/stoffer/esp8266/esp-open-sdk/sdk/lib/libwpa.a(wpa_main.o)
                                                  /home/stoffer/esp8266/esp-open-sdk/sdk/lib/libwpa.a(wpa_auth.o)
                                                  /home/stoffer/esp8266/esp-open-sdk/sdk/lib/libwpa.a(ap_config.o)
                                                  /home/stoffer/esp8266/esp-open-sdk/sdk/lib/libnet80211.a(wl_cnx.o)
                                                  /home/stoffer/esp8266/esp-open-sdk/sdk/lib/libnet80211.a(ieee80211_sta.o)
                                                  /home/stoffer/esp8266/esp-open-sdk/sdk/lib/libnet80211.a(ieee80211_scan.o)
                                                  /home/stoffer/esp8266/esp-open-sdk/sdk/lib/libnet80211.a(ieee80211_phy.o)
                                                  /home/stoffer/esp8266/esp-open-sdk/sdk/lib/libnet80211.a(ieee80211_mesh_quick.o)
                                                  /home/stoffer/esp8266/esp-open-sdk/sdk/lib/libnet80211.a(ieee80211_hostap.o)
                                                  /home/stoffer/esp8266/esp-open-sdk/sdk/lib/libnet80211.a(ieee80211.o)
                                                  /home/stoffer/esp8266/esp-open-sdk/sdk/lib/libmain.a(user_interface.o)
                                                  /home/stoffer/esp8266/esp-open-sdk/sdk/lib/libmain.a(app_main.o)
pvShowMalloc                                      /home/stoffer/esp8266/esp-open-sdk/sdk/lib/libmain.a(mem_manager.o)
pwrsave_flushq                                    /home/stoffer/esp8266/esp-open-sdk/sdk/lib/libnet80211.a(ieee80211_power.o)
                                                  /home/stoffer/esp8266/esp-open-sdk/sdk/lib/libnet80211.a(wl_cnx.o)
                                                  /home/stoffer/esp8266/esp-open-sdk/sdk/lib/libnet80211.a(ieee80211_hostap.o)
r_rand                                            /home/stoffer/esp8266/esp-open-sdk/sdk/lib/libwpa.a(os_xtensa.o)
                                                  /home/stoffer/esp8266/esp-open-sdk/sdk/lib/liblwip.a(igmp.o)
ram_ana_inf_gating_en                             /home/stoffer/esp8266/esp-open-sdk/sdk/lib/libphy.a(phy_chip_v6_ana.o)
                                                  /home/stoffer/esp8266/esp-open-sdk/sdk/lib/libphy.a(phy_chip_v6.o)
ram_cal_tos_v60                                   /home/stoffer/esp8266/esp-open-sdk/sdk/lib/libphy.a(phy_chip_v6_cal.o)
                                                  /home/stoffer/esp8266/esp-open-sdk/sdk/lib/libphy.a(phy_chip_v6.o)
ram_chip_v6_rx_init                               /home/stoffer/esp8266/esp-open-sdk/sdk/lib/libphy.a(phy_chip_v6_ana.o)
                                                  /home/stoffer/esp8266/esp-open-sdk/sdk/lib/libphy.a(phy_chip_v6.o)
ram_get_bb_atten                                  /home/stoffer/esp8266/esp-open-sdk/sdk/lib/libphy.a(phy_chip_v6_cal.o)
ram_get_corr_power                                /home/stoffer/esp8266/esp-open-sdk/sdk/lib/libphy.a(phy_chip_v6.o)
ram_get_fm_sar_dout                               /home/stoffer/esp8266/esp-open-sdk/sdk/lib/libphy.a(phy_chip_v6_cal.o)
                                                  /home/stoffer/esp8266/esp-open-sdk/sdk/lib/libphy.a(phy_chip_v6.o)
ram_get_noisefloor                                /home/stoffer/esp8266/esp-open-sdk/sdk/lib/libphy.a(phy_chip_v6.o)
ram_pbus_debugmode                                /home/stoffer/esp8266/esp-open-sdk/sdk/lib/libphy.a(phy_chip_v6_ana.o)
                                                  /home/stoffer/esp8266/esp-open-sdk/sdk/lib/libphy.a(phy_chip_v6.o)
ram_pbus_set_rxgain                               /home/stoffer/esp8266/esp-open-sdk/sdk/lib/libphy.a(phy_chip_v6_ana.o)
                                                  /home/stoffer/esp8266/esp-open-sdk/sdk/lib/libphy.a(phy_chip_v6.o)
ram_pbus_xpd_tx_on                                /home/stoffer/esp8266/esp-open-sdk/sdk/lib/libphy.a(phy_chip_v6_ana.o)
                                                  /home/stoffer/esp8266/esp-open-sdk/sdk/lib/libphy.a(phy_chip_v6_cal.o)
                                                  /home/stoffer/esp8266/esp-open-sdk/sdk/lib/libphy.a(phy_chip_v6.o)
ram_restart_cal                                   /home/stoffer/esp8266/esp-open-sdk/sdk/lib/libphy.a(phy_chip_v6_ana.o)
                                                  /home/stoffer/esp8266/esp-open-sdk/sdk/lib/libphy.a(phy_chip_v6.o)
ram_rfcal_pwrctrl                                 /home/stoffer/esp8266/esp-open-sdk/sdk/lib/libphy.a(phy_chip_v6_cal.o)
                                                  /home/stoffer/esp8266/esp-open-sdk/sdk/lib/libphy.a(phy_chip_v6.o)
ram_rfcal_rxiq                                    /home/stoffer/esp8266/esp-open-sdk/sdk/lib/libphy.a(phy_chip_v6_cal.o)
                                                  /home/stoffer/esp8266/esp-open-sdk/sdk/lib/libphy.a(phy_chip_v6.o)
ram_rfcal_txcap                                   /home/stoffer/esp8266/esp-open-sdk/sdk/lib/libphy.a(phy_chip_v6_cal.o)
                                                  /home/stoffer/esp8266/esp-open-sdk/sdk/lib/libphy.a(phy_chip_v6.o)
ram_rfcal_txiq                                    /home/stoffer/esp8266/esp-open-sdk/sdk/lib/libphy.a(phy_chip_v6_cal.o)
                                                  /home/stoffer/esp8266/esp-open-sdk/sdk/lib/libphy.a(phy_chip_v6.o)
ram_rfpll_set_freq                                /home/stoffer/esp8266/esp-open-sdk/sdk/lib/libphy.a(phy_chip_v6_ana.o)
ram_rxiq_cover_mg_mp                              /home/stoffer/esp8266/esp-open-sdk/sdk/lib/libphy.a(phy_chip_v6_cal.o)
                                                  /home/stoffer/esp8266/esp-open-sdk/sdk/lib/libphy.a(phy_chip_v6.o)
ram_rxiq_get_mis                                  /home/stoffer/esp8266/esp-open-sdk/sdk/lib/libphy.a(phy_chip_v6_cal.o)
                                                  /home/stoffer/esp8266/esp-open-sdk/sdk/lib/libphy.a(phy_chip_v6.o)
ram_set_channel_freq                              /home/stoffer/esp8266/esp-open-sdk/sdk/lib/libphy.a(phy_chip_v6_ana.o)
ram_set_noise_floor                               /home/stoffer/esp8266/esp-open-sdk/sdk/lib/libphy.a(phy_chip_v6.o)
ram_set_txbb_atten                                /home/stoffer/esp8266/esp-open-sdk/sdk/lib/libphy.a(phy_chip_v6_cal.o)
                                                  /home/stoffer/esp8266/esp-open-sdk/sdk/lib/libphy.a(phy_chip_v6.o)
ram_start_noisefloor                              /home/stoffer/esp8266/esp-open-sdk/sdk/lib/libphy.a(phy_chip_v6.o)
ram_tx_mac_disable                                /home/stoffer/esp8266/esp-open-sdk/sdk/lib/libphy.a(phy_chip_v6.o)
ram_tx_mac_enable                                 /home/stoffer/esp8266/esp-open-sdk/sdk/lib/libphy.a(phy_chip_v6.o)
raw_bind                                          /home/stoffer/esp8266/esp-open-sdk/sdk/lib/liblwip.a(raw.o)
raw_connect                                       /home/stoffer/esp8266/esp-open-sdk/sdk/lib/liblwip.a(raw.o)
raw_input                                         /home/stoffer/esp8266/esp-open-sdk/sdk/lib/liblwip.a(raw.o)
                                                  /home/stoffer/esp8266/esp-open-sdk/sdk/lib/liblwip.a(ip.o)
raw_new                                           /home/stoffer/esp8266/esp-open-sdk/sdk/lib/liblwip.a(raw.o)
raw_recv                                          /home/stoffer/esp8266/esp-open-sdk/sdk/lib/liblwip.a(raw.o)
raw_remove                                        /home/stoffer/esp8266/esp-open-sdk/sdk/lib/liblwip.a(raw.o)
raw_send                                          /home/stoffer/esp8266/esp-open-sdk/sdk/lib/liblwip.a(raw.o)
raw_sendto                                        /home/stoffer/esp8266/esp-open-sdk/sdk/lib/liblwip.a(raw.o)
rc4_skip                                          /home/stoffer/esp8266/esp-open-sdk/sdk/lib/libwpa.a(wpa.o)
                                                  /home/stoffer/esp8266/esp-open-sdk/sdk/lib/libwpa.a(wpa_auth.o)
rcAttach                                          /home/stoffer/esp8266/esp-open-sdk/sdk/lib/libpp.a(trc.o)
                                                  /home/stoffer/esp8266/esp-open-sdk/sdk/lib/libpp.a(lmac.o)
rcGetRate                                         /home/stoffer/esp8266/esp-open-sdk/sdk/lib/libpp.a(trc.o)
                                                  /home/stoffer/esp8266/esp-open-sdk/sdk/lib/libpp.a(lmac.o)
rcGetSched                                        /home/stoffer/esp8266/esp-open-sdk/sdk/lib/libpp.a(trc.o)
                                                  /home/stoffer/esp8266/esp-open-sdk/sdk/lib/libpp.a(pp.o)
rcGetTrc                                          /home/stoffer/esp8266/esp-open-sdk/sdk/lib/libpp.a(trc.o)
rcReachRetryLimit                                 /home/stoffer/esp8266/esp-open-sdk/sdk/lib/libpp.a(trc.o)
                                                  /home/stoffer/esp8266/esp-open-sdk/sdk/lib/libpp.a(lmac.o)
rcUpdateDataRxDone                                /home/stoffer/esp8266/esp-open-sdk/sdk/lib/libpp.a(trc.o)
                                                  /home/stoffer/esp8266/esp-open-sdk/sdk/lib/libpp.a(wdev.o)
rcUpdatePhyMode                                   /home/stoffer/esp8266/esp-open-sdk/sdk/lib/libpp.a(trc.o)
                                                  /home/stoffer/esp8266/esp-open-sdk/sdk/lib/libpp.a(if_hwctrl.o)
rcUpdateRxDone                                    /home/stoffer/esp8266/esp-open-sdk/sdk/lib/libpp.a(trc.o)
                                                  /home/stoffer/esp8266/esp-open-sdk/sdk/lib/libpp.a(pp.o)
rcUpdateTxDone                                    /home/stoffer/esp8266/esp-open-sdk/sdk/lib/libpp.a(trc.o)
                                                  /home/stoffer/esp8266/esp-open-sdk/sdk/lib/libpp.a(lmac.o)
rc_cal                                            /home/stoffer/esp8266/esp-open-sdk/sdk/lib/libphy.a(phy_chip_v6_cal.o)
                                                  /home/stoffer/esp8266/esp-open-sdk/sdk/lib/libphy.a(phy_chip_v6.o)
rc_disable_trc                                    /home/stoffer/esp8266/esp-open-sdk/sdk/lib/libpp.a(trc.o)
                                                  /home/stoffer/esp8266/esp-open-sdk/sdk/lib/libpp.a(if_hwctrl.o)
rc_disable_trc_by_interface                       /home/stoffer/esp8266/esp-open-sdk/sdk/lib/libpp.a(trc.o)
                                                  /home/stoffer/esp8266/esp-open-sdk/sdk/lib/libpp.a(if_hwctrl.o)
rc_enable_trc                                     /home/stoffer/esp8266/esp-open-sdk/sdk/lib/libpp.a(trc.o)
                                                  /home/stoffer/esp8266/esp-open-sdk/sdk/lib/libpp.a(if_hwctrl.o)
rc_get_mask                                       /home/stoffer/esp8266/esp-open-sdk/sdk/lib/libpp.a(trc.o)
                                                  /home/stoffer/esp8266/esp-open-sdk/sdk/lib/libpp.a(pm.o)
rc_get_sta_trc                                    /home/stoffer/esp8266/esp-open-sdk/sdk/lib/libpp.a(trc.o)
                                                  /home/stoffer/esp8266/esp-open-sdk/sdk/lib/libpp.a(pm.o)
rc_get_trc                                        /home/stoffer/esp8266/esp-open-sdk/sdk/lib/libpp.a(trc.o)
                                                  /home/stoffer/esp8266/esp-open-sdk/sdk/lib/libpp.a(pp.o)
                                                  /home/stoffer/esp8266/esp-open-sdk/sdk/lib/libpp.a(pm.o)
                                                  /home/stoffer/esp8266/esp-open-sdk/sdk/lib/libpp.a(if_hwctrl.o)
rc_get_trc_by_index                               /home/stoffer/esp8266/esp-open-sdk/sdk/lib/libpp.a(trc.o)
                                                  /home/stoffer/esp8266/esp-open-sdk/sdk/lib/libnet80211.a(ieee80211_output.o)
                                                  /home/stoffer/esp8266/esp-open-sdk/sdk/lib/libnet80211.a(ieee80211_ht.o)
rc_only_sta_trc                                   /home/stoffer/esp8266/esp-open-sdk/sdk/lib/libpp.a(trc.o)
                                                  /home/stoffer/esp8266/esp-open-sdk/sdk/lib/libpp.a(if_hwctrl.o)
rc_set_rate_limit_id                              /home/stoffer/esp8266/esp-open-sdk/sdk/lib/libpp.a(trc.o)
                                                  /home/stoffer/esp8266/esp-open-sdk/sdk/lib/libmain.a(user_interface.o)
rcons                                             /home/stoffer/esp8266/esp-open-sdk/sdk/lib/libwpa.a(aes-internal.o)
read_hw_noisefloor                                /home/stoffer/esp8266/esp-open-sdk/sdk/lib/libphy.a(phy_chip_v6.o)
                                                  /home/stoffer/esp8266/esp-open-sdk/sdk/lib/libpp.a(pp.o)
read_sar_dout                                     /home/stoffer/esp8266/esp-open-sdk/sdk/lib/libphy.a(phy_chip_v6_cal.o)
                                                  /home/stoffer/esp8266/esp-open-sdk/sdk/lib/libphy.a(phy_chip_v6_ana.o)
readvdd33                                         /home/stoffer/esp8266/esp-open-sdk/sdk/lib/libphy.a(phy_chip_v6_ana.o)
reconnect_flag                                    /home/stoffer/esp8266/esp-open-sdk/sdk/lib/libnet80211.a(wl_cnx.o)
                                                  /home/stoffer/esp8266/esp-open-sdk/sdk/lib/libnet80211.a(ieee80211_sta.o)
reconnect_internal                                /home/stoffer/esp8266/esp-open-sdk/sdk/lib/libmain.a(user_interface.o)
reduce_current_init                               /home/stoffer/esp8266/esp-open-sdk/sdk/lib/libphy.a(phy_chip_v6.o)
register_chipv6_phy                               /home/stoffer/esp8266/esp-open-sdk/sdk/lib/libphy.a(phy_chip_v6.o)
                                                  /home/stoffer/esp8266/esp-open-sdk/sdk/lib/libphy.a(phy_sleep.o)
                                                  /home/stoffer/esp8266/esp-open-sdk/sdk/lib/libmain.a(app_main.o)
register_chipv6_phy_init_param                    /home/stoffer/esp8266/esp-open-sdk/sdk/lib/libphy.a(phy_chip_v6.o)
register_get_phy_addr                             /home/stoffer/esp8266/esp-open-sdk/sdk/lib/libphy.a(phy.o)
                                                  /home/stoffer/esp8266/esp-open-sdk/sdk/lib/libphy.a(phy_chip_v6.o)
register_ieee80211_action_vendor_get_key_cb       /home/stoffer/esp8266/esp-open-sdk/sdk/lib/libnet80211.a(ieee80211_action_vendor.o)
register_ieee80211_action_vendor_spec_cb          /home/stoffer/esp8266/esp-open-sdk/sdk/lib/libnet80211.a(ieee80211_action_vendor.o)
register_ieee80211_rfid_locp_recv_cb              /home/stoffer/esp8266/esp-open-sdk/sdk/lib/libnet80211.a(ieee80211_rfid.o)
                                                  /home/stoffer/esp8266/esp-open-sdk/sdk/lib/libmain.a(user_interface.o)
register_list                                     build/app_app.a(kmp_request.o)
register_phy_ops                                  /home/stoffer/esp8266/esp-open-sdk/sdk/lib/libphy.a(phy.o)
                                                  /home/stoffer/esp8266/esp-open-sdk/sdk/lib/libphy.a(phy_chip_v6.o)
remove_watchdog                                   build/app_app.a(watchdog.o)
res_buf                                           /home/stoffer/esp8266/esp-open-sdk/sdk/lib/liblwip.a(sntp.o)
reset_noise_timer                                 /home/stoffer/esp8266/esp-open-sdk/sdk/lib/libpp.a(pp.o)
                                                  /home/stoffer/esp8266/esp-open-sdk/sdk/lib/libpp.a(pm_for_bcn_only_mode.o)
                                                  /home/stoffer/esp8266/esp-open-sdk/sdk/lib/libpp.a(pm.o)
                                                  /home/stoffer/esp8266/esp-open-sdk/sdk/lib/libnet80211.a(ieee80211_hostap.o)
reset_watchdog                                    build/app_app.a(watchdog.o)
                                                  build/app_app.a(user_main.o)
response                                          build/app_app.a(kmp_request.o)
reult                                             /home/stoffer/esp8266/esp-open-sdk/sdk/lib/liblwip.a(sntp.o)
rf_cal_sec                                        /home/stoffer/esp8266/esp-open-sdk/sdk/lib/libmain.a(app_main.o)
                                                  /home/stoffer/esp8266/esp-open-sdk/sdk/lib/libpp.a(pm_for_bcn_only_mode.o)
                                                  /home/stoffer/esp8266/esp-open-sdk/sdk/lib/libpp.a(pm.o)
rf_init                                           /home/stoffer/esp8266/esp-open-sdk/sdk/lib/libphy.a(phy.o)
rfcal_bb_atten_init                               /home/stoffer/esp8266/esp-open-sdk/sdk/lib/libphy.a(phy_chip_v6_cal.o)
                                                  /home/stoffer/esp8266/esp-open-sdk/sdk/lib/libphy.a(phy_chip_v6.o)
rijndaelEncrypt                                   /home/stoffer/esp8266/esp-open-sdk/sdk/lib/libwpa.a(aes-internal-enc.o)
rijndaelKeySetupEnc                               /home/stoffer/esp8266/esp-open-sdk/sdk/lib/libwpa.a(aes-internal.o)
                                                  /home/stoffer/esp8266/esp-open-sdk/sdk/lib/libwpa.a(aes-internal-enc.o)
ringbuf_buffer_size                               /home/stoffer/esp8266/esp-open-sdk/sdk/lib/liblwip.a(espconn_buf.o)
ringbuf_bytes_free                                /home/stoffer/esp8266/esp-open-sdk/sdk/lib/liblwip.a(espconn_buf.o)
ringbuf_bytes_used                                /home/stoffer/esp8266/esp-open-sdk/sdk/lib/liblwip.a(espconn_buf.o)
                                                  /home/stoffer/esp8266/esp-open-sdk/sdk/lib/liblwip.a(espconn.o)
ringbuf_capacity                                  /home/stoffer/esp8266/esp-open-sdk/sdk/lib/liblwip.a(espconn_buf.o)
ringbuf_findchr                                   /home/stoffer/esp8266/esp-open-sdk/sdk/lib/liblwip.a(espconn_buf.o)
ringbuf_free                                      /home/stoffer/esp8266/esp-open-sdk/sdk/lib/liblwip.a(espconn_buf.o)
                                                  /home/stoffer/esp8266/esp-open-sdk/sdk/lib/liblwip.a(espconn_tcp.o)
ringbuf_head                                      /home/stoffer/esp8266/esp-open-sdk/sdk/lib/liblwip.a(espconn_buf.o)
ringbuf_is_empty                                  /home/stoffer/esp8266/esp-open-sdk/sdk/lib/liblwip.a(espconn_buf.o)
ringbuf_is_full                                   /home/stoffer/esp8266/esp-open-sdk/sdk/lib/liblwip.a(espconn_buf.o)
ringbuf_memcpy_from                               /home/stoffer/esp8266/esp-open-sdk/sdk/lib/liblwip.a(espconn_buf.o)
                                                  /home/stoffer/esp8266/esp-open-sdk/sdk/lib/liblwip.a(espconn.o)
ringbuf_memcpy_into                               /home/stoffer/esp8266/esp-open-sdk/sdk/lib/liblwip.a(espconn_buf.o)
                                                  /home/stoffer/esp8266/esp-open-sdk/sdk/lib/liblwip.a(espconn_tcp.o)
ringbuf_memset                                    /home/stoffer/esp8266/esp-open-sdk/sdk/lib/liblwip.a(espconn_buf.o)
ringbuf_new                                       /home/stoffer/esp8266/esp-open-sdk/sdk/lib/liblwip.a(espconn_buf.o)
                                                  /home/stoffer/esp8266/esp-open-sdk/sdk/lib/liblwip.a(espconn_tcp.o)
ringbuf_reset                                     /home/stoffer/esp8266/esp-open-sdk/sdk/lib/liblwip.a(espconn_buf.o)
ringbuf_tail                                      /home/stoffer/esp8266/esp-open-sdk/sdk/lib/liblwip.a(espconn_buf.o)
rom_chip_v5_disable_cca                           /home/stoffer/esp8266/esp-open-sdk/sdk/lib/libphy.a(phy_chip_v6.o)
rom_chip_v5_enable_cca                            /home/stoffer/esp8266/esp-open-sdk/sdk/lib/libphy.a(phy_chip_v6.o)
roundup2                                          /home/stoffer/esp8266/esp-open-sdk/sdk/lib/libpp.a(wdev.o)
                                                  /home/stoffer/esp8266/esp-open-sdk/sdk/lib/libnet80211.a(ieee80211_ets.o)
rsn_cipher_put_suites                             /home/stoffer/esp8266/esp-open-sdk/sdk/lib/libwpa.a(wpa_common.o)
                                                  /home/stoffer/esp8266/esp-open-sdk/sdk/lib/libwpa.a(wpa_auth_ie.o)
rsn_pmkid                                         /home/stoffer/esp8266/esp-open-sdk/sdk/lib/libwpa.a(wpa_common.o)
                                                  /home/stoffer/esp8266/esp-open-sdk/sdk/lib/libwpa.a(wpa_auth.o)
rssi                                              build/app_app.a(wifi.o)
rst_if                                            /home/stoffer/esp8266/esp-open-sdk/sdk/lib/libmain.a(user_interface.o)
                                                  /home/stoffer/esp8266/esp-open-sdk/sdk/lib/libmain.a(app_main.o)
rtc_get_reset_reason                              /home/stoffer/esp8266/esp-open-sdk/sdk/lib/libmain.a(app_main.o)
rtc_info                                          build/app_app.a(user_main.o)
rtc_mem_backup                                    /home/stoffer/esp8266/esp-open-sdk/sdk/lib/libphy.a(phy_chip_v6.o)
                                                  /home/stoffer/esp8266/esp-open-sdk/sdk/lib/libphy.a(phy_chip_v6_cal.o)
rtc_mem_check                                     /home/stoffer/esp8266/esp-open-sdk/sdk/lib/libphy.a(phy_chip_v6.o)
rtc_mem_recovery                                  /home/stoffer/esp8266/esp-open-sdk/sdk/lib/libphy.a(phy_chip_v6.o)
rx_gain_swp                                       /home/stoffer/esp8266/esp-open-sdk/sdk/lib/libphy.a(phy_chip_v6.o)
rx_table_renew_en                                 /home/stoffer/esp8266/esp-open-sdk/sdk/lib/libphy.a(phy_chip_v6.o)
rxiq_compute_num                                  /home/stoffer/esp8266/esp-open-sdk/sdk/lib/libphy.a(phy_chip_v6.o)
rxiq_cover_fail_num                               /home/stoffer/esp8266/esp-open-sdk/sdk/lib/libphy.a(phy_chip_v6_cal.o)
rxmax_ext_level                                   /home/stoffer/esp8266/esp-open-sdk/sdk/lib/libphy.a(phy_chip_v6.o)
                                                  /home/stoffer/esp8266/esp-open-sdk/sdk/lib/libphy.a(phy_chip_v6_ana.o)
saveFlag                                          build/app_app.a(config.o)
scan_add_bssid                                    /home/stoffer/esp8266/esp-open-sdk/sdk/lib/libnet80211.a(ieee80211_scan.o)
                                                  /home/stoffer/esp8266/esp-open-sdk/sdk/lib/libnet80211.a(wl_cnx.o)
scan_add_probe_ssid                               /home/stoffer/esp8266/esp-open-sdk/sdk/lib/libnet80211.a(ieee80211_scan.o)
                                                  /home/stoffer/esp8266/esp-open-sdk/sdk/lib/libnet80211.a(wl_cnx.o)
scan_cancel                                       /home/stoffer/esp8266/esp-open-sdk/sdk/lib/libnet80211.a(ieee80211_scan.o)
                                                  /home/stoffer/esp8266/esp-open-sdk/sdk/lib/libmain.a(user_interface.o)
scan_check_hidden                                 /home/stoffer/esp8266/esp-open-sdk/sdk/lib/libnet80211.a(ieee80211_scan.o)
scan_clear_channles                               /home/stoffer/esp8266/esp-open-sdk/sdk/lib/libnet80211.a(ieee80211_scan.o)
scan_connect_state                                /home/stoffer/esp8266/esp-open-sdk/sdk/lib/libnet80211.a(ieee80211_scan.o)
                                                  /home/stoffer/esp8266/esp-open-sdk/sdk/lib/libpp.a(pp.o)
scan_get_type                                     /home/stoffer/esp8266/esp-open-sdk/sdk/lib/libnet80211.a(ieee80211_scan.o)
                                                  /home/stoffer/esp8266/esp-open-sdk/sdk/lib/libnet80211.a(wl_cnx.o)
scan_hidden_ssid                                  /home/stoffer/esp8266/esp-open-sdk/sdk/lib/libnet80211.a(ieee80211_scan.o)
                                                  /home/stoffer/esp8266/esp-open-sdk/sdk/lib/libnet80211.a(wl_cnx.o)
scan_parse_beacon                                 /home/stoffer/esp8266/esp-open-sdk/sdk/lib/libnet80211.a(ieee80211_scan.o)
                                                  /home/stoffer/esp8266/esp-open-sdk/sdk/lib/libnet80211.a(ieee80211_sta.o)
scan_pm_channel_op_cb                             /home/stoffer/esp8266/esp-open-sdk/sdk/lib/libnet80211.a(ieee80211_scan.o)
scan_profile_check                                /home/stoffer/esp8266/esp-open-sdk/sdk/lib/libnet80211.a(ieee80211_scan.o)
scan_remove_bssid                                 /home/stoffer/esp8266/esp-open-sdk/sdk/lib/libnet80211.a(ieee80211_scan.o)
                                                  /home/stoffer/esp8266/esp-open-sdk/sdk/lib/libnet80211.a(wl_cnx.o)
scan_remove_probe_ssid                            /home/stoffer/esp8266/esp-open-sdk/sdk/lib/libnet80211.a(ieee80211_scan.o)
                                                  /home/stoffer/esp8266/esp-open-sdk/sdk/lib/libnet80211.a(wl_cnx.o)
scan_set_desChan                                  /home/stoffer/esp8266/esp-open-sdk/sdk/lib/libnet80211.a(ieee80211_scan.o)
                                                  /home/stoffer/esp8266/esp-open-sdk/sdk/lib/libnet80211.a(wl_cnx.o)
scan_start                                        /home/stoffer/esp8266/esp-open-sdk/sdk/lib/libnet80211.a(ieee80211_scan.o)
                                                  /home/stoffer/esp8266/esp-open-sdk/sdk/lib/libnet80211.a(wl_cnx.o)
scannum                                           /home/stoffer/esp8266/esp-open-sdk/sdk/lib/libnet80211.a(ieee80211_scan.o)
                                                  /home/stoffer/esp8266/esp-open-sdk/sdk/lib/libmain.a(user_interface.o)
sdt_on_noise_start                                /home/stoffer/esp8266/esp-open-sdk/sdk/lib/libphy.a(phy_chip_v6.o)
sec_drift                                         build/app_app.a(cron.o)
set_cal_rxdc                                      /home/stoffer/esp8266/esp-open-sdk/sdk/lib/libphy.a(phy_chip_v6.o)
set_crystal_uart                                  /home/stoffer/esp8266/esp-open-sdk/sdk/lib/libphy.a(phy_chip_v6.o)
set_dpd_bypass                                    /home/stoffer/esp8266/esp-open-sdk/sdk/lib/libphy.a(phy_chip_v6.o)
set_most_pwr_reg                                  /home/stoffer/esp8266/esp-open-sdk/sdk/lib/libphy.a(phy_chip_v6.o)
set_rf_freq_offset                                /home/stoffer/esp8266/esp-open-sdk/sdk/lib/libphy.a(phy_chip_v6_ana.o)
set_rf_gain_stage10                               /home/stoffer/esp8266/esp-open-sdk/sdk/lib/libphy.a(phy_chip_v6.o)
set_rfanagain_dc_reg                              /home/stoffer/esp8266/esp-open-sdk/sdk/lib/libphy.a(phy_chip_v6_cal.o)
                                                  /home/stoffer/esp8266/esp-open-sdk/sdk/lib/libphy.a(phy_chip_v6.o)
set_rx_gain_cal_iq                                /home/stoffer/esp8266/esp-open-sdk/sdk/lib/libphy.a(phy_chip_v6.o)
set_rx_gain_testchip_50                           /home/stoffer/esp8266/esp-open-sdk/sdk/lib/libphy.a(phy_chip_v6.o)
set_txcap_reg                                     /home/stoffer/esp8266/esp-open-sdk/sdk/lib/libphy.a(phy_chip_v6_ana.o)
                                                  /home/stoffer/esp8266/esp-open-sdk/sdk/lib/libphy.a(phy_chip_v6.o)
set_txdc_pbus                                     /home/stoffer/esp8266/esp-open-sdk/sdk/lib/libphy.a(phy_chip_v6_cal.o)
                                                  /home/stoffer/esp8266/esp-open-sdk/sdk/lib/libphy.a(phy_chip_v6.o)
sha1_prf                                          /home/stoffer/esp8266/esp-open-sdk/sdk/lib/libwpa.a(wpa_common.o)
                                                  /home/stoffer/esp8266/esp-open-sdk/sdk/lib/libwpa.a(wpa_auth.o)
sha256_data                                       build/app_app.a(sha256.o)
sha256_end                                        build/app_app.a(sha256.o)
sha256_final                                      build/app_app.a(sha256.o)
                                                  build/app_app.a(hmac-sha256.o)
sha256_hash                                       build/app_app.a(crypto.o)
sha256_init                                       build/app_app.a(sha256.o)
                                                  build/app_app.a(hmac-sha256.o)
sha256_raw                                        build/app_app.a(sha256.o)
                                                  build/app_app.a(hmac-sha256.o)
                                                  build/app_app.a(crypto.o)
sha256_transform                                  build/app_app.a(sha256.o)
sha256_update                                     build/app_app.a(sha256.o)
                                                  build/app_app.a(hmac-sha256.o)
skip_atoi                                         /home/stoffer/esp8266/esp-open-sdk/sdk/lib/libmain.a(eagle_lib.o)
sleep_mode_flag                                   /home/stoffer/esp8266/esp-open-sdk/sdk/lib/libphy.a(phy_chip_v6_ana.o)
                                                  /home/stoffer/esp8266/esp-open-sdk/sdk/lib/libphy.a(phy_sleep.o)
sleep_opt_8266                                    /home/stoffer/esp8266/esp-open-sdk/sdk/lib/libphy.a(phy_sleep.o)
sleep_opt_bb_on_8266                              /home/stoffer/esp8266/esp-open-sdk/sdk/lib/libphy.a(phy_sleep.o)
sleep_reset_analog_rtcreg_8266                    /home/stoffer/esp8266/esp-open-sdk/sdk/lib/libphy.a(phy_sleep.o)
                                                  /home/stoffer/esp8266/esp-open-sdk/sdk/lib/libmain.a(app_main.o)
sleep_start_wait_time                             /home/stoffer/esp8266/esp-open-sdk/sdk/lib/libpp.a(pp.o)
                                                  /home/stoffer/esp8266/esp-open-sdk/sdk/lib/libpp.a(pm.o)
sntp__tzcalc_limits                               /home/stoffer/esp8266/esp-open-sdk/sdk/lib/liblwip.a(sntp.o)
sntp__tzrule                                      /home/stoffer/esp8266/esp-open-sdk/sdk/lib/liblwip.a(sntp.o)
sntp_asctime                                      /home/stoffer/esp8266/esp-open-sdk/sdk/lib/liblwip.a(sntp.o)
sntp_asctime_r                                    /home/stoffer/esp8266/esp-open-sdk/sdk/lib/liblwip.a(sntp.o)
sntp_get_current_timestamp                        /home/stoffer/esp8266/esp-open-sdk/sdk/lib/liblwip.a(sntp.o)
                                                  /home/stoffer/esp8266/esp-open-sdk/sdk/lib/libmain.a(time.o)
                                                  build/app_app.a(unix_time.o)
sntp_get_real_time                                /home/stoffer/esp8266/esp-open-sdk/sdk/lib/liblwip.a(sntp.o)
                                                  /home/stoffer/esp8266/esp-open-sdk/sdk/lib/libmain.a(time.o)
sntp_get_rtc_time                                 /home/stoffer/esp8266/esp-open-sdk/sdk/lib/libmain.a(time.o)
sntp_get_timetype                                 /home/stoffer/esp8266/esp-open-sdk/sdk/lib/liblwip.a(sntp.o)
                                                  /home/stoffer/esp8266/esp-open-sdk/sdk/lib/libmain.a(time.o)
sntp_get_timezone                                 /home/stoffer/esp8266/esp-open-sdk/sdk/lib/liblwip.a(sntp.o)
sntp_getserver                                    /home/stoffer/esp8266/esp-open-sdk/sdk/lib/liblwip.a(sntp.o)
sntp_getservername                                /home/stoffer/esp8266/esp-open-sdk/sdk/lib/liblwip.a(sntp.o)
sntp_init                                         /home/stoffer/esp8266/esp-open-sdk/sdk/lib/liblwip.a(sntp.o)
                                                  /home/stoffer/esp8266/esp-open-sdk/sdk/lib/libmain.a(time.o)
                                                  build/app_app.a(unix_time.o)
sntp_localtime                                    /home/stoffer/esp8266/esp-open-sdk/sdk/lib/liblwip.a(sntp.o)
sntp_localtime_r                                  /home/stoffer/esp8266/esp-open-sdk/sdk/lib/liblwip.a(sntp.o)
sntp_mktm_r                                       /home/stoffer/esp8266/esp-open-sdk/sdk/lib/liblwip.a(sntp.o)
sntp_receive_time_size                            /home/stoffer/esp8266/esp-open-sdk/sdk/lib/liblwip.a(sntp.o)
sntp_set_daylight                                 /home/stoffer/esp8266/esp-open-sdk/sdk/lib/liblwip.a(sntp.o)
                                                  /home/stoffer/esp8266/esp-open-sdk/sdk/lib/libmain.a(time.o)
sntp_set_receive_time_size                        /home/stoffer/esp8266/esp-open-sdk/sdk/lib/liblwip.a(sntp.o)
                                                  /home/stoffer/esp8266/esp-open-sdk/sdk/lib/libmain.a(time.o)
sntp_set_timetype                                 /home/stoffer/esp8266/esp-open-sdk/sdk/lib/liblwip.a(sntp.o)
                                                  /home/stoffer/esp8266/esp-open-sdk/sdk/lib/libmain.a(time.o)
sntp_set_timezone                                 /home/stoffer/esp8266/esp-open-sdk/sdk/lib/liblwip.a(sntp.o)
                                                  /home/stoffer/esp8266/esp-open-sdk/sdk/lib/libmain.a(time.o)
                                                  build/app_app.a(unix_time.o)
sntp_set_update_delay                             /home/stoffer/esp8266/esp-open-sdk/sdk/lib/liblwip.a(sntp.o)
                                                  /home/stoffer/esp8266/esp-open-sdk/sdk/lib/libmain.a(time.o)
sntp_setserver                                    /home/stoffer/esp8266/esp-open-sdk/sdk/lib/liblwip.a(sntp.o)
sntp_setservername                                /home/stoffer/esp8266/esp-open-sdk/sdk/lib/liblwip.a(sntp.o)
                                                  /home/stoffer/esp8266/esp-open-sdk/sdk/lib/libmain.a(time.o)
                                                  build/app_app.a(unix_time.o)
sntp_stop                                         /home/stoffer/esp8266/esp-open-sdk/sdk/lib/liblwip.a(sntp.o)
                                                  /home/stoffer/esp8266/esp-open-sdk/sdk/lib/libmain.a(time.o)
sntp_time_inc                                     /home/stoffer/esp8266/esp-open-sdk/sdk/lib/liblwip.a(sntp.o)
sntp_update_rtc                                   /home/stoffer/esp8266/esp-open-sdk/sdk/lib/libmain.a(time.o)
                                                  /home/stoffer/esp8266/esp-open-sdk/sdk/lib/liblwip.a(sntp.o)
soft_wdt_interval                                 /home/stoffer/esp8266/esp-open-sdk/sdk/lib/libpp.a(pp.o)
software_slp_reject                               /home/stoffer/esp8266/esp-open-sdk/sdk/lib/libphy.a(phy_sleep.o)
spi_flash_check_wr_protect                        /home/stoffer/esp8266/esp-open-sdk/sdk/lib/libmain.a(spi_flash.o)
spi_flash_enable_qmode                            /home/stoffer/esp8266/esp-open-sdk/sdk/lib/libmain.a(spi_flash.o)
                                                  /home/stoffer/esp8266/esp-open-sdk/sdk/lib/libmain.a(app_main.o)
spi_flash_erase_sector                            /home/stoffer/esp8266/esp-open-sdk/sdk/lib/libmain.a(spi_flash.o)
                                                  /home/stoffer/esp8266/esp-open-sdk/sdk/lib/libmain.a(user_interface.o)
spi_flash_get_id                                  /home/stoffer/esp8266/esp-open-sdk/sdk/lib/libmain.a(spi_flash.o)
                                                  /home/stoffer/esp8266/esp-open-sdk/sdk/lib/libmain.a(app_main.o)
spi_flash_get_unique_id                           /home/stoffer/esp8266/esp-open-sdk/sdk/lib/libmain.a(spi_flash.o)
spi_flash_issi_enable_QIO_mode                    /home/stoffer/esp8266/esp-open-sdk/sdk/lib/libmain.a(spi_flash.o)
                                                  /home/stoffer/esp8266/esp-open-sdk/sdk/lib/libmain.a(app_main.o)
spi_flash_read                                    /home/stoffer/esp8266/esp-open-sdk/sdk/lib/libmain.a(spi_flash.o)
                                                  /home/stoffer/esp8266/esp-open-sdk/sdk/lib/libpp.a(pm_for_bcn_only_mode.o)
                                                  /home/stoffer/esp8266/esp-open-sdk/sdk/lib/libpp.a(pm.o)
                                                  /home/stoffer/esp8266/esp-open-sdk/sdk/lib/libmain.a(user_interface.o)
                                                  /home/stoffer/esp8266/esp-open-sdk/sdk/lib/libmain.a(app_main.o)
spi_flash_read_status                             /home/stoffer/esp8266/esp-open-sdk/sdk/lib/libmain.a(spi_flash.o)
spi_flash_set_read_func                           /home/stoffer/esp8266/esp-open-sdk/sdk/lib/libmain.a(spi_flash.o)
spi_flash_write                                   /home/stoffer/esp8266/esp-open-sdk/sdk/lib/libmain.a(spi_flash.o)
                                                  /home/stoffer/esp8266/esp-open-sdk/sdk/lib/libmain.a(user_interface.o)
spi_flash_write_status                            /home/stoffer/esp8266/esp-open-sdk/sdk/lib/libmain.a(spi_flash.o)
sta_con_timer                                     /home/stoffer/esp8266/esp-open-sdk/sdk/lib/libnet80211.a(wl_cnx.o)
                                                  /home/stoffer/esp8266/esp-open-sdk/sdk/lib/libmain.a(user_interface.o)
sta_input                                         /home/stoffer/esp8266/esp-open-sdk/sdk/lib/libnet80211.a(ieee80211_sta.o)
                                                  /home/stoffer/esp8266/esp-open-sdk/sdk/lib/libpp.a(pp.o)
sta_status_set                                    /home/stoffer/esp8266/esp-open-sdk/sdk/lib/libnet80211.a(ieee80211_sta.o)
                                                  /home/stoffer/esp8266/esp-open-sdk/sdk/lib/libnet80211.a(wl_cnx.o)
start_dig_rx                                      /home/stoffer/esp8266/esp-open-sdk/sdk/lib/libphy.a(phy_chip_v6.o)
                                                  /home/stoffer/esp8266/esp-open-sdk/sdk/lib/libphy.a(phy_chip_v6_ana.o)
start_watchdog                                    build/app_app.a(watchdog.o)
                                                  build/app_app.a(user_main.o)
status_led_output_level                           /home/stoffer/esp8266/esp-open-sdk/sdk/lib/libmain.a(user_interface.o)
stop_dig_rx                                       /home/stoffer/esp8266/esp-open-sdk/sdk/lib/libphy.a(phy_chip_v6.o)
                                                  /home/stoffer/esp8266/esp-open-sdk/sdk/lib/libphy.a(phy_chip_v6_ana.o)
stop_watchdog                                     build/app_app.a(watchdog.o)
strcat                                            /home/stoffer/esp8266/esp-open-sdk/xtensa-lx106-elf/lib/gcc/xtensa-lx106-elf/4.8.5/../../../../xtensa-lx106-elf/lib/libc.a(lib_a-strcat.o)
                                                  build/app_app.a(kmp_request.o)
strlen                                            /home/stoffer/esp8266/esp-open-sdk/xtensa-lx106-elf/lib/gcc/xtensa-lx106-elf/4.8.5/../../../../xtensa-lx106-elf/lib/libc.a(lib_a-strlen.o)
                                                  build/app_app.a(mqtt_msg.o)
                                                  build/app_app.a(kmp.o)
strtok                                            /home/stoffer/esp8266/esp-open-sdk/xtensa-lx106-elf/lib/gcc/xtensa-lx106-elf/4.8.5/../../../../xtensa-lx106-elf/lib/libc.a(lib_a-strtok.o)
                                                  build/app_app.a(user_main.o)
strtok_r                                          /home/stoffer/esp8266/esp-open-sdk/xtensa-lx106-elf/lib/gcc/xtensa-lx106-elf/4.8.5/../../../../xtensa-lx106-elf/lib/libc.a(lib_a-strtok_r.o)
                                                  build/app_app.a(cron.o)
strtol                                            /home/stoffer/esp8266/esp-open-sdk/xtensa-lx106-elf/lib/gcc/xtensa-lx106-elf/4.8.5/../../../../xtensa-lx106-elf/lib/libc.a(lib_a-strtol.o)
                                                  /home/stoffer/esp8266/esp-open-sdk/xtensa-lx106-elf/lib/gcc/xtensa-lx106-elf/4.8.5/../../../../xtensa-lx106-elf/lib/libc.a(lib_a-atoi.o)
sw_scan_mode                                      /home/stoffer/esp8266/esp-open-sdk/sdk/lib/libphy.a(phy_chip_v6.o)
sys_cfg                                           build/app_app.a(config.o)
                                                  build/app_app.a(cgiwifi.o)
                                                  build/app_app.a(wifi.o)
                                                  build/app_app.a(ac_out.o)
                                                  build/app_app.a(cron.o)
                                                  build/app_app.a(user_main.o)
sys_check_timeouts                                /home/stoffer/esp8266/esp-open-sdk/sdk/lib/liblwip.a(timers.o)
                                                  /home/stoffer/esp8266/esp-open-sdk/sdk/lib/libmain.a(app_main.o)
sys_restart_timeouts                              /home/stoffer/esp8266/esp-open-sdk/sdk/lib/liblwip.a(timers.o)
sys_timeout                                       /home/stoffer/esp8266/esp-open-sdk/sdk/lib/liblwip.a(timers.o)
                                                  /home/stoffer/esp8266/esp-open-sdk/sdk/lib/liblwip.a(sntp.o)
sys_timeouts_init                                 /home/stoffer/esp8266/esp-open-sdk/sdk/lib/liblwip.a(timers.o)
                                                  /home/stoffer/esp8266/esp-open-sdk/sdk/lib/liblwip.a(init.o)
sys_untimeout                                     /home/stoffer/esp8266/esp-open-sdk/sdk/lib/liblwip.a(timers.o)
                                                  /home/stoffer/esp8266/esp-open-sdk/sdk/lib/liblwip.a(sntp.o)
system_adc_read                                   /home/stoffer/esp8266/esp-open-sdk/sdk/lib/libmain.a(user_interface.o)
system_adc_read_fast                              /home/stoffer/esp8266/esp-open-sdk/sdk/lib/libmain.a(user_interface.o)
system_deep_sleep                                 /home/stoffer/esp8266/esp-open-sdk/sdk/lib/libmain.a(user_interface.o)
system_deep_sleep_instant                         /home/stoffer/esp8266/esp-open-sdk/sdk/lib/libmain.a(user_interface.o)
system_deep_sleep_local_2                         /home/stoffer/esp8266/esp-open-sdk/sdk/lib/libmain.a(user_interface.o)
system_deep_sleep_set_option                      /home/stoffer/esp8266/esp-open-sdk/sdk/lib/libmain.a(user_interface.o)
system_get_boot_mode                              /home/stoffer/esp8266/esp-open-sdk/sdk/lib/libmain.a(user_interface.o)
system_get_boot_version                           /home/stoffer/esp8266/esp-open-sdk/sdk/lib/libmain.a(user_interface.o)
system_get_checksum                               /home/stoffer/esp8266/esp-open-sdk/sdk/lib/libmain.a(user_interface.o)
                                                  /home/stoffer/esp8266/esp-open-sdk/sdk/lib/libmain.a(app_main.o)
system_get_chip_id                                /home/stoffer/esp8266/esp-open-sdk/sdk/lib/libmain.a(user_interface.o)
                                                  build/app_app.a(config.o)
system_get_cpu_freq                               /home/stoffer/esp8266/esp-open-sdk/sdk/lib/libmain.a(user_interface.o)
system_get_data_of_array_16                       /home/stoffer/esp8266/esp-open-sdk/sdk/lib/libmain.a(user_interface.o)
system_get_data_of_array_8                        /home/stoffer/esp8266/esp-open-sdk/sdk/lib/libmain.a(user_interface.o)
                                                  /home/stoffer/esp8266/esp-open-sdk/sdk/lib/liblwip.a(tcp.o)
system_get_flash_size_map                         /home/stoffer/esp8266/esp-open-sdk/sdk/lib/libmain.a(user_interface.o)
                                                  build/app_app.a(user_main.o)
system_get_free_heap_size                         /home/stoffer/esp8266/esp-open-sdk/sdk/lib/libmain.a(user_interface.o)
                                                  build/app_app.a(kmp_request.o)
                                                  build/app_app.a(user_main.o)
system_get_os_print                               /home/stoffer/esp8266/esp-open-sdk/sdk/lib/libmain.a(user_interface.o)
system_get_rst_info                               /home/stoffer/esp8266/esp-open-sdk/sdk/lib/libmain.a(user_interface.o)
                                                  build/app_app.a(user_main.o)
system_get_rtc_time                               /home/stoffer/esp8266/esp-open-sdk/sdk/lib/libmain.a(user_interface.o)
                                                  /home/stoffer/esp8266/esp-open-sdk/sdk/lib/libmain.a(time.o)
system_get_sdk_version                            /home/stoffer/esp8266/esp-open-sdk/sdk/lib/libmain.a(user_interface.o)
                                                  build/app_app.a(user_main.o)
system_get_string_from_flash                      /home/stoffer/esp8266/esp-open-sdk/sdk/lib/libmain.a(user_interface.o)
                                                  /home/stoffer/esp8266/esp-open-sdk/sdk/lib/libwpa.a(wpa_common.o)
                                                  /home/stoffer/esp8266/esp-open-sdk/sdk/lib/libwpa.a(wpa.o)
                                                  /home/stoffer/esp8266/esp-open-sdk/sdk/lib/libwpa.a(wpa_auth.o)
                                                  /home/stoffer/esp8266/esp-open-sdk/sdk/lib/libmain.a(mem_manager.o)
system_get_test_result                            /home/stoffer/esp8266/esp-open-sdk/sdk/lib/libmain.a(user_interface.o)
system_get_time                                   /home/stoffer/esp8266/esp-open-sdk/sdk/lib/libmain.a(user_interface.o)
                                                  /home/stoffer/esp8266/esp-open-sdk/sdk/lib/libmain.a(time.o)
                                                  /home/stoffer/esp8266/esp-open-sdk/sdk/lib/libmain.a(app_main.o)
system_get_userbin_addr                           /home/stoffer/esp8266/esp-open-sdk/sdk/lib/libmain.a(user_interface.o)
system_get_vdd33                                  /home/stoffer/esp8266/esp-open-sdk/sdk/lib/libmain.a(user_interface.o)
system_init_done                                  build/app_app.a(user_main.o)
system_init_done_cb                               /home/stoffer/esp8266/esp-open-sdk/sdk/lib/libmain.a(user_interface.o)
                                                  build/app_app.a(user_main.o)
system_mktime                                     /home/stoffer/esp8266/esp-open-sdk/sdk/lib/libmain.a(user_interface.o)
system_os_post                                    /home/stoffer/esp8266/esp-open-sdk/sdk/lib/libmain.a(user_interface.o)
                                                  build/app_app.a(mqtt.o)
                                                  build/app_app.a(uart.o)
system_os_task                                    /home/stoffer/esp8266/esp-open-sdk/sdk/lib/libmain.a(user_interface.o)
                                                  build/app_app.a(mqtt.o)
                                                  build/app_app.a(kmp_request.o)
system_overclock                                  /home/stoffer/esp8266/esp-open-sdk/sdk/lib/libmain.a(user_interface.o)
                                                  /home/stoffer/esp8266/esp-open-sdk/sdk/lib/libwpa.a(wpa.o)
system_param_load                                 /home/stoffer/esp8266/esp-open-sdk/sdk/lib/libmain.a(user_interface.o)
                                                  build/app_app.a(config.o)
system_param_save_with_protect                    /home/stoffer/esp8266/esp-open-sdk/sdk/lib/libmain.a(user_interface.o)
                                                  build/app_app.a(config.o)
                                                  /home/stoffer/esp8266/esp-open-sdk/sdk/lib/libmain.a(app_main.o)
system_phy_freq_trace_enable                      /home/stoffer/esp8266/esp-open-sdk/sdk/lib/libmain.a(app_main.o)
system_phy_set_max_tpw                            /home/stoffer/esp8266/esp-open-sdk/sdk/lib/libmain.a(user_interface.o)
system_phy_set_powerup_option                     /home/stoffer/esp8266/esp-open-sdk/sdk/lib/libmain.a(user_interface.o)
system_phy_set_rfoption                           /home/stoffer/esp8266/esp-open-sdk/sdk/lib/libmain.a(user_interface.o)
system_phy_set_tpw_via_vdd33                      /home/stoffer/esp8266/esp-open-sdk/sdk/lib/libmain.a(user_interface.o)
system_phy_temperature_alert                      /home/stoffer/esp8266/esp-open-sdk/sdk/lib/libmain.a(user_interface.o)
system_pp_recycle_rx_pkt                          /home/stoffer/esp8266/esp-open-sdk/sdk/lib/libmain.a(user_interface.o)
                                                  /home/stoffer/esp8266/esp-open-sdk/sdk/lib/liblwip.a(pbuf.o)
system_print_meminfo                              /home/stoffer/esp8266/esp-open-sdk/sdk/lib/libmain.a(user_interface.o)
                                                  build/app_app.a(user_main.o)
system_relative_time                              /home/stoffer/esp8266/esp-open-sdk/sdk/lib/libmain.a(user_interface.o)
system_restart                                    /home/stoffer/esp8266/esp-open-sdk/sdk/lib/libmain.a(user_interface.o)
                                                  build/app_app.a(cgiwifi.o)
                                                  build/app_app.a(watchdog.o)
system_restart_core                               /home/stoffer/esp8266/esp-open-sdk/sdk/lib/libmain.a(user_interface.o)
system_restart_enhance                            /home/stoffer/esp8266/esp-open-sdk/sdk/lib/libmain.a(user_interface.o)
system_restart_hook                               /home/stoffer/esp8266/esp-open-sdk/sdk/lib/libmain.a(user_interface.o)
system_restart_local                              /home/stoffer/esp8266/esp-open-sdk/sdk/lib/libmain.a(user_interface.o)
                                                  /home/stoffer/esp8266/esp-open-sdk/sdk/lib/libpp.a(pp.o)
                                                  /home/stoffer/esp8266/esp-open-sdk/sdk/lib/libmain.a(app_main.o)
system_restore                                    /home/stoffer/esp8266/esp-open-sdk/sdk/lib/libmain.a(user_interface.o)
system_restoreclock                               /home/stoffer/esp8266/esp-open-sdk/sdk/lib/libmain.a(user_interface.o)
                                                  /home/stoffer/esp8266/esp-open-sdk/sdk/lib/libwpa.a(wpa.o)
system_rtc_clock_cali_proc                        /home/stoffer/esp8266/esp-open-sdk/sdk/lib/libmain.a(user_interface.o)
                                                  /home/stoffer/esp8266/esp-open-sdk/sdk/lib/libmain.a(time.o)
system_rtc_mem_read                               /home/stoffer/esp8266/esp-open-sdk/sdk/lib/libmain.a(user_interface.o)
                                                  /home/stoffer/esp8266/esp-open-sdk/sdk/lib/libmain.a(app_main.o)
system_rtc_mem_write                              /home/stoffer/esp8266/esp-open-sdk/sdk/lib/libmain.a(user_interface.o)
                                                  /home/stoffer/esp8266/esp-open-sdk/sdk/lib/libpp.a(pp.o)
                                                  /home/stoffer/esp8266/esp-open-sdk/sdk/lib/libmain.a(app_main.o)
system_save_sys_param                             /home/stoffer/esp8266/esp-open-sdk/sdk/lib/libmain.a(user_interface.o)
system_set_os_print                               /home/stoffer/esp8266/esp-open-sdk/sdk/lib/libmain.a(user_interface.o)
system_show_malloc                                /home/stoffer/esp8266/esp-open-sdk/sdk/lib/libmain.a(mem_manager.o)
system_soft_wdt_feed                              /home/stoffer/esp8266/esp-open-sdk/sdk/lib/libpp.a(pp.o)
system_soft_wdt_restart                           /home/stoffer/esp8266/esp-open-sdk/sdk/lib/libpp.a(pp.o)
                                                  build/app_app.a(crypto.o)
system_soft_wdt_stop                              /home/stoffer/esp8266/esp-open-sdk/sdk/lib/libpp.a(pp.o)
                                                  build/app_app.a(crypto.o)
system_station_got_ip_set                         /home/stoffer/esp8266/esp-open-sdk/sdk/lib/libmain.a(user_interface.o)
                                                  /home/stoffer/esp8266/esp-open-sdk/sdk/lib/liblwip.a(dhcp.o)
                                                  /home/stoffer/esp8266/esp-open-sdk/sdk/lib/libwpa.a(wpa_main.o)
system_timer_reinit                               /home/stoffer/esp8266/esp-open-sdk/sdk/lib/libmain.a(user_interface.o)
system_uart_de_swap                               /home/stoffer/esp8266/esp-open-sdk/sdk/lib/libmain.a(user_interface.o)
                                                  /home/stoffer/esp8266/esp-open-sdk/sdk/lib/libmain.a(app_main.o)
system_uart_swap                                  /home/stoffer/esp8266/esp-open-sdk/sdk/lib/libmain.a(user_interface.o)
                                                  /home/stoffer/esp8266/esp-open-sdk/sdk/lib/libmain.a(app_main.o)
system_update_cpu_freq                            /home/stoffer/esp8266/esp-open-sdk/sdk/lib/libmain.a(user_interface.o)
system_upgrade_flag_check                         /home/stoffer/esp8266/esp-open-sdk/sdk/lib/libmain.a(user_interface.o)
system_upgrade_flag_set                           /home/stoffer/esp8266/esp-open-sdk/sdk/lib/libmain.a(user_interface.o)
system_upgrade_reboot                             /home/stoffer/esp8266/esp-open-sdk/sdk/lib/libmain.a(user_interface.o)
system_upgrade_userbin_check                      /home/stoffer/esp8266/esp-open-sdk/sdk/lib/libmain.a(user_interface.o)
system_upgrade_userbin_set                        /home/stoffer/esp8266/esp-open-sdk/sdk/lib/libmain.a(user_interface.o)
target_power_add_backoff                          /home/stoffer/esp8266/esp-open-sdk/sdk/lib/libphy.a(phy_chip_v6.o)
target_power_backoff                              /home/stoffer/esp8266/esp-open-sdk/sdk/lib/libphy.a(phy_chip_v6.o)
tcb                                               /home/stoffer/esp8266/esp-open-sdk/sdk/lib/libpp.a(pp.o)
tcp_abandon                                       /home/stoffer/esp8266/esp-open-sdk/sdk/lib/liblwip.a(tcp.o)
                                                  /home/stoffer/esp8266/esp-open-sdk/sdk/lib/liblwip.a(tcp_in.o)
                                                  /home/stoffer/esp8266/esp-open-sdk/sdk/lib/liblwip.a(espconn_tcp.o)
tcp_abort                                         /home/stoffer/esp8266/esp-open-sdk/sdk/lib/liblwip.a(tcp.o)
                                                  /home/stoffer/esp8266/esp-open-sdk/sdk/lib/liblwip.a(tcp_in.o)
                                                  /home/stoffer/esp8266/esp-open-sdk/sdk/lib/liblwip.a(netif.o)
                                                  /home/stoffer/esp8266/esp-open-sdk/sdk/lib/liblwip.a(espconn_tcp.o)
tcp_accept                                        /home/stoffer/esp8266/esp-open-sdk/sdk/lib/liblwip.a(tcp.o)
                                                  /home/stoffer/esp8266/esp-open-sdk/sdk/lib/liblwip.a(espconn_tcp.o)
tcp_active_pcbs                                   /home/stoffer/esp8266/esp-open-sdk/sdk/lib/liblwip.a(tcp.o)
                                                  /home/stoffer/esp8266/esp-open-sdk/sdk/lib/liblwip.a(timers.o)
                                                  /home/stoffer/esp8266/esp-open-sdk/sdk/lib/liblwip.a(tcp_in.o)
                                                  /home/stoffer/esp8266/esp-open-sdk/sdk/lib/liblwip.a(pbuf.o)
                                                  /home/stoffer/esp8266/esp-open-sdk/sdk/lib/liblwip.a(netif.o)
                                                  /home/stoffer/esp8266/esp-open-sdk/sdk/lib/liblwip.a(espconn_tcp.o)
tcp_alloc                                         /home/stoffer/esp8266/esp-open-sdk/sdk/lib/liblwip.a(tcp.o)
                                                  /home/stoffer/esp8266/esp-open-sdk/sdk/lib/liblwip.a(tcp_in.o)
tcp_arg                                           /home/stoffer/esp8266/esp-open-sdk/sdk/lib/liblwip.a(tcp.o)
                                                  /home/stoffer/esp8266/esp-open-sdk/sdk/lib/liblwip.a(espconn_tcp.o)
tcp_backoff                                       /home/stoffer/esp8266/esp-open-sdk/sdk/lib/liblwip.a(tcp.o)
tcp_bind                                          /home/stoffer/esp8266/esp-open-sdk/sdk/lib/liblwip.a(tcp.o)
                                                  /home/stoffer/esp8266/esp-open-sdk/sdk/lib/liblwip.a(espconn_tcp.o)
tcp_bound_pcbs                                    /home/stoffer/esp8266/esp-open-sdk/sdk/lib/liblwip.a(tcp.o)
tcp_close                                         /home/stoffer/esp8266/esp-open-sdk/sdk/lib/liblwip.a(tcp.o)
                                                  /home/stoffer/esp8266/esp-open-sdk/sdk/lib/liblwip.a(espconn_tcp.o)
tcp_connect                                       /home/stoffer/esp8266/esp-open-sdk/sdk/lib/liblwip.a(tcp.o)
                                                  /home/stoffer/esp8266/esp-open-sdk/sdk/lib/liblwip.a(espconn_tcp.o)
tcp_eff_send_mss                                  /home/stoffer/esp8266/esp-open-sdk/sdk/lib/liblwip.a(tcp.o)
                                                  /home/stoffer/esp8266/esp-open-sdk/sdk/lib/liblwip.a(tcp_in.o)
tcp_enqueue_flags                                 /home/stoffer/esp8266/esp-open-sdk/sdk/lib/liblwip.a(tcp_out.o)
                                                  /home/stoffer/esp8266/esp-open-sdk/sdk/lib/liblwip.a(tcp.o)
                                                  /home/stoffer/esp8266/esp-open-sdk/sdk/lib/liblwip.a(tcp_in.o)
tcp_err                                           /home/stoffer/esp8266/esp-open-sdk/sdk/lib/liblwip.a(tcp.o)
                                                  /home/stoffer/esp8266/esp-open-sdk/sdk/lib/liblwip.a(espconn_tcp.o)
tcp_fasttmr                                       /home/stoffer/esp8266/esp-open-sdk/sdk/lib/liblwip.a(tcp.o)
tcp_input                                         /home/stoffer/esp8266/esp-open-sdk/sdk/lib/liblwip.a(tcp_in.o)
                                                  /home/stoffer/esp8266/esp-open-sdk/sdk/lib/liblwip.a(ip.o)
tcp_input_pcb                                     /home/stoffer/esp8266/esp-open-sdk/sdk/lib/liblwip.a(tcp_in.o)
                                                  /home/stoffer/esp8266/esp-open-sdk/sdk/lib/liblwip.a(tcp_out.o)
tcp_keepalive                                     /home/stoffer/esp8266/esp-open-sdk/sdk/lib/liblwip.a(tcp_out.o)
                                                  /home/stoffer/esp8266/esp-open-sdk/sdk/lib/liblwip.a(tcp.o)
tcp_listen_pcbs                                   /home/stoffer/esp8266/esp-open-sdk/sdk/lib/liblwip.a(tcp.o)
                                                  /home/stoffer/esp8266/esp-open-sdk/sdk/lib/liblwip.a(tcp_in.o)
                                                  /home/stoffer/esp8266/esp-open-sdk/sdk/lib/liblwip.a(netif.o)
tcp_listen_with_backlog                           /home/stoffer/esp8266/esp-open-sdk/sdk/lib/liblwip.a(tcp.o)
                                                  /home/stoffer/esp8266/esp-open-sdk/sdk/lib/liblwip.a(espconn_tcp.o)
tcp_new                                           /home/stoffer/esp8266/esp-open-sdk/sdk/lib/liblwip.a(tcp.o)
                                                  /home/stoffer/esp8266/esp-open-sdk/sdk/lib/liblwip.a(espconn_tcp.o)
tcp_next_iss                                      /home/stoffer/esp8266/esp-open-sdk/sdk/lib/liblwip.a(tcp.o)
tcp_output                                        /home/stoffer/esp8266/esp-open-sdk/sdk/lib/liblwip.a(tcp_out.o)
                                                  /home/stoffer/esp8266/esp-open-sdk/sdk/lib/liblwip.a(tcp.o)
                                                  /home/stoffer/esp8266/esp-open-sdk/sdk/lib/liblwip.a(tcp_in.o)
                                                  /home/stoffer/esp8266/esp-open-sdk/sdk/lib/liblwip.a(espconn_tcp.o)
tcp_pcb_lists                                     /home/stoffer/esp8266/esp-open-sdk/sdk/lib/liblwip.a(tcp.o)
                                                  /home/stoffer/esp8266/esp-open-sdk/sdk/lib/liblwip.a(espconn_tcp.o)
tcp_pcb_purge                                     /home/stoffer/esp8266/esp-open-sdk/sdk/lib/liblwip.a(tcp.o)
                                                  /home/stoffer/esp8266/esp-open-sdk/sdk/lib/liblwip.a(tcp_in.o)
                                                  /home/stoffer/esp8266/esp-open-sdk/sdk/lib/liblwip.a(espconn_tcp.o)
tcp_pcb_remove                                    /home/stoffer/esp8266/esp-open-sdk/sdk/lib/liblwip.a(tcp.o)
                                                  /home/stoffer/esp8266/esp-open-sdk/sdk/lib/liblwip.a(tcp_in.o)
                                                  /home/stoffer/esp8266/esp-open-sdk/sdk/lib/liblwip.a(espconn_tcp.o)
tcp_persist_backoff                               /home/stoffer/esp8266/esp-open-sdk/sdk/lib/liblwip.a(tcp.o)
tcp_poll                                          /home/stoffer/esp8266/esp-open-sdk/sdk/lib/liblwip.a(tcp.o)
                                                  /home/stoffer/esp8266/esp-open-sdk/sdk/lib/liblwip.a(espconn_tcp.o)
tcp_recv                                          /home/stoffer/esp8266/esp-open-sdk/sdk/lib/liblwip.a(tcp.o)
                                                  /home/stoffer/esp8266/esp-open-sdk/sdk/lib/liblwip.a(espconn_tcp.o)
tcp_recv_null                                     /home/stoffer/esp8266/esp-open-sdk/sdk/lib/liblwip.a(tcp.o)
                                                  /home/stoffer/esp8266/esp-open-sdk/sdk/lib/liblwip.a(tcp_in.o)
tcp_recved                                        /home/stoffer/esp8266/esp-open-sdk/sdk/lib/liblwip.a(tcp.o)
                                                  /home/stoffer/esp8266/esp-open-sdk/sdk/lib/liblwip.a(espconn_tcp.o)
tcp_rexmit                                        /home/stoffer/esp8266/esp-open-sdk/sdk/lib/liblwip.a(tcp_out.o)
                                                  /home/stoffer/esp8266/esp-open-sdk/sdk/lib/liblwip.a(tcp_in.o)
tcp_rexmit_fast                                   /home/stoffer/esp8266/esp-open-sdk/sdk/lib/liblwip.a(tcp_out.o)
                                                  /home/stoffer/esp8266/esp-open-sdk/sdk/lib/liblwip.a(tcp_in.o)
tcp_rexmit_rto                                    /home/stoffer/esp8266/esp-open-sdk/sdk/lib/liblwip.a(tcp_out.o)
                                                  /home/stoffer/esp8266/esp-open-sdk/sdk/lib/liblwip.a(tcp.o)
tcp_rst                                           /home/stoffer/esp8266/esp-open-sdk/sdk/lib/liblwip.a(tcp_out.o)
                                                  /home/stoffer/esp8266/esp-open-sdk/sdk/lib/liblwip.a(tcp.o)
                                                  /home/stoffer/esp8266/esp-open-sdk/sdk/lib/liblwip.a(tcp_in.o)
tcp_seg_copy                                      /home/stoffer/esp8266/esp-open-sdk/sdk/lib/liblwip.a(tcp.o)
                                                  /home/stoffer/esp8266/esp-open-sdk/sdk/lib/liblwip.a(tcp_in.o)
tcp_seg_free                                      /home/stoffer/esp8266/esp-open-sdk/sdk/lib/liblwip.a(tcp.o)
                                                  /home/stoffer/esp8266/esp-open-sdk/sdk/lib/liblwip.a(tcp_out.o)
                                                  /home/stoffer/esp8266/esp-open-sdk/sdk/lib/liblwip.a(tcp_in.o)
                                                  /home/stoffer/esp8266/esp-open-sdk/sdk/lib/liblwip.a(pbuf.o)
tcp_segs_free                                     /home/stoffer/esp8266/esp-open-sdk/sdk/lib/liblwip.a(tcp.o)
                                                  /home/stoffer/esp8266/esp-open-sdk/sdk/lib/liblwip.a(tcp_out.o)
                                                  /home/stoffer/esp8266/esp-open-sdk/sdk/lib/liblwip.a(tcp_in.o)
tcp_send_empty_ack                                /home/stoffer/esp8266/esp-open-sdk/sdk/lib/liblwip.a(tcp_out.o)
                                                  /home/stoffer/esp8266/esp-open-sdk/sdk/lib/liblwip.a(tcp_in.o)
tcp_send_fin                                      /home/stoffer/esp8266/esp-open-sdk/sdk/lib/liblwip.a(tcp_out.o)
                                                  /home/stoffer/esp8266/esp-open-sdk/sdk/lib/liblwip.a(tcp.o)
tcp_sent                                          /home/stoffer/esp8266/esp-open-sdk/sdk/lib/liblwip.a(tcp.o)
                                                  /home/stoffer/esp8266/esp-open-sdk/sdk/lib/liblwip.a(espconn_tcp.o)
tcp_setprio                                       /home/stoffer/esp8266/esp-open-sdk/sdk/lib/liblwip.a(tcp.o)
tcp_shutdown                                      /home/stoffer/esp8266/esp-open-sdk/sdk/lib/liblwip.a(tcp.o)
tcp_slowtmr                                       /home/stoffer/esp8266/esp-open-sdk/sdk/lib/liblwip.a(tcp.o)
tcp_ticks                                         /home/stoffer/esp8266/esp-open-sdk/sdk/lib/liblwip.a(tcp.o)
                                                  /home/stoffer/esp8266/esp-open-sdk/sdk/lib/liblwip.a(tcp_out.o)
                                                  /home/stoffer/esp8266/esp-open-sdk/sdk/lib/liblwip.a(tcp_in.o)
                                                  /home/stoffer/esp8266/esp-open-sdk/sdk/lib/liblwip.a(espconn_tcp.o)
tcp_timer_needed                                  /home/stoffer/esp8266/esp-open-sdk/sdk/lib/liblwip.a(timers.o)
                                                  /home/stoffer/esp8266/esp-open-sdk/sdk/lib/liblwip.a(tcp.o)
                                                  /home/stoffer/esp8266/esp-open-sdk/sdk/lib/liblwip.a(tcp_in.o)
tcp_tmp_pcb                                       /home/stoffer/esp8266/esp-open-sdk/sdk/lib/liblwip.a(tcp.o)
                                                  /home/stoffer/esp8266/esp-open-sdk/sdk/lib/liblwip.a(tcp_in.o)
tcp_tmr                                           /home/stoffer/esp8266/esp-open-sdk/sdk/lib/liblwip.a(tcp.o)
                                                  /home/stoffer/esp8266/esp-open-sdk/sdk/lib/liblwip.a(timers.o)
tcp_tw_pcbs                                       /home/stoffer/esp8266/esp-open-sdk/sdk/lib/liblwip.a(tcp.o)
                                                  /home/stoffer/esp8266/esp-open-sdk/sdk/lib/liblwip.a(timers.o)
                                                  /home/stoffer/esp8266/esp-open-sdk/sdk/lib/liblwip.a(tcp_in.o)
                                                  /home/stoffer/esp8266/esp-open-sdk/sdk/lib/liblwip.a(espconn_tcp.o)
tcp_update_rcv_ann_wnd                            /home/stoffer/esp8266/esp-open-sdk/sdk/lib/liblwip.a(tcp.o)
                                                  /home/stoffer/esp8266/esp-open-sdk/sdk/lib/liblwip.a(tcp_in.o)
tcp_write                                         /home/stoffer/esp8266/esp-open-sdk/sdk/lib/liblwip.a(tcp_out.o)
                                                  /home/stoffer/esp8266/esp-open-sdk/sdk/lib/liblwip.a(espconn_tcp.o)
tcp_zero_window_probe                             /home/stoffer/esp8266/esp-open-sdk/sdk/lib/liblwip.a(tcp_out.o)
                                                  /home/stoffer/esp8266/esp-open-sdk/sdk/lib/liblwip.a(tcp.o)
test_print_time                                   /home/stoffer/esp8266/esp-open-sdk/sdk/lib/libphy.a(phy_chip_v6.o)
test_rffreq_txcap                                 /home/stoffer/esp8266/esp-open-sdk/sdk/lib/libphy.a(phy_chip_v6.o)
test_tout                                         /home/stoffer/esp8266/esp-open-sdk/sdk/lib/libphy.a(phy_chip_v6_ana.o)
                                                  /home/stoffer/esp8266/esp-open-sdk/sdk/lib/libmain.a(user_interface.o)
tfp_format                                        build/app_app.a(tinyprintf.o)
tfp_printf                                        build/app_app.a(tinyprintf.o)
tfp_snprintf                                      build/app_app.a(tinyprintf.o)
                                                  build/app_app.a(utils.o)
                                                  build/app_app.a(cgi.o)
                                                  build/app_app.a(cgiwifi.o)
                                                  build/app_app.a(wifi.o)
                                                  build/app_app.a(config.o)
                                                  build/app_app.a(kmp.o)
                                                  build/app_app.a(kmp_request.o)
                                                  build/app_app.a(httpd.o)
                                                  build/app_app.a(user_main.o)
tfp_sprintf                                       build/app_app.a(tinyprintf.o)
tfp_vsnprintf                                     build/app_app.a(tinyprintf.o)
tfp_vsprintf                                      build/app_app.a(tinyprintf.o)
time                                              /home/stoffer/esp8266/esp-open-sdk/sdk/lib/libmain.a(time.o)
time_zone                                         /home/stoffer/esp8266/esp-open-sdk/sdk/lib/liblwip.a(sntp.o)
timer2_ms_flag                                    /home/stoffer/esp8266/esp-open-sdk/sdk/lib/libmain.a(user_interface.o)
                                                  /home/stoffer/esp8266/esp-open-sdk/sdk/lib/libpp.a(pm_for_bcn_only_mode.o)
                                                  /home/stoffer/esp8266/esp-open-sdk/sdk/lib/libpp.a(pm.o)
                                                  /home/stoffer/esp8266/esp-open-sdk/sdk/lib/liblwip.a(timers.o)
                                                  /home/stoffer/esp8266/esp-open-sdk/sdk/lib/libmain.a(ets_timer.o)
timer_list                                        /home/stoffer/esp8266/esp-open-sdk/sdk/lib/libmain.a(ets_timer.o)
                                                  /home/stoffer/esp8266/esp-open-sdk/sdk/lib/libpp.a(pm_for_bcn_only_mode.o)
                                                  /home/stoffer/esp8266/esp-open-sdk/sdk/lib/libpp.a(pm.o)
tkip                                              /home/stoffer/esp8266/esp-open-sdk/sdk/lib/libnet80211.a(ieee80211_crypto_tkip.o)
                                                  /home/stoffer/esp8266/esp-open-sdk/sdk/lib/libwpa.a(wpa_main.o)
                                                  /home/stoffer/esp8266/esp-open-sdk/sdk/lib/libwpa.a(wpa_auth.o)
total_buffed_eb_num                               /home/stoffer/esp8266/esp-open-sdk/sdk/lib/libpp.a(pp.o)
                                                  /home/stoffer/esp8266/esp-open-sdk/sdk/lib/libnet80211.a(ieee80211_hostap.o)
tout_dis_txpwr_track                              /home/stoffer/esp8266/esp-open-sdk/sdk/lib/libphy.a(phy_chip_v6_ana.o)
                                                  /home/stoffer/esp8266/esp-open-sdk/sdk/lib/libphy.a(phy_chip_v6_cal.o)
tplCounter                                        build/app_app.a(cgi.o)
                                                  build/app_app.a(httpd_user_init.o)
tplLed                                            build/app_app.a(cgi.o)
                                                  build/app_app.a(httpd_user_init.o)
tplSetup                                          build/app_app.a(cgiwifi.o)
                                                  build/app_app.a(httpd_user_init.o)
trc_NeedRTS                                       /home/stoffer/esp8266/esp-open-sdk/sdk/lib/libpp.a(trc.o)
trc_onDisconnect                                  /home/stoffer/esp8266/esp-open-sdk/sdk/lib/libpp.a(trc.o)
trc_onScanDone                                    /home/stoffer/esp8266/esp-open-sdk/sdk/lib/libpp.a(trc.o)
trc_onScanStart                                   /home/stoffer/esp8266/esp-open-sdk/sdk/lib/libpp.a(trc.o)
tsen_meas                                         /home/stoffer/esp8266/esp-open-sdk/sdk/lib/libphy.a(phy_chip_v6_ana.o)
tx_atten_set_interp                               /home/stoffer/esp8266/esp-open-sdk/sdk/lib/libphy.a(phy_chip_v6.o)
                                                  /home/stoffer/esp8266/esp-open-sdk/sdk/lib/libphy.a(phy_chip_v6_cal.o)
                                                  /home/stoffer/esp8266/esp-open-sdk/sdk/lib/libphy.a(phy_chip_v6_ana.o)
tx_cap_init                                       /home/stoffer/esp8266/esp-open-sdk/sdk/lib/libphy.a(phy_chip_v6.o)
tx_cont_cfg                                       /home/stoffer/esp8266/esp-open-sdk/sdk/lib/libphy.a(phy_chip_v6.o)
tx_cont_dis                                       /home/stoffer/esp8266/esp-open-sdk/sdk/lib/libphy.a(phy_chip_v6.o)
tx_cont_en                                        /home/stoffer/esp8266/esp-open-sdk/sdk/lib/libphy.a(phy_chip_v6.o)
tx_pwctrl_background                              /home/stoffer/esp8266/esp-open-sdk/sdk/lib/libphy.a(phy_chip_v6_cal.o)
                                                  /home/stoffer/esp8266/esp-open-sdk/sdk/lib/libpp.a(pp.o)
tx_pwctrl_bg_init                                 /home/stoffer/esp8266/esp-open-sdk/sdk/lib/libphy.a(phy_chip_v6_cal.o)
                                                  /home/stoffer/esp8266/esp-open-sdk/sdk/lib/libphy.a(phy_chip_v6.o)
tx_pwctrl_cal                                     /home/stoffer/esp8266/esp-open-sdk/sdk/lib/libphy.a(phy_chip_v6_cal.o)
tx_pwctrl_init                                    /home/stoffer/esp8266/esp-open-sdk/sdk/lib/libphy.a(phy_chip_v6.o)
tx_pwctrl_init_cal                                /home/stoffer/esp8266/esp-open-sdk/sdk/lib/libphy.a(phy_chip_v6.o)
tx_pwctrl_pk_num                                  /home/stoffer/esp8266/esp-open-sdk/sdk/lib/libphy.a(phy_chip_v6_cal.o)
tx_pwctrl_track_num                               /home/stoffer/esp8266/esp-open-sdk/sdk/lib/libphy.a(phy_chip_v6_cal.o)
tx_pwr_backoff                                    /home/stoffer/esp8266/esp-open-sdk/sdk/lib/libphy.a(phy_chip_v6_cal.o)
                                                  /home/stoffer/esp8266/esp-open-sdk/sdk/lib/libphy.a(phy_chip_v6.o)
tx_pwr_backoff_old                                /home/stoffer/esp8266/esp-open-sdk/sdk/lib/libphy.a(phy_chip_v6_cal.o)
tx_rf_ana_gain                                    /home/stoffer/esp8266/esp-open-sdk/sdk/lib/libphy.a(phy_chip_v6.o)
                                                  /home/stoffer/esp8266/esp-open-sdk/sdk/lib/libphy.a(phy_chip_v6_cal.o)
txbbgain2dcoindex                                 /home/stoffer/esp8266/esp-open-sdk/sdk/lib/libphy.a(phy_chip_v6_cal.o)
txbk_dpdby_flag                                   /home/stoffer/esp8266/esp-open-sdk/sdk/lib/libphy.a(phy_chip_v6.o)
txiq_cover                                        /home/stoffer/esp8266/esp-open-sdk/sdk/lib/libphy.a(phy_chip_v6_cal.o)
txiq_get_mis_pwr                                  /home/stoffer/esp8266/esp-open-sdk/sdk/lib/libphy.a(phy_chip_v6_cal.o)
txpwr_offset                                      /home/stoffer/esp8266/esp-open-sdk/sdk/lib/libphy.a(phy_chip_v6_ana.o)
                                                  /home/stoffer/esp8266/esp-open-sdk/sdk/lib/libphy.a(phy_chip_v6.o)
uart0_sendStr                                     build/app_app.a(uart.o)
uart0_tx_buffer                                   build/app_app.a(uart.o)
                                                  build/app_app.a(kmp_request.o)
uart0_write_char                                  build/app_app.a(uart.o)
uart1_write_char                                  build/app_app.a(uart.o)
uart_buff_switch                                  /home/stoffer/esp8266/esp-open-sdk/sdk/lib/libphy.a(phy_chip_v6.o)
uart_div_modify                                   build/app_app.a(uart.o)
                                                  /home/stoffer/esp8266/esp-open-sdk/sdk/lib/libmain.a(app_main.o)
uart_init                                         build/app_app.a(uart.o)
                                                  build/app_app.a(user_main.o)
uart_reattach                                     build/app_app.a(uart.o)
uart_tx_flush                                     /home/stoffer/esp8266/esp-open-sdk/sdk/lib/libpp.a(pm.o)
                                                  /home/stoffer/esp8266/esp-open-sdk/sdk/lib/libphy.a(phy_chip_v6.o)
uart_tx_one_char                                  build/app_app.a(uart.o)
uart_wait_idle                                    /home/stoffer/esp8266/esp-open-sdk/sdk/lib/libphy.a(phy_chip_v6.o)
udp_bind                                          /home/stoffer/esp8266/esp-open-sdk/sdk/lib/liblwip.a(udp.o)
                                                  /home/stoffer/esp8266/esp-open-sdk/sdk/lib/liblwip.a(espconn_udp.o)
                                                  /home/stoffer/esp8266/esp-open-sdk/sdk/lib/liblwip.a(dns.o)
                                                  /home/stoffer/esp8266/esp-open-sdk/sdk/lib/liblwip.a(dhcpserver.o)
                                                  /home/stoffer/esp8266/esp-open-sdk/sdk/lib/liblwip.a(dhcp.o)
udp_connect                                       /home/stoffer/esp8266/esp-open-sdk/sdk/lib/liblwip.a(udp.o)
                                                  /home/stoffer/esp8266/esp-open-sdk/sdk/lib/liblwip.a(dns.o)
                                                  /home/stoffer/esp8266/esp-open-sdk/sdk/lib/liblwip.a(dhcp.o)
udp_disconnect                                    /home/stoffer/esp8266/esp-open-sdk/sdk/lib/liblwip.a(udp.o)
                                                  /home/stoffer/esp8266/esp-open-sdk/sdk/lib/liblwip.a(espconn_udp.o)
                                                  /home/stoffer/esp8266/esp-open-sdk/sdk/lib/liblwip.a(dhcpserver.o)
udp_input                                         /home/stoffer/esp8266/esp-open-sdk/sdk/lib/liblwip.a(udp.o)
                                                  /home/stoffer/esp8266/esp-open-sdk/sdk/lib/liblwip.a(ip.o)
udp_new                                           /home/stoffer/esp8266/esp-open-sdk/sdk/lib/liblwip.a(udp.o)
                                                  /home/stoffer/esp8266/esp-open-sdk/sdk/lib/liblwip.a(sntp.o)
                                                  /home/stoffer/esp8266/esp-open-sdk/sdk/lib/liblwip.a(espconn_udp.o)
                                                  /home/stoffer/esp8266/esp-open-sdk/sdk/lib/liblwip.a(dns.o)
                                                  /home/stoffer/esp8266/esp-open-sdk/sdk/lib/liblwip.a(dhcpserver.o)
                                                  /home/stoffer/esp8266/esp-open-sdk/sdk/lib/liblwip.a(dhcp.o)
udp_pcbs                                          /home/stoffer/esp8266/esp-open-sdk/sdk/lib/liblwip.a(udp.o)
udp_recv                                          /home/stoffer/esp8266/esp-open-sdk/sdk/lib/liblwip.a(udp.o)
                                                  /home/stoffer/esp8266/esp-open-sdk/sdk/lib/liblwip.a(sntp.o)
                                                  /home/stoffer/esp8266/esp-open-sdk/sdk/lib/liblwip.a(espconn_udp.o)
                                                  /home/stoffer/esp8266/esp-open-sdk/sdk/lib/liblwip.a(dns.o)
                                                  /home/stoffer/esp8266/esp-open-sdk/sdk/lib/liblwip.a(dhcpserver.o)
                                                  /home/stoffer/esp8266/esp-open-sdk/sdk/lib/liblwip.a(dhcp.o)
udp_remove                                        /home/stoffer/esp8266/esp-open-sdk/sdk/lib/liblwip.a(udp.o)
                                                  /home/stoffer/esp8266/esp-open-sdk/sdk/lib/liblwip.a(sntp.o)
                                                  /home/stoffer/esp8266/esp-open-sdk/sdk/lib/liblwip.a(espconn_udp.o)
                                                  /home/stoffer/esp8266/esp-open-sdk/sdk/lib/liblwip.a(dhcpserver.o)
                                                  /home/stoffer/esp8266/esp-open-sdk/sdk/lib/liblwip.a(dhcp.o)
udp_send                                          /home/stoffer/esp8266/esp-open-sdk/sdk/lib/liblwip.a(udp.o)
                                                  /home/stoffer/esp8266/esp-open-sdk/sdk/lib/liblwip.a(espconn_udp.o)
udp_sendto                                        /home/stoffer/esp8266/esp-open-sdk/sdk/lib/liblwip.a(udp.o)
                                                  /home/stoffer/esp8266/esp-open-sdk/sdk/lib/liblwip.a(sntp.o)
                                                  /home/stoffer/esp8266/esp-open-sdk/sdk/lib/liblwip.a(espconn_udp.o)
                                                  /home/stoffer/esp8266/esp-open-sdk/sdk/lib/liblwip.a(dns.o)
                                                  /home/stoffer/esp8266/esp-open-sdk/sdk/lib/liblwip.a(dhcpserver.o)
udp_sendto_if                                     /home/stoffer/esp8266/esp-open-sdk/sdk/lib/liblwip.a(udp.o)
                                                  /home/stoffer/esp8266/esp-open-sdk/sdk/lib/liblwip.a(dhcp.o)
unregister_ieee80211_action_vendor_get_key_cb     /home/stoffer/esp8266/esp-open-sdk/sdk/lib/libnet80211.a(ieee80211_action_vendor.o)
unregister_ieee80211_action_vendor_spec_cb        /home/stoffer/esp8266/esp-open-sdk/sdk/lib/libnet80211.a(ieee80211_action_vendor.o)
unregister_ieee80211_rfid_locp_recv_cb            /home/stoffer/esp8266/esp-open-sdk/sdk/lib/libnet80211.a(ieee80211_rfid.o)
                                                  /home/stoffer/esp8266/esp-open-sdk/sdk/lib/libmain.a(user_interface.o)
unsign_to_sign                                    /home/stoffer/esp8266/esp-open-sdk/sdk/lib/libphy.a(phy_chip_v6_cal.o)
updateTime                                        /home/stoffer/esp8266/esp-open-sdk/sdk/lib/libmain.a(time.o)
uptime                                            build/app_app.a(unix_time.o)
                                                  build/app_app.a(user_main.o)
user_init                                         build/app_app.a(user_main.o)
                                                  /home/stoffer/esp8266/esp-open-sdk/sdk/lib/libmain.a(app_main.o)
user_init_flag                                    /home/stoffer/esp8266/esp-open-sdk/sdk/lib/libmain.a(app_main.o)
                                                  /home/stoffer/esp8266/esp-open-sdk/sdk/lib/libmain.a(user_interface.o)
user_rf_cal_sector_set                            /home/stoffer/esp8266/esp-open-sdk/sdk/lib/libmain.a(user_rf_cal_sector_set.o)
                                                  /home/stoffer/esp8266/esp-open-sdk/sdk/lib/libmain.a(app_main.o)
user_rf_pre_init                                  /home/stoffer/esp8266/esp-open-sdk/sdk/lib/libmain.a(app_main.o)
user_uart_wait_tx_fifo_empty                      /home/stoffer/esp8266/esp-open-sdk/sdk/lib/libmain.a(app_main.o)
                                                  /home/stoffer/esp8266/esp-open-sdk/sdk/lib/libmain.a(user_interface.o)
vPortFree                                         /home/stoffer/esp8266/esp-open-sdk/sdk/lib/libmain.a(mem_manager.o)
                                                  build/app_app.a(heatshrink_decoder.o)
                                                  build/app_app.a(espfs.o)
                                                  build/app_app.a(httpdespfs.o)
                                                  build/app_app.a(cgiwifi.o)
                                                  build/app_app.a(mqtt.o)
                                                  build/app_app.a(httpd.o)
                                                  /home/stoffer/esp8266/esp-open-sdk/sdk/lib/libpp.a(wdev.o)
                                                  /home/stoffer/esp8266/esp-open-sdk/sdk/lib/libpp.a(pp.o)
                                                  /home/stoffer/esp8266/esp-open-sdk/sdk/lib/libpp.a(pm_for_bcn_only_mode.o)
                                                  /home/stoffer/esp8266/esp-open-sdk/sdk/lib/libpp.a(pm.o)
                                                  /home/stoffer/esp8266/esp-open-sdk/sdk/lib/libpp.a(esf_buf.o)
                                                  /home/stoffer/esp8266/esp-open-sdk/sdk/lib/liblwip.a(igmp.o)
                                                  /home/stoffer/esp8266/esp-open-sdk/sdk/lib/liblwip.a(espconn_udp.o)
                                                  /home/stoffer/esp8266/esp-open-sdk/sdk/lib/liblwip.a(espconn_buf.o)
                                                  /home/stoffer/esp8266/esp-open-sdk/sdk/lib/liblwip.a(udp.o)
                                                  /home/stoffer/esp8266/esp-open-sdk/sdk/lib/liblwip.a(timers.o)
                                                  /home/stoffer/esp8266/esp-open-sdk/sdk/lib/liblwip.a(tcp.o)
                                                  /home/stoffer/esp8266/esp-open-sdk/sdk/lib/liblwip.a(tcp_in.o)
                                                  /home/stoffer/esp8266/esp-open-sdk/sdk/lib/liblwip.a(raw.o)
                                                  /home/stoffer/esp8266/esp-open-sdk/sdk/lib/liblwip.a(pbuf.o)
                                                  /home/stoffer/esp8266/esp-open-sdk/sdk/lib/liblwip.a(etharp.o)
                                                  /home/stoffer/esp8266/esp-open-sdk/sdk/lib/liblwip.a(espconn_tcp.o)
                                                  /home/stoffer/esp8266/esp-open-sdk/sdk/lib/liblwip.a(dns.o)
                                                  /home/stoffer/esp8266/esp-open-sdk/sdk/lib/liblwip.a(dhcpserver.o)
                                                  /home/stoffer/esp8266/esp-open-sdk/sdk/lib/liblwip.a(dhcp.o)
                                                  /home/stoffer/esp8266/esp-open-sdk/sdk/lib/libwpa.a(aes-internal-enc.o)
                                                  /home/stoffer/esp8266/esp-open-sdk/sdk/lib/libwpa.a(wpa_main.o)
                                                  /home/stoffer/esp8266/esp-open-sdk/sdk/lib/libwpa.a(wpa_auth_ie.o)
                                                  /home/stoffer/esp8266/esp-open-sdk/sdk/lib/libwpa.a(wpa_auth.o)
                                                  /home/stoffer/esp8266/esp-open-sdk/sdk/lib/libwpa.a(common.o)
                                                  /home/stoffer/esp8266/esp-open-sdk/sdk/lib/libwpa.a(ap_config.o)
                                                  /home/stoffer/esp8266/esp-open-sdk/sdk/lib/libnet80211.a(wl_cnx.o)
                                                  /home/stoffer/esp8266/esp-open-sdk/sdk/lib/libnet80211.a(ieee80211_sta.o)
                                                  /home/stoffer/esp8266/esp-open-sdk/sdk/lib/libnet80211.a(ieee80211_scan.o)
                                                  /home/stoffer/esp8266/esp-open-sdk/sdk/lib/libnet80211.a(ieee80211_regdomain.o)
                                                  /home/stoffer/esp8266/esp-open-sdk/sdk/lib/libnet80211.a(ieee80211_phy.o)
                                                  /home/stoffer/esp8266/esp-open-sdk/sdk/lib/libnet80211.a(ieee80211_output.o)
                                                  /home/stoffer/esp8266/esp-open-sdk/sdk/lib/libnet80211.a(ieee80211_mesh_quick.o)
                                                  /home/stoffer/esp8266/esp-open-sdk/sdk/lib/libnet80211.a(ieee80211_hostap.o)
                                                  /home/stoffer/esp8266/esp-open-sdk/sdk/lib/libnet80211.a(ieee80211.o)
                                                  /home/stoffer/esp8266/esp-open-sdk/sdk/lib/libmain.a(eagle_lwip_if.o)
                                                  /home/stoffer/esp8266/esp-open-sdk/sdk/lib/libmain.a(user_interface.o)
                                                  /home/stoffer/esp8266/esp-open-sdk/sdk/lib/libmain.a(app_main.o)
vPortInitialiseBlocks                             /home/stoffer/esp8266/esp-open-sdk/sdk/lib/libmain.a(mem_manager.o)
wDevCtrl                                          /home/stoffer/esp8266/esp-open-sdk/sdk/lib/libpp.a(wdev.o)
                                                  /home/stoffer/esp8266/esp-open-sdk/sdk/lib/libpp.a(pp.o)
                                                  /home/stoffer/esp8266/esp-open-sdk/sdk/lib/libpp.a(esf_buf.o)
wDevDisableRx                                     /home/stoffer/esp8266/esp-open-sdk/sdk/lib/libpp.a(wdev.o)
                                                  /home/stoffer/esp8266/esp-open-sdk/sdk/lib/libpp.a(if_hwctrl.o)
                                                  /home/stoffer/esp8266/esp-open-sdk/sdk/lib/libnet80211.a(ieee80211_hostap.o)
                                                  /home/stoffer/esp8266/esp-open-sdk/sdk/lib/libmain.a(user_interface.o)
wDevEnableRx                                      /home/stoffer/esp8266/esp-open-sdk/sdk/lib/libpp.a(wdev.o)
                                                  /home/stoffer/esp8266/esp-open-sdk/sdk/lib/libpp.a(if_hwctrl.o)
                                                  /home/stoffer/esp8266/esp-open-sdk/sdk/lib/libmain.a(user_interface.o)
                                                  /home/stoffer/esp8266/esp-open-sdk/sdk/lib/libmain.a(app_main.o)
wDevForceAck6M                                    /home/stoffer/esp8266/esp-open-sdk/sdk/lib/libpp.a(wdev.o)
wDev_AppendRxAmpduLensBlocks                      /home/stoffer/esp8266/esp-open-sdk/sdk/lib/libpp.a(wdev.o)
wDev_AppendRxBlocks                               /home/stoffer/esp8266/esp-open-sdk/sdk/lib/libpp.a(wdev.o)
                                                  /home/stoffer/esp8266/esp-open-sdk/sdk/lib/libpp.a(pp.o)
wDev_ClearBssid                                   /home/stoffer/esp8266/esp-open-sdk/sdk/lib/libpp.a(wdev.o)
wDev_ClearTxqCollisions                           /home/stoffer/esp8266/esp-open-sdk/sdk/lib/libpp.a(wdev.o)
                                                  /home/stoffer/esp8266/esp-open-sdk/sdk/lib/libpp.a(lmac.o)
wDev_ClearWaitingQueue                            /home/stoffer/esp8266/esp-open-sdk/sdk/lib/libpp.a(wdev.o)
                                                  /home/stoffer/esp8266/esp-open-sdk/sdk/lib/libpp.a(lmac.o)
wDev_Crypto_Conf                                  /home/stoffer/esp8266/esp-open-sdk/sdk/lib/libpp.a(wdev.o)
                                                  /home/stoffer/esp8266/esp-open-sdk/sdk/lib/libpp.a(if_hwctrl.o)
wDev_Crypto_Disable                               /home/stoffer/esp8266/esp-open-sdk/sdk/lib/libpp.a(wdev.o)
                                                  /home/stoffer/esp8266/esp-open-sdk/sdk/lib/libpp.a(if_hwctrl.o)
wDev_DisableTransmit                              /home/stoffer/esp8266/esp-open-sdk/sdk/lib/libpp.a(wdev.o)
wDev_DisableUcRx                                  /home/stoffer/esp8266/esp-open-sdk/sdk/lib/libpp.a(wdev.o)
                                                  /home/stoffer/esp8266/esp-open-sdk/sdk/lib/libnet80211.a(ieee80211_sta.o)
                                                  /home/stoffer/esp8266/esp-open-sdk/sdk/lib/libnet80211.a(ieee80211_hostap.o)
wDev_Disable_Beacon_Tsf                           /home/stoffer/esp8266/esp-open-sdk/sdk/lib/libpp.a(wdev.o)
wDev_EnableTransmit                               /home/stoffer/esp8266/esp-open-sdk/sdk/lib/libpp.a(wdev.o)
                                                  /home/stoffer/esp8266/esp-open-sdk/sdk/lib/libpp.a(lmac.o)
wDev_EnableUcRx                                   /home/stoffer/esp8266/esp-open-sdk/sdk/lib/libpp.a(wdev.o)
                                                  /home/stoffer/esp8266/esp-open-sdk/sdk/lib/libnet80211.a(ieee80211_sta.o)
                                                  /home/stoffer/esp8266/esp-open-sdk/sdk/lib/libnet80211.a(ieee80211_hostap.o)
wDev_Enable_Beacon_Tsf                            /home/stoffer/esp8266/esp-open-sdk/sdk/lib/libpp.a(wdev.o)
wDev_GetBAInfo                                    /home/stoffer/esp8266/esp-open-sdk/sdk/lib/libpp.a(wdev.o)
                                                  /home/stoffer/esp8266/esp-open-sdk/sdk/lib/libpp.a(lmac.o)
wDev_GetTxqCollisions                             /home/stoffer/esp8266/esp-open-sdk/sdk/lib/libpp.a(wdev.o)
                                                  /home/stoffer/esp8266/esp-open-sdk/sdk/lib/libpp.a(lmac.o)
wDev_Get_Next_TBTT                                /home/stoffer/esp8266/esp-open-sdk/sdk/lib/libpp.a(wdev.o)
                                                  /home/stoffer/esp8266/esp-open-sdk/sdk/lib/libnet80211.a(ieee80211_hostap.o)
wDev_Initialize                                   /home/stoffer/esp8266/esp-open-sdk/sdk/lib/libpp.a(wdev.o)
                                                  /home/stoffer/esp8266/esp-open-sdk/sdk/lib/libmain.a(app_main.o)
wDev_Insert_KeyEntry                              /home/stoffer/esp8266/esp-open-sdk/sdk/lib/libpp.a(wdev.o)
                                                  /home/stoffer/esp8266/esp-open-sdk/sdk/lib/libpp.a(if_hwctrl.o)
wDev_Is_Mac_Key_Exist                             /home/stoffer/esp8266/esp-open-sdk/sdk/lib/libpp.a(wdev.o)
wDev_MacTim1Arm                                   /home/stoffer/esp8266/esp-open-sdk/sdk/lib/libpp.a(wdev.o)
                                                  /home/stoffer/esp8266/esp-open-sdk/sdk/lib/libpp.a(pp.o)
wDev_MacTim1SetFunc                               /home/stoffer/esp8266/esp-open-sdk/sdk/lib/libpp.a(wdev.o)
                                                  /home/stoffer/esp8266/esp-open-sdk/sdk/lib/libpp.a(pp.o)
wDev_Option_Init                                  /home/stoffer/esp8266/esp-open-sdk/sdk/lib/libpp.a(wdev.o)
wDev_ProcessCollision                             /home/stoffer/esp8266/esp-open-sdk/sdk/lib/libpp.a(wdev.o)
                                                  /home/stoffer/esp8266/esp-open-sdk/sdk/lib/libpp.a(lmac.o)
wDev_ProcessFiq                                   /home/stoffer/esp8266/esp-open-sdk/sdk/lib/libpp.a(wdev.o)
                                                  /home/stoffer/esp8266/esp-open-sdk/sdk/lib/libmain.a(app_main.o)
wDev_Reset_TBTT                                   /home/stoffer/esp8266/esp-open-sdk/sdk/lib/libpp.a(wdev.o)
                                                  /home/stoffer/esp8266/esp-open-sdk/sdk/lib/libnet80211.a(ieee80211_hostap.o)
wDev_SetBssid                                     /home/stoffer/esp8266/esp-open-sdk/sdk/lib/libpp.a(wdev.o)
wDev_SetFrameAckType                              /home/stoffer/esp8266/esp-open-sdk/sdk/lib/libpp.a(wdev.o)
                                                  /home/stoffer/esp8266/esp-open-sdk/sdk/lib/libpp.a(lmac.o)
wDev_SetMacAddress                                /home/stoffer/esp8266/esp-open-sdk/sdk/lib/libpp.a(wdev.o)
                                                  /home/stoffer/esp8266/esp-open-sdk/sdk/lib/libpp.a(if_hwctrl.o)
                                                  /home/stoffer/esp8266/esp-open-sdk/sdk/lib/libmain.a(user_interface.o)
wDev_SetRxPolicy                                  /home/stoffer/esp8266/esp-open-sdk/sdk/lib/libpp.a(wdev.o)
                                                  /home/stoffer/esp8266/esp-open-sdk/sdk/lib/libpp.a(if_hwctrl.o)
                                                  /home/stoffer/esp8266/esp-open-sdk/sdk/lib/libnet80211.a(wl_cnx.o)
                                                  /home/stoffer/esp8266/esp-open-sdk/sdk/lib/libnet80211.a(ieee80211_scan.o)
                                                  /home/stoffer/esp8266/esp-open-sdk/sdk/lib/libnet80211.a(ieee80211_hostap.o)
wDev_SetWaitingQueue                              /home/stoffer/esp8266/esp-open-sdk/sdk/lib/libpp.a(wdev.o)
                                                  /home/stoffer/esp8266/esp-open-sdk/sdk/lib/libpp.a(lmac.o)
wDev_Set_Beacon_Int                               /home/stoffer/esp8266/esp-open-sdk/sdk/lib/libpp.a(wdev.o)
                                                  /home/stoffer/esp8266/esp-open-sdk/sdk/lib/libnet80211.a(ieee80211_hostap.o)
                                                  /home/stoffer/esp8266/esp-open-sdk/sdk/lib/libmain.a(user_interface.o)
                                                  /home/stoffer/esp8266/esp-open-sdk/sdk/lib/libmain.a(app_main.o)
wDev_remove_KeyEntry                              /home/stoffer/esp8266/esp-open-sdk/sdk/lib/libpp.a(wdev.o)
                                                  /home/stoffer/esp8266/esp-open-sdk/sdk/lib/libpp.a(if_hwctrl.o)
                                                  /home/stoffer/esp8266/esp-open-sdk/sdk/lib/libwpa.a(wpa_main.o)
                                                  /home/stoffer/esp8266/esp-open-sdk/sdk/lib/libnet80211.a(wl_cnx.o)
wDev_remove_KeyEntry_all_cnx                      /home/stoffer/esp8266/esp-open-sdk/sdk/lib/libpp.a(wdev.o)
                                                  /home/stoffer/esp8266/esp-open-sdk/sdk/lib/libnet80211.a(wl_cnx.o)
                                                  /home/stoffer/esp8266/esp-open-sdk/sdk/lib/libnet80211.a(ieee80211_hostap.o)
w_to_kw_str                                       build/app_app.a(utils.o)
wait_rfpll_cal_end                                /home/stoffer/esp8266/esp-open-sdk/sdk/lib/libphy.a(phy_chip_v6_ana.o)
                                                  /home/stoffer/esp8266/esp-open-sdk/sdk/lib/libphy.a(phy_chip_v6.o)
watchdog_list                                     build/app_app.a(watchdog.o)
watchdog_list_len                                 build/app_app.a(watchdog.o)
wdev_exit_sniffer                                 /home/stoffer/esp8266/esp-open-sdk/sdk/lib/libpp.a(wdev.o)
                                                  /home/stoffer/esp8266/esp-open-sdk/sdk/lib/libmain.a(user_interface.o)
wdev_go_sniffer                                   /home/stoffer/esp8266/esp-open-sdk/sdk/lib/libpp.a(wdev.o)
                                                  /home/stoffer/esp8266/esp-open-sdk/sdk/lib/libmain.a(user_interface.o)
wdev_set_sniffer_addr                             /home/stoffer/esp8266/esp-open-sdk/sdk/lib/libpp.a(wdev.o)
wdt_feed                                          /home/stoffer/esp8266/esp-open-sdk/sdk/lib/libmain.a(app_main.o)
wdt_init                                          /home/stoffer/esp8266/esp-open-sdk/sdk/lib/libmain.a(app_main.o)
wep                                               /home/stoffer/esp8266/esp-open-sdk/sdk/lib/libnet80211.a(ieee80211_crypto_wep.o)
                                                  /home/stoffer/esp8266/esp-open-sdk/sdk/lib/libwpa.a(wpa_main.o)
                                                  /home/stoffer/esp8266/esp-open-sdk/sdk/lib/libwpa.a(wpa_auth.o)
wifiScanDoneCb                                    build/app_app.a(cgiwifi.o)
wifi_cb                                           build/app_app.a(wifi.o)
wifi_changed_cb                                   build/app_app.a(user_main.o)
wifi_check_regdomain_param                        /home/stoffer/esp8266/esp-open-sdk/sdk/lib/libmain.a(user_interface.o)
wifi_connect                                      build/app_app.a(wifi.o)
                                                  build/app_app.a(user_main.o)
wifi_default                                      build/app_app.a(wifi.o)
wifi_disable_gpio_wakeup                          /home/stoffer/esp8266/esp-open-sdk/sdk/lib/libmain.a(user_interface.o)
wifi_enable_6m_rate                               /home/stoffer/esp8266/esp-open-sdk/sdk/lib/libmain.a(user_interface.o)
wifi_enable_gpio_wakeup                           /home/stoffer/esp8266/esp-open-sdk/sdk/lib/libmain.a(user_interface.o)
wifi_fallback                                     build/app_app.a(wifi.o)
wifi_fallback_last_present                        build/app_app.a(wifi.o)
wifi_fallback_present                             build/app_app.a(wifi.o)
wifi_fpm_auto_sleep_set_in_null_mode              /home/stoffer/esp8266/esp-open-sdk/sdk/lib/libpp.a(pm_for_bcn_only_mode.o)
wifi_fpm_close                                    /home/stoffer/esp8266/esp-open-sdk/sdk/lib/libpp.a(pm_for_bcn_only_mode.o)
wifi_fpm_do_sleep                                 /home/stoffer/esp8266/esp-open-sdk/sdk/lib/libpp.a(pm_for_bcn_only_mode.o)
                                                  /home/stoffer/esp8266/esp-open-sdk/sdk/lib/libmain.a(user_interface.o)
wifi_fpm_do_wakeup                                /home/stoffer/esp8266/esp-open-sdk/sdk/lib/libpp.a(pm_for_bcn_only_mode.o)
wifi_fpm_get_sleep_type                           /home/stoffer/esp8266/esp-open-sdk/sdk/lib/libpp.a(pm_for_bcn_only_mode.o)
wifi_fpm_open                                     /home/stoffer/esp8266/esp-open-sdk/sdk/lib/libpp.a(pm_for_bcn_only_mode.o)
                                                  /home/stoffer/esp8266/esp-open-sdk/sdk/lib/libmain.a(user_interface.o)
wifi_fpm_set_sleep_type                           /home/stoffer/esp8266/esp-open-sdk/sdk/lib/libpp.a(pm_for_bcn_only_mode.o)
                                                  /home/stoffer/esp8266/esp-open-sdk/sdk/lib/libmain.a(user_interface.o)
wifi_fpm_set_wakeup_cb                            /home/stoffer/esp8266/esp-open-sdk/sdk/lib/libpp.a(pm_for_bcn_only_mode.o)
wifi_get_broadcast_if                             /home/stoffer/esp8266/esp-open-sdk/sdk/lib/libmain.a(user_interface.o)
wifi_get_channel                                  /home/stoffer/esp8266/esp-open-sdk/sdk/lib/libmain.a(user_interface.o)
wifi_get_ip_info                                  /home/stoffer/esp8266/esp-open-sdk/sdk/lib/libmain.a(user_interface.o)
                                                  build/app_app.a(captdns.o)
                                                  /home/stoffer/esp8266/esp-open-sdk/sdk/lib/liblwip.a(espconn_udp.o)
                                                  /home/stoffer/esp8266/esp-open-sdk/sdk/lib/liblwip.a(espconn.o)
                                                  /home/stoffer/esp8266/esp-open-sdk/sdk/lib/liblwip.a(dhcpserver.o)
wifi_get_macaddr                                  /home/stoffer/esp8266/esp-open-sdk/sdk/lib/libmain.a(user_interface.o)
                                                  /home/stoffer/esp8266/esp-open-sdk/sdk/lib/libnet80211.a(ieee80211_output.o)
                                                  /home/stoffer/esp8266/esp-open-sdk/sdk/lib/libnet80211.a(ieee80211_hostap.o)
wifi_get_opmode                                   /home/stoffer/esp8266/esp-open-sdk/sdk/lib/libmain.a(user_interface.o)
                                                  build/app_app.a(cgiwifi.o)
                                                  /home/stoffer/esp8266/esp-open-sdk/sdk/lib/libpp.a(pm_for_bcn_only_mode.o)
                                                  /home/stoffer/esp8266/esp-open-sdk/sdk/lib/liblwip.a(espconn_udp.o)
                                                  /home/stoffer/esp8266/esp-open-sdk/sdk/lib/liblwip.a(espconn.o)
                                                  /home/stoffer/esp8266/esp-open-sdk/sdk/lib/liblwip.a(dhcpserver.o)
                                                  /home/stoffer/esp8266/esp-open-sdk/sdk/lib/libnet80211.a(ieee80211_action_vendor.o)
                                                  /home/stoffer/esp8266/esp-open-sdk/sdk/lib/libnet80211.a(wl_cnx.o)
                                                  /home/stoffer/esp8266/esp-open-sdk/sdk/lib/libnet80211.a(ieee80211_scan.o)
                                                  /home/stoffer/esp8266/esp-open-sdk/sdk/lib/libnet80211.a(ieee80211_hostap.o)
wifi_get_opmode_default                           /home/stoffer/esp8266/esp-open-sdk/sdk/lib/libmain.a(user_interface.o)
wifi_get_phy_mode                                 /home/stoffer/esp8266/esp-open-sdk/sdk/lib/libmain.a(user_interface.o)
wifi_get_regdomain                                /home/stoffer/esp8266/esp-open-sdk/sdk/lib/libmain.a(user_interface.o)
wifi_get_rssi                                     build/app_app.a(wifi.o)
                                                  build/app_app.a(user_main.o)
wifi_get_sleep_type                               /home/stoffer/esp8266/esp-open-sdk/sdk/lib/libmain.a(user_interface.o)
wifi_get_user_fixed_rate                          /home/stoffer/esp8266/esp-open-sdk/sdk/lib/libmain.a(user_interface.o)
wifi_get_user_ie                                  /home/stoffer/esp8266/esp-open-sdk/sdk/lib/libmain.a(user_interface.o)
wifi_get_user_limit_rate_mask                     /home/stoffer/esp8266/esp-open-sdk/sdk/lib/libmain.a(user_interface.o)
wifi_handle_event_cb                              build/app_app.a(wifi.o)
wifi_mode_set                                     /home/stoffer/esp8266/esp-open-sdk/sdk/lib/libnet80211.a(ieee80211.o)
                                                  /home/stoffer/esp8266/esp-open-sdk/sdk/lib/libmain.a(user_interface.o)
                                                  /home/stoffer/esp8266/esp-open-sdk/sdk/lib/libmain.a(app_main.o)
wifi_param_save_protect_with_check                /home/stoffer/esp8266/esp-open-sdk/sdk/lib/libmain.a(user_interface.o)
                                                  /home/stoffer/esp8266/esp-open-sdk/sdk/lib/libmain.a(app_main.o)
wifi_present                                      build/app_app.a(wifi.o)
wifi_promiscuous_enable                           /home/stoffer/esp8266/esp-open-sdk/sdk/lib/libmain.a(user_interface.o)
wifi_promiscuous_set_mac                          /home/stoffer/esp8266/esp-open-sdk/sdk/lib/libmain.a(user_interface.o)
wifi_regdomain_need_update                        /home/stoffer/esp8266/esp-open-sdk/sdk/lib/libmain.a(user_interface.o)
wifi_register_rfid_locp_recv_cb                   /home/stoffer/esp8266/esp-open-sdk/sdk/lib/libmain.a(user_interface.o)
wifi_register_send_pkt_freedom_cb                 /home/stoffer/esp8266/esp-open-sdk/sdk/lib/libmain.a(user_interface.o)
wifi_register_user_ie_manufacturer_recv_cb        /home/stoffer/esp8266/esp-open-sdk/sdk/lib/libmain.a(user_interface.o)
wifi_rfid_locp_recv_close                         /home/stoffer/esp8266/esp-open-sdk/sdk/lib/libmain.a(user_interface.o)
wifi_rfid_locp_recv_open                          /home/stoffer/esp8266/esp-open-sdk/sdk/lib/libmain.a(user_interface.o)
wifi_scan_done_cb                                 build/app_app.a(wifi.o)
wifi_scan_is_running                              build/app_app.a(wifi.o)
                                                  build/app_app.a(watchdog.o)
wifi_scan_runnning                                build/app_app.a(wifi.o)
wifi_send_pkt_freedom                             /home/stoffer/esp8266/esp-open-sdk/sdk/lib/libmain.a(user_interface.o)
wifi_set_broadcast_if                             /home/stoffer/esp8266/esp-open-sdk/sdk/lib/libmain.a(user_interface.o)
wifi_set_channel                                  /home/stoffer/esp8266/esp-open-sdk/sdk/lib/libmain.a(user_interface.o)
wifi_set_event_handler_cb                         /home/stoffer/esp8266/esp-open-sdk/sdk/lib/libmain.a(user_interface.o)
                                                  build/app_app.a(wifi.o)
wifi_set_ip_info                                  /home/stoffer/esp8266/esp-open-sdk/sdk/lib/libmain.a(user_interface.o)
wifi_set_macaddr                                  /home/stoffer/esp8266/esp-open-sdk/sdk/lib/libmain.a(user_interface.o)
wifi_set_opmode                                   /home/stoffer/esp8266/esp-open-sdk/sdk/lib/libmain.a(user_interface.o)
                                                  build/app_app.a(cgiwifi.o)
                                                  build/app_app.a(wifi.o)
wifi_set_opmode_current                           /home/stoffer/esp8266/esp-open-sdk/sdk/lib/libmain.a(user_interface.o)
                                                  build/app_app.a(wifi.o)
                                                  build/app_app.a(user_main.o)
wifi_set_phy_mode                                 /home/stoffer/esp8266/esp-open-sdk/sdk/lib/libmain.a(user_interface.o)
wifi_set_promiscuous_rx_cb                        /home/stoffer/esp8266/esp-open-sdk/sdk/lib/libmain.a(user_interface.o)
wifi_set_regdomain                                /home/stoffer/esp8266/esp-open-sdk/sdk/lib/libmain.a(user_interface.o)
wifi_set_sleep_type                               /home/stoffer/esp8266/esp-open-sdk/sdk/lib/libmain.a(user_interface.o)
wifi_set_status_led_output_level                  /home/stoffer/esp8266/esp-open-sdk/sdk/lib/libmain.a(user_interface.o)
wifi_set_user_fixed_rate                          /home/stoffer/esp8266/esp-open-sdk/sdk/lib/libmain.a(user_interface.o)
wifi_set_user_ie                                  /home/stoffer/esp8266/esp-open-sdk/sdk/lib/libmain.a(user_interface.o)
wifi_set_user_limit_rate_mask                     /home/stoffer/esp8266/esp-open-sdk/sdk/lib/libmain.a(user_interface.o)
wifi_set_user_rate_limit                          /home/stoffer/esp8266/esp-open-sdk/sdk/lib/libmain.a(user_interface.o)
wifi_set_user_sup_rate                            /home/stoffer/esp8266/esp-open-sdk/sdk/lib/libmain.a(user_interface.o)
wifi_softap_cacl_mac                              /home/stoffer/esp8266/esp-open-sdk/sdk/lib/libmain.a(user_interface.o)
                                                  /home/stoffer/esp8266/esp-open-sdk/sdk/lib/libmain.a(app_main.o)
wifi_softap_deauth                                /home/stoffer/esp8266/esp-open-sdk/sdk/lib/libmain.a(user_interface.o)
                                                  /home/stoffer/esp8266/esp-open-sdk/sdk/lib/libnet80211.a(ieee80211_scan.o)
wifi_softap_dhcps_client_leave                    /home/stoffer/esp8266/esp-open-sdk/sdk/lib/liblwip.a(dhcpserver.o)
wifi_softap_dhcps_client_update                   /home/stoffer/esp8266/esp-open-sdk/sdk/lib/liblwip.a(dhcpserver.o)
wifi_softap_dhcps_start                           /home/stoffer/esp8266/esp-open-sdk/sdk/lib/libmain.a(user_interface.o)
wifi_softap_dhcps_status                          /home/stoffer/esp8266/esp-open-sdk/sdk/lib/libmain.a(user_interface.o)
                                                  /home/stoffer/esp8266/esp-open-sdk/sdk/lib/liblwip.a(dhcpserver.o)
wifi_softap_dhcps_stop                            /home/stoffer/esp8266/esp-open-sdk/sdk/lib/libmain.a(user_interface.o)
wifi_softap_free_station_info                     /home/stoffer/esp8266/esp-open-sdk/sdk/lib/libmain.a(user_interface.o)
wifi_softap_get_beacon_only_mode                  /home/stoffer/esp8266/esp-open-sdk/sdk/lib/libmain.a(user_interface.o)
wifi_softap_get_config                            /home/stoffer/esp8266/esp-open-sdk/sdk/lib/libmain.a(user_interface.o)
                                                  build/app_app.a(user_main.o)
wifi_softap_get_config_default                    /home/stoffer/esp8266/esp-open-sdk/sdk/lib/libmain.a(user_interface.o)
wifi_softap_get_dhcps_lease                       /home/stoffer/esp8266/esp-open-sdk/sdk/lib/liblwip.a(dhcpserver.o)
wifi_softap_get_dhcps_lease_time                  /home/stoffer/esp8266/esp-open-sdk/sdk/lib/liblwip.a(dhcpserver.o)
wifi_softap_get_station_info                      /home/stoffer/esp8266/esp-open-sdk/sdk/lib/libmain.a(user_interface.o)
wifi_softap_get_station_num                       /home/stoffer/esp8266/esp-open-sdk/sdk/lib/libmain.a(user_interface.o)
wifi_softap_reset_dhcps_lease_time                /home/stoffer/esp8266/esp-open-sdk/sdk/lib/liblwip.a(dhcpserver.o)
wifi_softap_set_beacon_only_mode                  /home/stoffer/esp8266/esp-open-sdk/sdk/lib/libmain.a(user_interface.o)
wifi_softap_set_config                            /home/stoffer/esp8266/esp-open-sdk/sdk/lib/libmain.a(user_interface.o)
wifi_softap_set_config_current                    /home/stoffer/esp8266/esp-open-sdk/sdk/lib/libmain.a(user_interface.o)
                                                  build/app_app.a(user_main.o)
wifi_softap_set_default_ssid                      /home/stoffer/esp8266/esp-open-sdk/sdk/lib/libmain.a(user_interface.o)
                                                  /home/stoffer/esp8266/esp-open-sdk/sdk/lib/libmain.a(app_main.o)
wifi_softap_set_dhcps_lease                       /home/stoffer/esp8266/esp-open-sdk/sdk/lib/liblwip.a(dhcpserver.o)
wifi_softap_set_dhcps_lease_time                  /home/stoffer/esp8266/esp-open-sdk/sdk/lib/liblwip.a(dhcpserver.o)
wifi_softap_set_dhcps_offer_option                /home/stoffer/esp8266/esp-open-sdk/sdk/lib/liblwip.a(dhcpserver.o)
wifi_softap_set_station_info                      /home/stoffer/esp8266/esp-open-sdk/sdk/lib/libmain.a(user_interface.o)
                                                  /home/stoffer/esp8266/esp-open-sdk/sdk/lib/liblwip.a(dhcpserver.o)
wifi_softap_staconnected_event_policy             /home/stoffer/esp8266/esp-open-sdk/sdk/lib/libnet80211.a(wl_cnx.o)
wifi_softap_start                                 /home/stoffer/esp8266/esp-open-sdk/sdk/lib/libnet80211.a(ieee80211_hostap.o)
                                                  /home/stoffer/esp8266/esp-open-sdk/sdk/lib/libmain.a(user_interface.o)
                                                  /home/stoffer/esp8266/esp-open-sdk/sdk/lib/libmain.a(app_main.o)
wifi_softap_stop                                  /home/stoffer/esp8266/esp-open-sdk/sdk/lib/libnet80211.a(ieee80211_hostap.o)
                                                  /home/stoffer/esp8266/esp-open-sdk/sdk/lib/libmain.a(user_interface.o)
wifi_softap_toomany_deny                          /home/stoffer/esp8266/esp-open-sdk/sdk/lib/libnet80211.a(wl_cnx.o)
wifi_start_scan                                   build/app_app.a(wifi.o)
                                                  build/app_app.a(watchdog.o)
wifi_station_ap_change                            /home/stoffer/esp8266/esp-open-sdk/sdk/lib/libmain.a(user_interface.o)
wifi_station_ap_check                             /home/stoffer/esp8266/esp-open-sdk/sdk/lib/libmain.a(user_interface.o)
wifi_station_ap_number_set                        /home/stoffer/esp8266/esp-open-sdk/sdk/lib/libmain.a(user_interface.o)
wifi_station_connect                              /home/stoffer/esp8266/esp-open-sdk/sdk/lib/libmain.a(user_interface.o)
                                                  build/app_app.a(watchdog.o)
                                                  build/app_app.a(wifi.o)
                                                  /home/stoffer/esp8266/esp-open-sdk/sdk/lib/libmain.a(app_main.o)
wifi_station_dhcpc_event                          /home/stoffer/esp8266/esp-open-sdk/sdk/lib/libmain.a(user_interface.o)
                                                  /home/stoffer/esp8266/esp-open-sdk/sdk/lib/libmain.a(eagle_lwip_if.o)
wifi_station_dhcpc_set_maxtry                     /home/stoffer/esp8266/esp-open-sdk/sdk/lib/libmain.a(user_interface.o)
wifi_station_dhcpc_start                          /home/stoffer/esp8266/esp-open-sdk/sdk/lib/libmain.a(user_interface.o)
wifi_station_dhcpc_status                         /home/stoffer/esp8266/esp-open-sdk/sdk/lib/libmain.a(user_interface.o)
                                                  /home/stoffer/esp8266/esp-open-sdk/sdk/lib/libmain.a(eagle_lwip_if.o)
wifi_station_dhcpc_stop                           /home/stoffer/esp8266/esp-open-sdk/sdk/lib/libmain.a(user_interface.o)
wifi_station_disconnect                           /home/stoffer/esp8266/esp-open-sdk/sdk/lib/libmain.a(user_interface.o)
                                                  build/app_app.a(watchdog.o)
                                                  build/app_app.a(wifi.o)
                                                  /home/stoffer/esp8266/esp-open-sdk/sdk/lib/libnet80211.a(ieee80211_sta.o)
                                                  /home/stoffer/esp8266/esp-open-sdk/sdk/lib/libnet80211.a(ieee80211_scan.o)
wifi_station_get_ap_info                          /home/stoffer/esp8266/esp-open-sdk/sdk/lib/libmain.a(user_interface.o)
wifi_station_get_auto_connect                     /home/stoffer/esp8266/esp-open-sdk/sdk/lib/libmain.a(user_interface.o)
                                                  /home/stoffer/esp8266/esp-open-sdk/sdk/lib/libmain.a(app_main.o)
wifi_station_get_config                           /home/stoffer/esp8266/esp-open-sdk/sdk/lib/libmain.a(user_interface.o)
                                                  build/app_app.a(wifi.o)
                                                  /home/stoffer/esp8266/esp-open-sdk/sdk/lib/libnet80211.a(wl_cnx.o)
wifi_station_get_config_default                   /home/stoffer/esp8266/esp-open-sdk/sdk/lib/libmain.a(user_interface.o)
wifi_station_get_connect_status                   /home/stoffer/esp8266/esp-open-sdk/sdk/lib/libmain.a(user_interface.o)
                                                  build/app_app.a(wifi.o)
                                                  /home/stoffer/esp8266/esp-open-sdk/sdk/lib/liblwip.a(espconn.o)
wifi_station_get_current_ap_id                    /home/stoffer/esp8266/esp-open-sdk/sdk/lib/libmain.a(user_interface.o)
wifi_station_get_hostname                         /home/stoffer/esp8266/esp-open-sdk/sdk/lib/libmain.a(user_interface.o)
wifi_station_get_reconnect_policy                 /home/stoffer/esp8266/esp-open-sdk/sdk/lib/libmain.a(user_interface.o)
                                                  /home/stoffer/esp8266/esp-open-sdk/sdk/lib/libnet80211.a(wl_cnx.o)
                                                  /home/stoffer/esp8266/esp-open-sdk/sdk/lib/libnet80211.a(ieee80211_sta.o)
                                                  /home/stoffer/esp8266/esp-open-sdk/sdk/lib/libnet80211.a(ieee80211_scan.o)
wifi_station_get_rssi                             /home/stoffer/esp8266/esp-open-sdk/sdk/lib/libmain.a(user_interface.o)
                                                  build/app_app.a(wifi.o)
wifi_station_restore_config                       /home/stoffer/esp8266/esp-open-sdk/sdk/lib/libmain.a(user_interface.o)
wifi_station_save_bssid                           /home/stoffer/esp8266/esp-open-sdk/sdk/lib/libmain.a(user_interface.o)
                                                  /home/stoffer/esp8266/esp-open-sdk/sdk/lib/libwpa.a(wpa_main.o)
wifi_station_save_pmk2cache                       /home/stoffer/esp8266/esp-open-sdk/sdk/lib/libmain.a(user_interface.o)
                                                  /home/stoffer/esp8266/esp-open-sdk/sdk/lib/libwpa.a(wpa.o)
wifi_station_scan                                 /home/stoffer/esp8266/esp-open-sdk/sdk/lib/libmain.a(user_interface.o)
                                                  build/app_app.a(cgiwifi.o)
                                                  build/app_app.a(wifi.o)
wifi_station_set_auto_connect                     /home/stoffer/esp8266/esp-open-sdk/sdk/lib/libmain.a(user_interface.o)
                                                  build/app_app.a(wifi.o)
wifi_station_set_config                           /home/stoffer/esp8266/esp-open-sdk/sdk/lib/libmain.a(user_interface.o)
                                                  build/app_app.a(wifi.o)
wifi_station_set_config_current                   /home/stoffer/esp8266/esp-open-sdk/sdk/lib/libmain.a(user_interface.o)
                                                  build/app_app.a(wifi.o)
                                                  /home/stoffer/esp8266/esp-open-sdk/sdk/lib/libnet80211.a(wl_cnx.o)
wifi_station_set_default_hostname                 /home/stoffer/esp8266/esp-open-sdk/sdk/lib/libmain.a(user_interface.o)
                                                  /home/stoffer/esp8266/esp-open-sdk/sdk/lib/libmain.a(eagle_lwip_if.o)
                                                  /home/stoffer/esp8266/esp-open-sdk/sdk/lib/libmain.a(app_main.o)
wifi_station_set_hostname                         /home/stoffer/esp8266/esp-open-sdk/sdk/lib/libmain.a(user_interface.o)
wifi_station_set_reconnect_policy                 /home/stoffer/esp8266/esp-open-sdk/sdk/lib/libmain.a(user_interface.o)
wifi_station_start                                /home/stoffer/esp8266/esp-open-sdk/sdk/lib/libnet80211.a(ieee80211_sta.o)
                                                  /home/stoffer/esp8266/esp-open-sdk/sdk/lib/libmain.a(user_interface.o)
                                                  /home/stoffer/esp8266/esp-open-sdk/sdk/lib/libmain.a(app_main.o)
wifi_station_stop                                 /home/stoffer/esp8266/esp-open-sdk/sdk/lib/libnet80211.a(ieee80211_sta.o)
                                                  /home/stoffer/esp8266/esp-open-sdk/sdk/lib/libmain.a(user_interface.o)
wifi_status_led_install                           /home/stoffer/esp8266/esp-open-sdk/sdk/lib/libmain.a(user_interface.o)
wifi_status_led_uninstall                         /home/stoffer/esp8266/esp-open-sdk/sdk/lib/libmain.a(user_interface.o)
wifi_stop_scan                                    build/app_app.a(wifi.o)
                                                  build/app_app.a(watchdog.o)
wifi_unregister_rfid_locp_recv_cb                 /home/stoffer/esp8266/esp-open-sdk/sdk/lib/libmain.a(user_interface.o)
wifi_unregister_send_pkt_freedom_cb               /home/stoffer/esp8266/esp-open-sdk/sdk/lib/libmain.a(user_interface.o)
wifi_unregister_user_ie_manufacturer_recv_cb      /home/stoffer/esp8266/esp-open-sdk/sdk/lib/libmain.a(user_interface.o)
wpa_add_kde                                       /home/stoffer/esp8266/esp-open-sdk/sdk/lib/libwpa.a(wpa_auth_ie.o)
                                                  /home/stoffer/esp8266/esp-open-sdk/sdk/lib/libwpa.a(wpa_auth.o)
wpa_attach                                        /home/stoffer/esp8266/esp-open-sdk/sdk/lib/libwpa.a(wpa_main.o)
                                                  /home/stoffer/esp8266/esp-open-sdk/sdk/lib/libnet80211.a(ieee80211_sta.o)
wpa_auth_for_each_sta                             /home/stoffer/esp8266/esp-open-sdk/sdk/lib/libwpa.a(wpa_auth.o)
wpa_auth_gen_wpa_ie                               /home/stoffer/esp8266/esp-open-sdk/sdk/lib/libwpa.a(wpa_auth_ie.o)
                                                  /home/stoffer/esp8266/esp-open-sdk/sdk/lib/libwpa.a(wpa_auth.o)
wpa_auth_sm_event                                 /home/stoffer/esp8266/esp-open-sdk/sdk/lib/libwpa.a(wpa_auth.o)
wpa_auth_sta_associated                           /home/stoffer/esp8266/esp-open-sdk/sdk/lib/libwpa.a(wpa_auth.o)
                                                  /home/stoffer/esp8266/esp-open-sdk/sdk/lib/libnet80211.a(wl_cnx.o)
wpa_auth_sta_deinit                               /home/stoffer/esp8266/esp-open-sdk/sdk/lib/libwpa.a(wpa_auth.o)
                                                  /home/stoffer/esp8266/esp-open-sdk/sdk/lib/libnet80211.a(wl_cnx.o)
wpa_auth_sta_init                                 /home/stoffer/esp8266/esp-open-sdk/sdk/lib/libwpa.a(wpa_auth.o)
                                                  /home/stoffer/esp8266/esp-open-sdk/sdk/lib/libnet80211.a(wl_cnx.o)
wpa_auth_sta_no_wpa                               /home/stoffer/esp8266/esp-open-sdk/sdk/lib/libwpa.a(wpa_auth.o)
wpa_auth_uses_mfp                                 /home/stoffer/esp8266/esp-open-sdk/sdk/lib/libwpa.a(wpa_auth_ie.o)
wpa_cipher_key_len                                /home/stoffer/esp8266/esp-open-sdk/sdk/lib/libwpa.a(wpa_common.o)
                                                  /home/stoffer/esp8266/esp-open-sdk/sdk/lib/libwpa.a(wpa_auth.o)
wpa_cipher_put_suites                             /home/stoffer/esp8266/esp-open-sdk/sdk/lib/libwpa.a(wpa_common.o)
                                                  /home/stoffer/esp8266/esp-open-sdk/sdk/lib/libwpa.a(wpa_auth_ie.o)
wpa_cipher_to_alg                                 /home/stoffer/esp8266/esp-open-sdk/sdk/lib/libwpa.a(wpa_common.o)
                                                  /home/stoffer/esp8266/esp-open-sdk/sdk/lib/libwpa.a(wpa_auth.o)
wpa_cipher_to_suite                               /home/stoffer/esp8266/esp-open-sdk/sdk/lib/libwpa.a(wpa_common.o)
                                                  /home/stoffer/esp8266/esp-open-sdk/sdk/lib/libwpa.a(wpa_auth_ie.o)
wpa_compare_rsn_ie                                /home/stoffer/esp8266/esp-open-sdk/sdk/lib/libwpa.a(wpa_common.o)
                                                  /home/stoffer/esp8266/esp-open-sdk/sdk/lib/libwpa.a(wpa.o)
                                                  /home/stoffer/esp8266/esp-open-sdk/sdk/lib/libwpa.a(wpa_auth.o)
wpa_config_assoc_ie                               /home/stoffer/esp8266/esp-open-sdk/sdk/lib/libwpa.a(wpa_main.o)
wpa_config_bss                                    /home/stoffer/esp8266/esp-open-sdk/sdk/lib/libwpa.a(wpa_main.o)
                                                  /home/stoffer/esp8266/esp-open-sdk/sdk/lib/libnet80211.a(wl_cnx.o)
                                                  /home/stoffer/esp8266/esp-open-sdk/sdk/lib/libnet80211.a(ieee80211_sta.o)
wpa_config_parse_string                           /home/stoffer/esp8266/esp-open-sdk/sdk/lib/libwpa.a(common.o)
                                                  /home/stoffer/esp8266/esp-open-sdk/sdk/lib/libnet80211.a(ieee80211_scan.o)
wpa_config_profile                                /home/stoffer/esp8266/esp-open-sdk/sdk/lib/libwpa.a(wpa_main.o)
                                                  /home/stoffer/esp8266/esp-open-sdk/sdk/lib/libnet80211.a(wl_cnx.o)
wpa_eapol_key_mic                                 /home/stoffer/esp8266/esp-open-sdk/sdk/lib/libwpa.a(wpa_common.o)
                                                  /home/stoffer/esp8266/esp-open-sdk/sdk/lib/libwpa.a(wpa.o)
                                                  /home/stoffer/esp8266/esp-open-sdk/sdk/lib/libwpa.a(wpa_auth.o)
wpa_gen_wpa_ie                                    /home/stoffer/esp8266/esp-open-sdk/sdk/lib/libwpa.a(wpa_ie.o)
                                                  /home/stoffer/esp8266/esp-open-sdk/sdk/lib/libwpa.a(wpa.o)
wpa_get_ntp_timestamp                             /home/stoffer/esp8266/esp-open-sdk/sdk/lib/libwpa.a(common.o)
                                                  /home/stoffer/esp8266/esp-open-sdk/sdk/lib/libwpa.a(wpa_auth.o)
wpa_init                                          /home/stoffer/esp8266/esp-open-sdk/sdk/lib/libwpa.a(wpa_auth.o)
                                                  /home/stoffer/esp8266/esp-open-sdk/sdk/lib/libnet80211.a(ieee80211_hostap.o)
wpa_neg_complete                                  /home/stoffer/esp8266/esp-open-sdk/sdk/lib/libwpa.a(wpa_main.o)
wpa_parse_kde_ies                                 /home/stoffer/esp8266/esp-open-sdk/sdk/lib/libwpa.a(wpa_auth_ie.o)
                                                  /home/stoffer/esp8266/esp-open-sdk/sdk/lib/libwpa.a(wpa_auth.o)
wpa_parse_wpa_ie                                  /home/stoffer/esp8266/esp-open-sdk/sdk/lib/libwpa.a(wpa_ie.o)
                                                  /home/stoffer/esp8266/esp-open-sdk/sdk/lib/libnet80211.a(ieee80211_scan.o)
wpa_parse_wpa_ie_rsn                              /home/stoffer/esp8266/esp-open-sdk/sdk/lib/libwpa.a(wpa_common.o)
                                                  /home/stoffer/esp8266/esp-open-sdk/sdk/lib/libwpa.a(wpa_ie.o)
                                                  /home/stoffer/esp8266/esp-open-sdk/sdk/lib/libwpa.a(wpa_auth_ie.o)
wpa_parse_wpa_ie_wpa                              /home/stoffer/esp8266/esp-open-sdk/sdk/lib/libwpa.a(wpa_common.o)
                                                  /home/stoffer/esp8266/esp-open-sdk/sdk/lib/libwpa.a(wpa_ie.o)
                                                  /home/stoffer/esp8266/esp-open-sdk/sdk/lib/libwpa.a(wpa_auth_ie.o)
wpa_pmk_to_ptk                                    /home/stoffer/esp8266/esp-open-sdk/sdk/lib/libwpa.a(wpa_common.o)
                                                  /home/stoffer/esp8266/esp-open-sdk/sdk/lib/libwpa.a(wpa.o)
                                                  /home/stoffer/esp8266/esp-open-sdk/sdk/lib/libwpa.a(wpa_auth.o)
wpa_receive                                       /home/stoffer/esp8266/esp-open-sdk/sdk/lib/libwpa.a(wpa_auth.o)
                                                  /home/stoffer/esp8266/esp-open-sdk/sdk/lib/libnet80211.a(ieee80211_hostap.o)
wpa_register                                      /home/stoffer/esp8266/esp-open-sdk/sdk/lib/libwpa.a(wpa.o)
                                                  /home/stoffer/esp8266/esp-open-sdk/sdk/lib/libwpa.a(wpa_main.o)
wpa_remove_ptk                                    /home/stoffer/esp8266/esp-open-sdk/sdk/lib/libwpa.a(wpa_auth.o)
wpa_set_bss                                       /home/stoffer/esp8266/esp-open-sdk/sdk/lib/libwpa.a(wpa.o)
                                                  /home/stoffer/esp8266/esp-open-sdk/sdk/lib/libwpa.a(wpa_main.o)
wpa_set_pmk                                       /home/stoffer/esp8266/esp-open-sdk/sdk/lib/libwpa.a(wpa.o)
wpa_set_profile                                   /home/stoffer/esp8266/esp-open-sdk/sdk/lib/libwpa.a(wpa.o)
                                                  /home/stoffer/esp8266/esp-open-sdk/sdk/lib/libwpa.a(wpa_main.o)
wpa_sm_alloc_eapol                                /home/stoffer/esp8266/esp-open-sdk/sdk/lib/libwpa.a(wpas_glue.o)
                                                  /home/stoffer/esp8266/esp-open-sdk/sdk/lib/libwpa.a(wpa.o)
wpa_sm_deauthenticate                             /home/stoffer/esp8266/esp-open-sdk/sdk/lib/libwpa.a(wpas_glue.o)
                                                  /home/stoffer/esp8266/esp-open-sdk/sdk/lib/libwpa.a(wpa.o)
wpa_sm_disassociate                               /home/stoffer/esp8266/esp-open-sdk/sdk/lib/libwpa.a(wpas_glue.o)
                                                  /home/stoffer/esp8266/esp-open-sdk/sdk/lib/libwpa.a(wpa.o)
wpa_sm_get_beacon_ie                              /home/stoffer/esp8266/esp-open-sdk/sdk/lib/libwpa.a(wpas_glue.o)
                                                  /home/stoffer/esp8266/esp-open-sdk/sdk/lib/libwpa.a(wpa.o)
wpa_sm_mlme_setprotection                         /home/stoffer/esp8266/esp-open-sdk/sdk/lib/libwpa.a(wpas_glue.o)
                                                  /home/stoffer/esp8266/esp-open-sdk/sdk/lib/libwpa.a(wpa.o)
wpa_sm_rx_eapol                                   /home/stoffer/esp8266/esp-open-sdk/sdk/lib/libwpa.a(wpa.o)
                                                  /home/stoffer/esp8266/esp-open-sdk/sdk/lib/libnet80211.a(ieee80211_sta.o)
wpa_sm_set_state                                  /home/stoffer/esp8266/esp-open-sdk/sdk/lib/libwpa.a(wpa.o)
wpa_snprintf_hex                                  /home/stoffer/esp8266/esp-open-sdk/sdk/lib/libwpa.a(wpa_debug.o)
wpa_snprintf_hex_uppercase                        /home/stoffer/esp8266/esp-open-sdk/sdk/lib/libwpa.a(wpa_debug.o)
wpa_supplicant_parse_ies                          /home/stoffer/esp8266/esp-open-sdk/sdk/lib/libwpa.a(wpa_ie.o)
                                                  /home/stoffer/esp8266/esp-open-sdk/sdk/lib/libwpa.a(wpa.o)
wpa_validate_wpa_ie                               /home/stoffer/esp8266/esp-open-sdk/sdk/lib/libwpa.a(wpa_auth_ie.o)
                                                  /home/stoffer/esp8266/esp-open-sdk/sdk/lib/libnet80211.a(wl_cnx.o)
wpa_write_rsn_ie                                  /home/stoffer/esp8266/esp-open-sdk/sdk/lib/libwpa.a(wpa_auth_ie.o)
write_data_to_rtc                                 /home/stoffer/esp8266/esp-open-sdk/sdk/lib/libphy.a(phy_chip_v6.o)
                                                  /home/stoffer/esp8266/esp-open-sdk/sdk/lib/libmain.a(app_main.o)
xPortGetFreeHeapSize                              /home/stoffer/esp8266/esp-open-sdk/sdk/lib/libmain.a(mem_manager.o)
                                                  /home/stoffer/esp8266/esp-open-sdk/sdk/lib/libmain.a(user_interface.o)
xPortWantedSizeAlign                              /home/stoffer/esp8266/esp-open-sdk/sdk/lib/libmain.a(mem_manager.o)
                                                  /home/stoffer/esp8266/esp-open-sdk/sdk/lib/libmain.a(user_interface.o)
xthal_set_intclear                                /home/stoffer/esp8266/esp-open-sdk/xtensa-lx106-elf/xtensa-lx106-elf/sysroot/usr/lib/libhal.a(int_asm--set_intclear.o)
                                                  /home/stoffer/esp8266/esp-open-sdk/sdk/lib/libmain.a(app_main.o)
